ARM GAS  C:\Users\zack.li\AppData\Local\Temp\ccTyLy6m.s 			page 1


   1              		.syntax unified
   2              		.cpu cortex-m0plus
   3              		.fpu softvfp
   4              		.eabi_attribute 20, 1
   5              		.eabi_attribute 21, 1
   6              		.eabi_attribute 23, 3
   7              		.eabi_attribute 24, 1
   8              		.eabi_attribute 25, 1
   9              		.eabi_attribute 26, 1
  10              		.eabi_attribute 30, 4
  11              		.eabi_attribute 34, 0
  12              		.eabi_attribute 18, 4
  13              		.thumb
  14              		.syntax unified
  15              		.file	"CapSense_SensingCSD_LL.c"
  16              		.text
  17              	.Ltext0:
  18              		.cfi_sections	.debug_frame
  19              		.section	.text.CapSense_SsCSDSetShieldElectrodesState,"ax",%progbits
  20              		.align	1
  21              		.global	CapSense_SsCSDSetShieldElectrodesState
  22              		.code	16
  23              		.thumb_func
  24              		.type	CapSense_SsCSDSetShieldElectrodesState, %function
  25              	CapSense_SsCSDSetShieldElectrodesState:
  26              	.LFB4:
  27              		.file 1 "Generated_Source\\PSoC4\\CapSense_SensingCSD_LL.c"
   1:Generated_Source\PSoC4/CapSense_SensingCSD_LL.c **** /***************************************************************************//**
   2:Generated_Source\PSoC4/CapSense_SensingCSD_LL.c **** * \file CapSense_SensingCSD_LL.c
   3:Generated_Source\PSoC4/CapSense_SensingCSD_LL.c **** * \version 7.0
   4:Generated_Source\PSoC4/CapSense_SensingCSD_LL.c **** *
   5:Generated_Source\PSoC4/CapSense_SensingCSD_LL.c **** * \brief
   6:Generated_Source\PSoC4/CapSense_SensingCSD_LL.c **** *   This file defines the data structure global variables and provides
   7:Generated_Source\PSoC4/CapSense_SensingCSD_LL.c **** *   implementation for the low-level APIs of the CSD part of
   8:Generated_Source\PSoC4/CapSense_SensingCSD_LL.c **** *   the Sensing module. The file contains the APIs used for the CSD block
   9:Generated_Source\PSoC4/CapSense_SensingCSD_LL.c **** *   initialization, calibration, and scanning.
  10:Generated_Source\PSoC4/CapSense_SensingCSD_LL.c **** *
  11:Generated_Source\PSoC4/CapSense_SensingCSD_LL.c **** * \see CapSense v7.0 Datasheet
  12:Generated_Source\PSoC4/CapSense_SensingCSD_LL.c **** *
  13:Generated_Source\PSoC4/CapSense_SensingCSD_LL.c **** *//*****************************************************************************
  14:Generated_Source\PSoC4/CapSense_SensingCSD_LL.c **** * Copyright (2016-2019), Cypress Semiconductor Corporation.
  15:Generated_Source\PSoC4/CapSense_SensingCSD_LL.c **** ********************************************************************************
  16:Generated_Source\PSoC4/CapSense_SensingCSD_LL.c **** * This software is owned by Cypress Semiconductor Corporation (Cypress) and is
  17:Generated_Source\PSoC4/CapSense_SensingCSD_LL.c **** * protected by and subject to worldwide patent protection (United States and
  18:Generated_Source\PSoC4/CapSense_SensingCSD_LL.c **** * foreign), United States copyright laws and international treaty provisions.
  19:Generated_Source\PSoC4/CapSense_SensingCSD_LL.c **** * Cypress hereby grants to licensee a personal, non-exclusive, non-transferable
  20:Generated_Source\PSoC4/CapSense_SensingCSD_LL.c **** * license to copy, use, modify, create derivative works of, and compile the
  21:Generated_Source\PSoC4/CapSense_SensingCSD_LL.c **** * Cypress Source Code and derivative works for the sole purpose of creating
  22:Generated_Source\PSoC4/CapSense_SensingCSD_LL.c **** * custom software in support of licensee product to be used only in conjunction
  23:Generated_Source\PSoC4/CapSense_SensingCSD_LL.c **** * with a Cypress integrated circuit as specified in the applicable agreement.
  24:Generated_Source\PSoC4/CapSense_SensingCSD_LL.c **** * Any reproduction, modification, translation, compilation, or representation of
  25:Generated_Source\PSoC4/CapSense_SensingCSD_LL.c **** * this software except as specified above is prohibited without the express
  26:Generated_Source\PSoC4/CapSense_SensingCSD_LL.c **** * written permission of Cypress.
  27:Generated_Source\PSoC4/CapSense_SensingCSD_LL.c **** *
  28:Generated_Source\PSoC4/CapSense_SensingCSD_LL.c **** * Disclaimer: CYPRESS MAKES NO WARRANTY OF ANY KIND, EXPRESS OR IMPLIED, WITH
  29:Generated_Source\PSoC4/CapSense_SensingCSD_LL.c **** * REGARD TO THIS MATERIAL, INCLUDING, BUT NOT LIMITED TO, THE IMPLIED
  30:Generated_Source\PSoC4/CapSense_SensingCSD_LL.c **** * WARRANTIES OF MERCHANTABILITY AND FITNESS FOR A PARTICULAR PURPOSE.
ARM GAS  C:\Users\zack.li\AppData\Local\Temp\ccTyLy6m.s 			page 2


  31:Generated_Source\PSoC4/CapSense_SensingCSD_LL.c **** * Cypress reserves the right to make changes without further notice to the
  32:Generated_Source\PSoC4/CapSense_SensingCSD_LL.c **** * materials described herein. Cypress does not assume any liability arising out
  33:Generated_Source\PSoC4/CapSense_SensingCSD_LL.c **** * of the application or use of any product or circuit described herein. Cypress
  34:Generated_Source\PSoC4/CapSense_SensingCSD_LL.c **** * does not authorize its products for use as critical components in life-support
  35:Generated_Source\PSoC4/CapSense_SensingCSD_LL.c **** * systems where a malfunction or failure may reasonably be expected to result in
  36:Generated_Source\PSoC4/CapSense_SensingCSD_LL.c **** * significant injury to the user. The inclusion of Cypress' product in a life-
  37:Generated_Source\PSoC4/CapSense_SensingCSD_LL.c **** * support systems application implies that the manufacturer assumes all risk of
  38:Generated_Source\PSoC4/CapSense_SensingCSD_LL.c **** * such use and in doing so indemnifies Cypress against all charges. Use may be
  39:Generated_Source\PSoC4/CapSense_SensingCSD_LL.c **** * limited by and subject to the applicable Cypress software license agreement.
  40:Generated_Source\PSoC4/CapSense_SensingCSD_LL.c **** *******************************************************************************/
  41:Generated_Source\PSoC4/CapSense_SensingCSD_LL.c **** #include "CapSense_Structure.h"
  42:Generated_Source\PSoC4/CapSense_SensingCSD_LL.c **** #include "CapSense_Configuration.h"
  43:Generated_Source\PSoC4/CapSense_SensingCSD_LL.c **** #include "CapSense_SensingCSD_LL.h"
  44:Generated_Source\PSoC4/CapSense_SensingCSD_LL.c **** #if (CapSense_ENABLE == CapSense_SELF_TEST_EN)
  45:Generated_Source\PSoC4/CapSense_SensingCSD_LL.c ****     #include "CapSense_SelfTest.h"
  46:Generated_Source\PSoC4/CapSense_SensingCSD_LL.c **** #endif
  47:Generated_Source\PSoC4/CapSense_SensingCSD_LL.c **** 
  48:Generated_Source\PSoC4/CapSense_SensingCSD_LL.c **** #include "cyapicallbacks.h"
  49:Generated_Source\PSoC4/CapSense_SensingCSD_LL.c **** 
  50:Generated_Source\PSoC4/CapSense_SensingCSD_LL.c **** #if (CapSense_ENABLE == CapSense_CSD_EN)
  51:Generated_Source\PSoC4/CapSense_SensingCSD_LL.c **** 
  52:Generated_Source\PSoC4/CapSense_SensingCSD_LL.c **** /***************************************
  53:Generated_Source\PSoC4/CapSense_SensingCSD_LL.c **** * API Constants
  54:Generated_Source\PSoC4/CapSense_SensingCSD_LL.c **** ***************************************/
  55:Generated_Source\PSoC4/CapSense_SensingCSD_LL.c **** 
  56:Generated_Source\PSoC4/CapSense_SensingCSD_LL.c **** #if (CapSense_ENABLE == CapSense_CSDV2)
  57:Generated_Source\PSoC4/CapSense_SensingCSD_LL.c **** 
  58:Generated_Source\PSoC4/CapSense_SensingCSD_LL.c ****     #if (CapSense_ENABLE == CapSense_CSD_AUTO_ZERO_EN)
  59:Generated_Source\PSoC4/CapSense_SensingCSD_LL.c ****         #define CapSense_CSD_AZ_ENABLE_CFG                  (CapSense_CSD_AZ_EN_MASK)
  60:Generated_Source\PSoC4/CapSense_SensingCSD_LL.c ****     #else
  61:Generated_Source\PSoC4/CapSense_SensingCSD_LL.c ****         #define CapSense_CSD_AZ_ENABLE_CFG                  (0uL)
  62:Generated_Source\PSoC4/CapSense_SensingCSD_LL.c ****     #endif /* (CapSense_ENABLE == CapSense_CSD_AUTO_ZERO_EN) */
  63:Generated_Source\PSoC4/CapSense_SensingCSD_LL.c **** 
  64:Generated_Source\PSoC4/CapSense_SensingCSD_LL.c ****     #if (CapSense_IDAC_SINKING == CapSense_CSD_IDAC_CONFIG)
  65:Generated_Source\PSoC4/CapSense_SensingCSD_LL.c ****         #define CapSense_HSCMP_SCAN_MASK                    (CapSense_HSCMP_EN_MASK | CapSense_CSD_
  66:Generated_Source\PSoC4/CapSense_SensingCSD_LL.c ****                                                                      CapSense_HSCMP_INVERT_MASK)
  67:Generated_Source\PSoC4/CapSense_SensingCSD_LL.c ****     #else
  68:Generated_Source\PSoC4/CapSense_SensingCSD_LL.c ****         #define CapSense_HSCMP_SCAN_MASK                    (CapSense_HSCMP_EN_MASK | CapSense_CSD_
  69:Generated_Source\PSoC4/CapSense_SensingCSD_LL.c ****     #endif /* (CapSense_IDAC_SINKING == CapSense_CSD_IDAC_CONFIG) */
  70:Generated_Source\PSoC4/CapSense_SensingCSD_LL.c **** 
  71:Generated_Source\PSoC4/CapSense_SensingCSD_LL.c ****     #define CapSense_HSCMP_INIT_MASK                        (CapSense_HSCMP_EN_MASK | CapSense_CSD_
  72:Generated_Source\PSoC4/CapSense_SensingCSD_LL.c **** 
  73:Generated_Source\PSoC4/CapSense_SensingCSD_LL.c ****     #define CapSense_DEFAULT_SW_SHIELD_SEL                  (0x00000000uL)
  74:Generated_Source\PSoC4/CapSense_SensingCSD_LL.c ****     #define CapSense_DEFAULT_CSD_SW_DSI_SEL                 (CapSense_SW_DSI_SEL_CMODPAD | CapSense
  75:Generated_Source\PSoC4/CapSense_SensingCSD_LL.c ****     #define CapSense_DEFAULT_CSD_INTR_SET                   (0x00000000uL)
  76:Generated_Source\PSoC4/CapSense_SensingCSD_LL.c ****     #define CapSense_DEFAULT_SW_HS_P_SEL                    (0x00000000uL)
  77:Generated_Source\PSoC4/CapSense_SensingCSD_LL.c ****     #define CapSense_DEFAULT_SW_HS_N_SEL                    (0x00000000uL)
  78:Generated_Source\PSoC4/CapSense_SensingCSD_LL.c ****     #define CapSense_DEFAULT_CSD_SW_FW_TANK_SEL             (0x00000000uL)
  79:Generated_Source\PSoC4/CapSense_SensingCSD_LL.c ****     #define CapSense_DEFAULT_CSD_ADC_CTL                    (0x00000000uL)
  80:Generated_Source\PSoC4/CapSense_SensingCSD_LL.c ****     #define CapSense_DEFAULT_HSCMP_CFG                      (0x00000000uL)
  81:Generated_Source\PSoC4/CapSense_SensingCSD_LL.c **** 
  82:Generated_Source\PSoC4/CapSense_SensingCSD_LL.c ****     /* CY_ID285392 */
  83:Generated_Source\PSoC4/CapSense_SensingCSD_LL.c ****     #define CapSense_FILTER_DELAY_MAX                   (CapSense_CONFIG_FILTER_DELAY_4_CYCLES)
  84:Generated_Source\PSoC4/CapSense_SensingCSD_LL.c ****     #define CapSense_EXTRA_COUNTS_MAX                   (CapSense_FILTER_DELAY_MAX + 5u + 20u)
  85:Generated_Source\PSoC4/CapSense_SensingCSD_LL.c **** 
  86:Generated_Source\PSoC4/CapSense_SensingCSD_LL.c **** #else
  87:Generated_Source\PSoC4/CapSense_SensingCSD_LL.c **** 
ARM GAS  C:\Users\zack.li\AppData\Local\Temp\ccTyLy6m.s 			page 3


  88:Generated_Source\PSoC4/CapSense_SensingCSD_LL.c ****     /* Set IDAC ranges */
  89:Generated_Source\PSoC4/CapSense_SensingCSD_LL.c ****     #if (CapSense_IDAC_GAIN_8X == CapSense_CSD_IDAC_GAIN)
  90:Generated_Source\PSoC4/CapSense_SensingCSD_LL.c ****         #define CapSense_DEFAULT_IDAC_MOD_RANGE         (CapSense_IDAC_MOD_RANGE_MASK)
  91:Generated_Source\PSoC4/CapSense_SensingCSD_LL.c ****         #define CapSense_DEFAULT_IDAC_COMP_RANGE        (CapSense_IDAC_COMP_RANGE_MASK)
  92:Generated_Source\PSoC4/CapSense_SensingCSD_LL.c ****     #else
  93:Generated_Source\PSoC4/CapSense_SensingCSD_LL.c ****         #define CapSense_DEFAULT_IDAC_MOD_RANGE         (0u)
  94:Generated_Source\PSoC4/CapSense_SensingCSD_LL.c ****         #define CapSense_DEFAULT_IDAC_COMP_RANGE        (0u)
  95:Generated_Source\PSoC4/CapSense_SensingCSD_LL.c ****     #endif /* (CapSense_IDAC_GAIN_8X == CapSense_CSD_IDAC_GAIN) */
  96:Generated_Source\PSoC4/CapSense_SensingCSD_LL.c **** 
  97:Generated_Source\PSoC4/CapSense_SensingCSD_LL.c ****     /* Defining default IDACs configuration according to settings in customizer. */
  98:Generated_Source\PSoC4/CapSense_SensingCSD_LL.c ****     #if (CapSense_ENABLE == CapSense_CSD_IDAC_COMP_EN)
  99:Generated_Source\PSoC4/CapSense_SensingCSD_LL.c ****         #define CapSense_DEFAULT_CSD_IDAC_CONFIG        (CapSense_IDAC_MOD_MODE_VARIABLE |\
 100:Generated_Source\PSoC4/CapSense_SensingCSD_LL.c ****                                                                  CapSense_IDAC_COMP_MODE_FIXED |\
 101:Generated_Source\PSoC4/CapSense_SensingCSD_LL.c ****                                                                  CapSense_DEFAULT_IDAC_MOD_RANGE |\
 102:Generated_Source\PSoC4/CapSense_SensingCSD_LL.c ****                                                                  CapSense_DEFAULT_IDAC_COMP_RANGE)
 103:Generated_Source\PSoC4/CapSense_SensingCSD_LL.c ****     #else
 104:Generated_Source\PSoC4/CapSense_SensingCSD_LL.c ****         #define CapSense_DEFAULT_CSD_IDAC_CONFIG        (CapSense_IDAC_MOD_MODE_VARIABLE |\
 105:Generated_Source\PSoC4/CapSense_SensingCSD_LL.c ****                                                                  CapSense_DEFAULT_IDAC_MOD_RANGE)
 106:Generated_Source\PSoC4/CapSense_SensingCSD_LL.c ****     #endif /* (CapSense_ENABLE == CapSense_CSD_IDAC_COMP_EN) */
 107:Generated_Source\PSoC4/CapSense_SensingCSD_LL.c **** 
 108:Generated_Source\PSoC4/CapSense_SensingCSD_LL.c **** #endif /* (CapSense_ENABLE == CapSense_CSDV2) */
 109:Generated_Source\PSoC4/CapSense_SensingCSD_LL.c **** 
 110:Generated_Source\PSoC4/CapSense_SensingCSD_LL.c **** 
 111:Generated_Source\PSoC4/CapSense_SensingCSD_LL.c **** /***************************************
 112:Generated_Source\PSoC4/CapSense_SensingCSD_LL.c **** * Variables
 113:Generated_Source\PSoC4/CapSense_SensingCSD_LL.c **** ***************************************/
 114:Generated_Source\PSoC4/CapSense_SensingCSD_LL.c **** 
 115:Generated_Source\PSoC4/CapSense_SensingCSD_LL.c **** #if (CapSense_ENABLE == CapSense_CSDV2)
 116:Generated_Source\PSoC4/CapSense_SensingCSD_LL.c ****     uint32 CapSense_configCsd = CapSense_DEFAULT_CSD_CONFIG;
 117:Generated_Source\PSoC4/CapSense_SensingCSD_LL.c **** #else
 118:Generated_Source\PSoC4/CapSense_SensingCSD_LL.c ****     uint32 CapSense_configCsd = CapSense_DEFAULT_CSD_CONFIG | CapSense_DEFAULT_MODULATION_MODE;
 119:Generated_Source\PSoC4/CapSense_SensingCSD_LL.c ****     static uint32 CapSense_counterResolution = CapSense_CNT_RESOLUTION_12_BITS;
 120:Generated_Source\PSoC4/CapSense_SensingCSD_LL.c **** #endif /* (CapSense_ENABLE == CapSense_CSDV2) */
 121:Generated_Source\PSoC4/CapSense_SensingCSD_LL.c **** 
 122:Generated_Source\PSoC4/CapSense_SensingCSD_LL.c **** /* Flag to indicate electrodes that were connected previously */
 123:Generated_Source\PSoC4/CapSense_SensingCSD_LL.c **** static uint8 CapSense_eleCsdDisconnectFlag = 0u;
 124:Generated_Source\PSoC4/CapSense_SensingCSD_LL.c **** #if ((CapSense_ENABLE == CapSense_CSDV2) && (CapSense_ENABLE == CapSense_CSD_NOISE_METRIC_EN))
 125:Generated_Source\PSoC4/CapSense_SensingCSD_LL.c ****     /* Number of re-samplings when the bad conversion occurs */
 126:Generated_Source\PSoC4/CapSense_SensingCSD_LL.c ****     uint8 CapSense_badConversionsNum = CapSense_BAD_CONVERSIONS_NUM;
 127:Generated_Source\PSoC4/CapSense_SensingCSD_LL.c **** #endif /* ((CapSense_ENABLE == CapSense_CSDV2) && (CapSense_ENABLE == CapSense_CSD_NOISE_METRIC_EN)
 128:Generated_Source\PSoC4/CapSense_SensingCSD_LL.c **** 
 129:Generated_Source\PSoC4/CapSense_SensingCSD_LL.c **** 
 130:Generated_Source\PSoC4/CapSense_SensingCSD_LL.c **** /*******************************************************************************
 131:Generated_Source\PSoC4/CapSense_SensingCSD_LL.c **** * Static Function Prototypes
 132:Generated_Source\PSoC4/CapSense_SensingCSD_LL.c **** *******************************************************************************/
 133:Generated_Source\PSoC4/CapSense_SensingCSD_LL.c **** 
 134:Generated_Source\PSoC4/CapSense_SensingCSD_LL.c **** /**
 135:Generated_Source\PSoC4/CapSense_SensingCSD_LL.c **** * \cond SECTION_C_INTERNAL
 136:Generated_Source\PSoC4/CapSense_SensingCSD_LL.c **** * \addtogroup group_c_internal
 137:Generated_Source\PSoC4/CapSense_SensingCSD_LL.c **** * \{
 138:Generated_Source\PSoC4/CapSense_SensingCSD_LL.c **** */
 139:Generated_Source\PSoC4/CapSense_SensingCSD_LL.c **** 
 140:Generated_Source\PSoC4/CapSense_SensingCSD_LL.c **** #if (CapSense_ENABLE == CapSense_CSD_SHIELD_EN)
 141:Generated_Source\PSoC4/CapSense_SensingCSD_LL.c ****     static void CapSense_SsSetShieldDelay(uint32 delay);
 142:Generated_Source\PSoC4/CapSense_SensingCSD_LL.c ****     #if (CapSense_ENABLE == CapSense_CSD_SHIELD_TANK_EN)
 143:Generated_Source\PSoC4/CapSense_SensingCSD_LL.c ****         static void CapSense_SsCSDEnableShieldTank(void);
 144:Generated_Source\PSoC4/CapSense_SensingCSD_LL.c ****     #endif /* (CapSense_ENABLE == CapSense_CSD_SHIELD_TANK_EN) */
ARM GAS  C:\Users\zack.li\AppData\Local\Temp\ccTyLy6m.s 			page 4


 145:Generated_Source\PSoC4/CapSense_SensingCSD_LL.c **** #endif /* (CapSense_ENABLE == CapSense_CSD_SHIELD_EN) */
 146:Generated_Source\PSoC4/CapSense_SensingCSD_LL.c **** 
 147:Generated_Source\PSoC4/CapSense_SensingCSD_LL.c **** #if ((CapSense_CSD_SS_DIS != CapSense_CSD_AUTOTUNE) || \
 148:Generated_Source\PSoC4/CapSense_SensingCSD_LL.c ****      (CapSense_ENABLE == CapSense_CSD_IDAC_AUTOCAL_EN))
 149:Generated_Source\PSoC4/CapSense_SensingCSD_LL.c ****     static cystatus CapSense_SsCSDCalibrateCheck(uint32 widgetId, uint32 target);
 150:Generated_Source\PSoC4/CapSense_SensingCSD_LL.c ****     static void CapSense_SsCSDCalibrate(uint32 widgetId, uint32 target);
 151:Generated_Source\PSoC4/CapSense_SensingCSD_LL.c ****     #if (CapSense_ENABLE == CapSense_CSD_IDAC_COMP_EN)
 152:Generated_Source\PSoC4/CapSense_SensingCSD_LL.c ****         static void CapSense_SsCSDNormalizeIdac(CapSense_FLASH_WD_STRUCT const *ptrFlashWidget, uin
 153:Generated_Source\PSoC4/CapSense_SensingCSD_LL.c ****     #endif
 154:Generated_Source\PSoC4/CapSense_SensingCSD_LL.c ****     #if (CapSense_ENABLE == CapSense_CSD_IDAC_AUTO_GAIN_EN)
 155:Generated_Source\PSoC4/CapSense_SensingCSD_LL.c ****         static uint32 CapSense_SsCSDSwitchIdacGain(CapSense_FLASH_WD_STRUCT const *ptrFlashWidget);
 156:Generated_Source\PSoC4/CapSense_SensingCSD_LL.c ****     #endif
 157:Generated_Source\PSoC4/CapSense_SensingCSD_LL.c **** #endif /* ((CapSense_CSD_SS_DIS != CapSense_CSD_AUTOTUNE) || \
 158:Generated_Source\PSoC4/CapSense_SensingCSD_LL.c ****            (CapSense_ENABLE == CapSense_CSD_IDAC_AUTOCAL_EN))  */
 159:Generated_Source\PSoC4/CapSense_SensingCSD_LL.c **** 
 160:Generated_Source\PSoC4/CapSense_SensingCSD_LL.c **** #if (CapSense_ENABLE == CapSense_CSDV2)
 161:Generated_Source\PSoC4/CapSense_SensingCSD_LL.c ****     static void CapSense_SsCSDSetFilterDelay(void);
 162:Generated_Source\PSoC4/CapSense_SensingCSD_LL.c **** #else
 163:Generated_Source\PSoC4/CapSense_SensingCSD_LL.c ****     CY_INLINE static void CapSense_SsCSDClockRestart(void);
 164:Generated_Source\PSoC4/CapSense_SensingCSD_LL.c **** #endif /* (CapSense_ENABLE == CapSense_CSDV2) */
 165:Generated_Source\PSoC4/CapSense_SensingCSD_LL.c **** CY_INLINE static void CapSense_SsCSDCmodPrecharge(void);
 166:Generated_Source\PSoC4/CapSense_SensingCSD_LL.c **** CY_INLINE static void CapSense_SsCSDTriggerScan(void);
 167:Generated_Source\PSoC4/CapSense_SensingCSD_LL.c **** static void CapSense_SsCSDConfigIDACs(void);
 168:Generated_Source\PSoC4/CapSense_SensingCSD_LL.c **** static void CapSense_SsCSDSetModeSnsClockDivider(uint32 snsClkSource, uint32 snsClkDivider);
 169:Generated_Source\PSoC4/CapSense_SensingCSD_LL.c **** 
 170:Generated_Source\PSoC4/CapSense_SensingCSD_LL.c **** /** \}
 171:Generated_Source\PSoC4/CapSense_SensingCSD_LL.c **** * \endcond */
 172:Generated_Source\PSoC4/CapSense_SensingCSD_LL.c **** 
 173:Generated_Source\PSoC4/CapSense_SensingCSD_LL.c **** 
 174:Generated_Source\PSoC4/CapSense_SensingCSD_LL.c **** #if (CapSense_ENABLE == CapSense_CSD_SHIELD_EN)
 175:Generated_Source\PSoC4/CapSense_SensingCSD_LL.c ****     /*******************************************************************************
 176:Generated_Source\PSoC4/CapSense_SensingCSD_LL.c ****     * Function Name: CapSense_SsSetShieldDelay
 177:Generated_Source\PSoC4/CapSense_SensingCSD_LL.c ****     ****************************************************************************//**
 178:Generated_Source\PSoC4/CapSense_SensingCSD_LL.c ****     *
 179:Generated_Source\PSoC4/CapSense_SensingCSD_LL.c ****     * \brief
 180:Generated_Source\PSoC4/CapSense_SensingCSD_LL.c ****     *   This is an internal function that sets a shield delay.
 181:Generated_Source\PSoC4/CapSense_SensingCSD_LL.c ****     *
 182:Generated_Source\PSoC4/CapSense_SensingCSD_LL.c ****     * \details
 183:Generated_Source\PSoC4/CapSense_SensingCSD_LL.c ****     *   The function updates the CSD configuration register bits that define the shield
 184:Generated_Source\PSoC4/CapSense_SensingCSD_LL.c ****     *   signal delay relatively to the sense signal.
 185:Generated_Source\PSoC4/CapSense_SensingCSD_LL.c ****     *
 186:Generated_Source\PSoC4/CapSense_SensingCSD_LL.c ****     * \param delay
 187:Generated_Source\PSoC4/CapSense_SensingCSD_LL.c ****     *   Specifies the shield delay value:
 188:Generated_Source\PSoC4/CapSense_SensingCSD_LL.c ****     *    PSoC 4100/4200 value interpretation:
 189:Generated_Source\PSoC4/CapSense_SensingCSD_LL.c ****     *         0 - no delay
 190:Generated_Source\PSoC4/CapSense_SensingCSD_LL.c ****     *         1 - 1 cycle of HFCLK
 191:Generated_Source\PSoC4/CapSense_SensingCSD_LL.c ****     *         2 - 2 cycles of HFCLK
 192:Generated_Source\PSoC4/CapSense_SensingCSD_LL.c ****     *    Third-generation HW block (except 4100/4200 devices):
 193:Generated_Source\PSoC4/CapSense_SensingCSD_LL.c ****     *         0 - no delay
 194:Generated_Source\PSoC4/CapSense_SensingCSD_LL.c ****     *         3 - 10ns delay
 195:Generated_Source\PSoC4/CapSense_SensingCSD_LL.c ****     *         2 - 50ns delay
 196:Generated_Source\PSoC4/CapSense_SensingCSD_LL.c ****     *    Fourth-generation HW block:
 197:Generated_Source\PSoC4/CapSense_SensingCSD_LL.c ****     *         0 - no delay
 198:Generated_Source\PSoC4/CapSense_SensingCSD_LL.c ****     *         1 - 5ns delay
 199:Generated_Source\PSoC4/CapSense_SensingCSD_LL.c ****     *         2 - 10ns delay
 200:Generated_Source\PSoC4/CapSense_SensingCSD_LL.c ****     *         3 - 20ns delay
 201:Generated_Source\PSoC4/CapSense_SensingCSD_LL.c ****     *
ARM GAS  C:\Users\zack.li\AppData\Local\Temp\ccTyLy6m.s 			page 5


 202:Generated_Source\PSoC4/CapSense_SensingCSD_LL.c ****     *******************************************************************************/
 203:Generated_Source\PSoC4/CapSense_SensingCSD_LL.c ****     static void CapSense_SsSetShieldDelay(uint32 delay)
 204:Generated_Source\PSoC4/CapSense_SensingCSD_LL.c ****     {
 205:Generated_Source\PSoC4/CapSense_SensingCSD_LL.c ****         /* Update CSD config register shield delay bits with shield delay value */
 206:Generated_Source\PSoC4/CapSense_SensingCSD_LL.c ****         CapSense_configCsd &= (uint32)(~CapSense_CONFIG_SHIELD_DELAY_MASK);
 207:Generated_Source\PSoC4/CapSense_SensingCSD_LL.c ****         CapSense_configCsd |= (delay << CapSense_SHIELD_DELAY_SHIFT);
 208:Generated_Source\PSoC4/CapSense_SensingCSD_LL.c ****     }
 209:Generated_Source\PSoC4/CapSense_SensingCSD_LL.c **** 
 210:Generated_Source\PSoC4/CapSense_SensingCSD_LL.c ****     #if (CapSense_ENABLE == CapSense_CSD_SHIELD_TANK_EN)
 211:Generated_Source\PSoC4/CapSense_SensingCSD_LL.c ****         /*******************************************************************************
 212:Generated_Source\PSoC4/CapSense_SensingCSD_LL.c ****         * Function Name: CapSense_SsCSDEnableShieldTank
 213:Generated_Source\PSoC4/CapSense_SensingCSD_LL.c ****         ****************************************************************************//**
 214:Generated_Source\PSoC4/CapSense_SensingCSD_LL.c ****         *
 215:Generated_Source\PSoC4/CapSense_SensingCSD_LL.c ****         * \brief
 216:Generated_Source\PSoC4/CapSense_SensingCSD_LL.c ****         *   This function configures Csh pin
 217:Generated_Source\PSoC4/CapSense_SensingCSD_LL.c ****         *
 218:Generated_Source\PSoC4/CapSense_SensingCSD_LL.c ****         * \details
 219:Generated_Source\PSoC4/CapSense_SensingCSD_LL.c ****         *   The function updates the CSH_HSIOM register to connect Csh to AMUXBUS-B.
 220:Generated_Source\PSoC4/CapSense_SensingCSD_LL.c ****         *   For Third-generation HW block it additionally sets Strong drive mode for Csh
 221:Generated_Source\PSoC4/CapSense_SensingCSD_LL.c ****         *   and applies High level to Csh pin when precharge is set to IO buffer.
 222:Generated_Source\PSoC4/CapSense_SensingCSD_LL.c ****         *
 223:Generated_Source\PSoC4/CapSense_SensingCSD_LL.c ****         *******************************************************************************/
 224:Generated_Source\PSoC4/CapSense_SensingCSD_LL.c ****         static void CapSense_SsCSDEnableShieldTank(void)
 225:Generated_Source\PSoC4/CapSense_SensingCSD_LL.c ****         {
 226:Generated_Source\PSoC4/CapSense_SensingCSD_LL.c ****             /* Update the CSH_HSIOM register to connect Csh to AMUXBUS-B */
 227:Generated_Source\PSoC4/CapSense_SensingCSD_LL.c ****             CapSense_WriteBitsSafe(CapSense_CSH_HSIOM_PTR, CapSense_CSH_HSIOM_MASK,
 228:Generated_Source\PSoC4/CapSense_SensingCSD_LL.c ****                         (uint32)(CapSense_HSIOM_SEL_AMUXB << CapSense_CSH_HSIOM_SHIFT));
 229:Generated_Source\PSoC4/CapSense_SensingCSD_LL.c **** 
 230:Generated_Source\PSoC4/CapSense_SensingCSD_LL.c ****             #if ((CapSense_CSH_PRECHARGE_IO_BUF == CapSense_CSD_CSH_PRECHARGE_SRC) &&\
 231:Generated_Source\PSoC4/CapSense_SensingCSD_LL.c ****                  (CapSense_DISABLE == CapSense_CSDV2))
 232:Generated_Source\PSoC4/CapSense_SensingCSD_LL.c ****                 /* Set Strong drive mode for Csh */
 233:Generated_Source\PSoC4/CapSense_SensingCSD_LL.c ****                 CapSense_WriteBitsSafe(CapSense_CSH_PC_PTR,
 234:Generated_Source\PSoC4/CapSense_SensingCSD_LL.c ****                             (uint32)(CapSense_CSH_PC_MASK << CapSense_CSH_PC_SHIFT),
 235:Generated_Source\PSoC4/CapSense_SensingCSD_LL.c ****                             (uint32)(CapSense_CSH_PC_STRONG_MODE << CapSense_CSH_PC_SHIFT));
 236:Generated_Source\PSoC4/CapSense_SensingCSD_LL.c ****                 /* Appliy High level to Csh pin for Csh */
 237:Generated_Source\PSoC4/CapSense_SensingCSD_LL.c ****                 CapSense_WriteBitsSafe(CapSense_CSH_DR_PTR, (uint32)(CapSense_DR_MASK << CapSense_C
 238:Generated_Source\PSoC4/CapSense_SensingCSD_LL.c ****             #else
 239:Generated_Source\PSoC4/CapSense_SensingCSD_LL.c ****                 /* Set output port register to 0 to connect to GND */
 240:Generated_Source\PSoC4/CapSense_SensingCSD_LL.c ****                 CapSense_WriteBitsSafe(CapSense_CSH_DR_PTR, (uint32)(CapSense_DR_MASK << CapSense_C
 241:Generated_Source\PSoC4/CapSense_SensingCSD_LL.c ****             #endif
 242:Generated_Source\PSoC4/CapSense_SensingCSD_LL.c ****         }
 243:Generated_Source\PSoC4/CapSense_SensingCSD_LL.c ****     #endif /* (CapSense_ENABLE == CapSense_CSD_SHIELD_TANK_EN) */
 244:Generated_Source\PSoC4/CapSense_SensingCSD_LL.c **** 
 245:Generated_Source\PSoC4/CapSense_SensingCSD_LL.c ****     #if (0u != CapSense_CSD_TOTAL_SHIELD_COUNT)
 246:Generated_Source\PSoC4/CapSense_SensingCSD_LL.c ****         /*******************************************************************************
 247:Generated_Source\PSoC4/CapSense_SensingCSD_LL.c ****         * Function Name: CapSense_SsCSDEnableShieldElectrodes
 248:Generated_Source\PSoC4/CapSense_SensingCSD_LL.c ****         ****************************************************************************//**
 249:Generated_Source\PSoC4/CapSense_SensingCSD_LL.c ****         *
 250:Generated_Source\PSoC4/CapSense_SensingCSD_LL.c ****         * \brief
 251:Generated_Source\PSoC4/CapSense_SensingCSD_LL.c ****         *   This internal function initializes Shield Electrodes.
 252:Generated_Source\PSoC4/CapSense_SensingCSD_LL.c ****         *
 253:Generated_Source\PSoC4/CapSense_SensingCSD_LL.c ****         * \details
 254:Generated_Source\PSoC4/CapSense_SensingCSD_LL.c ****         *   The function sets the bit in the HSIOM register which enables the shield electrode
 255:Generated_Source\PSoC4/CapSense_SensingCSD_LL.c ****         *   functionality on the pin. The port and pin configurations are stored in
 256:Generated_Source\PSoC4/CapSense_SensingCSD_LL.c ****         *   the CapSense_shieldIoList structure.
 257:Generated_Source\PSoC4/CapSense_SensingCSD_LL.c ****         *
 258:Generated_Source\PSoC4/CapSense_SensingCSD_LL.c ****         *******************************************************************************/
ARM GAS  C:\Users\zack.li\AppData\Local\Temp\ccTyLy6m.s 			page 6


 259:Generated_Source\PSoC4/CapSense_SensingCSD_LL.c ****         void CapSense_SsCSDEnableShieldElectrodes(void)
 260:Generated_Source\PSoC4/CapSense_SensingCSD_LL.c ****         {
 261:Generated_Source\PSoC4/CapSense_SensingCSD_LL.c ****             CapSense_SsCSDSetShieldElectrodesState(CapSense_SNS_CONNECTION_SHIELD);
 262:Generated_Source\PSoC4/CapSense_SensingCSD_LL.c ****         }
 263:Generated_Source\PSoC4/CapSense_SensingCSD_LL.c **** 
 264:Generated_Source\PSoC4/CapSense_SensingCSD_LL.c **** 
 265:Generated_Source\PSoC4/CapSense_SensingCSD_LL.c ****         /*******************************************************************************
 266:Generated_Source\PSoC4/CapSense_SensingCSD_LL.c ****         * Function Name: CapSense_SsCSDDisableShieldElectrodes
 267:Generated_Source\PSoC4/CapSense_SensingCSD_LL.c ****         ****************************************************************************//**
 268:Generated_Source\PSoC4/CapSense_SensingCSD_LL.c ****         *
 269:Generated_Source\PSoC4/CapSense_SensingCSD_LL.c ****         * \brief
 270:Generated_Source\PSoC4/CapSense_SensingCSD_LL.c ****         *   This internal function disables Shield Electrodes.
 271:Generated_Source\PSoC4/CapSense_SensingCSD_LL.c ****         *
 272:Generated_Source\PSoC4/CapSense_SensingCSD_LL.c ****         * \details
 273:Generated_Source\PSoC4/CapSense_SensingCSD_LL.c ****         *   The function resets the bit in the HSIOM register which disables the shield
 274:Generated_Source\PSoC4/CapSense_SensingCSD_LL.c ****         *   electrode functionality on the pin. The port and pin configurations are
 275:Generated_Source\PSoC4/CapSense_SensingCSD_LL.c ****         *   stored in  the CapSense_shieldIoList structure.
 276:Generated_Source\PSoC4/CapSense_SensingCSD_LL.c ****         *
 277:Generated_Source\PSoC4/CapSense_SensingCSD_LL.c ****         *******************************************************************************/
 278:Generated_Source\PSoC4/CapSense_SensingCSD_LL.c ****         void CapSense_SsCSDDisableShieldElectrodes(void)
 279:Generated_Source\PSoC4/CapSense_SensingCSD_LL.c ****         {
 280:Generated_Source\PSoC4/CapSense_SensingCSD_LL.c ****             CapSense_SsCSDSetShieldElectrodesState(CapSense_SNS_CONNECTION_GROUND);
 281:Generated_Source\PSoC4/CapSense_SensingCSD_LL.c ****         }
 282:Generated_Source\PSoC4/CapSense_SensingCSD_LL.c **** 
 283:Generated_Source\PSoC4/CapSense_SensingCSD_LL.c **** 
 284:Generated_Source\PSoC4/CapSense_SensingCSD_LL.c ****         /*******************************************************************************
 285:Generated_Source\PSoC4/CapSense_SensingCSD_LL.c ****         * Function Name: CapSense_SsCSDSetShieldElectrodesState
 286:Generated_Source\PSoC4/CapSense_SensingCSD_LL.c ****         ****************************************************************************//**
 287:Generated_Source\PSoC4/CapSense_SensingCSD_LL.c ****         *
 288:Generated_Source\PSoC4/CapSense_SensingCSD_LL.c ****         * \brief
 289:Generated_Source\PSoC4/CapSense_SensingCSD_LL.c ****         *   Sets specified shield electrode pin connection state for all dedicated
 290:Generated_Source\PSoC4/CapSense_SensingCSD_LL.c ****         *   shield electrodes.
 291:Generated_Source\PSoC4/CapSense_SensingCSD_LL.c ****         *
 292:Generated_Source\PSoC4/CapSense_SensingCSD_LL.c ****         * \details
 293:Generated_Source\PSoC4/CapSense_SensingCSD_LL.c ****         *   The function updates following registers for each shield
 294:Generated_Source\PSoC4/CapSense_SensingCSD_LL.c ****         *   electrode:
 295:Generated_Source\PSoC4/CapSense_SensingCSD_LL.c ****         *   - port configuration register
 296:Generated_Source\PSoC4/CapSense_SensingCSD_LL.c ****         *   - pin data register
 297:Generated_Source\PSoC4/CapSense_SensingCSD_LL.c ****         *   - pin HSIOM register
 298:Generated_Source\PSoC4/CapSense_SensingCSD_LL.c ****         *   The shield electrodes port and pin configuration registers addresses are
 299:Generated_Source\PSoC4/CapSense_SensingCSD_LL.c ****         *   stored in the CapSense_shieldIoList structure.
 300:Generated_Source\PSoC4/CapSense_SensingCSD_LL.c ****         *
 301:Generated_Source\PSoC4/CapSense_SensingCSD_LL.c ****         * \param state
 302:Generated_Source\PSoC4/CapSense_SensingCSD_LL.c ****         *   A new state of the shield electrodes. Available values:
 303:Generated_Source\PSoC4/CapSense_SensingCSD_LL.c ****         *   - CapSense_SNS_CONNECTION_GROUND - disconnects electrode from
 304:Generated_Source\PSoC4/CapSense_SensingCSD_LL.c ****         *       CSD hardware block and sets it to GPIO mode with Strong Drive
 305:Generated_Source\PSoC4/CapSense_SensingCSD_LL.c ****         *   - CapSense_SNS_CONNECTION_HIGHZ - disconnects electrode from
 306:Generated_Source\PSoC4/CapSense_SensingCSD_LL.c ****         *       CSD hardware block and sets it to GPIO mode with Analog Hi-Z
 307:Generated_Source\PSoC4/CapSense_SensingCSD_LL.c ****         *   - CapSense_SNS_CONNECTION_SHIELD - connects electrode to
 308:Generated_Source\PSoC4/CapSense_SensingCSD_LL.c ****         *       CSD hardware block
 309:Generated_Source\PSoC4/CapSense_SensingCSD_LL.c ****         *   - CapSense_SNS_CONNECTION_UNDEFINED - sets the same electrode
 310:Generated_Source\PSoC4/CapSense_SensingCSD_LL.c ****         *       connection as for CapSense_SNS_CONNECTION_GROUND
 311:Generated_Source\PSoC4/CapSense_SensingCSD_LL.c ****         *
 312:Generated_Source\PSoC4/CapSense_SensingCSD_LL.c ****         *******************************************************************************/
 313:Generated_Source\PSoC4/CapSense_SensingCSD_LL.c ****         void CapSense_SsCSDSetShieldElectrodesState(uint32 state)
 314:Generated_Source\PSoC4/CapSense_SensingCSD_LL.c ****         {
  28              		.loc 1 314 0
ARM GAS  C:\Users\zack.li\AppData\Local\Temp\ccTyLy6m.s 			page 7


  29              		.cfi_startproc
  30              		@ args = 0, pretend = 0, frame = 8
  31              		@ frame_needed = 0, uses_anonymous_args = 0
  32              	.LVL0:
  33 0000 F7B5     		push	{r0, r1, r2, r4, r5, r6, r7, lr}
  34              		.cfi_def_cfa_offset 32
  35              		.cfi_offset 0, -32
  36              		.cfi_offset 1, -28
  37              		.cfi_offset 2, -24
  38              		.cfi_offset 4, -20
  39              		.cfi_offset 5, -16
  40              		.cfi_offset 6, -12
  41              		.cfi_offset 7, -8
  42              		.cfi_offset 14, -4
 315:Generated_Source\PSoC4/CapSense_SensingCSD_LL.c ****             uint8  interruptState;
 316:Generated_Source\PSoC4/CapSense_SensingCSD_LL.c **** 
 317:Generated_Source\PSoC4/CapSense_SensingCSD_LL.c ****             uint32 loopIndex;
 318:Generated_Source\PSoC4/CapSense_SensingCSD_LL.c **** 
 319:Generated_Source\PSoC4/CapSense_SensingCSD_LL.c ****             uint32 newPinPcVal;
 320:Generated_Source\PSoC4/CapSense_SensingCSD_LL.c ****             uint32 newPinHsiomVal;
 321:Generated_Source\PSoC4/CapSense_SensingCSD_LL.c **** 
 322:Generated_Source\PSoC4/CapSense_SensingCSD_LL.c ****             uint32 tmpPcDrRegValue;
 323:Generated_Source\PSoC4/CapSense_SensingCSD_LL.c ****             uint32 tmpHsiomRegValue;
 324:Generated_Source\PSoC4/CapSense_SensingCSD_LL.c **** 
 325:Generated_Source\PSoC4/CapSense_SensingCSD_LL.c ****             CapSense_SHIELD_IO_STRUCT const *shieldIoPtr;
 326:Generated_Source\PSoC4/CapSense_SensingCSD_LL.c **** 
 327:Generated_Source\PSoC4/CapSense_SensingCSD_LL.c ****             switch(state)
  43              		.loc 1 327 0
  44 0002 0128     		cmp	r0, #1
  45 0004 03D0     		beq	.L3
  46 0006 0228     		cmp	r0, #2
  47 0008 04D1     		bne	.L9
  48              	.LVL1:
 328:Generated_Source\PSoC4/CapSense_SensingCSD_LL.c ****             {
 329:Generated_Source\PSoC4/CapSense_SensingCSD_LL.c ****                 case CapSense_SNS_CONNECTION_GROUND:
 330:Generated_Source\PSoC4/CapSense_SensingCSD_LL.c ****                     newPinPcVal = CY_SYS_PINS_DM_STRONG;
 331:Generated_Source\PSoC4/CapSense_SensingCSD_LL.c ****                     newPinHsiomVal = CapSense_HSIOM_SEL_GPIO;
 332:Generated_Source\PSoC4/CapSense_SensingCSD_LL.c ****                     break;
 333:Generated_Source\PSoC4/CapSense_SensingCSD_LL.c ****                 case CapSense_SNS_CONNECTION_HIGHZ:
 334:Generated_Source\PSoC4/CapSense_SensingCSD_LL.c ****                     newPinPcVal = CY_SYS_PINS_DM_ALG_HIZ;
 335:Generated_Source\PSoC4/CapSense_SensingCSD_LL.c ****                     newPinHsiomVal = CapSense_HSIOM_SEL_GPIO;
 336:Generated_Source\PSoC4/CapSense_SensingCSD_LL.c ****                     break;
 337:Generated_Source\PSoC4/CapSense_SensingCSD_LL.c ****                 case CapSense_SNS_CONNECTION_SHIELD:
 338:Generated_Source\PSoC4/CapSense_SensingCSD_LL.c ****                     newPinPcVal = CY_SYS_PINS_DM_ALG_HIZ;
 339:Generated_Source\PSoC4/CapSense_SensingCSD_LL.c ****                     newPinHsiomVal = CapSense_HSIOM_SEL_CSD_SHIELD;
  49              		.loc 1 339 0
  50 000a 0524     		movs	r4, #5
  51 000c 00E0     		b	.L7
  52              	.LVL2:
  53              	.L3:
 335:Generated_Source\PSoC4/CapSense_SensingCSD_LL.c ****                     break;
  54              		.loc 1 335 0
  55 000e 0024     		movs	r4, #0
  56              	.L7:
 338:Generated_Source\PSoC4/CapSense_SensingCSD_LL.c ****                     newPinHsiomVal = CapSense_HSIOM_SEL_CSD_SHIELD;
  57              		.loc 1 338 0
  58 0010 0025     		movs	r5, #0
ARM GAS  C:\Users\zack.li\AppData\Local\Temp\ccTyLy6m.s 			page 8


 340:Generated_Source\PSoC4/CapSense_SensingCSD_LL.c ****                     break;
  59              		.loc 1 340 0
  60 0012 01E0     		b	.L2
  61              	.L9:
 331:Generated_Source\PSoC4/CapSense_SensingCSD_LL.c ****                     break;
  62              		.loc 1 331 0
  63 0014 0024     		movs	r4, #0
 330:Generated_Source\PSoC4/CapSense_SensingCSD_LL.c ****                     newPinHsiomVal = CapSense_HSIOM_SEL_GPIO;
  64              		.loc 1 330 0
  65 0016 0625     		movs	r5, #6
  66              	.L2:
  67              	.LVL3:
 341:Generated_Source\PSoC4/CapSense_SensingCSD_LL.c ****                 default:
 342:Generated_Source\PSoC4/CapSense_SensingCSD_LL.c ****                     newPinPcVal = CY_SYS_PINS_DM_STRONG;
 343:Generated_Source\PSoC4/CapSense_SensingCSD_LL.c ****                     newPinHsiomVal = CapSense_HSIOM_SEL_GPIO;
 344:Generated_Source\PSoC4/CapSense_SensingCSD_LL.c ****                     break;
 345:Generated_Source\PSoC4/CapSense_SensingCSD_LL.c ****             }
 346:Generated_Source\PSoC4/CapSense_SensingCSD_LL.c **** 
 347:Generated_Source\PSoC4/CapSense_SensingCSD_LL.c ****             shieldIoPtr = &CapSense_shieldIoList[0u];
 348:Generated_Source\PSoC4/CapSense_SensingCSD_LL.c ****             for (loopIndex = 0u; loopIndex < CapSense_CSD_TOTAL_SHIELD_COUNT; loopIndex++)
 349:Generated_Source\PSoC4/CapSense_SensingCSD_LL.c ****             {
 350:Generated_Source\PSoC4/CapSense_SensingCSD_LL.c ****                 interruptState = CyEnterCriticalSection();
  68              		.loc 1 350 0
  69 0018 FFF7FEFF 		bl	CyEnterCriticalSection
  70              	.LVL4:
 351:Generated_Source\PSoC4/CapSense_SensingCSD_LL.c **** 
 352:Generated_Source\PSoC4/CapSense_SensingCSD_LL.c ****                 tmpHsiomRegValue = CY_GET_REG32 (shieldIoPtr->hsiomPtr);
  71              		.loc 1 352 0
  72 001c 114B     		ldr	r3, .L10
 353:Generated_Source\PSoC4/CapSense_SensingCSD_LL.c ****                 tmpHsiomRegValue &= ~(shieldIoPtr->hsiomMask);
 354:Generated_Source\PSoC4/CapSense_SensingCSD_LL.c ****                 CY_SET_REG32 (shieldIoPtr->hsiomPtr, tmpHsiomRegValue);
 355:Generated_Source\PSoC4/CapSense_SensingCSD_LL.c **** 
 356:Generated_Source\PSoC4/CapSense_SensingCSD_LL.c ****                 tmpPcDrRegValue = CY_GET_REG32 (shieldIoPtr->pcPtr);
 357:Generated_Source\PSoC4/CapSense_SensingCSD_LL.c ****                 tmpPcDrRegValue &= ~(CapSense_GPIO_PC_MASK << shieldIoPtr->shift);
 358:Generated_Source\PSoC4/CapSense_SensingCSD_LL.c ****                 tmpPcDrRegValue |=  (newPinPcVal << shieldIoPtr->shift);
 359:Generated_Source\PSoC4/CapSense_SensingCSD_LL.c ****                 CY_SET_REG32 (shieldIoPtr->pcPtr, tmpPcDrRegValue);
 360:Generated_Source\PSoC4/CapSense_SensingCSD_LL.c **** 
 361:Generated_Source\PSoC4/CapSense_SensingCSD_LL.c ****                 tmpHsiomRegValue |=  (newPinHsiomVal << shieldIoPtr->hsiomShift);
 362:Generated_Source\PSoC4/CapSense_SensingCSD_LL.c ****                 CY_SET_REG32 (shieldIoPtr->hsiomPtr, tmpHsiomRegValue);
 363:Generated_Source\PSoC4/CapSense_SensingCSD_LL.c **** 
 364:Generated_Source\PSoC4/CapSense_SensingCSD_LL.c ****                 tmpPcDrRegValue = CY_GET_REG32 (shieldIoPtr->drPtr);
 365:Generated_Source\PSoC4/CapSense_SensingCSD_LL.c ****                 tmpPcDrRegValue &= ~(1uL << shieldIoPtr->drShift);
 366:Generated_Source\PSoC4/CapSense_SensingCSD_LL.c ****                 CY_SET_REG32 (shieldIoPtr->drPtr, tmpPcDrRegValue);
 367:Generated_Source\PSoC4/CapSense_SensingCSD_LL.c **** 
 368:Generated_Source\PSoC4/CapSense_SensingCSD_LL.c ****                 CyExitCriticalSection(interruptState);
 369:Generated_Source\PSoC4/CapSense_SensingCSD_LL.c **** 
 370:Generated_Source\PSoC4/CapSense_SensingCSD_LL.c ****                 /* Get next electrode */
 371:Generated_Source\PSoC4/CapSense_SensingCSD_LL.c ****                 shieldIoPtr++;
 372:Generated_Source\PSoC4/CapSense_SensingCSD_LL.c ****             }
 373:Generated_Source\PSoC4/CapSense_SensingCSD_LL.c ****         }
  73              		.loc 1 373 0
  74              		@ sp needed
 357:Generated_Source\PSoC4/CapSense_SensingCSD_LL.c ****                 tmpPcDrRegValue |=  (newPinPcVal << shieldIoPtr->shift);
  75              		.loc 1 357 0
  76 001e 9F7C     		ldrb	r7, [r3, #18]
 352:Generated_Source\PSoC4/CapSense_SensingCSD_LL.c ****                 tmpHsiomRegValue &= ~(shieldIoPtr->hsiomMask);
  77              		.loc 1 352 0
ARM GAS  C:\Users\zack.li\AppData\Local\Temp\ccTyLy6m.s 			page 9


  78 0020 1E68     		ldr	r6, [r3]
 357:Generated_Source\PSoC4/CapSense_SensingCSD_LL.c ****                 tmpPcDrRegValue |=  (newPinPcVal << shieldIoPtr->shift);
  79              		.loc 1 357 0
  80 0022 BC46     		mov	ip, r7
 352:Generated_Source\PSoC4/CapSense_SensingCSD_LL.c ****                 tmpHsiomRegValue &= ~(shieldIoPtr->hsiomMask);
  81              		.loc 1 352 0
  82 0024 3268     		ldr	r2, [r6]
  83              	.LVL5:
 353:Generated_Source\PSoC4/CapSense_SensingCSD_LL.c ****                 tmpHsiomRegValue &= ~(shieldIoPtr->hsiomMask);
  84              		.loc 1 353 0
  85 0026 D968     		ldr	r1, [r3, #12]
 357:Generated_Source\PSoC4/CapSense_SensingCSD_LL.c ****                 tmpPcDrRegValue |=  (newPinPcVal << shieldIoPtr->shift);
  86              		.loc 1 357 0
  87 0028 0727     		movs	r7, #7
 353:Generated_Source\PSoC4/CapSense_SensingCSD_LL.c ****                 tmpHsiomRegValue &= ~(shieldIoPtr->hsiomMask);
  88              		.loc 1 353 0
  89 002a 8A43     		bics	r2, r1
  90              	.LVL6:
 356:Generated_Source\PSoC4/CapSense_SensingCSD_LL.c ****                 tmpPcDrRegValue &= ~(CapSense_GPIO_PC_MASK << shieldIoPtr->shift);
  91              		.loc 1 356 0
  92 002c 5968     		ldr	r1, [r3, #4]
 354:Generated_Source\PSoC4/CapSense_SensingCSD_LL.c **** 
  93              		.loc 1 354 0
  94 002e 3260     		str	r2, [r6]
 356:Generated_Source\PSoC4/CapSense_SensingCSD_LL.c ****                 tmpPcDrRegValue &= ~(CapSense_GPIO_PC_MASK << shieldIoPtr->shift);
  95              		.loc 1 356 0
  96 0030 0091     		str	r1, [sp]
  97 0032 0968     		ldr	r1, [r1]
  98 0034 0191     		str	r1, [sp, #4]
  99              	.LVL7:
 357:Generated_Source\PSoC4/CapSense_SensingCSD_LL.c ****                 tmpPcDrRegValue |=  (newPinPcVal << shieldIoPtr->shift);
 100              		.loc 1 357 0
 101 0036 6146     		mov	r1, ip
 102              	.LVL8:
 103 0038 8F40     		lsls	r7, r7, r1
 104 003a 0199     		ldr	r1, [sp, #4]
 105 003c B943     		bics	r1, r7
 106              	.LVL9:
 358:Generated_Source\PSoC4/CapSense_SensingCSD_LL.c ****                 CY_SET_REG32 (shieldIoPtr->pcPtr, tmpPcDrRegValue);
 107              		.loc 1 358 0
 108 003e 6746     		mov	r7, ip
 109 0040 BD40     		lsls	r5, r5, r7
 110              	.LVL10:
 111 0042 2943     		orrs	r1, r5
 112              	.LVL11:
 359:Generated_Source\PSoC4/CapSense_SensingCSD_LL.c **** 
 113              		.loc 1 359 0
 114 0044 009D     		ldr	r5, [sp]
 115 0046 2960     		str	r1, [r5]
 361:Generated_Source\PSoC4/CapSense_SensingCSD_LL.c ****                 CY_SET_REG32 (shieldIoPtr->hsiomPtr, tmpHsiomRegValue);
 116              		.loc 1 361 0
 117 0048 197C     		ldrb	r1, [r3, #16]
 118              	.LVL12:
 119 004a 8C40     		lsls	r4, r4, r1
 120              	.LVL13:
 121 004c 1443     		orrs	r4, r2
 122              	.LVL14:
ARM GAS  C:\Users\zack.li\AppData\Local\Temp\ccTyLy6m.s 			page 10


 362:Generated_Source\PSoC4/CapSense_SensingCSD_LL.c **** 
 123              		.loc 1 362 0
 124 004e 3460     		str	r4, [r6]
 125              	.LVL15:
 364:Generated_Source\PSoC4/CapSense_SensingCSD_LL.c ****                 tmpPcDrRegValue &= ~(1uL << shieldIoPtr->drShift);
 126              		.loc 1 364 0
 127 0050 9968     		ldr	r1, [r3, #8]
 365:Generated_Source\PSoC4/CapSense_SensingCSD_LL.c ****                 CY_SET_REG32 (shieldIoPtr->drPtr, tmpPcDrRegValue);
 128              		.loc 1 365 0
 129 0052 5C7C     		ldrb	r4, [r3, #17]
 130              	.LVL16:
 131 0054 0123     		movs	r3, #1
 132 0056 A340     		lsls	r3, r3, r4
 364:Generated_Source\PSoC4/CapSense_SensingCSD_LL.c ****                 tmpPcDrRegValue &= ~(1uL << shieldIoPtr->drShift);
 133              		.loc 1 364 0
 134 0058 0A68     		ldr	r2, [r1]
 135              	.LVL17:
 365:Generated_Source\PSoC4/CapSense_SensingCSD_LL.c ****                 CY_SET_REG32 (shieldIoPtr->drPtr, tmpPcDrRegValue);
 136              		.loc 1 365 0
 137 005a 9A43     		bics	r2, r3
 138              	.LVL18:
 366:Generated_Source\PSoC4/CapSense_SensingCSD_LL.c **** 
 139              		.loc 1 366 0
 140 005c 0A60     		str	r2, [r1]
 141              	.LVL19:
 368:Generated_Source\PSoC4/CapSense_SensingCSD_LL.c **** 
 142              		.loc 1 368 0
 143 005e FFF7FEFF 		bl	CyExitCriticalSection
 144              	.LVL20:
 145              		.loc 1 373 0
 146 0062 F7BD     		pop	{r0, r1, r2, r4, r5, r6, r7, pc}
 147              	.L11:
 148              		.align	2
 149              	.L10:
 150 0064 00000000 		.word	CapSense_shieldIoList
 151              		.cfi_endproc
 152              	.LFE4:
 153              		.size	CapSense_SsCSDSetShieldElectrodesState, .-CapSense_SsCSDSetShieldElectrodesState
 154              		.section	.text.CapSense_SsCSDEnableShieldElectrodes,"ax",%progbits
 155              		.align	1
 156              		.global	CapSense_SsCSDEnableShieldElectrodes
 157              		.code	16
 158              		.thumb_func
 159              		.type	CapSense_SsCSDEnableShieldElectrodes, %function
 160              	CapSense_SsCSDEnableShieldElectrodes:
 161              	.LFB2:
 260:Generated_Source\PSoC4/CapSense_SensingCSD_LL.c ****             CapSense_SsCSDSetShieldElectrodesState(CapSense_SNS_CONNECTION_SHIELD);
 162              		.loc 1 260 0
 163              		.cfi_startproc
 164              		@ args = 0, pretend = 0, frame = 0
 165              		@ frame_needed = 0, uses_anonymous_args = 0
 166 0000 10B5     		push	{r4, lr}
 167              		.cfi_def_cfa_offset 8
 168              		.cfi_offset 4, -8
 169              		.cfi_offset 14, -4
 261:Generated_Source\PSoC4/CapSense_SensingCSD_LL.c ****         }
 170              		.loc 1 261 0
ARM GAS  C:\Users\zack.li\AppData\Local\Temp\ccTyLy6m.s 			page 11


 171 0002 0220     		movs	r0, #2
 172 0004 FFF7FEFF 		bl	CapSense_SsCSDSetShieldElectrodesState
 173              	.LVL21:
 262:Generated_Source\PSoC4/CapSense_SensingCSD_LL.c **** 
 174              		.loc 1 262 0
 175              		@ sp needed
 176 0008 10BD     		pop	{r4, pc}
 177              		.cfi_endproc
 178              	.LFE2:
 179              		.size	CapSense_SsCSDEnableShieldElectrodes, .-CapSense_SsCSDEnableShieldElectrodes
 180              		.section	.text.CapSense_SsCSDDisableShieldElectrodes,"ax",%progbits
 181              		.align	1
 182              		.global	CapSense_SsCSDDisableShieldElectrodes
 183              		.code	16
 184              		.thumb_func
 185              		.type	CapSense_SsCSDDisableShieldElectrodes, %function
 186              	CapSense_SsCSDDisableShieldElectrodes:
 187              	.LFB3:
 279:Generated_Source\PSoC4/CapSense_SensingCSD_LL.c ****             CapSense_SsCSDSetShieldElectrodesState(CapSense_SNS_CONNECTION_GROUND);
 188              		.loc 1 279 0
 189              		.cfi_startproc
 190              		@ args = 0, pretend = 0, frame = 0
 191              		@ frame_needed = 0, uses_anonymous_args = 0
 192 0000 10B5     		push	{r4, lr}
 193              		.cfi_def_cfa_offset 8
 194              		.cfi_offset 4, -8
 195              		.cfi_offset 14, -4
 280:Generated_Source\PSoC4/CapSense_SensingCSD_LL.c ****         }
 196              		.loc 1 280 0
 197 0002 0020     		movs	r0, #0
 198 0004 FFF7FEFF 		bl	CapSense_SsCSDSetShieldElectrodesState
 199              	.LVL22:
 281:Generated_Source\PSoC4/CapSense_SensingCSD_LL.c **** 
 200              		.loc 1 281 0
 201              		@ sp needed
 202 0008 10BD     		pop	{r4, pc}
 203              		.cfi_endproc
 204              	.LFE3:
 205              		.size	CapSense_SsCSDDisableShieldElectrodes, .-CapSense_SsCSDDisableShieldElectrodes
 206              		.global	__aeabi_uidiv
 207              		.section	.text.CapSense_SsCSDInitialize,"ax",%progbits
 208              		.align	1
 209              		.global	CapSense_SsCSDInitialize
 210              		.code	16
 211              		.thumb_func
 212              		.type	CapSense_SsCSDInitialize, %function
 213              	CapSense_SsCSDInitialize:
 214              	.LFB8:
 374:Generated_Source\PSoC4/CapSense_SensingCSD_LL.c ****     #endif /* (0u != CapSense_CSD_TOTAL_SHIELD_COUNT) */
 375:Generated_Source\PSoC4/CapSense_SensingCSD_LL.c **** #endif /* (CapSense_ENABLE == CapSense_CSD_SHIELD_EN) */
 376:Generated_Source\PSoC4/CapSense_SensingCSD_LL.c **** 
 377:Generated_Source\PSoC4/CapSense_SensingCSD_LL.c **** 
 378:Generated_Source\PSoC4/CapSense_SensingCSD_LL.c **** /*******************************************************************************
 379:Generated_Source\PSoC4/CapSense_SensingCSD_LL.c **** * Function Name: CapSense_SsCSDSetModeSnsClockDivider
 380:Generated_Source\PSoC4/CapSense_SensingCSD_LL.c **** ****************************************************************************//**
 381:Generated_Source\PSoC4/CapSense_SensingCSD_LL.c **** *
 382:Generated_Source\PSoC4/CapSense_SensingCSD_LL.c **** * \brief
ARM GAS  C:\Users\zack.li\AppData\Local\Temp\ccTyLy6m.s 			page 12


 383:Generated_Source\PSoC4/CapSense_SensingCSD_LL.c **** *   Sets sense source and Sense Clock Divider
 384:Generated_Source\PSoC4/CapSense_SensingCSD_LL.c **** *
 385:Generated_Source\PSoC4/CapSense_SensingCSD_LL.c **** * \details
 386:Generated_Source\PSoC4/CapSense_SensingCSD_LL.c **** *   For Fourth-generation HW block: Updates CapSense_SENSE_PERIOD register with
 387:Generated_Source\PSoC4/CapSense_SensingCSD_LL.c **** *   sense source and Sense Clock Divider.
 388:Generated_Source\PSoC4/CapSense_SensingCSD_LL.c **** *   For Third-generation HW block: Updates CapSense_configCsd variable with
 389:Generated_Source\PSoC4/CapSense_SensingCSD_LL.c **** *   sense source and sets sense clock divider.
 390:Generated_Source\PSoC4/CapSense_SensingCSD_LL.c **** *
 391:Generated_Source\PSoC4/CapSense_SensingCSD_LL.c **** * \param
 392:Generated_Source\PSoC4/CapSense_SensingCSD_LL.c **** *   snsClkSource The sense source for the sense clock.
 393:Generated_Source\PSoC4/CapSense_SensingCSD_LL.c **** * \param
 394:Generated_Source\PSoC4/CapSense_SensingCSD_LL.c **** *   snsClkDivider The divider value for the sense clock.
 395:Generated_Source\PSoC4/CapSense_SensingCSD_LL.c **** *
 396:Generated_Source\PSoC4/CapSense_SensingCSD_LL.c **** *******************************************************************************/
 397:Generated_Source\PSoC4/CapSense_SensingCSD_LL.c **** static void CapSense_SsCSDSetModeSnsClockDivider(uint32 snsClkSource, uint32 snsClkDivider)
 398:Generated_Source\PSoC4/CapSense_SensingCSD_LL.c **** {
 399:Generated_Source\PSoC4/CapSense_SensingCSD_LL.c ****     #if (CapSense_ENABLE == CapSense_CSDV2)
 400:Generated_Source\PSoC4/CapSense_SensingCSD_LL.c ****         /* Update reg value with divider and configuration */
 401:Generated_Source\PSoC4/CapSense_SensingCSD_LL.c ****         CY_SET_REG32(CapSense_SENSE_PERIOD_PTR, snsClkSource | (snsClkDivider - 1u));
 402:Generated_Source\PSoC4/CapSense_SensingCSD_LL.c ****     #else
 403:Generated_Source\PSoC4/CapSense_SensingCSD_LL.c ****         /* Set configuration */
 404:Generated_Source\PSoC4/CapSense_SensingCSD_LL.c ****         CapSense_configCsd &= ~(CapSense_CONFIG_PRS_SELECT_MASK | CapSense_CSD_PRS_12_BIT);
 405:Generated_Source\PSoC4/CapSense_SensingCSD_LL.c ****         CapSense_configCsd |= snsClkSource;
 406:Generated_Source\PSoC4/CapSense_SensingCSD_LL.c **** 
 407:Generated_Source\PSoC4/CapSense_SensingCSD_LL.c ****         /* Set sense clock divider */
 408:Generated_Source\PSoC4/CapSense_SensingCSD_LL.c ****         CapSense_SsSetSnsClockDivider(snsClkDivider);
 409:Generated_Source\PSoC4/CapSense_SensingCSD_LL.c ****     #endif /* (CapSense_ENABLE == CapSense_CSDV2) */
 410:Generated_Source\PSoC4/CapSense_SensingCSD_LL.c **** }
 411:Generated_Source\PSoC4/CapSense_SensingCSD_LL.c **** 
 412:Generated_Source\PSoC4/CapSense_SensingCSD_LL.c **** 
 413:Generated_Source\PSoC4/CapSense_SensingCSD_LL.c **** #if (CapSense_ENABLE == CapSense_CSDV2)
 414:Generated_Source\PSoC4/CapSense_SensingCSD_LL.c ****     /*******************************************************************************
 415:Generated_Source\PSoC4/CapSense_SensingCSD_LL.c ****     * Function Name: CapSense_SsCSDSetFilterDelay
 416:Generated_Source\PSoC4/CapSense_SensingCSD_LL.c ****     ****************************************************************************//**
 417:Generated_Source\PSoC4/CapSense_SensingCSD_LL.c ****     *
 418:Generated_Source\PSoC4/CapSense_SensingCSD_LL.c ****     * \brief
 419:Generated_Source\PSoC4/CapSense_SensingCSD_LL.c ****     *   Sets the filter delay for Fourth-generation HW block.
 420:Generated_Source\PSoC4/CapSense_SensingCSD_LL.c ****     *
 421:Generated_Source\PSoC4/CapSense_SensingCSD_LL.c ****     * \details
 422:Generated_Source\PSoC4/CapSense_SensingCSD_LL.c ****     *   This function updates Fourth-generation HW block configuration
 423:Generated_Source\PSoC4/CapSense_SensingCSD_LL.c ****     *   variable CapSense_configCsd
 424:Generated_Source\PSoC4/CapSense_SensingCSD_LL.c ****     *   with the filter delay which depends on the sample clock frequency.
 425:Generated_Source\PSoC4/CapSense_SensingCSD_LL.c ****     *   This variable is written into register during enabling
 426:Generated_Source\PSoC4/CapSense_SensingCSD_LL.c ****     *   Fourth-generation HW block .
 427:Generated_Source\PSoC4/CapSense_SensingCSD_LL.c ****     *
 428:Generated_Source\PSoC4/CapSense_SensingCSD_LL.c ****     *******************************************************************************/
 429:Generated_Source\PSoC4/CapSense_SensingCSD_LL.c ****     static void CapSense_SsCSDSetFilterDelay(void)
 430:Generated_Source\PSoC4/CapSense_SensingCSD_LL.c ****     {
 431:Generated_Source\PSoC4/CapSense_SensingCSD_LL.c ****         #if (CapSense_MOD_CSD_CLK_12MHZ < CYDEV_BCLK__HFCLK__HZ)
 432:Generated_Source\PSoC4/CapSense_SensingCSD_LL.c ****             uint32 sampleClkFreqHz;
 433:Generated_Source\PSoC4/CapSense_SensingCSD_LL.c ****         #endif /* (CapSense_MOD_CSD_CLK_12MHZ < CYDEV_BCLK__HFCLK__HZ) */
 434:Generated_Source\PSoC4/CapSense_SensingCSD_LL.c **** 
 435:Generated_Source\PSoC4/CapSense_SensingCSD_LL.c ****         CapSense_configCsd &= ~CapSense_CONFIG_FILTER_DELAY_MASK;
 436:Generated_Source\PSoC4/CapSense_SensingCSD_LL.c **** 
 437:Generated_Source\PSoC4/CapSense_SensingCSD_LL.c ****         #if (CapSense_MOD_CSD_CLK_12MHZ < CYDEV_BCLK__HFCLK__HZ)
 438:Generated_Source\PSoC4/CapSense_SensingCSD_LL.c ****             sampleClkFreqHz = CYDEV_BCLK__HFCLK__HZ / (uint32)CapSense_dsRam.modCsdClk;
 439:Generated_Source\PSoC4/CapSense_SensingCSD_LL.c ****             if(sampleClkFreqHz <= CapSense_MOD_CSD_CLK_12MHZ)
ARM GAS  C:\Users\zack.li\AppData\Local\Temp\ccTyLy6m.s 			page 13


 440:Generated_Source\PSoC4/CapSense_SensingCSD_LL.c ****             {
 441:Generated_Source\PSoC4/CapSense_SensingCSD_LL.c ****                 CapSense_configCsd |= CapSense_CONFIG_FILTER_DELAY_12MHZ;
 442:Generated_Source\PSoC4/CapSense_SensingCSD_LL.c ****             }
 443:Generated_Source\PSoC4/CapSense_SensingCSD_LL.c ****             else if(sampleClkFreqHz <= CapSense_MOD_CSD_CLK_24MHZ)
 444:Generated_Source\PSoC4/CapSense_SensingCSD_LL.c ****             {
 445:Generated_Source\PSoC4/CapSense_SensingCSD_LL.c ****                 CapSense_configCsd |= CapSense_CONFIG_FILTER_DELAY_24MHZ;
 446:Generated_Source\PSoC4/CapSense_SensingCSD_LL.c ****             }
 447:Generated_Source\PSoC4/CapSense_SensingCSD_LL.c ****             else
 448:Generated_Source\PSoC4/CapSense_SensingCSD_LL.c ****             {
 449:Generated_Source\PSoC4/CapSense_SensingCSD_LL.c ****                 CapSense_configCsd |= CapSense_CONFIG_FILTER_DELAY_48MHZ;
 450:Generated_Source\PSoC4/CapSense_SensingCSD_LL.c ****             }
 451:Generated_Source\PSoC4/CapSense_SensingCSD_LL.c ****         #else
 452:Generated_Source\PSoC4/CapSense_SensingCSD_LL.c ****             CapSense_configCsd |= CapSense_CONFIG_FILTER_DELAY_12MHZ;
 453:Generated_Source\PSoC4/CapSense_SensingCSD_LL.c ****         #endif /* (CapSense_MOD_CSD_CLK_12MHZ < CYDEV_BCLK__HFCLK__HZ) */
 454:Generated_Source\PSoC4/CapSense_SensingCSD_LL.c ****     }
 455:Generated_Source\PSoC4/CapSense_SensingCSD_LL.c **** #endif /* (CapSense_ENABLE == CapSense_CSD_GANGED_SNS_EN)  */
 456:Generated_Source\PSoC4/CapSense_SensingCSD_LL.c **** 
 457:Generated_Source\PSoC4/CapSense_SensingCSD_LL.c **** 
 458:Generated_Source\PSoC4/CapSense_SensingCSD_LL.c **** /*******************************************************************************
 459:Generated_Source\PSoC4/CapSense_SensingCSD_LL.c **** * Function Name: CapSense_SsCSDConfigIDACs
 460:Generated_Source\PSoC4/CapSense_SensingCSD_LL.c **** ****************************************************************************//**
 461:Generated_Source\PSoC4/CapSense_SensingCSD_LL.c **** *
 462:Generated_Source\PSoC4/CapSense_SensingCSD_LL.c **** * \brief
 463:Generated_Source\PSoC4/CapSense_SensingCSD_LL.c **** *   Configures the mode for IDAC registers
 464:Generated_Source\PSoC4/CapSense_SensingCSD_LL.c **** *
 465:Generated_Source\PSoC4/CapSense_SensingCSD_LL.c **** * \details
 466:Generated_Source\PSoC4/CapSense_SensingCSD_LL.c **** *   This function configures the IDAC modes depend on Compensation IDAC
 467:Generated_Source\PSoC4/CapSense_SensingCSD_LL.c **** *   enabled or disabled.
 468:Generated_Source\PSoC4/CapSense_SensingCSD_LL.c **** *
 469:Generated_Source\PSoC4/CapSense_SensingCSD_LL.c **** *******************************************************************************/
 470:Generated_Source\PSoC4/CapSense_SensingCSD_LL.c **** static void CapSense_SsCSDConfigIDACs(void)
 471:Generated_Source\PSoC4/CapSense_SensingCSD_LL.c **** {
 472:Generated_Source\PSoC4/CapSense_SensingCSD_LL.c ****     #if (CapSense_ENABLE == CapSense_CSDV2)
 473:Generated_Source\PSoC4/CapSense_SensingCSD_LL.c ****         CY_SET_REG32(CapSense_CSD_IDACA_PTR, CapSense_IDAC_MOD_DEFAULT_CFG);
 474:Generated_Source\PSoC4/CapSense_SensingCSD_LL.c ****         #if (CapSense_ENABLE == CapSense_CSD_IDAC_COMP_EN)
 475:Generated_Source\PSoC4/CapSense_SensingCSD_LL.c ****             CY_SET_REG32(CapSense_CSD_IDACB_PTR, CapSense_IDAC_COMP_DEFAULT_CFG);
 476:Generated_Source\PSoC4/CapSense_SensingCSD_LL.c ****         #endif /* (CapSense_ENABLE == CapSense_CSD_IDAC_COMP_EN) */
 477:Generated_Source\PSoC4/CapSense_SensingCSD_LL.c ****     #else
 478:Generated_Source\PSoC4/CapSense_SensingCSD_LL.c ****         #if (CapSense_ENABLE == CapSense_CSD_IDAC_COMP_EN)
 479:Generated_Source\PSoC4/CapSense_SensingCSD_LL.c ****             CY_SET_REG32(CapSense_IDAC_PTR, CapSense_DEFAULT_CSD_IDAC_CONFIG);
 480:Generated_Source\PSoC4/CapSense_SensingCSD_LL.c ****         #else
 481:Generated_Source\PSoC4/CapSense_SensingCSD_LL.c ****             CY_SET_REG32(CapSense_IDAC_PTR, CY_GET_REG32(CapSense_IDAC_PTR) &
 482:Generated_Source\PSoC4/CapSense_SensingCSD_LL.c ****                                                                 ~(CapSense_IDAC_MOD_MODE_MASK |
 483:Generated_Source\PSoC4/CapSense_SensingCSD_LL.c ****                                                                   CapSense_IDAC_MOD_MASK));
 484:Generated_Source\PSoC4/CapSense_SensingCSD_LL.c ****             CY_SET_REG32(CapSense_IDAC_PTR, CY_GET_REG32(CapSense_IDAC_PTR) |
 485:Generated_Source\PSoC4/CapSense_SensingCSD_LL.c ****                                                                  CapSense_DEFAULT_CSD_IDAC_CONFIG);
 486:Generated_Source\PSoC4/CapSense_SensingCSD_LL.c ****         #endif /* (CapSense_ENABLE == CapSense_CSD_IDAC_COMP_EN) */
 487:Generated_Source\PSoC4/CapSense_SensingCSD_LL.c ****     #endif /* (CapSense_ENABLE == CapSense_CSDV2) */
 488:Generated_Source\PSoC4/CapSense_SensingCSD_LL.c **** }
 489:Generated_Source\PSoC4/CapSense_SensingCSD_LL.c **** 
 490:Generated_Source\PSoC4/CapSense_SensingCSD_LL.c **** 
 491:Generated_Source\PSoC4/CapSense_SensingCSD_LL.c **** /*******************************************************************************
 492:Generated_Source\PSoC4/CapSense_SensingCSD_LL.c **** * Function Name: CapSense_SsCSDInitialize
 493:Generated_Source\PSoC4/CapSense_SensingCSD_LL.c **** ****************************************************************************//**
 494:Generated_Source\PSoC4/CapSense_SensingCSD_LL.c **** *
 495:Generated_Source\PSoC4/CapSense_SensingCSD_LL.c **** * \brief
 496:Generated_Source\PSoC4/CapSense_SensingCSD_LL.c **** *   This API initializes the CSD module.
ARM GAS  C:\Users\zack.li\AppData\Local\Temp\ccTyLy6m.s 			page 14


 497:Generated_Source\PSoC4/CapSense_SensingCSD_LL.c **** *
 498:Generated_Source\PSoC4/CapSense_SensingCSD_LL.c **** * \details
 499:Generated_Source\PSoC4/CapSense_SensingCSD_LL.c **** *   The function performs the following steps for Fourth-generation HW block:
 500:Generated_Source\PSoC4/CapSense_SensingCSD_LL.c **** *   1) Sets GPIO output to "0" for all sensor pins;
 501:Generated_Source\PSoC4/CapSense_SensingCSD_LL.c **** *   2) Connects CMOD to AMUXBUS-A and to CSDBUS-A;
 502:Generated_Source\PSoC4/CapSense_SensingCSD_LL.c **** *   3) Connects CMOD to (sense path) to CSDCOMP;
 503:Generated_Source\PSoC4/CapSense_SensingCSD_LL.c **** *   4) Connects Csh_tank to AMUXBUS-B and to CSDBUS-B;
 504:Generated_Source\PSoC4/CapSense_SensingCSD_LL.c **** *   5) Connects VREF to REFGEN;
 505:Generated_Source\PSoC4/CapSense_SensingCSD_LL.c **** *   6) Configures REFGEN and sets the reference voltage;
 506:Generated_Source\PSoC4/CapSense_SensingCSD_LL.c **** *   7) Connects VREF to CSDCOMP and HSCOMP;
 507:Generated_Source\PSoC4/CapSense_SensingCSD_LL.c **** *   8) Configures IDAC and connect to CSDBUS-A (to drive CMOD);
 508:Generated_Source\PSoC4/CapSense_SensingCSD_LL.c **** *   9) Configures ModClk;
 509:Generated_Source\PSoC4/CapSense_SensingCSD_LL.c **** *   10) Configure SnsClk source;
 510:Generated_Source\PSoC4/CapSense_SensingCSD_LL.c **** *   11) Sets other CSD configurations (Csd Auto Zero time,
 511:Generated_Source\PSoC4/CapSense_SensingCSD_LL.c **** *       Sample Init period, interrupts,
 512:Generated_Source\PSoC4/CapSense_SensingCSD_LL.c **** *       CMOD and Csh_tank/shield initialization switch resistance).
 513:Generated_Source\PSoC4/CapSense_SensingCSD_LL.c **** *
 514:Generated_Source\PSoC4/CapSense_SensingCSD_LL.c **** *   The function performs the following steps for Third-generation HW block:
 515:Generated_Source\PSoC4/CapSense_SensingCSD_LL.c **** *   1) Sets all the sensors to the inactive state;
 516:Generated_Source\PSoC4/CapSense_SensingCSD_LL.c **** *   2) Enables Shield Electrodes;
 517:Generated_Source\PSoC4/CapSense_SensingCSD_LL.c **** *   3) Configures the CSD block and IDACs;
 518:Generated_Source\PSoC4/CapSense_SensingCSD_LL.c **** *   4) Connects Cmod to AMUXBUS-A;
 519:Generated_Source\PSoC4/CapSense_SensingCSD_LL.c **** *   5) Enables the clocks;
 520:Generated_Source\PSoC4/CapSense_SensingCSD_LL.c **** *   6) Sets the shield delay;
 521:Generated_Source\PSoC4/CapSense_SensingCSD_LL.c **** *   7) Enables the CSD block; connects Vref Buffer to the AMUX bus.
 522:Generated_Source\PSoC4/CapSense_SensingCSD_LL.c **** *
 523:Generated_Source\PSoC4/CapSense_SensingCSD_LL.c **** *******************************************************************************/
 524:Generated_Source\PSoC4/CapSense_SensingCSD_LL.c **** void CapSense_SsCSDInitialize(void)
 525:Generated_Source\PSoC4/CapSense_SensingCSD_LL.c **** {
 215              		.loc 1 525 0
 216              		.cfi_startproc
 217              		@ args = 0, pretend = 0, frame = 0
 218              		@ frame_needed = 0, uses_anonymous_args = 0
 219 0000 F8B5     		push	{r3, r4, r5, r6, r7, lr}
 220              		.cfi_def_cfa_offset 24
 221              		.cfi_offset 3, -24
 222              		.cfi_offset 4, -20
 223              		.cfi_offset 5, -16
 224              		.cfi_offset 6, -12
 225              		.cfi_offset 7, -8
 226              		.cfi_offset 14, -4
 526:Generated_Source\PSoC4/CapSense_SensingCSD_LL.c ****     #if (CapSense_ENABLE == CapSense_CSDV2)
 527:Generated_Source\PSoC4/CapSense_SensingCSD_LL.c ****         uint32 newRegValue;
 528:Generated_Source\PSoC4/CapSense_SensingCSD_LL.c ****     #endif
 529:Generated_Source\PSoC4/CapSense_SensingCSD_LL.c **** 
 530:Generated_Source\PSoC4/CapSense_SensingCSD_LL.c ****     /* Set all the sensors to inactive state */
 531:Generated_Source\PSoC4/CapSense_SensingCSD_LL.c ****     if(CapSense_dsRam.scanCurrentISC != CapSense_dsRam.scanCsdISC)
 227              		.loc 1 531 0
 228 0002 424C     		ldr	r4, .L19
 229 0004 2500     		movs	r5, r4
 230 0006 AD34     		adds	r4, r4, #173
 231 0008 AC35     		adds	r5, r5, #172
 232 000a 2878     		ldrb	r0, [r5]
 233 000c 2378     		ldrb	r3, [r4]
 234 000e 8342     		cmp	r3, r0
 235 0010 03D0     		beq	.L15
 532:Generated_Source\PSoC4/CapSense_SensingCSD_LL.c ****     {
ARM GAS  C:\Users\zack.li\AppData\Local\Temp\ccTyLy6m.s 			page 15


 533:Generated_Source\PSoC4/CapSense_SensingCSD_LL.c ****         CapSense_SsSetAllIOsState((uint32)CapSense_dsRam.scanCsdISC);
 236              		.loc 1 533 0
 237 0012 FFF7FEFF 		bl	CapSense_SsSetAllIOsState
 238              	.LVL23:
 534:Generated_Source\PSoC4/CapSense_SensingCSD_LL.c ****         CapSense_dsRam.scanCurrentISC = CapSense_dsRam.scanCsdISC;
 239              		.loc 1 534 0
 240 0016 2B78     		ldrb	r3, [r5]
 241 0018 2370     		strb	r3, [r4]
 242              	.L15:
 535:Generated_Source\PSoC4/CapSense_SensingCSD_LL.c ****     }
 536:Generated_Source\PSoC4/CapSense_SensingCSD_LL.c **** 
 537:Generated_Source\PSoC4/CapSense_SensingCSD_LL.c ****     #if (CapSense_ENABLE == CapSense_CSD_SHIELD_EN)
 538:Generated_Source\PSoC4/CapSense_SensingCSD_LL.c ****         /* Connect shields to AMUX-B bus (config HSIOM regs) */
 539:Generated_Source\PSoC4/CapSense_SensingCSD_LL.c ****         #if (0u != CapSense_CSD_TOTAL_SHIELD_COUNT)
 540:Generated_Source\PSoC4/CapSense_SensingCSD_LL.c ****             CapSense_SsCSDEnableShieldElectrodes();
 243              		.loc 1 540 0
 244 001a FFF7FEFF 		bl	CapSense_SsCSDEnableShieldElectrodes
 245              	.LVL24:
 541:Generated_Source\PSoC4/CapSense_SensingCSD_LL.c ****         #endif /* (0u != CapSense_CSD_TOTAL_SHIELD_COUNT) */
 542:Generated_Source\PSoC4/CapSense_SensingCSD_LL.c **** 
 543:Generated_Source\PSoC4/CapSense_SensingCSD_LL.c ****         #if (CapSense_ENABLE == CapSense_CSD_SHIELD_TANK_EN)
 544:Generated_Source\PSoC4/CapSense_SensingCSD_LL.c ****             /* Configure Csh */
 545:Generated_Source\PSoC4/CapSense_SensingCSD_LL.c ****             CapSense_SsCSDEnableShieldTank();
 546:Generated_Source\PSoC4/CapSense_SensingCSD_LL.c ****         #endif /* (CapSense_ENABLE == CapSense_CSD_SHIELD_TANK_EN) */
 547:Generated_Source\PSoC4/CapSense_SensingCSD_LL.c ****     #endif /* (CapSense_ENABLE == CapSense_CSD_SHIELD_EN) */
 548:Generated_Source\PSoC4/CapSense_SensingCSD_LL.c **** 
 549:Generated_Source\PSoC4/CapSense_SensingCSD_LL.c ****     #if (CapSense_ENABLE == CapSense_CSDV2)
 550:Generated_Source\PSoC4/CapSense_SensingCSD_LL.c **** 
 551:Generated_Source\PSoC4/CapSense_SensingCSD_LL.c ****         CapSense_DischargeExtCapacitors(CapSense_EXT_CAP_DISCHARGE_TIME);
 246              		.loc 1 551 0
 247 001e 0120     		movs	r0, #1
 248 0020 FFF7FEFF 		bl	CapSense_DischargeExtCapacitors
 249              	.LVL25:
 552:Generated_Source\PSoC4/CapSense_SensingCSD_LL.c **** 
 553:Generated_Source\PSoC4/CapSense_SensingCSD_LL.c ****         /* Initialize the unused CSD registers to defaut state */
 554:Generated_Source\PSoC4/CapSense_SensingCSD_LL.c ****         CY_SET_REG32(CapSense_SENSE_DUTY_PTR, CapSense_DEFAULT_SENSE_DUTY_SEL);
 250              		.loc 1 554 0
 251 0024 C022     		movs	r2, #192
 555:Generated_Source\PSoC4/CapSense_SensingCSD_LL.c **** 
 556:Generated_Source\PSoC4/CapSense_SensingCSD_LL.c ****         /* Configure VREF */
 557:Generated_Source\PSoC4/CapSense_SensingCSD_LL.c ****         newRegValue = CY_GET_REG32(CapSense_SW_REFGEN_SEL_PTR);
 558:Generated_Source\PSoC4/CapSense_SensingCSD_LL.c ****         newRegValue |= CapSense_DEFAULT_SW_REFGEN_SEL;
 559:Generated_Source\PSoC4/CapSense_SensingCSD_LL.c **** 
 560:Generated_Source\PSoC4/CapSense_SensingCSD_LL.c ****         CY_SET_REG32(CapSense_SW_REFGEN_SEL_PTR, newRegValue);
 561:Generated_Source\PSoC4/CapSense_SensingCSD_LL.c ****         CY_SET_REG32(CapSense_INTR_SET_PTR,         CapSense_DEFAULT_CSD_INTR_SET);
 252              		.loc 1 561 0
 253 0026 0024     		movs	r4, #0
 554:Generated_Source\PSoC4/CapSense_SensingCSD_LL.c **** 
 254              		.loc 1 554 0
 255 0028 394B     		ldr	r3, .L19+4
 557:Generated_Source\PSoC4/CapSense_SensingCSD_LL.c ****         newRegValue |= CapSense_DEFAULT_SW_REFGEN_SEL;
 256              		.loc 1 557 0
 257 002a 3A4D     		ldr	r5, .L19+8
 554:Generated_Source\PSoC4/CapSense_SensingCSD_LL.c **** 
 258              		.loc 1 554 0
 259 002c 1203     		lsls	r2, r2, #12
 260 002e 1A60     		str	r2, [r3]
ARM GAS  C:\Users\zack.li\AppData\Local\Temp\ccTyLy6m.s 			page 16


 557:Generated_Source\PSoC4/CapSense_SensingCSD_LL.c ****         newRegValue |= CapSense_DEFAULT_SW_REFGEN_SEL;
 261              		.loc 1 557 0
 262 0030 2B68     		ldr	r3, [r5]
 263              	.LVL26:
 558:Generated_Source\PSoC4/CapSense_SensingCSD_LL.c **** 
 264              		.loc 1 558 0
 265 0032 394A     		ldr	r2, .L19+12
 562:Generated_Source\PSoC4/CapSense_SensingCSD_LL.c ****         CY_SET_REG32(CapSense_SW_FW_TANK_SEL_PTR,   CapSense_DEFAULT_CSD_SW_FW_TANK_SEL);
 563:Generated_Source\PSoC4/CapSense_SensingCSD_LL.c ****         CY_SET_REG32(CapSense_SW_DSI_SEL_PTR,       CapSense_DEFAULT_CSD_SW_DSI_SEL);
 564:Generated_Source\PSoC4/CapSense_SensingCSD_LL.c ****         CY_SET_REG32(CapSense_ADC_CTL_PTR,          CapSense_DEFAULT_CSD_ADC_CTL);
 565:Generated_Source\PSoC4/CapSense_SensingCSD_LL.c ****         CY_SET_REG32(CapSense_AMBUF_PTR,            CapSense_AMBUF_PWR_MODE_OFF);
 266              		.loc 1 565 0
 267 0034 394E     		ldr	r6, .L19+16
 558:Generated_Source\PSoC4/CapSense_SensingCSD_LL.c **** 
 268              		.loc 1 558 0
 269 0036 1343     		orrs	r3, r2
 270              	.LVL27:
 560:Generated_Source\PSoC4/CapSense_SensingCSD_LL.c ****         CY_SET_REG32(CapSense_INTR_SET_PTR,         CapSense_DEFAULT_CSD_INTR_SET);
 271              		.loc 1 560 0
 272 0038 2B60     		str	r3, [r5]
 561:Generated_Source\PSoC4/CapSense_SensingCSD_LL.c ****         CY_SET_REG32(CapSense_SW_FW_TANK_SEL_PTR,   CapSense_DEFAULT_CSD_SW_FW_TANK_SEL);
 273              		.loc 1 561 0
 274 003a 394B     		ldr	r3, .L19+20
 275              	.LVL28:
 566:Generated_Source\PSoC4/CapSense_SensingCSD_LL.c ****         CY_SET_REG32(CapSense_SW_SHIELD_SEL_PTR,    CapSense_DEFAULT_SW_SHIELD_SEL);
 567:Generated_Source\PSoC4/CapSense_SensingCSD_LL.c ****         CY_SET_REG32(CapSense_SW_HS_P_SEL_PTR,      CapSense_DEFAULT_SW_HS_P_SEL);
 276              		.loc 1 567 0
 277 003c 394F     		ldr	r7, .L19+24
 561:Generated_Source\PSoC4/CapSense_SensingCSD_LL.c ****         CY_SET_REG32(CapSense_SW_FW_TANK_SEL_PTR,   CapSense_DEFAULT_CSD_SW_FW_TANK_SEL);
 278              		.loc 1 561 0
 279 003e 1C60     		str	r4, [r3]
 280              	.LVL29:
 562:Generated_Source\PSoC4/CapSense_SensingCSD_LL.c ****         CY_SET_REG32(CapSense_SW_DSI_SEL_PTR,       CapSense_DEFAULT_CSD_SW_DSI_SEL);
 281              		.loc 1 562 0
 282 0040 394B     		ldr	r3, .L19+28
 568:Generated_Source\PSoC4/CapSense_SensingCSD_LL.c ****         CY_SET_REG32(CapSense_SW_HS_N_SEL_PTR,      CapSense_DEFAULT_SW_HS_N_SEL);
 569:Generated_Source\PSoC4/CapSense_SensingCSD_LL.c ****         CY_SET_REG32(CapSense_HSCMP_PTR,            CapSense_DEFAULT_HSCMP_CFG);
 570:Generated_Source\PSoC4/CapSense_SensingCSD_LL.c **** 
 571:Generated_Source\PSoC4/CapSense_SensingCSD_LL.c ****         /* Connect CMOD to AMUXBUS-A */
 572:Generated_Source\PSoC4/CapSense_SensingCSD_LL.c ****         CapSense_WriteBitsSafe(CapSense_CMOD_HSIOM_PTR, CapSense_CMOD_HSIOM_MASK,
 283              		.loc 1 572 0
 284 0042 6022     		movs	r2, #96
 562:Generated_Source\PSoC4/CapSense_SensingCSD_LL.c ****         CY_SET_REG32(CapSense_SW_DSI_SEL_PTR,       CapSense_DEFAULT_CSD_SW_DSI_SEL);
 285              		.loc 1 562 0
 286 0044 1C60     		str	r4, [r3]
 563:Generated_Source\PSoC4/CapSense_SensingCSD_LL.c ****         CY_SET_REG32(CapSense_ADC_CTL_PTR,          CapSense_DEFAULT_CSD_ADC_CTL);
 287              		.loc 1 563 0
 288 0046 394B     		ldr	r3, .L19+32
 289              		.loc 1 572 0
 290 0048 F021     		movs	r1, #240
 563:Generated_Source\PSoC4/CapSense_SensingCSD_LL.c ****         CY_SET_REG32(CapSense_ADC_CTL_PTR,          CapSense_DEFAULT_CSD_ADC_CTL);
 291              		.loc 1 563 0
 292 004a 1C60     		str	r4, [r3]
 564:Generated_Source\PSoC4/CapSense_SensingCSD_LL.c ****         CY_SET_REG32(CapSense_AMBUF_PTR,            CapSense_AMBUF_PWR_MODE_OFF);
 293              		.loc 1 564 0
 294 004c 384B     		ldr	r3, .L19+36
 295              		.loc 1 572 0
ARM GAS  C:\Users\zack.li\AppData\Local\Temp\ccTyLy6m.s 			page 17


 296 004e 3948     		ldr	r0, .L19+40
 564:Generated_Source\PSoC4/CapSense_SensingCSD_LL.c ****         CY_SET_REG32(CapSense_AMBUF_PTR,            CapSense_AMBUF_PWR_MODE_OFF);
 297              		.loc 1 564 0
 298 0050 1C60     		str	r4, [r3]
 566:Generated_Source\PSoC4/CapSense_SensingCSD_LL.c ****         CY_SET_REG32(CapSense_SW_HS_P_SEL_PTR,      CapSense_DEFAULT_SW_HS_P_SEL);
 299              		.loc 1 566 0
 300 0052 394B     		ldr	r3, .L19+44
 565:Generated_Source\PSoC4/CapSense_SensingCSD_LL.c ****         CY_SET_REG32(CapSense_SW_SHIELD_SEL_PTR,    CapSense_DEFAULT_SW_SHIELD_SEL);
 301              		.loc 1 565 0
 302 0054 3460     		str	r4, [r6]
 566:Generated_Source\PSoC4/CapSense_SensingCSD_LL.c ****         CY_SET_REG32(CapSense_SW_HS_P_SEL_PTR,      CapSense_DEFAULT_SW_HS_P_SEL);
 303              		.loc 1 566 0
 304 0056 1C60     		str	r4, [r3]
 568:Generated_Source\PSoC4/CapSense_SensingCSD_LL.c ****         CY_SET_REG32(CapSense_HSCMP_PTR,            CapSense_DEFAULT_HSCMP_CFG);
 305              		.loc 1 568 0
 306 0058 384B     		ldr	r3, .L19+48
 567:Generated_Source\PSoC4/CapSense_SensingCSD_LL.c ****         CY_SET_REG32(CapSense_SW_HS_N_SEL_PTR,      CapSense_DEFAULT_SW_HS_N_SEL);
 307              		.loc 1 567 0
 308 005a 3C60     		str	r4, [r7]
 568:Generated_Source\PSoC4/CapSense_SensingCSD_LL.c ****         CY_SET_REG32(CapSense_HSCMP_PTR,            CapSense_DEFAULT_HSCMP_CFG);
 309              		.loc 1 568 0
 310 005c 1C60     		str	r4, [r3]
 569:Generated_Source\PSoC4/CapSense_SensingCSD_LL.c **** 
 311              		.loc 1 569 0
 312 005e 384B     		ldr	r3, .L19+52
 313 0060 1C60     		str	r4, [r3]
 314              		.loc 1 572 0
 315 0062 FFF7FEFF 		bl	CapSense_WriteBitsSafe
 316              	.LVL30:
 573:Generated_Source\PSoC4/CapSense_SensingCSD_LL.c ****                     (uint32)(CapSense_HSIOM_SEL_AMUXA << CapSense_CMOD_HSIOM_SHIFT));
 574:Generated_Source\PSoC4/CapSense_SensingCSD_LL.c **** 
 575:Generated_Source\PSoC4/CapSense_SensingCSD_LL.c ****         /* Set output port register to 0 to connect to GND */
 576:Generated_Source\PSoC4/CapSense_SensingCSD_LL.c ****         CapSense_WriteBitsSafe(CapSense_CMOD_DR_PTR, CapSense_Cmod__0__MASK, 0u);
 317              		.loc 1 576 0
 318 0066 2200     		movs	r2, r4
 319 0068 0221     		movs	r1, #2
 320 006a 3648     		ldr	r0, .L19+56
 321 006c FFF7FEFF 		bl	CapSense_WriteBitsSafe
 322              	.LVL31:
 577:Generated_Source\PSoC4/CapSense_SensingCSD_LL.c **** 
 578:Generated_Source\PSoC4/CapSense_SensingCSD_LL.c ****         /* Connect AMUXBUS-A to CSDBUS-A */
 579:Generated_Source\PSoC4/CapSense_SensingCSD_LL.c ****         newRegValue = CY_GET_REG32(CapSense_SW_BYP_SEL_PTR);
 580:Generated_Source\PSoC4/CapSense_SensingCSD_LL.c ****         newRegValue |= CapSense_SW_BYP_SEL_SW_BYA_MASK;
 323              		.loc 1 580 0
 324 0070 8021     		movs	r1, #128
 579:Generated_Source\PSoC4/CapSense_SensingCSD_LL.c ****         newRegValue |= CapSense_SW_BYP_SEL_SW_BYA_MASK;
 325              		.loc 1 579 0
 326 0072 354A     		ldr	r2, .L19+60
 327              		.loc 1 580 0
 328 0074 4901     		lsls	r1, r1, #5
 579:Generated_Source\PSoC4/CapSense_SensingCSD_LL.c ****         newRegValue |= CapSense_SW_BYP_SEL_SW_BYA_MASK;
 329              		.loc 1 579 0
 330 0076 1368     		ldr	r3, [r2]
 331              	.LVL32:
 332              		.loc 1 580 0
 333 0078 0B43     		orrs	r3, r1
 334              	.LVL33:
ARM GAS  C:\Users\zack.li\AppData\Local\Temp\ccTyLy6m.s 			page 18


 581:Generated_Source\PSoC4/CapSense_SensingCSD_LL.c ****         CY_SET_REG32(CapSense_SW_BYP_SEL_PTR, newRegValue);
 582:Generated_Source\PSoC4/CapSense_SensingCSD_LL.c **** 
 583:Generated_Source\PSoC4/CapSense_SensingCSD_LL.c ****         /* Connect CMOD to (sense path) to CSDCOMP */
 584:Generated_Source\PSoC4/CapSense_SensingCSD_LL.c ****         #if (CapSense_CSD__CMOD_PAD == CapSense_CMOD_CONNECTION)
 585:Generated_Source\PSoC4/CapSense_SensingCSD_LL.c ****             CY_SET_REG32(CapSense_SW_CMP_P_SEL_PTR, CapSense_SW_CMP_P_SEL_SW_SFPM_STATIC_CLOSE);
 586:Generated_Source\PSoC4/CapSense_SensingCSD_LL.c ****         #elif (CapSense_CSD__CSHIELD_PAD == CapSense_CMOD_CONNECTION)
 587:Generated_Source\PSoC4/CapSense_SensingCSD_LL.c ****             CY_SET_REG32(CapSense_SW_CMP_P_SEL_PTR, CapSense_SW_CMP_P_SEL_SW_SFPS_STATIC_CLOSE);
 335              		.loc 1 587 0
 336 007a 8021     		movs	r1, #128
 581:Generated_Source\PSoC4/CapSense_SensingCSD_LL.c ****         CY_SET_REG32(CapSense_SW_BYP_SEL_PTR, newRegValue);
 337              		.loc 1 581 0
 338 007c 1360     		str	r3, [r2]
 339              		.loc 1 587 0
 340 007e 334B     		ldr	r3, .L19+64
 341              	.LVL34:
 342 0080 4900     		lsls	r1, r1, #1
 343 0082 1960     		str	r1, [r3]
 344              	.LVL35:
 588:Generated_Source\PSoC4/CapSense_SensingCSD_LL.c ****         #else
 589:Generated_Source\PSoC4/CapSense_SensingCSD_LL.c ****             CY_SET_REG32(CapSense_SW_CMP_P_SEL_PTR, CapSense_SW_CMP_P_SEL_SW_SFPT_STATIC_CLOSE);
 590:Generated_Source\PSoC4/CapSense_SensingCSD_LL.c ****         #endif /* (CapSense_CSD__CMOD_PAD == CapSense_CMOD_CONNECTION) */
 591:Generated_Source\PSoC4/CapSense_SensingCSD_LL.c **** 
 592:Generated_Source\PSoC4/CapSense_SensingCSD_LL.c ****         /* Configure shield driving path */
 593:Generated_Source\PSoC4/CapSense_SensingCSD_LL.c ****         #if (CapSense_ENABLE == CapSense_CSD_SHIELD_EN)
 594:Generated_Source\PSoC4/CapSense_SensingCSD_LL.c ****             /* Connect AMUXBUS-B to CSDBUS-B (and AMUXBUS-A to CSDBUS-A ) */
 595:Generated_Source\PSoC4/CapSense_SensingCSD_LL.c ****             CY_SET_REG32(CapSense_SW_BYP_SEL_PTR, CapSense_SW_BYP_SEL_SW_BYA_MASK | CapSense_SW_BYP
 345              		.loc 1 595 0
 346 0084 8823     		movs	r3, #136
 347 0086 5B02     		lsls	r3, r3, #9
 348 0088 1360     		str	r3, [r2]
 596:Generated_Source\PSoC4/CapSense_SensingCSD_LL.c **** 
 597:Generated_Source\PSoC4/CapSense_SensingCSD_LL.c ****             /* Connect AMUXBUS-B to HSCMP positive input */
 598:Generated_Source\PSoC4/CapSense_SensingCSD_LL.c ****             CY_SET_REG32(CapSense_SW_HS_P_SEL_PTR, 0x00000000uL);
 349              		.loc 1 598 0
 350 008a 3C60     		str	r4, [r7]
 599:Generated_Source\PSoC4/CapSense_SensingCSD_LL.c ****         #endif /* (CapSense_ENABLE == CapSense_CSD_SHIELD_EN) */
 600:Generated_Source\PSoC4/CapSense_SensingCSD_LL.c **** 
 601:Generated_Source\PSoC4/CapSense_SensingCSD_LL.c ****         /* Configure VREF */
 602:Generated_Source\PSoC4/CapSense_SensingCSD_LL.c ****         #if (CapSense_ENABLE == CapSense_CSD_IDAC_COMP_EN)
 603:Generated_Source\PSoC4/CapSense_SensingCSD_LL.c ****             /* Connect VREF to REFGEN. Connect IDACB to CSDBUSA */
 604:Generated_Source\PSoC4/CapSense_SensingCSD_LL.c ****             newRegValue = CY_GET_REG32(CapSense_SW_REFGEN_SEL_PTR);
 351              		.loc 1 604 0
 352 008c 2B68     		ldr	r3, [r5]
 353              	.LVL36:
 605:Generated_Source\PSoC4/CapSense_SensingCSD_LL.c ****             newRegValue |= CapSense_SW_REFGEN_SEL_SW_SGR_MASK | CapSense_SW_REFGEN_SEL_SW_IAIB_MASK
 354              		.loc 1 605 0
 355 008e 224A     		ldr	r2, .L19+12
 606:Generated_Source\PSoC4/CapSense_SensingCSD_LL.c ****             CY_SET_REG32(CapSense_SW_REFGEN_SEL_PTR, newRegValue);
 607:Generated_Source\PSoC4/CapSense_SensingCSD_LL.c ****         #else
 608:Generated_Source\PSoC4/CapSense_SensingCSD_LL.c ****             /* Connect VREF to REFGEN (IAIB switch is open) */
 609:Generated_Source\PSoC4/CapSense_SensingCSD_LL.c ****             newRegValue = CY_GET_REG32(CapSense_SW_REFGEN_SEL_PTR);
 610:Generated_Source\PSoC4/CapSense_SensingCSD_LL.c ****             newRegValue |= CapSense_SW_REFGEN_SEL_SW_SGR_MASK;
 611:Generated_Source\PSoC4/CapSense_SensingCSD_LL.c ****             CY_SET_REG32(CapSense_SW_REFGEN_SEL_PTR, newRegValue);
 612:Generated_Source\PSoC4/CapSense_SensingCSD_LL.c ****         #endif /* (CapSense_ENABLE == CapSense_CSD_IDAC_COMP_EN) */
 613:Generated_Source\PSoC4/CapSense_SensingCSD_LL.c **** 
 614:Generated_Source\PSoC4/CapSense_SensingCSD_LL.c ****         /* Connect VREFHI (from RefGen) to CSDCOMP when Vdda >= 2 V */
 615:Generated_Source\PSoC4/CapSense_SensingCSD_LL.c ****         CY_SET_REG32(CapSense_SW_CMP_N_SEL_PTR, CapSense_SW_CMP_N_SEL_SW_SCRH_STATIC_CLOSE);
ARM GAS  C:\Users\zack.li\AppData\Local\Temp\ccTyLy6m.s 			page 19


 616:Generated_Source\PSoC4/CapSense_SensingCSD_LL.c **** 
 617:Generated_Source\PSoC4/CapSense_SensingCSD_LL.c ****         #if (CapSense_2000_MV > CapSense_CYDEV_VDDA_MV)
 618:Generated_Source\PSoC4/CapSense_SensingCSD_LL.c **** 
 619:Generated_Source\PSoC4/CapSense_SensingCSD_LL.c ****             /* Configure REFGEN. Set reference voltage when Vdda < 2 V */
 620:Generated_Source\PSoC4/CapSense_SensingCSD_LL.c ****             CY_SET_REG32(CapSense_REFGEN_PTR, CapSense_REFGEN_LV);
 621:Generated_Source\PSoC4/CapSense_SensingCSD_LL.c **** 
 622:Generated_Source\PSoC4/CapSense_SensingCSD_LL.c ****             /* Connect Vrefhi to AMUBUF positive input when Vdaa < 2V
 623:Generated_Source\PSoC4/CapSense_SensingCSD_LL.c ****              *  Connect AMUBUF to SCDCMP negative input when Vdaa < 2V
 624:Generated_Source\PSoC4/CapSense_SensingCSD_LL.c ****              */
 625:Generated_Source\PSoC4/CapSense_SensingCSD_LL.c ****             #if (CapSense_ENABLE == CapSense_CSD_SHIELD_EN)
 626:Generated_Source\PSoC4/CapSense_SensingCSD_LL.c ****                 #if (CapSense_IDAC_SINKING == CapSense_CSD_IDAC_CONFIG)
 627:Generated_Source\PSoC4/CapSense_SensingCSD_LL.c ****                     CY_SET_REG32(CapSense_SW_AMUXBUF_SEL_PTR, CapSense_SW_AMUXBUF_SEL_SW_IRH_STATIC
 628:Generated_Source\PSoC4/CapSense_SensingCSD_LL.c ****                                                                           CapSense_SW_AMUXBUF_SEL_S
 629:Generated_Source\PSoC4/CapSense_SensingCSD_LL.c ****                 #else
 630:Generated_Source\PSoC4/CapSense_SensingCSD_LL.c ****                     CY_SET_REG32(CapSense_SW_AMUXBUF_SEL_PTR, CapSense_SW_AMUXBUF_SEL_SW_DEFAULT);
 631:Generated_Source\PSoC4/CapSense_SensingCSD_LL.c ****                 #endif /* (CapSense_ENABLE == CapSense_CSD_SHIELD_EN) */
 632:Generated_Source\PSoC4/CapSense_SensingCSD_LL.c ****                 CY_SET_REG32(CapSense_AMBUF_PTR, CapSense_AMBUF_PWR_MODE_NORM);
 633:Generated_Source\PSoC4/CapSense_SensingCSD_LL.c ****             #else
 634:Generated_Source\PSoC4/CapSense_SensingCSD_LL.c ****                 CY_SET_REG32(CapSense_AMBUF_PTR, CapSense_AMBUF_PWR_MODE_OFF);
 635:Generated_Source\PSoC4/CapSense_SensingCSD_LL.c ****             #endif /* (CapSense_ENABLE == CapSense_CSD_SHIELD_EN) */
 636:Generated_Source\PSoC4/CapSense_SensingCSD_LL.c **** 
 637:Generated_Source\PSoC4/CapSense_SensingCSD_LL.c ****             /* Connect VREFHI to HSCOMP */
 638:Generated_Source\PSoC4/CapSense_SensingCSD_LL.c ****             CY_SET_REG32(CapSense_SW_HS_N_SEL_PTR, CapSense_SW_HS_N_SEL_SW_HCRH_STATIC_CLOSE);
 639:Generated_Source\PSoC4/CapSense_SensingCSD_LL.c ****         #else
 640:Generated_Source\PSoC4/CapSense_SensingCSD_LL.c **** 
 641:Generated_Source\PSoC4/CapSense_SensingCSD_LL.c ****             /* Configure REFGEN. Set reference voltage when Vdda >= 2 V */
 642:Generated_Source\PSoC4/CapSense_SensingCSD_LL.c ****             CY_SET_REG32(CapSense_REFGEN_PTR, CapSense_REFGEN_HV);
 356              		.loc 1 642 0
 357 0090 2F49     		ldr	r1, .L19+68
 605:Generated_Source\PSoC4/CapSense_SensingCSD_LL.c ****             newRegValue |= CapSense_SW_REFGEN_SEL_SW_SGR_MASK | CapSense_SW_REFGEN_SEL_SW_IAIB_MASK
 358              		.loc 1 605 0
 359 0092 1343     		orrs	r3, r2
 360              	.LVL37:
 606:Generated_Source\PSoC4/CapSense_SensingCSD_LL.c ****             CY_SET_REG32(CapSense_SW_REFGEN_SEL_PTR, newRegValue);
 361              		.loc 1 606 0
 362 0094 2B60     		str	r3, [r5]
 615:Generated_Source\PSoC4/CapSense_SensingCSD_LL.c **** 
 363              		.loc 1 615 0
 364 0096 8023     		movs	r3, #128
 365              	.LVL38:
 366 0098 2E4A     		ldr	r2, .L19+72
 367 009a 5B04     		lsls	r3, r3, #17
 368 009c 1360     		str	r3, [r2]
 369              	.LVL39:
 370              		.loc 1 642 0
 371 009e 2E4A     		ldr	r2, .L19+76
 372 00a0 2E4D     		ldr	r5, .L19+80
 373 00a2 1160     		str	r1, [r2]
 643:Generated_Source\PSoC4/CapSense_SensingCSD_LL.c **** 
 644:Generated_Source\PSoC4/CapSense_SensingCSD_LL.c ****             #if (CapSense_ENABLE == CapSense_CSD_SHIELD_EN)
 645:Generated_Source\PSoC4/CapSense_SensingCSD_LL.c ****                 /* Turn on CSD_AMBUF high power level when Vdaa >= 2V */
 646:Generated_Source\PSoC4/CapSense_SensingCSD_LL.c ****                 CY_SET_REG32(CapSense_AMBUF_PTR, CapSense_AMBUF_PWR_MODE_HI);
 374              		.loc 1 646 0
 375 00a4 0222     		movs	r2, #2
 647:Generated_Source\PSoC4/CapSense_SensingCSD_LL.c **** 
 648:Generated_Source\PSoC4/CapSense_SensingCSD_LL.c ****                 #if (CapSense_IDAC_SINKING != CapSense_CSD_IDAC_CONFIG)
 649:Generated_Source\PSoC4/CapSense_SensingCSD_LL.c ****                     CY_SET_REG32(CapSense_SW_AMUXBUF_SEL_PTR, CapSense_SW_AMUXBUF_SEL_SW_IRH_STATIC
ARM GAS  C:\Users\zack.li\AppData\Local\Temp\ccTyLy6m.s 			page 20


 376              		.loc 1 649 0
 377 00a6 2E49     		ldr	r1, .L19+84
 646:Generated_Source\PSoC4/CapSense_SensingCSD_LL.c **** 
 378              		.loc 1 646 0
 379 00a8 3260     		str	r2, [r6]
 380              		.loc 1 649 0
 381 00aa 2E4A     		ldr	r2, .L19+88
 650:Generated_Source\PSoC4/CapSense_SensingCSD_LL.c ****                                                                           CapSense_SW_AMUXBUF_SEL_S
 651:Generated_Source\PSoC4/CapSense_SensingCSD_LL.c ****                 #else
 652:Generated_Source\PSoC4/CapSense_SensingCSD_LL.c ****                     CY_SET_REG32(CapSense_SW_AMUXBUF_SEL_PTR, CapSense_SW_AMUXBUF_SEL_SW_DEFAULT);
 653:Generated_Source\PSoC4/CapSense_SensingCSD_LL.c ****                 #endif /* (CapSense_IDAC_SINKING == CapSense_CSD_IDAC_CONFIG) */
 654:Generated_Source\PSoC4/CapSense_SensingCSD_LL.c ****             #else
 655:Generated_Source\PSoC4/CapSense_SensingCSD_LL.c ****                 CY_SET_REG32(CapSense_SW_AMUXBUF_SEL_PTR, CapSense_SW_AMUXBUF_SEL_SW_DEFAULT);
 656:Generated_Source\PSoC4/CapSense_SensingCSD_LL.c ****             #endif /* (CapSense_ENABLE == CapSense_CSD_SHIELD_EN) */
 657:Generated_Source\PSoC4/CapSense_SensingCSD_LL.c **** 
 658:Generated_Source\PSoC4/CapSense_SensingCSD_LL.c ****             /* Connect VREFHI to HSCOMP */
 659:Generated_Source\PSoC4/CapSense_SensingCSD_LL.c ****             CY_SET_REG32(CapSense_SW_HS_N_SEL_PTR, CapSense_SW_HS_N_SEL_SW_HCRH_STATIC_CLOSE);
 660:Generated_Source\PSoC4/CapSense_SensingCSD_LL.c ****         #endif /* (CapSense_2000_MV > CapSense_CYDEV_VDDA_MV) */
 661:Generated_Source\PSoC4/CapSense_SensingCSD_LL.c **** 
 662:Generated_Source\PSoC4/CapSense_SensingCSD_LL.c ****         /* Configure IDACs mode */
 663:Generated_Source\PSoC4/CapSense_SensingCSD_LL.c ****         CapSense_SsCSDConfigIDACs();
 664:Generated_Source\PSoC4/CapSense_SensingCSD_LL.c **** 
 665:Generated_Source\PSoC4/CapSense_SensingCSD_LL.c ****         /* Configure ModClk */
 666:Generated_Source\PSoC4/CapSense_SensingCSD_LL.c ****         CapSense_SsSetModClkClockDivider((uint32)CapSense_dsRam.modCsdClk);
 382              		.loc 1 666 0
 383 00ac 174E     		ldr	r6, .L19
 649:Generated_Source\PSoC4/CapSense_SensingCSD_LL.c ****                                                                           CapSense_SW_AMUXBUF_SEL_S
 384              		.loc 1 649 0
 385 00ae 1160     		str	r1, [r2]
 659:Generated_Source\PSoC4/CapSense_SensingCSD_LL.c ****         #endif /* (CapSense_2000_MV > CapSense_CYDEV_VDDA_MV) */
 386              		.loc 1 659 0
 387 00b0 224A     		ldr	r2, .L19+48
 388              		.loc 1 666 0
 389 00b2 0136     		adds	r6, r6, #1
 659:Generated_Source\PSoC4/CapSense_SensingCSD_LL.c ****         #endif /* (CapSense_2000_MV > CapSense_CYDEV_VDDA_MV) */
 390              		.loc 1 659 0
 391 00b4 1360     		str	r3, [r2]
 392              	.LBB10:
 393              	.LBB11:
 473:Generated_Source\PSoC4/CapSense_SensingCSD_LL.c ****         #if (CapSense_ENABLE == CapSense_CSD_IDAC_COMP_EN)
 394              		.loc 1 473 0
 395 00b6 2C4A     		ldr	r2, .L19+92
 396 00b8 2C4B     		ldr	r3, .L19+96
 397 00ba 1A60     		str	r2, [r3]
 475:Generated_Source\PSoC4/CapSense_SensingCSD_LL.c ****         #endif /* (CapSense_ENABLE == CapSense_CSD_IDAC_COMP_EN) */
 398              		.loc 1 475 0
 399 00bc C522     		movs	r2, #197
 400 00be 2C4B     		ldr	r3, .L19+100
 401 00c0 5204     		lsls	r2, r2, #17
 402 00c2 1A60     		str	r2, [r3]
 403              	.LBE11:
 404              	.LBE10:
 405              		.loc 1 666 0
 406 00c4 F07F     		ldrb	r0, [r6, #31]
 407 00c6 FFF7FEFF 		bl	CapSense_SsSetModClkClockDivider
 408              	.LVL40:
 409              	.LBB12:
ARM GAS  C:\Users\zack.li\AppData\Local\Temp\ccTyLy6m.s 			page 21


 410              	.LBB13:
 206:Generated_Source\PSoC4/CapSense_SensingCSD_LL.c ****         CapSense_configCsd |= (delay << CapSense_SHIELD_DELAY_SHIFT);
 411              		.loc 1 206 0
 412 00ca 2A4C     		ldr	r4, .L19+104
 413              	.LBE13:
 414              	.LBE12:
 415              	.LBB14:
 416              	.LBB15:
 439:Generated_Source\PSoC4/CapSense_SensingCSD_LL.c ****             {
 417              		.loc 1 439 0
 418 00cc F17F     		ldrb	r1, [r6, #31]
 419 00ce 2368     		ldr	r3, [r4]
 420 00d0 2948     		ldr	r0, .L19+108
 421 00d2 1D40     		ands	r5, r3
 422              	.LVL41:
 423 00d4 FFF7FEFF 		bl	__aeabi_uidiv
 424              	.LVL42:
 425 00d8 284A     		ldr	r2, .L19+112
 426 00da 2300     		movs	r3, r4
 427 00dc 9042     		cmp	r0, r2
 428 00de 01D8     		bhi	.L16
 441:Generated_Source\PSoC4/CapSense_SensingCSD_LL.c ****             }
 429              		.loc 1 441 0
 430 00e0 9022     		movs	r2, #144
 431 00e2 00E0     		b	.L18
 432              	.L16:
 445:Generated_Source\PSoC4/CapSense_SensingCSD_LL.c ****             }
 433              		.loc 1 445 0
 434 00e4 9822     		movs	r2, #152
 435              	.L18:
 436 00e6 5200     		lsls	r2, r2, #1
 437 00e8 1543     		orrs	r5, r2
 438 00ea 1D60     		str	r5, [r3]
 439              	.LBE15:
 440              	.LBE14:
 667:Generated_Source\PSoC4/CapSense_SensingCSD_LL.c **** 
 668:Generated_Source\PSoC4/CapSense_SensingCSD_LL.c ****         /* Set other CSD configurations */
 669:Generated_Source\PSoC4/CapSense_SensingCSD_LL.c ****         #if (CapSense_ENABLE == CapSense_CSD_SHIELD_EN)
 670:Generated_Source\PSoC4/CapSense_SensingCSD_LL.c ****             CapSense_SsSetShieldDelay(CapSense_CSD_SHIELD_DELAY);
 671:Generated_Source\PSoC4/CapSense_SensingCSD_LL.c ****         #endif /* (CapSense_ENABLE == CapSense_CSD_SHIELD_EN) */
 672:Generated_Source\PSoC4/CapSense_SensingCSD_LL.c **** 
 673:Generated_Source\PSoC4/CapSense_SensingCSD_LL.c ****         /* Configure HW block filter delay */
 674:Generated_Source\PSoC4/CapSense_SensingCSD_LL.c ****         CapSense_SsCSDSetFilterDelay();
 675:Generated_Source\PSoC4/CapSense_SensingCSD_LL.c **** 
 676:Generated_Source\PSoC4/CapSense_SensingCSD_LL.c ****         #if (CapSense_DISABLE == CapSense_BLOCK_OFF_AFTER_SCAN_EN)
 677:Generated_Source\PSoC4/CapSense_SensingCSD_LL.c ****             /* Enable power to sub-blocks */
 678:Generated_Source\PSoC4/CapSense_SensingCSD_LL.c ****             CY_SET_REG32(CapSense_CONFIG_PTR, CapSense_configCsd |
 441              		.loc 1 678 0
 442 00ec 1B68     		ldr	r3, [r3]
 443 00ee 244A     		ldr	r2, .L19+116
 679:Generated_Source\PSoC4/CapSense_SensingCSD_LL.c ****                                                       CapSense_CONFIG_SENSE_EN_MASK |
 680:Generated_Source\PSoC4/CapSense_SensingCSD_LL.c ****                                                       CapSense_CONFIG_ENABLE_MASK);
 681:Generated_Source\PSoC4/CapSense_SensingCSD_LL.c ****         #endif /* (CapSense_ENABLE == CapSense_BLOCK_OFF_AFTER_SCAN_EN) */
 682:Generated_Source\PSoC4/CapSense_SensingCSD_LL.c **** 
 683:Generated_Source\PSoC4/CapSense_SensingCSD_LL.c ****         /* Set Csd Auto Zero time (set AZ_TIME bitmask) */
 684:Generated_Source\PSoC4/CapSense_SensingCSD_LL.c ****         CY_SET_REG32(CapSense_SEQ_TIME_PTR, CapSense_CSD_AUTO_ZERO_TIME);
 685:Generated_Source\PSoC4/CapSense_SensingCSD_LL.c **** 
ARM GAS  C:\Users\zack.li\AppData\Local\Temp\ccTyLy6m.s 			page 22


 686:Generated_Source\PSoC4/CapSense_SensingCSD_LL.c ****         /* Select CMOD and Csh_tank/shield initialization switch resistance */
 687:Generated_Source\PSoC4/CapSense_SensingCSD_LL.c ****         CY_SET_REG32(CapSense_SW_RES_PTR, 0x00000000);
 688:Generated_Source\PSoC4/CapSense_SensingCSD_LL.c **** 
 689:Generated_Source\PSoC4/CapSense_SensingCSD_LL.c ****         /* Set the number of dummy fine initialization cycles */
 690:Generated_Source\PSoC4/CapSense_SensingCSD_LL.c ****         CY_SET_REG32(CapSense_SEQ_INIT_CNT_PTR, CapSense_CSD_FINE_INIT_TIME);
 691:Generated_Source\PSoC4/CapSense_SensingCSD_LL.c **** 
 692:Generated_Source\PSoC4/CapSense_SensingCSD_LL.c ****     #else
 693:Generated_Source\PSoC4/CapSense_SensingCSD_LL.c **** 
 694:Generated_Source\PSoC4/CapSense_SensingCSD_LL.c ****         /* Configure IDACs mode */
 695:Generated_Source\PSoC4/CapSense_SensingCSD_LL.c ****         CapSense_SsCSDConfigIDACs();
 696:Generated_Source\PSoC4/CapSense_SensingCSD_LL.c **** 
 697:Generated_Source\PSoC4/CapSense_SensingCSD_LL.c ****         /* Connect Cmod to AMUXBUS-A using HSIOM registers */
 698:Generated_Source\PSoC4/CapSense_SensingCSD_LL.c ****         CapSense_WriteBitsSafe(CapSense_CMOD_HSIOM_PTR, CapSense_CMOD_HSIOM_MASK,
 699:Generated_Source\PSoC4/CapSense_SensingCSD_LL.c ****                     (uint32)(CapSense_HSIOM_SEL_AMUXA << CapSense_CMOD_HSIOM_SHIFT));
 700:Generated_Source\PSoC4/CapSense_SensingCSD_LL.c **** 
 701:Generated_Source\PSoC4/CapSense_SensingCSD_LL.c ****         #if (CapSense_ENABLE == CapSense_CSD_SHIELD_EN)
 702:Generated_Source\PSoC4/CapSense_SensingCSD_LL.c ****             CapSense_SsSetShieldDelay(CapSense_CSD_SHIELD_DELAY);
 703:Generated_Source\PSoC4/CapSense_SensingCSD_LL.c ****         #endif /* (CapSense_ENABLE == CapSense_CSD_SHIELD_EN) */
 704:Generated_Source\PSoC4/CapSense_SensingCSD_LL.c **** 
 705:Generated_Source\PSoC4/CapSense_SensingCSD_LL.c ****         /* Enable CSD block. Connect Vref Buffer to AMUX bus to make sure that Cmod is charged befo
 706:Generated_Source\PSoC4/CapSense_SensingCSD_LL.c ****         #if (CapSense_ENABLE == CapSense_BLOCK_OFF_AFTER_SCAN_EN)
 707:Generated_Source\PSoC4/CapSense_SensingCSD_LL.c ****             CY_SET_REG32(CapSense_CONFIG_PTR, CapSense_configCsd);
 708:Generated_Source\PSoC4/CapSense_SensingCSD_LL.c ****         #else
 709:Generated_Source\PSoC4/CapSense_SensingCSD_LL.c ****             CY_SET_REG32(CapSense_CONFIG_PTR, CapSense_configCsd | CapSense_CTANK_PRECHARGE_CONFIG_
 710:Generated_Source\PSoC4/CapSense_SensingCSD_LL.c ****         #endif
 711:Generated_Source\PSoC4/CapSense_SensingCSD_LL.c ****     #endif /* (CapSense_ENABLE == CapSense_CSDV2) */
 712:Generated_Source\PSoC4/CapSense_SensingCSD_LL.c **** 
 713:Generated_Source\PSoC4/CapSense_SensingCSD_LL.c ****     #if ((CapSense_ENABLE == CapSense_CSD_COMMON_SNS_CLK_EN) &&\
 714:Generated_Source\PSoC4/CapSense_SensingCSD_LL.c ****          (CapSense_CLK_SOURCE_DIRECT == CapSense_CSD_SNS_CLK_SOURCE))
 715:Generated_Source\PSoC4/CapSense_SensingCSD_LL.c ****          /* Set clock dividers and clock source mode */
 716:Generated_Source\PSoC4/CapSense_SensingCSD_LL.c ****         CapSense_SsCSDConfigClock();
 717:Generated_Source\PSoC4/CapSense_SensingCSD_LL.c ****     #endif
 718:Generated_Source\PSoC4/CapSense_SensingCSD_LL.c **** }
 444              		.loc 1 718 0
 445              		@ sp needed
 678:Generated_Source\PSoC4/CapSense_SensingCSD_LL.c ****                                                       CapSense_CONFIG_SENSE_EN_MASK |
 446              		.loc 1 678 0
 447 00f0 1343     		orrs	r3, r2
 448 00f2 244A     		ldr	r2, .L19+120
 449 00f4 1360     		str	r3, [r2]
 684:Generated_Source\PSoC4/CapSense_SensingCSD_LL.c **** 
 450              		.loc 1 684 0
 451 00f6 0F22     		movs	r2, #15
 452 00f8 234B     		ldr	r3, .L19+124
 453 00fa 1A60     		str	r2, [r3]
 687:Generated_Source\PSoC4/CapSense_SensingCSD_LL.c **** 
 454              		.loc 1 687 0
 455 00fc 0022     		movs	r2, #0
 456 00fe 234B     		ldr	r3, .L19+128
 457 0100 1A60     		str	r2, [r3]
 690:Generated_Source\PSoC4/CapSense_SensingCSD_LL.c **** 
 458              		.loc 1 690 0
 459 0102 234B     		ldr	r3, .L19+132
 460 0104 0A32     		adds	r2, r2, #10
 461 0106 1A60     		str	r2, [r3]
 462              		.loc 1 718 0
 463 0108 F8BD     		pop	{r3, r4, r5, r6, r7, pc}
ARM GAS  C:\Users\zack.li\AppData\Local\Temp\ccTyLy6m.s 			page 23


 464              	.L20:
 465 010a C046     		.align	2
 466              	.L19:
 467 010c 00000000 		.word	CapSense_dsRam
 468 0110 04020B40 		.word	1074463236
 469 0114 A8020B40 		.word	1074463400
 470 0118 01000010 		.word	268435457
 471 011c 84010B40 		.word	1074463108
 472 0120 F4000B40 		.word	1074462964
 473 0124 80020B40 		.word	1074463360
 474 0128 B4020B40 		.word	1074463412
 475 012c C0020B40 		.word	1074463424
 476 0130 20030B40 		.word	1074463520
 477 0134 00040240 		.word	1073873920
 478 0138 88020B40 		.word	1074463368
 479 013c 84020B40 		.word	1074463364
 480 0140 80010B40 		.word	1074463104
 481 0144 00040440 		.word	1074004992
 482 0148 94020B40 		.word	1074463380
 483 014c A0020B40 		.word	1074463392
 484 0150 41120000 		.word	4673
 485 0154 A4020B40 		.word	1074463396
 486 0158 88010B40 		.word	1074463112
 487 015c 8FFCFFFF 		.word	-881
 488 0160 00000301 		.word	16973824
 489 0164 90020B40 		.word	1074463376
 490 0168 00008F01 		.word	26148864
 491 016c C0010B40 		.word	1074463168
 492 0170 C4010B40 		.word	1074463172
 493 0174 00000000 		.word	.LANCHOR0
 494 0178 00366E01 		.word	24000000
 495 017c 001BB700 		.word	12000000
 496 0180 00100080 		.word	-2147479552
 497 0184 00000B40 		.word	1074462720
 498 0188 00030B40 		.word	1074463488
 499 018c F0010B40 		.word	1074463216
 500 0190 10030B40 		.word	1074463504
 501              		.cfi_endproc
 502              	.LFE8:
 503              		.size	CapSense_SsCSDInitialize, .-CapSense_SsCSDInitialize
 504              		.section	.text.CapSense_SsCSDSetUpIdacs,"ax",%progbits
 505              		.align	1
 506              		.global	CapSense_SsCSDSetUpIdacs
 507              		.code	16
 508              		.thumb_func
 509              		.type	CapSense_SsCSDSetUpIdacs, %function
 510              	CapSense_SsCSDSetUpIdacs:
 511              	.LFB10:
 719:Generated_Source\PSoC4/CapSense_SensingCSD_LL.c **** 
 720:Generated_Source\PSoC4/CapSense_SensingCSD_LL.c **** 
 721:Generated_Source\PSoC4/CapSense_SensingCSD_LL.c **** /*******************************************************************************
 722:Generated_Source\PSoC4/CapSense_SensingCSD_LL.c **** * Function Name: CapSense_SsCSDElectrodeCheck
 723:Generated_Source\PSoC4/CapSense_SensingCSD_LL.c **** ****************************************************************************//**
 724:Generated_Source\PSoC4/CapSense_SensingCSD_LL.c **** *
 725:Generated_Source\PSoC4/CapSense_SensingCSD_LL.c **** * \brief
 726:Generated_Source\PSoC4/CapSense_SensingCSD_LL.c **** *   Checks if electrodes were previously connected using
 727:Generated_Source\PSoC4/CapSense_SensingCSD_LL.c ****  * CapSense_CSDSetupWidgetExt() API and if yes disconnects them.
ARM GAS  C:\Users\zack.li\AppData\Local\Temp\ccTyLy6m.s 			page 24


 728:Generated_Source\PSoC4/CapSense_SensingCSD_LL.c **** *
 729:Generated_Source\PSoC4/CapSense_SensingCSD_LL.c **** * \details
 730:Generated_Source\PSoC4/CapSense_SensingCSD_LL.c **** *   This function checks if CapSense_eleCsdDisconnectFlag is set.
 731:Generated_Source\PSoC4/CapSense_SensingCSD_LL.c **** *   If it set, the function disconnects the previously connected electrode.
 732:Generated_Source\PSoC4/CapSense_SensingCSD_LL.c **** *   The previous IO is contained in CapSense_curSnsIOPtr and
 733:Generated_Source\PSoC4/CapSense_SensingCSD_LL.c **** *   CapSense_curFlashSnsPtr contains the previous data for Ganged
 734:Generated_Source\PSoC4/CapSense_SensingCSD_LL.c **** *   sensors.
 735:Generated_Source\PSoC4/CapSense_SensingCSD_LL.c **** *
 736:Generated_Source\PSoC4/CapSense_SensingCSD_LL.c **** *******************************************************************************/
 737:Generated_Source\PSoC4/CapSense_SensingCSD_LL.c **** void CapSense_SsCSDElectrodeCheck(void)
 738:Generated_Source\PSoC4/CapSense_SensingCSD_LL.c **** {
 739:Generated_Source\PSoC4/CapSense_SensingCSD_LL.c ****     #if (CapSense_ENABLE == CapSense_CSD_GANGED_SNS_EN)
 740:Generated_Source\PSoC4/CapSense_SensingCSD_LL.c ****         uint32 tempVal;
 741:Generated_Source\PSoC4/CapSense_SensingCSD_LL.c ****     #endif /* (CapSense_ENABLE == CapSense_CSD_GANGED_SNS_EN) */
 742:Generated_Source\PSoC4/CapSense_SensingCSD_LL.c **** 
 743:Generated_Source\PSoC4/CapSense_SensingCSD_LL.c ****     if (CapSense_ENABLE == CapSense_eleCsdDisconnectFlag)
 744:Generated_Source\PSoC4/CapSense_SensingCSD_LL.c ****     {
 745:Generated_Source\PSoC4/CapSense_SensingCSD_LL.c ****         /* Disconnect if electrodes were previous connected by CSDSetupWidgetExt() API */
 746:Generated_Source\PSoC4/CapSense_SensingCSD_LL.c ****         #if (CapSense_ENABLE == CapSense_CSD_GANGED_SNS_EN)
 747:Generated_Source\PSoC4/CapSense_SensingCSD_LL.c ****             /* Check ganged sns flag  */
 748:Generated_Source\PSoC4/CapSense_SensingCSD_LL.c ****             if (CapSense_GANGED_SNS_MASK == (CapSense_curFlashWdgtPtr->staticConfig & CapSense_GANG
 749:Generated_Source\PSoC4/CapSense_SensingCSD_LL.c ****             {
 750:Generated_Source\PSoC4/CapSense_SensingCSD_LL.c ****                 /* Get number of ganged pins */
 751:Generated_Source\PSoC4/CapSense_SensingCSD_LL.c ****                 tempVal = CapSense_curFlashSnsPtr->numPins;
 752:Generated_Source\PSoC4/CapSense_SensingCSD_LL.c **** 
 753:Generated_Source\PSoC4/CapSense_SensingCSD_LL.c ****                 /* Get IO pointer  */
 754:Generated_Source\PSoC4/CapSense_SensingCSD_LL.c ****                 CapSense_curSnsIOPtr = &CapSense_ioList[CapSense_curFlashSnsPtr->firstPinId];
 755:Generated_Source\PSoC4/CapSense_SensingCSD_LL.c **** 
 756:Generated_Source\PSoC4/CapSense_SensingCSD_LL.c ****                 /* Disconnect all ganged sensors */
 757:Generated_Source\PSoC4/CapSense_SensingCSD_LL.c ****                 do
 758:Generated_Source\PSoC4/CapSense_SensingCSD_LL.c ****                 {
 759:Generated_Source\PSoC4/CapSense_SensingCSD_LL.c ****                     CapSense_CSDDisconnectSns(CapSense_curSnsIOPtr);
 760:Generated_Source\PSoC4/CapSense_SensingCSD_LL.c ****                     CapSense_curSnsIOPtr++;
 761:Generated_Source\PSoC4/CapSense_SensingCSD_LL.c ****                     tempVal--;
 762:Generated_Source\PSoC4/CapSense_SensingCSD_LL.c ****                 } while (0u != tempVal);
 763:Generated_Source\PSoC4/CapSense_SensingCSD_LL.c ****             }
 764:Generated_Source\PSoC4/CapSense_SensingCSD_LL.c ****             else
 765:Generated_Source\PSoC4/CapSense_SensingCSD_LL.c ****             {
 766:Generated_Source\PSoC4/CapSense_SensingCSD_LL.c ****                 /* Disconnect ganged sensor */
 767:Generated_Source\PSoC4/CapSense_SensingCSD_LL.c ****                 CapSense_CSDDisconnectSns(CapSense_curSnsIOPtr);
 768:Generated_Source\PSoC4/CapSense_SensingCSD_LL.c ****             }
 769:Generated_Source\PSoC4/CapSense_SensingCSD_LL.c ****         #else
 770:Generated_Source\PSoC4/CapSense_SensingCSD_LL.c ****             /* Disable sensor */
 771:Generated_Source\PSoC4/CapSense_SensingCSD_LL.c ****             CapSense_CSDDisconnectSns(CapSense_curSnsIOPtr);
 772:Generated_Source\PSoC4/CapSense_SensingCSD_LL.c ****         #endif /* (CapSense_ENABLE == CapSense_CSD_GANGED_SNS_EN)  */
 773:Generated_Source\PSoC4/CapSense_SensingCSD_LL.c **** 
 774:Generated_Source\PSoC4/CapSense_SensingCSD_LL.c ****         CapSense_eleCsdDisconnectFlag = 0u;
 775:Generated_Source\PSoC4/CapSense_SensingCSD_LL.c ****     }
 776:Generated_Source\PSoC4/CapSense_SensingCSD_LL.c **** }
 777:Generated_Source\PSoC4/CapSense_SensingCSD_LL.c **** 
 778:Generated_Source\PSoC4/CapSense_SensingCSD_LL.c **** 
 779:Generated_Source\PSoC4/CapSense_SensingCSD_LL.c **** /*******************************************************************************
 780:Generated_Source\PSoC4/CapSense_SensingCSD_LL.c **** * Function Name: CapSense_SsCSDSetUpIdacs
 781:Generated_Source\PSoC4/CapSense_SensingCSD_LL.c **** ****************************************************************************//**
 782:Generated_Source\PSoC4/CapSense_SensingCSD_LL.c **** *
 783:Generated_Source\PSoC4/CapSense_SensingCSD_LL.c **** * \brief
 784:Generated_Source\PSoC4/CapSense_SensingCSD_LL.c **** *  This internal function changes the IDACs values.
ARM GAS  C:\Users\zack.li\AppData\Local\Temp\ccTyLy6m.s 			page 25


 785:Generated_Source\PSoC4/CapSense_SensingCSD_LL.c **** *
 786:Generated_Source\PSoC4/CapSense_SensingCSD_LL.c **** * \details
 787:Generated_Source\PSoC4/CapSense_SensingCSD_LL.c **** *  If Compensation IDAC is enabled, it updates two IDACs.
 788:Generated_Source\PSoC4/CapSense_SensingCSD_LL.c **** *  The Modulator IDAC is common for all the sensors of the widget.
 789:Generated_Source\PSoC4/CapSense_SensingCSD_LL.c **** *  The Compensation IDAC is updated for the sensor of the widget which
 790:Generated_Source\PSoC4/CapSense_SensingCSD_LL.c **** *  is available in the RAM_SNS_STRUCT structure.
 791:Generated_Source\PSoC4/CapSense_SensingCSD_LL.c **** *  If the Compensation IDAC is disabled, the function updates the Modulator IDAC
 792:Generated_Source\PSoC4/CapSense_SensingCSD_LL.c **** *  value only in the RAM_WD_BASE_STRUCT structure.
 793:Generated_Source\PSoC4/CapSense_SensingCSD_LL.c **** *
 794:Generated_Source\PSoC4/CapSense_SensingCSD_LL.c **** * \param
 795:Generated_Source\PSoC4/CapSense_SensingCSD_LL.c **** *  ptrWdgt The pointer to the RAM_WD_BASE_STRUCT structure.
 796:Generated_Source\PSoC4/CapSense_SensingCSD_LL.c **** *
 797:Generated_Source\PSoC4/CapSense_SensingCSD_LL.c **** *******************************************************************************/
 798:Generated_Source\PSoC4/CapSense_SensingCSD_LL.c **** void CapSense_SsCSDSetUpIdacs(CapSense_RAM_WD_BASE_STRUCT const *ptrWdgt)
 799:Generated_Source\PSoC4/CapSense_SensingCSD_LL.c **** {
 512              		.loc 1 799 0
 513              		.cfi_startproc
 514              		@ args = 0, pretend = 0, frame = 0
 515              		@ frame_needed = 0, uses_anonymous_args = 0
 516              	.LVL43:
 517 0000 F8B5     		push	{r3, r4, r5, r6, r7, lr}
 518              		.cfi_def_cfa_offset 24
 519              		.cfi_offset 3, -24
 520              		.cfi_offset 4, -20
 521              		.cfi_offset 5, -16
 522              		.cfi_offset 6, -12
 523              		.cfi_offset 7, -8
 524              		.cfi_offset 14, -4
 525              		.loc 1 799 0
 526 0002 0700     		movs	r7, r0
 800:Generated_Source\PSoC4/CapSense_SensingCSD_LL.c ****     uint8 interruptState;
 801:Generated_Source\PSoC4/CapSense_SensingCSD_LL.c ****     uint32 idacGain;
 802:Generated_Source\PSoC4/CapSense_SensingCSD_LL.c **** 
 803:Generated_Source\PSoC4/CapSense_SensingCSD_LL.c ****     /* Getting IDAC gain */
 804:Generated_Source\PSoC4/CapSense_SensingCSD_LL.c ****     idacGain = CapSense_idacGainTable[ptrWdgt->idacGainIndex].gainReg;
 527              		.loc 1 804 0
 528 0004 837A     		ldrb	r3, [r0, #10]
 529 0006 104A     		ldr	r2, .L22
 530 0008 DB00     		lsls	r3, r3, #3
 531 000a 9C58     		ldr	r4, [r3, r2]
 532              	.LVL44:
 805:Generated_Source\PSoC4/CapSense_SensingCSD_LL.c **** 
 806:Generated_Source\PSoC4/CapSense_SensingCSD_LL.c ****     #if (CapSense_ENABLE == CapSense_CSDV2)
 807:Generated_Source\PSoC4/CapSense_SensingCSD_LL.c ****         uint32 idacARegValue;
 808:Generated_Source\PSoC4/CapSense_SensingCSD_LL.c ****         #if (CapSense_ENABLE == CapSense_CSD_IDAC_COMP_EN)
 809:Generated_Source\PSoC4/CapSense_SensingCSD_LL.c ****             uint32 idacBRegValue;
 810:Generated_Source\PSoC4/CapSense_SensingCSD_LL.c ****         #endif /* (CapSense_ENABLE == CapSense_CSD_IDAC_COMP_EN) */
 811:Generated_Source\PSoC4/CapSense_SensingCSD_LL.c **** 
 812:Generated_Source\PSoC4/CapSense_SensingCSD_LL.c ****         interruptState = CyEnterCriticalSection();
 533              		.loc 1 812 0
 534 000c FFF7FEFF 		bl	CyEnterCriticalSection
 535              	.LVL45:
 813:Generated_Source\PSoC4/CapSense_SensingCSD_LL.c **** 
 814:Generated_Source\PSoC4/CapSense_SensingCSD_LL.c ****         /* Get IDACA Value */
 815:Generated_Source\PSoC4/CapSense_SensingCSD_LL.c ****         idacARegValue = CY_GET_REG32(CapSense_CSD_IDACA_PTR);
 816:Generated_Source\PSoC4/CapSense_SensingCSD_LL.c **** 
 817:Generated_Source\PSoC4/CapSense_SensingCSD_LL.c ****         /* Clear IDACA value and gain */
ARM GAS  C:\Users\zack.li\AppData\Local\Temp\ccTyLy6m.s 			page 26


 818:Generated_Source\PSoC4/CapSense_SensingCSD_LL.c ****         idacARegValue &= ~(CapSense_IDAC_MOD_VAL_MASK | CapSense_IDAC_GAIN_MASK);
 819:Generated_Source\PSoC4/CapSense_SensingCSD_LL.c **** 
 820:Generated_Source\PSoC4/CapSense_SensingCSD_LL.c ****         /* Set IDACA value gain */
 821:Generated_Source\PSoC4/CapSense_SensingCSD_LL.c ****         #if (CapSense_CSD_MATRIX_WIDGET_EN || CapSense_CSD_TOUCHPAD_WIDGET_EN)
 822:Generated_Source\PSoC4/CapSense_SensingCSD_LL.c ****             if (CapSense_dsFlash.wdgtArray[(CapSense_widgetIndex)].numCols <= CapSense_sensorIndex)
 823:Generated_Source\PSoC4/CapSense_SensingCSD_LL.c ****             {
 824:Generated_Source\PSoC4/CapSense_SensingCSD_LL.c ****                 idacARegValue |= (uint32)ptrWdgt->rowIdacMod[CapSense_scanFreqIndex];
 825:Generated_Source\PSoC4/CapSense_SensingCSD_LL.c ****             }
 826:Generated_Source\PSoC4/CapSense_SensingCSD_LL.c ****             else
 827:Generated_Source\PSoC4/CapSense_SensingCSD_LL.c ****             {
 828:Generated_Source\PSoC4/CapSense_SensingCSD_LL.c ****                 idacARegValue |= (uint32)ptrWdgt->idacMod[CapSense_scanFreqIndex];
 829:Generated_Source\PSoC4/CapSense_SensingCSD_LL.c ****             }
 830:Generated_Source\PSoC4/CapSense_SensingCSD_LL.c ****         #else
 831:Generated_Source\PSoC4/CapSense_SensingCSD_LL.c ****             idacARegValue |= (uint32)ptrWdgt->idacMod[CapSense_scanFreqIndex];
 536              		.loc 1 831 0
 537 0010 0E49     		ldr	r1, .L22+4
 815:Generated_Source\PSoC4/CapSense_SensingCSD_LL.c **** 
 538              		.loc 1 815 0
 539 0012 0F4A     		ldr	r2, .L22+8
 540              		.loc 1 831 0
 541 0014 0D78     		ldrb	r5, [r1]
 815:Generated_Source\PSoC4/CapSense_SensingCSD_LL.c **** 
 542              		.loc 1 815 0
 543 0016 1368     		ldr	r3, [r2]
 544              	.LVL46:
 545 0018 0E4E     		ldr	r6, .L22+12
 546              		.loc 1 831 0
 547 001a 7F19     		adds	r7, r7, r5
 548              	.LVL47:
 832:Generated_Source\PSoC4/CapSense_SensingCSD_LL.c ****         #endif /* (CapSense_CSD_MATRIX_WIDGET_EN | CapSense_CSD_TOUCHPAD_WIDGET_EN) */
 833:Generated_Source\PSoC4/CapSense_SensingCSD_LL.c ****         idacARegValue |= idacGain;
 549              		.loc 1 833 0
 550 001c 797A     		ldrb	r1, [r7, #9]
 551 001e 3340     		ands	r3, r6
 552              	.LVL48:
 553 0020 2343     		orrs	r3, r4
 554              	.LVL49:
 555 0022 0B43     		orrs	r3, r1
 556              	.LVL50:
 834:Generated_Source\PSoC4/CapSense_SensingCSD_LL.c **** 
 835:Generated_Source\PSoC4/CapSense_SensingCSD_LL.c ****         /* Update IDACA register with new value */
 836:Generated_Source\PSoC4/CapSense_SensingCSD_LL.c ****         CY_SET_REG32(CapSense_CSD_IDACA_PTR, idacARegValue);
 557              		.loc 1 836 0
 558 0024 1360     		str	r3, [r2]
 837:Generated_Source\PSoC4/CapSense_SensingCSD_LL.c ****         CyExitCriticalSection(interruptState);
 559              		.loc 1 837 0
 560 0026 FFF7FEFF 		bl	CyExitCriticalSection
 561              	.LVL51:
 838:Generated_Source\PSoC4/CapSense_SensingCSD_LL.c **** 
 839:Generated_Source\PSoC4/CapSense_SensingCSD_LL.c ****         #if (CapSense_ENABLE == CapSense_CSD_IDAC_COMP_EN)
 840:Generated_Source\PSoC4/CapSense_SensingCSD_LL.c ****             interruptState = CyEnterCriticalSection();
 562              		.loc 1 840 0
 563 002a FFF7FEFF 		bl	CyEnterCriticalSection
 564              	.LVL52:
 841:Generated_Source\PSoC4/CapSense_SensingCSD_LL.c ****             /* Get IDACB Value */
 842:Generated_Source\PSoC4/CapSense_SensingCSD_LL.c ****             idacBRegValue = CY_GET_REG32(CapSense_CSD_IDACB_PTR);
 565              		.loc 1 842 0
ARM GAS  C:\Users\zack.li\AppData\Local\Temp\ccTyLy6m.s 			page 27


 566 002e 0A4B     		ldr	r3, .L22+16
 843:Generated_Source\PSoC4/CapSense_SensingCSD_LL.c **** 
 844:Generated_Source\PSoC4/CapSense_SensingCSD_LL.c ****             /* Clear IDACB value and gain */
 845:Generated_Source\PSoC4/CapSense_SensingCSD_LL.c ****             idacBRegValue &= ~(CapSense_IDAC_COMP_VAL_MASK | CapSense_IDAC_GAIN_MASK);
 846:Generated_Source\PSoC4/CapSense_SensingCSD_LL.c **** 
 847:Generated_Source\PSoC4/CapSense_SensingCSD_LL.c ****             /* Set IDACB value and gain */
 848:Generated_Source\PSoC4/CapSense_SensingCSD_LL.c ****             idacBRegValue |= (uint32)CapSense_curRamSnsPtr->idacComp[CapSense_scanFreqIndex];
 849:Generated_Source\PSoC4/CapSense_SensingCSD_LL.c ****             idacBRegValue |= idacGain;
 850:Generated_Source\PSoC4/CapSense_SensingCSD_LL.c **** 
 851:Generated_Source\PSoC4/CapSense_SensingCSD_LL.c ****             /* Update IDACA register with new value */
 852:Generated_Source\PSoC4/CapSense_SensingCSD_LL.c ****             CY_SET_REG32(CapSense_CSD_IDACB_PTR, idacBRegValue);
 853:Generated_Source\PSoC4/CapSense_SensingCSD_LL.c ****             CyExitCriticalSection(interruptState);
 854:Generated_Source\PSoC4/CapSense_SensingCSD_LL.c ****         #endif /* (CapSense_ENABLE == CapSense_CSD_IDAC_COMP_EN) */
 855:Generated_Source\PSoC4/CapSense_SensingCSD_LL.c **** 
 856:Generated_Source\PSoC4/CapSense_SensingCSD_LL.c ****     #else
 857:Generated_Source\PSoC4/CapSense_SensingCSD_LL.c **** 
 858:Generated_Source\PSoC4/CapSense_SensingCSD_LL.c ****         uint32 newRegValue;
 859:Generated_Source\PSoC4/CapSense_SensingCSD_LL.c ****         uint8 const *ptrIdacMod = ptrWdgt->idacMod;
 860:Generated_Source\PSoC4/CapSense_SensingCSD_LL.c **** 
 861:Generated_Source\PSoC4/CapSense_SensingCSD_LL.c ****         #if (CapSense_CSD_MATRIX_WIDGET_EN  | CapSense_CSD_TOUCHPAD_WIDGET_EN)
 862:Generated_Source\PSoC4/CapSense_SensingCSD_LL.c ****             if (CapSense_dsFlash.wdgtArray[(CapSense_widgetIndex)].numCols <= CapSense_sensorIndex)
 863:Generated_Source\PSoC4/CapSense_SensingCSD_LL.c ****             {
 864:Generated_Source\PSoC4/CapSense_SensingCSD_LL.c ****                 ptrIdacMod = &ptrWdgt->rowIdacMod[0u];
 865:Generated_Source\PSoC4/CapSense_SensingCSD_LL.c ****             }
 866:Generated_Source\PSoC4/CapSense_SensingCSD_LL.c ****         #endif /* (CapSense_CSD_MATRIX_WIDGET_EN  | CapSense_CSD_TOUCHPAD_WIDGET_EN) */
 867:Generated_Source\PSoC4/CapSense_SensingCSD_LL.c **** 
 868:Generated_Source\PSoC4/CapSense_SensingCSD_LL.c ****         interruptState = CyEnterCriticalSection();
 869:Generated_Source\PSoC4/CapSense_SensingCSD_LL.c **** 
 870:Generated_Source\PSoC4/CapSense_SensingCSD_LL.c ****         /* Get Idac Value */
 871:Generated_Source\PSoC4/CapSense_SensingCSD_LL.c ****         newRegValue = CY_GET_REG32(CapSense_IDAC_PTR);
 872:Generated_Source\PSoC4/CapSense_SensingCSD_LL.c **** 
 873:Generated_Source\PSoC4/CapSense_SensingCSD_LL.c ****         /* Clear Idac value and gain */
 874:Generated_Source\PSoC4/CapSense_SensingCSD_LL.c ****         #if (CapSense_ENABLE == CapSense_CSD_IDAC_COMP_EN)
 875:Generated_Source\PSoC4/CapSense_SensingCSD_LL.c ****             newRegValue &= ~(CapSense_IDAC_MOD_MASK | CapSense_IDAC_COMP_MASK |
 876:Generated_Source\PSoC4/CapSense_SensingCSD_LL.c ****                 CapSense_IDAC_GAIN_MASK | (CapSense_IDAC_GAIN_MASK << CapSense_IDAC_COMP_DATA_OFFSE
 877:Generated_Source\PSoC4/CapSense_SensingCSD_LL.c ****         #else
 878:Generated_Source\PSoC4/CapSense_SensingCSD_LL.c ****             newRegValue &= ~(CapSense_IDAC_MOD_MASK | CapSense_IDAC_GAIN_MASK);
 879:Generated_Source\PSoC4/CapSense_SensingCSD_LL.c ****         #endif /* (CapSense_ENABLE == CapSense_CSD_IDAC_COMP_EN) */
 880:Generated_Source\PSoC4/CapSense_SensingCSD_LL.c **** 
 881:Generated_Source\PSoC4/CapSense_SensingCSD_LL.c ****         /* Set Idac value and gain */
 882:Generated_Source\PSoC4/CapSense_SensingCSD_LL.c ****         #if (CapSense_ENABLE == CapSense_CSD_IDAC_COMP_EN)
 883:Generated_Source\PSoC4/CapSense_SensingCSD_LL.c ****             newRegValue |= (ptrIdacMod[CapSense_scanFreqIndex] |
 884:Generated_Source\PSoC4/CapSense_SensingCSD_LL.c ****                            (uint32)((uint32)CapSense_curRamSnsPtr->idacComp[CapSense_scanFreqIndex]
 885:Generated_Source\PSoC4/CapSense_SensingCSD_LL.c ****                            CapSense_IDAC_COMP_DATA_OFFSET));
 886:Generated_Source\PSoC4/CapSense_SensingCSD_LL.c ****             newRegValue |= idacGain;
 887:Generated_Source\PSoC4/CapSense_SensingCSD_LL.c ****             newRegValue |= (idacGain << CapSense_IDAC_COMP_DATA_OFFSET);
 888:Generated_Source\PSoC4/CapSense_SensingCSD_LL.c ****         #else
 889:Generated_Source\PSoC4/CapSense_SensingCSD_LL.c ****             newRegValue |= ptrIdacMod[CapSense_scanFreqIndex];
 890:Generated_Source\PSoC4/CapSense_SensingCSD_LL.c ****             newRegValue |= idacGain;
 891:Generated_Source\PSoC4/CapSense_SensingCSD_LL.c ****         #endif /* (CapSense_ENABLE == CapSense_CSD_IDAC_COMP_EN) */
 892:Generated_Source\PSoC4/CapSense_SensingCSD_LL.c ****         CY_SET_REG32(CapSense_IDAC_PTR, newRegValue);
 893:Generated_Source\PSoC4/CapSense_SensingCSD_LL.c **** 
 894:Generated_Source\PSoC4/CapSense_SensingCSD_LL.c ****         CyExitCriticalSection(interruptState);
 895:Generated_Source\PSoC4/CapSense_SensingCSD_LL.c **** 
 896:Generated_Source\PSoC4/CapSense_SensingCSD_LL.c ****     #endif /* (CapSense_ENABLE == CapSense_CSDV2) */
 897:Generated_Source\PSoC4/CapSense_SensingCSD_LL.c **** }
 567              		.loc 1 897 0
ARM GAS  C:\Users\zack.li\AppData\Local\Temp\ccTyLy6m.s 			page 28


 568              		@ sp needed
 842:Generated_Source\PSoC4/CapSense_SensingCSD_LL.c **** 
 569              		.loc 1 842 0
 570 0030 1A68     		ldr	r2, [r3]
 571              	.LVL53:
 572 0032 1640     		ands	r6, r2
 573              	.LVL54:
 848:Generated_Source\PSoC4/CapSense_SensingCSD_LL.c ****             idacBRegValue |= idacGain;
 574              		.loc 1 848 0
 575 0034 094A     		ldr	r2, .L22+20
 576 0036 3443     		orrs	r4, r6
 577              	.LVL55:
 578 0038 1268     		ldr	r2, [r2]
 579              	.LVL56:
 580 003a 5519     		adds	r5, r2, r5
 581              	.LVL57:
 849:Generated_Source\PSoC4/CapSense_SensingCSD_LL.c **** 
 582              		.loc 1 849 0
 583 003c 6E7A     		ldrb	r6, [r5, #9]
 584              	.LVL58:
 585 003e 3443     		orrs	r4, r6
 586              	.LVL59:
 852:Generated_Source\PSoC4/CapSense_SensingCSD_LL.c ****             CyExitCriticalSection(interruptState);
 587              		.loc 1 852 0
 588 0040 1C60     		str	r4, [r3]
 853:Generated_Source\PSoC4/CapSense_SensingCSD_LL.c ****         #endif /* (CapSense_ENABLE == CapSense_CSD_IDAC_COMP_EN) */
 589              		.loc 1 853 0
 590 0042 FFF7FEFF 		bl	CyExitCriticalSection
 591              	.LVL60:
 592              	.LVL61:
 593              		.loc 1 897 0
 594 0046 F8BD     		pop	{r3, r4, r5, r6, r7, pc}
 595              	.L23:
 596              		.align	2
 597              	.L22:
 598 0048 00000000 		.word	CapSense_idacGainTable
 599 004c 00000000 		.word	CapSense_scanFreqIndex
 600 0050 C0010B40 		.word	1074463168
 601 0054 80FF3FFC 		.word	-62914688
 602 0058 C4010B40 		.word	1074463172
 603 005c 00000000 		.word	CapSense_curRamSnsPtr
 604              		.cfi_endproc
 605              	.LFE10:
 606              		.size	CapSense_SsCSDSetUpIdacs, .-CapSense_SsCSDSetUpIdacs
 607              		.section	.text.CapSense_SsCSDGetNumberOfConversions,"ax",%progbits
 608              		.align	1
 609              		.global	CapSense_SsCSDGetNumberOfConversions
 610              		.code	16
 611              		.thumb_func
 612              		.type	CapSense_SsCSDGetNumberOfConversions, %function
 613              	CapSense_SsCSDGetNumberOfConversions:
 614              	.LFB11:
 898:Generated_Source\PSoC4/CapSense_SensingCSD_LL.c **** 
 899:Generated_Source\PSoC4/CapSense_SensingCSD_LL.c **** 
 900:Generated_Source\PSoC4/CapSense_SensingCSD_LL.c **** #if (CapSense_ENABLE == CapSense_CSDV2)
 901:Generated_Source\PSoC4/CapSense_SensingCSD_LL.c ****     /*******************************************************************************
 902:Generated_Source\PSoC4/CapSense_SensingCSD_LL.c ****     * Function Name: CapSense_SsCSDGetNumberOfConversions
ARM GAS  C:\Users\zack.li\AppData\Local\Temp\ccTyLy6m.s 			page 29


 903:Generated_Source\PSoC4/CapSense_SensingCSD_LL.c ****     ****************************************************************************//**
 904:Generated_Source\PSoC4/CapSense_SensingCSD_LL.c ****     *
 905:Generated_Source\PSoC4/CapSense_SensingCSD_LL.c ****     * \brief
 906:Generated_Source\PSoC4/CapSense_SensingCSD_LL.c ****     *  This function gets Number of conversions.
 907:Generated_Source\PSoC4/CapSense_SensingCSD_LL.c ****     *
 908:Generated_Source\PSoC4/CapSense_SensingCSD_LL.c ****     * \details
 909:Generated_Source\PSoC4/CapSense_SensingCSD_LL.c ****     *  This function gets Number of conversions using foll.owing equation:
 910:Generated_Source\PSoC4/CapSense_SensingCSD_LL.c ****     *   conversionsNum = (2^resolution - 1) / snsClkDivider.
 911:Generated_Source\PSoC4/CapSense_SensingCSD_LL.c ****     *
 912:Generated_Source\PSoC4/CapSense_SensingCSD_LL.c ****     * \param
 913:Generated_Source\PSoC4/CapSense_SensingCSD_LL.c ****     *  snsClkDivider The divider value for the sense clock.
 914:Generated_Source\PSoC4/CapSense_SensingCSD_LL.c ****     *  resolution The widget resolution.
 915:Generated_Source\PSoC4/CapSense_SensingCSD_LL.c ****     *  snsClkSrc The current Sense Clock Source.
 916:Generated_Source\PSoC4/CapSense_SensingCSD_LL.c ****     *
 917:Generated_Source\PSoC4/CapSense_SensingCSD_LL.c ****     * \return Returns the Number of conversions.
 918:Generated_Source\PSoC4/CapSense_SensingCSD_LL.c ****     *
 919:Generated_Source\PSoC4/CapSense_SensingCSD_LL.c ****     *******************************************************************************/
 920:Generated_Source\PSoC4/CapSense_SensingCSD_LL.c ****     uint32 CapSense_SsCSDGetNumberOfConversions(uint32 snsClkDivider, uint32 resolution, uint32 sns
 921:Generated_Source\PSoC4/CapSense_SensingCSD_LL.c ****     {
 615              		.loc 1 921 0
 616              		.cfi_startproc
 617              		@ args = 0, pretend = 0, frame = 0
 618              		@ frame_needed = 0, uses_anonymous_args = 0
 619              	.LVL62:
 922:Generated_Source\PSoC4/CapSense_SensingCSD_LL.c ****         uint32 conversionsNum;
 923:Generated_Source\PSoC4/CapSense_SensingCSD_LL.c ****         #if ((CapSense_MOD_CSD_CLK_12MHZ < CYDEV_BCLK__HFCLK__HZ) && (CapSense_ENABLE != CapSense_C
 924:Generated_Source\PSoC4/CapSense_SensingCSD_LL.c ****             uint32 sampleClkFreqHz;
 925:Generated_Source\PSoC4/CapSense_SensingCSD_LL.c ****         #endif /* ((CapSense_MOD_CSD_CLK_12MHZ < CYDEV_BCLK__HFCLK__HZ) && (CapSense_ENABLE != CapS
 926:Generated_Source\PSoC4/CapSense_SensingCSD_LL.c **** 
 927:Generated_Source\PSoC4/CapSense_SensingCSD_LL.c ****         /* Calculate scanning resolution value in register */
 928:Generated_Source\PSoC4/CapSense_SensingCSD_LL.c ****         conversionsNum = (uint32)(1uL << resolution);
 620              		.loc 1 928 0
 621 0000 0123     		movs	r3, #1
 622 0002 8B40     		lsls	r3, r3, r1
 921:Generated_Source\PSoC4/CapSense_SensingCSD_LL.c ****         uint32 conversionsNum;
 623              		.loc 1 921 0
 624 0004 70B5     		push	{r4, r5, r6, lr}
 625              		.cfi_def_cfa_offset 16
 626              		.cfi_offset 4, -16
 627              		.cfi_offset 5, -12
 628              		.cfi_offset 6, -8
 629              		.cfi_offset 14, -4
 921:Generated_Source\PSoC4/CapSense_SensingCSD_LL.c ****         uint32 conversionsNum;
 630              		.loc 1 921 0
 631 0006 0500     		movs	r5, r0
 632 0008 1400     		movs	r4, r2
 633              		.loc 1 928 0
 634 000a 1800     		movs	r0, r3
 635              	.LVL63:
 929:Generated_Source\PSoC4/CapSense_SensingCSD_LL.c **** 
 930:Generated_Source\PSoC4/CapSense_SensingCSD_LL.c ****         #if(CapSense_ENABLE != CapSense_CSDV2_REF9P6UA_EN)
 931:Generated_Source\PSoC4/CapSense_SensingCSD_LL.c ****             /* Apply correction to oveflow for 16 bit resolution */
 932:Generated_Source\PSoC4/CapSense_SensingCSD_LL.c ****             if (CapSense_RES16BIT == resolution)
 933:Generated_Source\PSoC4/CapSense_SensingCSD_LL.c ****             {
 934:Generated_Source\PSoC4/CapSense_SensingCSD_LL.c ****                 conversionsNum -= ((snsClkDivider + 1u) >> 1u);
 935:Generated_Source\PSoC4/CapSense_SensingCSD_LL.c **** 
 936:Generated_Source\PSoC4/CapSense_SensingCSD_LL.c ****                 #if (CapSense_MOD_CSD_CLK_12MHZ < CYDEV_BCLK__HFCLK__HZ)
ARM GAS  C:\Users\zack.li\AppData\Local\Temp\ccTyLy6m.s 			page 30


 937:Generated_Source\PSoC4/CapSense_SensingCSD_LL.c ****                     sampleClkFreqHz = CYDEV_BCLK__HFCLK__HZ / (uint32)CapSense_dsRam.modCsdClk;
 938:Generated_Source\PSoC4/CapSense_SensingCSD_LL.c **** 
 939:Generated_Source\PSoC4/CapSense_SensingCSD_LL.c ****                     if (sampleClkFreqHz <= CapSense_MOD_CSD_CLK_12MHZ)
 940:Generated_Source\PSoC4/CapSense_SensingCSD_LL.c ****                     {
 941:Generated_Source\PSoC4/CapSense_SensingCSD_LL.c ****                         conversionsNum -= CapSense_CONFIG_FILTER_DELAY_2_CYCLES;
 942:Generated_Source\PSoC4/CapSense_SensingCSD_LL.c ****                     }
 943:Generated_Source\PSoC4/CapSense_SensingCSD_LL.c ****                     else if (sampleClkFreqHz <= CapSense_MOD_CSD_CLK_24MHZ)
 944:Generated_Source\PSoC4/CapSense_SensingCSD_LL.c ****                     {
 945:Generated_Source\PSoC4/CapSense_SensingCSD_LL.c ****                         conversionsNum -= CapSense_CONFIG_FILTER_DELAY_3_CYCLES;
 946:Generated_Source\PSoC4/CapSense_SensingCSD_LL.c ****                     }
 947:Generated_Source\PSoC4/CapSense_SensingCSD_LL.c ****                     else
 948:Generated_Source\PSoC4/CapSense_SensingCSD_LL.c ****                     {
 949:Generated_Source\PSoC4/CapSense_SensingCSD_LL.c ****                         conversionsNum -= CapSense_CONFIG_FILTER_DELAY_4_CYCLES;
 950:Generated_Source\PSoC4/CapSense_SensingCSD_LL.c ****                     }
 951:Generated_Source\PSoC4/CapSense_SensingCSD_LL.c ****                 #else
 952:Generated_Source\PSoC4/CapSense_SensingCSD_LL.c ****                     conversionsNum -= CapSense_CONFIG_FILTER_DELAY_2_CYCLES;
 953:Generated_Source\PSoC4/CapSense_SensingCSD_LL.c ****                 #endif /* (INSTANCE_NAME`_MOD_CSD_CLK_12MHZ < CYDEV_BCLK__HFCLK__HZ) */
 954:Generated_Source\PSoC4/CapSense_SensingCSD_LL.c ****             }
 955:Generated_Source\PSoC4/CapSense_SensingCSD_LL.c ****         #else
 956:Generated_Source\PSoC4/CapSense_SensingCSD_LL.c ****             /* CY_ID285392: Apply correction to oveflow for 16 bit resolution */
 957:Generated_Source\PSoC4/CapSense_SensingCSD_LL.c ****             if (CapSense_RES16BIT == resolution)
 636              		.loc 1 957 0
 637 000c 1029     		cmp	r1, #16
 638 000e 00D1     		bne	.L25
 958:Generated_Source\PSoC4/CapSense_SensingCSD_LL.c ****             {
 959:Generated_Source\PSoC4/CapSense_SensingCSD_LL.c ****                 conversionsNum -= CapSense_EXTRA_COUNTS_MAX;
 639              		.loc 1 959 0
 640 0010 1D38     		subs	r0, r0, #29
 641              	.LVL64:
 642              	.L25:
 960:Generated_Source\PSoC4/CapSense_SensingCSD_LL.c ****             }
 961:Generated_Source\PSoC4/CapSense_SensingCSD_LL.c ****         #endif
 962:Generated_Source\PSoC4/CapSense_SensingCSD_LL.c **** 
 963:Generated_Source\PSoC4/CapSense_SensingCSD_LL.c ****         if (0u < snsClkDivider)
 643              		.loc 1 963 0
 644 0012 002D     		cmp	r5, #0
 645 0014 02D0     		beq	.L26
 964:Generated_Source\PSoC4/CapSense_SensingCSD_LL.c ****         {
 965:Generated_Source\PSoC4/CapSense_SensingCSD_LL.c ****             conversionsNum /= snsClkDivider;
 646              		.loc 1 965 0
 647 0016 2900     		movs	r1, r5
 648              	.LVL65:
 649 0018 FFF7FEFF 		bl	__aeabi_uidiv
 650              	.LVL66:
 651              	.L26:
 966:Generated_Source\PSoC4/CapSense_SensingCSD_LL.c ****         }
 967:Generated_Source\PSoC4/CapSense_SensingCSD_LL.c **** 
 968:Generated_Source\PSoC4/CapSense_SensingCSD_LL.c ****     #if((CapSense_CLK_SOURCE_PRS8  == CapSense_CSD_SNS_CLK_SOURCE) ||\
 969:Generated_Source\PSoC4/CapSense_SensingCSD_LL.c ****         (CapSense_CLK_SOURCE_PRS12 == CapSense_CSD_SNS_CLK_SOURCE) ||\
 970:Generated_Source\PSoC4/CapSense_SensingCSD_LL.c ****         (CapSense_CLK_SOURCE_PRSAUTO == CapSense_CSD_SNS_CLK_SOURCE))
 971:Generated_Source\PSoC4/CapSense_SensingCSD_LL.c ****         switch (snsClkSrc)
 652              		.loc 1 971 0
 653 001c 053C     		subs	r4, r4, #5
 654              	.LVL67:
 655 001e 012C     		cmp	r4, #1
 656 0020 00D8     		bhi	.L27
 972:Generated_Source\PSoC4/CapSense_SensingCSD_LL.c ****         {
ARM GAS  C:\Users\zack.li\AppData\Local\Temp\ccTyLy6m.s 			page 31


 973:Generated_Source\PSoC4/CapSense_SensingCSD_LL.c ****             case CapSense_CLK_SOURCE_PRS8:
 974:Generated_Source\PSoC4/CapSense_SensingCSD_LL.c ****             case CapSense_CLK_SOURCE_PRS12:
 975:Generated_Source\PSoC4/CapSense_SensingCSD_LL.c ****                 /* Divide by 2 for PRS8/PRS12 mode */
 976:Generated_Source\PSoC4/CapSense_SensingCSD_LL.c ****                 conversionsNum >>= 1u;
 657              		.loc 1 976 0
 658 0022 4008     		lsrs	r0, r0, #1
 659              	.LVL68:
 660              	.L27:
 977:Generated_Source\PSoC4/CapSense_SensingCSD_LL.c ****                 break;
 978:Generated_Source\PSoC4/CapSense_SensingCSD_LL.c **** 
 979:Generated_Source\PSoC4/CapSense_SensingCSD_LL.c ****             default:
 980:Generated_Source\PSoC4/CapSense_SensingCSD_LL.c ****                 break;
 981:Generated_Source\PSoC4/CapSense_SensingCSD_LL.c ****         }
 982:Generated_Source\PSoC4/CapSense_SensingCSD_LL.c ****     #else
 983:Generated_Source\PSoC4/CapSense_SensingCSD_LL.c ****         (void)snsClkSrc;
 984:Generated_Source\PSoC4/CapSense_SensingCSD_LL.c ****     #endif
 985:Generated_Source\PSoC4/CapSense_SensingCSD_LL.c **** 
 986:Generated_Source\PSoC4/CapSense_SensingCSD_LL.c ****     return((conversionsNum > 0uL) ? (conversionsNum) : 1uL);
 661              		.loc 1 986 0
 662 0024 0123     		movs	r3, #1
 663 0026 0028     		cmp	r0, #0
 664 0028 00D0     		beq	.L29
 665 002a 0300     		movs	r3, r0
 666              	.L29:
 987:Generated_Source\PSoC4/CapSense_SensingCSD_LL.c ****     }
 667              		.loc 1 987 0 discriminator 4
 668 002c 1800     		movs	r0, r3
 669              	.LVL69:
 670              		@ sp needed
 671              	.LVL70:
 672              	.LVL71:
 673 002e 70BD     		pop	{r4, r5, r6, pc}
 674              		.cfi_endproc
 675              	.LFE11:
 676              		.size	CapSense_SsCSDGetNumberOfConversions, .-CapSense_SsCSDGetNumberOfConversions
 677              		.section	.text.CapSense_SsCSDConfigClock,"ax",%progbits
 678              		.align	1
 679              		.global	CapSense_SsCSDConfigClock
 680              		.code	16
 681              		.thumb_func
 682              		.type	CapSense_SsCSDConfigClock, %function
 683              	CapSense_SsCSDConfigClock:
 684              	.LFB12:
 988:Generated_Source\PSoC4/CapSense_SensingCSD_LL.c **** #endif /* (CapSense_ENABLE == CapSense_CSDV2) */
 989:Generated_Source\PSoC4/CapSense_SensingCSD_LL.c **** 
 990:Generated_Source\PSoC4/CapSense_SensingCSD_LL.c **** 
 991:Generated_Source\PSoC4/CapSense_SensingCSD_LL.c **** /*******************************************************************************
 992:Generated_Source\PSoC4/CapSense_SensingCSD_LL.c **** * Function Name: CapSense_SsCSDConfigClock
 993:Generated_Source\PSoC4/CapSense_SensingCSD_LL.c **** ****************************************************************************//**
 994:Generated_Source\PSoC4/CapSense_SensingCSD_LL.c **** *
 995:Generated_Source\PSoC4/CapSense_SensingCSD_LL.c **** * \brief
 996:Generated_Source\PSoC4/CapSense_SensingCSD_LL.c **** *  This function configure sense clock for different modes.
 997:Generated_Source\PSoC4/CapSense_SensingCSD_LL.c **** *
 998:Generated_Source\PSoC4/CapSense_SensingCSD_LL.c **** * \details
 999:Generated_Source\PSoC4/CapSense_SensingCSD_LL.c **** *  Function sets the clock divider and configures the mode based on configuration.
1000:Generated_Source\PSoC4/CapSense_SensingCSD_LL.c **** *
1001:Generated_Source\PSoC4/CapSense_SensingCSD_LL.c **** *******************************************************************************/
ARM GAS  C:\Users\zack.li\AppData\Local\Temp\ccTyLy6m.s 			page 32


1002:Generated_Source\PSoC4/CapSense_SensingCSD_LL.c **** void CapSense_SsCSDConfigClock(void)
1003:Generated_Source\PSoC4/CapSense_SensingCSD_LL.c **** {
 685              		.loc 1 1003 0
 686              		.cfi_startproc
 687              		@ args = 0, pretend = 0, frame = 0
 688              		@ frame_needed = 0, uses_anonymous_args = 0
 689              		@ link register save eliminated.
1004:Generated_Source\PSoC4/CapSense_SensingCSD_LL.c ****     uint32 snsClkDivider;
1005:Generated_Source\PSoC4/CapSense_SensingCSD_LL.c ****     uint32 snsClkSrc;
1006:Generated_Source\PSoC4/CapSense_SensingCSD_LL.c ****     uint32 newRegValue;
1007:Generated_Source\PSoC4/CapSense_SensingCSD_LL.c **** 
1008:Generated_Source\PSoC4/CapSense_SensingCSD_LL.c ****     CapSense_RAM_WD_BASE_STRUCT const *ptrWdgt = (CapSense_RAM_WD_BASE_STRUCT *)
1009:Generated_Source\PSoC4/CapSense_SensingCSD_LL.c ****              CapSense_dsFlash.wdgtArray[CapSense_widgetIndex].ptr2WdgtRam;
 690              		.loc 1 1009 0
 691 0000 0D4B     		ldr	r3, .L39
 692 0002 1A78     		ldrb	r2, [r3]
1008:Generated_Source\PSoC4/CapSense_SensingCSD_LL.c ****              CapSense_dsFlash.wdgtArray[CapSense_widgetIndex].ptr2WdgtRam;
 693              		.loc 1 1008 0
 694 0004 1C23     		movs	r3, #28
 695 0006 5343     		muls	r3, r2
 696 0008 0C4A     		ldr	r2, .L39+4
 697 000a D318     		adds	r3, r2, r3
 698 000c 5A68     		ldr	r2, [r3, #4]
 699              	.LVL72:
1010:Generated_Source\PSoC4/CapSense_SensingCSD_LL.c **** 
1011:Generated_Source\PSoC4/CapSense_SensingCSD_LL.c ****     /* Get sense divider based on configuration */
1012:Generated_Source\PSoC4/CapSense_SensingCSD_LL.c ****     #if (CapSense_ENABLE == CapSense_CSD_COMMON_SNS_CLK_EN)
1013:Generated_Source\PSoC4/CapSense_SensingCSD_LL.c ****         snsClkDivider = (uint32)CapSense_dsRam.snsCsdClk;
1014:Generated_Source\PSoC4/CapSense_SensingCSD_LL.c ****     #else
1015:Generated_Source\PSoC4/CapSense_SensingCSD_LL.c ****         #if (CapSense_CSD_MATRIX_WIDGET_EN || CapSense_CSD_TOUCHPAD_WIDGET_EN)
1016:Generated_Source\PSoC4/CapSense_SensingCSD_LL.c ****             /* Get SnsClck divider for rows or columns */
1017:Generated_Source\PSoC4/CapSense_SensingCSD_LL.c ****             if (CapSense_dsFlash.wdgtArray[CapSense_widgetIndex].numCols <= CapSense_sensorIndex)
1018:Generated_Source\PSoC4/CapSense_SensingCSD_LL.c ****             {
1019:Generated_Source\PSoC4/CapSense_SensingCSD_LL.c ****                 snsClkDivider = (uint32)(ptrWdgt->rowSnsClk);
1020:Generated_Source\PSoC4/CapSense_SensingCSD_LL.c ****             }
1021:Generated_Source\PSoC4/CapSense_SensingCSD_LL.c ****             else
1022:Generated_Source\PSoC4/CapSense_SensingCSD_LL.c ****             {
1023:Generated_Source\PSoC4/CapSense_SensingCSD_LL.c ****                 snsClkDivider = (uint32)(ptrWdgt->snsClk);
1024:Generated_Source\PSoC4/CapSense_SensingCSD_LL.c ****             }
1025:Generated_Source\PSoC4/CapSense_SensingCSD_LL.c ****         #else
1026:Generated_Source\PSoC4/CapSense_SensingCSD_LL.c ****             snsClkDivider = (uint32)(ptrWdgt->snsClk);
 700              		.loc 1 1026 0
 701 000e 9389     		ldrh	r3, [r2, #12]
 702              	.LVL73:
1027:Generated_Source\PSoC4/CapSense_SensingCSD_LL.c ****         #endif /* (CapSense_CSD_MATRIX_WIDGET_EN || CapSense_CSD_TOUCHPAD_WIDGET_EN) */
1028:Generated_Source\PSoC4/CapSense_SensingCSD_LL.c ****     #endif /* (CapSense_ENABLE == CapSense_CSD_COMMON_SNS_CLK_EN) */
1029:Generated_Source\PSoC4/CapSense_SensingCSD_LL.c **** 
1030:Generated_Source\PSoC4/CapSense_SensingCSD_LL.c ****     /* Get sense clk source calculated in CapSense_SsCSDInitialize() before */
1031:Generated_Source\PSoC4/CapSense_SensingCSD_LL.c ****     #if (CapSense_CSD_MATRIX_WIDGET_EN || CapSense_CSD_TOUCHPAD_WIDGET_EN)
1032:Generated_Source\PSoC4/CapSense_SensingCSD_LL.c ****         /* Get SnsClc Source for rows or columns */
1033:Generated_Source\PSoC4/CapSense_SensingCSD_LL.c ****         if (CapSense_dsFlash.wdgtArray[CapSense_widgetIndex].numCols <= CapSense_sensorIndex)
1034:Generated_Source\PSoC4/CapSense_SensingCSD_LL.c ****         {
1035:Generated_Source\PSoC4/CapSense_SensingCSD_LL.c ****             snsClkSrc = (uint32)ptrWdgt->rowSnsClkSource;
1036:Generated_Source\PSoC4/CapSense_SensingCSD_LL.c ****         }
1037:Generated_Source\PSoC4/CapSense_SensingCSD_LL.c ****         else
1038:Generated_Source\PSoC4/CapSense_SensingCSD_LL.c ****         {
1039:Generated_Source\PSoC4/CapSense_SensingCSD_LL.c ****             snsClkSrc = (uint32)ptrWdgt->snsClkSource;
ARM GAS  C:\Users\zack.li\AppData\Local\Temp\ccTyLy6m.s 			page 33


1040:Generated_Source\PSoC4/CapSense_SensingCSD_LL.c ****         }
1041:Generated_Source\PSoC4/CapSense_SensingCSD_LL.c ****     #else
1042:Generated_Source\PSoC4/CapSense_SensingCSD_LL.c ****         snsClkSrc = (uint32)ptrWdgt->snsClkSource;
 703              		.loc 1 1042 0
 704 0010 927B     		ldrb	r2, [r2, #14]
 705              	.LVL74:
1043:Generated_Source\PSoC4/CapSense_SensingCSD_LL.c ****     #endif /* (CapSense_CSD_MATRIX_WIDGET_EN || CapSense_CSD_TOUCHPAD_WIDGET_EN) */
1044:Generated_Source\PSoC4/CapSense_SensingCSD_LL.c **** 
1045:Generated_Source\PSoC4/CapSense_SensingCSD_LL.c ****     #if (CapSense_ENABLE == CapSense_CSDV2)
1046:Generated_Source\PSoC4/CapSense_SensingCSD_LL.c ****         newRegValue = (snsClkSrc << CYFLD_CSD_LFSR_SIZE__OFFSET);
 706              		.loc 1 1046 0
 707 0012 1104     		lsls	r1, r2, #16
 708              	.LVL75:
1047:Generated_Source\PSoC4/CapSense_SensingCSD_LL.c **** 
1048:Generated_Source\PSoC4/CapSense_SensingCSD_LL.c ****         /* Configuring PRS SEL_BIT */
1049:Generated_Source\PSoC4/CapSense_SensingCSD_LL.c ****         if ((CapSense_CLK_SOURCE_PRS8 == snsClkSrc) ||
 709              		.loc 1 1049 0
 710 0014 053A     		subs	r2, r2, #5
 711              	.LVL76:
 712 0016 012A     		cmp	r2, #1
 713 0018 02D8     		bhi	.L36
1050:Generated_Source\PSoC4/CapSense_SensingCSD_LL.c ****             (CapSense_CLK_SOURCE_PRS12 == snsClkSrc))
1051:Generated_Source\PSoC4/CapSense_SensingCSD_LL.c ****         {
1052:Generated_Source\PSoC4/CapSense_SensingCSD_LL.c ****             newRegValue |= CapSense_SENSE_PERIOD_SEL_LFSR_MSB_MASK;
 714              		.loc 1 1052 0
 715 001a 8020     		movs	r0, #128
 716 001c 8004     		lsls	r0, r0, #18
 717 001e 0143     		orrs	r1, r0
 718              	.LVL77:
 719              	.L36:
1053:Generated_Source\PSoC4/CapSense_SensingCSD_LL.c ****         }
1054:Generated_Source\PSoC4/CapSense_SensingCSD_LL.c ****     #else
1055:Generated_Source\PSoC4/CapSense_SensingCSD_LL.c ****         newRegValue = snsClkSrc;
1056:Generated_Source\PSoC4/CapSense_SensingCSD_LL.c ****     #endif /* (CapSense_ENABLE == CapSense_CSDV2) */
1057:Generated_Source\PSoC4/CapSense_SensingCSD_LL.c **** 
1058:Generated_Source\PSoC4/CapSense_SensingCSD_LL.c ****     #if (CapSense_ENABLE == CapSense_CSDV2)
1059:Generated_Source\PSoC4/CapSense_SensingCSD_LL.c ****         #if((CapSense_CLK_SOURCE_PRS8  == CapSense_CSD_SNS_CLK_SOURCE) ||\
1060:Generated_Source\PSoC4/CapSense_SensingCSD_LL.c ****             (CapSense_CLK_SOURCE_PRS12 == CapSense_CSD_SNS_CLK_SOURCE) ||\
1061:Generated_Source\PSoC4/CapSense_SensingCSD_LL.c ****             (CapSense_CLK_SOURCE_PRSAUTO == CapSense_CSD_SNS_CLK_SOURCE))
1062:Generated_Source\PSoC4/CapSense_SensingCSD_LL.c ****             switch (snsClkSrc)
 720              		.loc 1 1062 0
 721 0020 D2B2     		uxtb	r2, r2
 722              	.LVL78:
 723 0022 012A     		cmp	r2, #1
 724 0024 02D8     		bhi	.L37
1063:Generated_Source\PSoC4/CapSense_SensingCSD_LL.c ****             {
1064:Generated_Source\PSoC4/CapSense_SensingCSD_LL.c ****             case CapSense_CLK_SOURCE_PRS8:
1065:Generated_Source\PSoC4/CapSense_SensingCSD_LL.c ****             case CapSense_CLK_SOURCE_PRS12:
1066:Generated_Source\PSoC4/CapSense_SensingCSD_LL.c ****                 /* Divide by 2 for PRS8/PRS12 mode */
1067:Generated_Source\PSoC4/CapSense_SensingCSD_LL.c ****                 snsClkDivider >>= 1;
 725              		.loc 1 1067 0
 726 0026 5B08     		lsrs	r3, r3, #1
 727              	.LVL79:
1068:Generated_Source\PSoC4/CapSense_SensingCSD_LL.c ****                 if (snsClkDivider == 0u)
 728              		.loc 1 1068 0
 729 0028 00D1     		bne	.L37
1069:Generated_Source\PSoC4/CapSense_SensingCSD_LL.c ****                 {
ARM GAS  C:\Users\zack.li\AppData\Local\Temp\ccTyLy6m.s 			page 34


1070:Generated_Source\PSoC4/CapSense_SensingCSD_LL.c ****                     snsClkDivider = 1u;
 730              		.loc 1 1070 0
 731 002a 0133     		adds	r3, r3, #1
 732              	.LVL80:
 733              	.L37:
 734              	.LBB16:
 735              	.LBB17:
 401:Generated_Source\PSoC4/CapSense_SensingCSD_LL.c ****     #else
 736              		.loc 1 401 0
 737 002c 044A     		ldr	r2, .L39+8
 738 002e 013B     		subs	r3, r3, #1
 739              	.LVL81:
 740 0030 0B43     		orrs	r3, r1
 741              	.LVL82:
 742 0032 1360     		str	r3, [r2]
 743              	.LVL83:
 744              	.LBE17:
 745              	.LBE16:
1071:Generated_Source\PSoC4/CapSense_SensingCSD_LL.c ****                 }
1072:Generated_Source\PSoC4/CapSense_SensingCSD_LL.c ****                 break;
1073:Generated_Source\PSoC4/CapSense_SensingCSD_LL.c **** 
1074:Generated_Source\PSoC4/CapSense_SensingCSD_LL.c ****             default:
1075:Generated_Source\PSoC4/CapSense_SensingCSD_LL.c ****                 break;
1076:Generated_Source\PSoC4/CapSense_SensingCSD_LL.c ****             }
1077:Generated_Source\PSoC4/CapSense_SensingCSD_LL.c ****         #endif /* ((CapSense_CLK_SOURCE_PRS8  == CapSense_CSD_SNS_CLK_SOURCE) ||\
1078:Generated_Source\PSoC4/CapSense_SensingCSD_LL.c ****                    (CapSense_CLK_SOURCE_PRS12 == CapSense_CSD_SNS_CLK_SOURCE) ||\
1079:Generated_Source\PSoC4/CapSense_SensingCSD_LL.c ****                    (CapSense_CLK_SOURCE_PRSAUTO == CapSense_CSD_SNS_CLK_SOURCE)) */
1080:Generated_Source\PSoC4/CapSense_SensingCSD_LL.c ****     #endif
1081:Generated_Source\PSoC4/CapSense_SensingCSD_LL.c ****     CapSense_SsCSDSetModeSnsClockDivider(newRegValue, snsClkDivider);
1082:Generated_Source\PSoC4/CapSense_SensingCSD_LL.c **** }
 746              		.loc 1 1082 0
 747              		@ sp needed
 748 0034 7047     		bx	lr
 749              	.L40:
 750 0036 C046     		.align	2
 751              	.L39:
 752 0038 00000000 		.word	CapSense_widgetIndex
 753 003c 00000000 		.word	CapSense_dsFlash
 754 0040 00020B40 		.word	1074463232
 755              		.cfi_endproc
 756              	.LFE12:
 757              		.size	CapSense_SsCSDConfigClock, .-CapSense_SsCSDConfigClock
 758              		.section	.text.CapSense_SsCSDCalculateScanDuration,"ax",%progbits
 759              		.align	1
 760              		.global	CapSense_SsCSDCalculateScanDuration
 761              		.code	16
 762              		.thumb_func
 763              		.type	CapSense_SsCSDCalculateScanDuration, %function
 764              	CapSense_SsCSDCalculateScanDuration:
 765              	.LFB13:
1083:Generated_Source\PSoC4/CapSense_SensingCSD_LL.c **** 
1084:Generated_Source\PSoC4/CapSense_SensingCSD_LL.c **** 
1085:Generated_Source\PSoC4/CapSense_SensingCSD_LL.c **** /*******************************************************************************
1086:Generated_Source\PSoC4/CapSense_SensingCSD_LL.c **** * Function Name: CapSense_SsCSDCalculateScanDuration
1087:Generated_Source\PSoC4/CapSense_SensingCSD_LL.c **** ****************************************************************************//**
1088:Generated_Source\PSoC4/CapSense_SensingCSD_LL.c **** *
1089:Generated_Source\PSoC4/CapSense_SensingCSD_LL.c **** * \brief
ARM GAS  C:\Users\zack.li\AppData\Local\Temp\ccTyLy6m.s 			page 35


1090:Generated_Source\PSoC4/CapSense_SensingCSD_LL.c **** *   Calculates Scan Duration which is defined by scan resolution
1091:Generated_Source\PSoC4/CapSense_SensingCSD_LL.c **** *
1092:Generated_Source\PSoC4/CapSense_SensingCSD_LL.c **** * \details
1093:Generated_Source\PSoC4/CapSense_SensingCSD_LL.c **** *   For Fourth-generation HW block: The function calculates the number of conversions and updates
1094:Generated_Source\PSoC4/CapSense_SensingCSD_LL.c **** *   SEQ_NORM_CNT register. The number of conversions depends on resolution and
1095:Generated_Source\PSoC4/CapSense_SensingCSD_LL.c **** *   snsClk divider.
1096:Generated_Source\PSoC4/CapSense_SensingCSD_LL.c **** *   For Third-generation HW block: The function recalculate the resolution using following equation
1097:Generated_Source\PSoC4/CapSense_SensingCSD_LL.c **** *   2^resolution - 1. The calculated value is contained in
1098:Generated_Source\PSoC4/CapSense_SensingCSD_LL.c **** *   CapSense_counterResolution global variable and used in
1099:Generated_Source\PSoC4/CapSense_SensingCSD_LL.c **** *   CapSense_SsCSDStartSample() function to trigger the scan process.
1100:Generated_Source\PSoC4/CapSense_SensingCSD_LL.c **** *
1101:Generated_Source\PSoC4/CapSense_SensingCSD_LL.c **** * \param wdgtIndex
1102:Generated_Source\PSoC4/CapSense_SensingCSD_LL.c **** *  ptrWdgt The pointer to the RAM_WD_BASE_STRUCT structure.
1103:Generated_Source\PSoC4/CapSense_SensingCSD_LL.c **** *
1104:Generated_Source\PSoC4/CapSense_SensingCSD_LL.c **** *******************************************************************************/
1105:Generated_Source\PSoC4/CapSense_SensingCSD_LL.c **** void CapSense_SsCSDCalculateScanDuration(CapSense_RAM_WD_BASE_STRUCT const *ptrWdgt)
1106:Generated_Source\PSoC4/CapSense_SensingCSD_LL.c **** {
 766              		.loc 1 1106 0
 767              		.cfi_startproc
 768              		@ args = 0, pretend = 0, frame = 0
 769              		@ frame_needed = 0, uses_anonymous_args = 0
 770              	.LVL84:
 771 0000 10B5     		push	{r4, lr}
 772              		.cfi_def_cfa_offset 8
 773              		.cfi_offset 4, -8
 774              		.cfi_offset 14, -4
1107:Generated_Source\PSoC4/CapSense_SensingCSD_LL.c ****     #if (CapSense_ENABLE == CapSense_CSDV2)
1108:Generated_Source\PSoC4/CapSense_SensingCSD_LL.c ****         uint32 conversionsNum;
1109:Generated_Source\PSoC4/CapSense_SensingCSD_LL.c ****         uint32 snsClkDivider;
1110:Generated_Source\PSoC4/CapSense_SensingCSD_LL.c **** 
1111:Generated_Source\PSoC4/CapSense_SensingCSD_LL.c ****         /* Get Number Of Conversions */
1112:Generated_Source\PSoC4/CapSense_SensingCSD_LL.c ****         #if (CapSense_ENABLE == CapSense_CSD_COMMON_SNS_CLK_EN)
1113:Generated_Source\PSoC4/CapSense_SensingCSD_LL.c ****             snsClkDivider = CapSense_dsRam.snsCsdClk;
1114:Generated_Source\PSoC4/CapSense_SensingCSD_LL.c ****         #else
1115:Generated_Source\PSoC4/CapSense_SensingCSD_LL.c ****             #if (CapSense_CSD_MATRIX_WIDGET_EN || CapSense_CSD_TOUCHPAD_WIDGET_EN)
1116:Generated_Source\PSoC4/CapSense_SensingCSD_LL.c ****                 /* Get SnsClck divider for rows or columns */
1117:Generated_Source\PSoC4/CapSense_SensingCSD_LL.c ****                 if (CapSense_dsFlash.wdgtArray[CapSense_widgetIndex].numCols <= CapSense_sensorInde
1118:Generated_Source\PSoC4/CapSense_SensingCSD_LL.c ****                 {
1119:Generated_Source\PSoC4/CapSense_SensingCSD_LL.c ****                     snsClkDivider = (uint32)(ptrWdgt->rowSnsClk);
1120:Generated_Source\PSoC4/CapSense_SensingCSD_LL.c ****                 }
1121:Generated_Source\PSoC4/CapSense_SensingCSD_LL.c ****                 else
1122:Generated_Source\PSoC4/CapSense_SensingCSD_LL.c ****                 {
1123:Generated_Source\PSoC4/CapSense_SensingCSD_LL.c ****                     snsClkDivider = (uint32)(ptrWdgt->snsClk);
1124:Generated_Source\PSoC4/CapSense_SensingCSD_LL.c ****                 }
1125:Generated_Source\PSoC4/CapSense_SensingCSD_LL.c ****             #else
1126:Generated_Source\PSoC4/CapSense_SensingCSD_LL.c ****                 snsClkDivider = (uint32)(ptrWdgt->snsClk);
1127:Generated_Source\PSoC4/CapSense_SensingCSD_LL.c ****             #endif /* (CapSense_CSD_MATRIX_WIDGET_EN || CapSense_CSD_TOUCHPAD_WIDGET_EN) */
1128:Generated_Source\PSoC4/CapSense_SensingCSD_LL.c ****         #endif /* (CapSense_ENABLE == CapSense_CSD_COMMON_SNS_CLK_EN) */
1129:Generated_Source\PSoC4/CapSense_SensingCSD_LL.c **** 
1130:Generated_Source\PSoC4/CapSense_SensingCSD_LL.c ****         conversionsNum = CapSense_SsCSDGetNumberOfConversions(snsClkDivider, (uint32)ptrWdgt->resol
 775              		.loc 1 1130 0
 776 0002 827B     		ldrb	r2, [r0, #14]
 777 0004 0188     		ldrh	r1, [r0]
 778 0006 8089     		ldrh	r0, [r0, #12]
 779              	.LVL85:
 780 0008 FFF7FEFF 		bl	CapSense_SsCSDGetNumberOfConversions
 781              	.LVL86:
ARM GAS  C:\Users\zack.li\AppData\Local\Temp\ccTyLy6m.s 			page 36


1131:Generated_Source\PSoC4/CapSense_SensingCSD_LL.c **** 
1132:Generated_Source\PSoC4/CapSense_SensingCSD_LL.c ****         /* Set Number Of Conversions based on scanning resolution */
1133:Generated_Source\PSoC4/CapSense_SensingCSD_LL.c ****         CY_SET_REG32(CapSense_SEQ_NORM_CNT_PTR, (conversionsNum & CapSense_SEQ_NORM_CNT_CONV_CNT_MA
 782              		.loc 1 1133 0
 783 000c 014B     		ldr	r3, .L42
 784 000e 80B2     		uxth	r0, r0
 785              	.LVL87:
 786 0010 1860     		str	r0, [r3]
1134:Generated_Source\PSoC4/CapSense_SensingCSD_LL.c ****     #else
1135:Generated_Source\PSoC4/CapSense_SensingCSD_LL.c ****         /* Set up scanning resolution  */
1136:Generated_Source\PSoC4/CapSense_SensingCSD_LL.c ****         CapSense_counterResolution = (uint32)((0x00000001Lu << ptrWdgt->resolution) - 1u) << CapSen
1137:Generated_Source\PSoC4/CapSense_SensingCSD_LL.c ****     #endif /* (CapSense_ENABLE == CapSense_CSDV2) */
1138:Generated_Source\PSoC4/CapSense_SensingCSD_LL.c **** }
 787              		.loc 1 1138 0
 788              		@ sp needed
 789 0012 10BD     		pop	{r4, pc}
 790              	.L43:
 791              		.align	2
 792              	.L42:
 793 0014 14030B40 		.word	1074463508
 794              		.cfi_endproc
 795              	.LFE13:
 796              		.size	CapSense_SsCSDCalculateScanDuration, .-CapSense_SsCSDCalculateScanDuration
 797              		.section	.text.CapSense_SsCSDStartSample,"ax",%progbits
 798              		.align	1
 799              		.global	CapSense_SsCSDStartSample
 800              		.code	16
 801              		.thumb_func
 802              		.type	CapSense_SsCSDStartSample, %function
 803              	CapSense_SsCSDStartSample:
 804              	.LFB16:
1139:Generated_Source\PSoC4/CapSense_SensingCSD_LL.c **** 
1140:Generated_Source\PSoC4/CapSense_SensingCSD_LL.c **** 
1141:Generated_Source\PSoC4/CapSense_SensingCSD_LL.c **** /*******************************************************************************
1142:Generated_Source\PSoC4/CapSense_SensingCSD_LL.c **** * Function Name: CapSense_CSDSetupWidget
1143:Generated_Source\PSoC4/CapSense_SensingCSD_LL.c **** ****************************************************************************//**
1144:Generated_Source\PSoC4/CapSense_SensingCSD_LL.c **** *
1145:Generated_Source\PSoC4/CapSense_SensingCSD_LL.c **** * \brief
1146:Generated_Source\PSoC4/CapSense_SensingCSD_LL.c **** *  Performs hardware and firmware initialization required for scanning sensors
1147:Generated_Source\PSoC4/CapSense_SensingCSD_LL.c **** *  in a specific widget using the CSD sensing method. This function requires using
1148:Generated_Source\PSoC4/CapSense_SensingCSD_LL.c **** *  the CapSense_CSDScan() function to start scanning.
1149:Generated_Source\PSoC4/CapSense_SensingCSD_LL.c **** *
1150:Generated_Source\PSoC4/CapSense_SensingCSD_LL.c **** * \details
1151:Generated_Source\PSoC4/CapSense_SensingCSD_LL.c **** *  \note This function is obsolete and kept for backward compatibility only.
1152:Generated_Source\PSoC4/CapSense_SensingCSD_LL.c **** *  The CapSense_SetupWidget() function should be used instead.
1153:Generated_Source\PSoC4/CapSense_SensingCSD_LL.c **** *
1154:Generated_Source\PSoC4/CapSense_SensingCSD_LL.c **** *  This function initializes the specific widget common parameters to perform
1155:Generated_Source\PSoC4/CapSense_SensingCSD_LL.c **** *  the CSD scanning. The initialization includes setting up a Modulator and
1156:Generated_Source\PSoC4/CapSense_SensingCSD_LL.c **** *  Sense clock frequency and scanning resolution.
1157:Generated_Source\PSoC4/CapSense_SensingCSD_LL.c **** *
1158:Generated_Source\PSoC4/CapSense_SensingCSD_LL.c **** *  This function does not connect any specific sensors to the scanning hardware,
1159:Generated_Source\PSoC4/CapSense_SensingCSD_LL.c **** *  neither does it start a scanning process. The CapSense_CSDScan()
1160:Generated_Source\PSoC4/CapSense_SensingCSD_LL.c **** *  API must be called after initializing the widget to start scanning.
1161:Generated_Source\PSoC4/CapSense_SensingCSD_LL.c **** *
1162:Generated_Source\PSoC4/CapSense_SensingCSD_LL.c **** *  This function is called when no scanning is in progress. I.e.
1163:Generated_Source\PSoC4/CapSense_SensingCSD_LL.c **** *  CapSense_IsBusy() returns a non-busy status.
1164:Generated_Source\PSoC4/CapSense_SensingCSD_LL.c **** *
ARM GAS  C:\Users\zack.li\AppData\Local\Temp\ccTyLy6m.s 			page 37


1165:Generated_Source\PSoC4/CapSense_SensingCSD_LL.c **** *  This function is called by the CapSense_SetupWidget() API if the
1166:Generated_Source\PSoC4/CapSense_SensingCSD_LL.c **** *  given widget uses the CSD sensing method.
1167:Generated_Source\PSoC4/CapSense_SensingCSD_LL.c **** *
1168:Generated_Source\PSoC4/CapSense_SensingCSD_LL.c **** *  Calling this function directly from the application layer is not
1169:Generated_Source\PSoC4/CapSense_SensingCSD_LL.c **** *  recommended. This function is used to implement only the user's specific
1170:Generated_Source\PSoC4/CapSense_SensingCSD_LL.c **** *  use cases (for faster execution time or pipeline scanning for example).
1171:Generated_Source\PSoC4/CapSense_SensingCSD_LL.c **** *
1172:Generated_Source\PSoC4/CapSense_SensingCSD_LL.c **** * \param  widgetId
1173:Generated_Source\PSoC4/CapSense_SensingCSD_LL.c **** *  Specifies the ID number of the widget to perform hardware and firmware
1174:Generated_Source\PSoC4/CapSense_SensingCSD_LL.c **** *  initialization required for scanning sensors in the specific widget.
1175:Generated_Source\PSoC4/CapSense_SensingCSD_LL.c **** *  A macro for the widget ID can be found in the CapSense Configuration header
1176:Generated_Source\PSoC4/CapSense_SensingCSD_LL.c **** *  file defined as CapSense_<WidgetName>_WDGT_ID.
1177:Generated_Source\PSoC4/CapSense_SensingCSD_LL.c **** *
1178:Generated_Source\PSoC4/CapSense_SensingCSD_LL.c **** *******************************************************************************/
1179:Generated_Source\PSoC4/CapSense_SensingCSD_LL.c **** void CapSense_CSDSetupWidget(uint32 widgetId)
1180:Generated_Source\PSoC4/CapSense_SensingCSD_LL.c **** {
1181:Generated_Source\PSoC4/CapSense_SensingCSD_LL.c ****     CapSense_RAM_WD_BASE_STRUCT const *ptrWdgt = (CapSense_RAM_WD_BASE_STRUCT *)
1182:Generated_Source\PSoC4/CapSense_SensingCSD_LL.c ****                                                 CapSense_dsFlash.wdgtArray[widgetId].ptr2WdgtRam;
1183:Generated_Source\PSoC4/CapSense_SensingCSD_LL.c **** 
1184:Generated_Source\PSoC4/CapSense_SensingCSD_LL.c ****     /* Save widget Id to have assess to it after scanning  */
1185:Generated_Source\PSoC4/CapSense_SensingCSD_LL.c ****     CapSense_widgetIndex = (uint8)widgetId;
1186:Generated_Source\PSoC4/CapSense_SensingCSD_LL.c **** 
1187:Generated_Source\PSoC4/CapSense_SensingCSD_LL.c ****     CapSense_SsSwitchSensingMode(CapSense_SENSE_METHOD_CSD_E);
1188:Generated_Source\PSoC4/CapSense_SensingCSD_LL.c **** 
1189:Generated_Source\PSoC4/CapSense_SensingCSD_LL.c ****     #if (CapSense_ENABLE == CapSense_MULTI_FREQ_SCAN_EN)
1190:Generated_Source\PSoC4/CapSense_SensingCSD_LL.c ****         /* Reset the frequency scan channel if enabled */
1191:Generated_Source\PSoC4/CapSense_SensingCSD_LL.c ****         CapSense_scanFreqIndex = CapSense_FREQ_CHANNEL_0;
1192:Generated_Source\PSoC4/CapSense_SensingCSD_LL.c ****     #endif /* (CapSense_ENABLE == CapSense_MULTI_FREQ_SCAN_EN) */
1193:Generated_Source\PSoC4/CapSense_SensingCSD_LL.c **** 
1194:Generated_Source\PSoC4/CapSense_SensingCSD_LL.c ****     /* Disconnect previous electrode if it has been connected */
1195:Generated_Source\PSoC4/CapSense_SensingCSD_LL.c ****     CapSense_SsCSDElectrodeCheck();
1196:Generated_Source\PSoC4/CapSense_SensingCSD_LL.c **** 
1197:Generated_Source\PSoC4/CapSense_SensingCSD_LL.c ****     /* Initialize IO Sns electrode structure pointer to current widget */
1198:Generated_Source\PSoC4/CapSense_SensingCSD_LL.c ****     CapSense_curSnsIOPtr = (CapSense_FLASH_IO_STRUCT const *)
1199:Generated_Source\PSoC4/CapSense_SensingCSD_LL.c ****                                     CapSense_dsFlash.wdgtArray[CapSense_widgetIndex].ptr2SnsFlash;
1200:Generated_Source\PSoC4/CapSense_SensingCSD_LL.c **** 
1201:Generated_Source\PSoC4/CapSense_SensingCSD_LL.c ****     /* Update status register in Data structure */
1202:Generated_Source\PSoC4/CapSense_SensingCSD_LL.c ****     CapSense_dsRam.status &= ~CapSense_STATUS_WDGT0_MASK;
1203:Generated_Source\PSoC4/CapSense_SensingCSD_LL.c ****     CapSense_dsRam.status |= CapSense_widgetIndex;
1204:Generated_Source\PSoC4/CapSense_SensingCSD_LL.c **** 
1205:Generated_Source\PSoC4/CapSense_SensingCSD_LL.c ****     CapSense_SsCSDCalculateScanDuration(ptrWdgt);
1206:Generated_Source\PSoC4/CapSense_SensingCSD_LL.c ****     #if (((CapSense_DISABLE == CapSense_CSD_COMMON_SNS_CLK_EN) || \
1207:Generated_Source\PSoC4/CapSense_SensingCSD_LL.c ****           (CapSense_CLK_SOURCE_DIRECT != CapSense_CSD_SNS_CLK_SOURCE)) && \
1208:Generated_Source\PSoC4/CapSense_SensingCSD_LL.c ****          ((!(CapSense_CSD_MATRIX_WIDGET_EN || CapSense_CSD_TOUCHPAD_WIDGET_EN)) || \
1209:Generated_Source\PSoC4/CapSense_SensingCSD_LL.c ****           (CapSense_ENABLE == CapSense_CSD_COMMON_SNS_CLK_EN)))
1210:Generated_Source\PSoC4/CapSense_SensingCSD_LL.c ****         CapSense_SsCSDConfigClock();
1211:Generated_Source\PSoC4/CapSense_SensingCSD_LL.c ****     #endif
1212:Generated_Source\PSoC4/CapSense_SensingCSD_LL.c **** }
1213:Generated_Source\PSoC4/CapSense_SensingCSD_LL.c **** 
1214:Generated_Source\PSoC4/CapSense_SensingCSD_LL.c **** 
1215:Generated_Source\PSoC4/CapSense_SensingCSD_LL.c **** /*******************************************************************************
1216:Generated_Source\PSoC4/CapSense_SensingCSD_LL.c **** * Function Name: CapSense_CSDSetupWidgetExt
1217:Generated_Source\PSoC4/CapSense_SensingCSD_LL.c **** ****************************************************************************//**
1218:Generated_Source\PSoC4/CapSense_SensingCSD_LL.c **** *
1219:Generated_Source\PSoC4/CapSense_SensingCSD_LL.c **** * \brief
1220:Generated_Source\PSoC4/CapSense_SensingCSD_LL.c **** *  Performs extended initialization for the CSD widget and also performs
1221:Generated_Source\PSoC4/CapSense_SensingCSD_LL.c **** *  initialization required for a specific sensor in the widget. This function
ARM GAS  C:\Users\zack.li\AppData\Local\Temp\ccTyLy6m.s 			page 38


1222:Generated_Source\PSoC4/CapSense_SensingCSD_LL.c **** *  requires using the CapSense_CSDScanExt() function to initiate a scan.
1223:Generated_Source\PSoC4/CapSense_SensingCSD_LL.c **** *
1224:Generated_Source\PSoC4/CapSense_SensingCSD_LL.c **** * \details
1225:Generated_Source\PSoC4/CapSense_SensingCSD_LL.c **** *  Performs extended initialization for the CSD widget and also performs
1226:Generated_Source\PSoC4/CapSense_SensingCSD_LL.c **** *  initialization required for a specific sensor in the widget. This function
1227:Generated_Source\PSoC4/CapSense_SensingCSD_LL.c **** *  requires using the CapSense_CSDScanExt() function to initiate a scan.
1228:Generated_Source\PSoC4/CapSense_SensingCSD_LL.c **** *
1229:Generated_Source\PSoC4/CapSense_SensingCSD_LL.c **** *  \note This function is obsolete and kept for backward compatibility only.
1230:Generated_Source\PSoC4/CapSense_SensingCSD_LL.c **** *  The CapSense_SetupWidgetExt() function should be used instead.
1231:Generated_Source\PSoC4/CapSense_SensingCSD_LL.c **** *
1232:Generated_Source\PSoC4/CapSense_SensingCSD_LL.c **** *  This function does the same as CapSense_CSDSetupWidget() and also
1233:Generated_Source\PSoC4/CapSense_SensingCSD_LL.c **** *  does the following tasks:
1234:Generated_Source\PSoC4/CapSense_SensingCSD_LL.c **** *    1. Connects the first sensor of the widget.
1235:Generated_Source\PSoC4/CapSense_SensingCSD_LL.c **** *    2. Configures the IDAC value.
1236:Generated_Source\PSoC4/CapSense_SensingCSD_LL.c **** *    3. Initializes an interrupt callback function to initialize a scan of the
1237:Generated_Source\PSoC4/CapSense_SensingCSD_LL.c **** *  next sensors in a widget.
1238:Generated_Source\PSoC4/CapSense_SensingCSD_LL.c **** *
1239:Generated_Source\PSoC4/CapSense_SensingCSD_LL.c **** *  Once this function is called to initialize a widget and a sensor, the
1240:Generated_Source\PSoC4/CapSense_SensingCSD_LL.c **** *  CapSense_CSDScanExt() function is called to scan the sensor.
1241:Generated_Source\PSoC4/CapSense_SensingCSD_LL.c **** *
1242:Generated_Source\PSoC4/CapSense_SensingCSD_LL.c **** *  This function is called when no scanning is in progress. I.e.
1243:Generated_Source\PSoC4/CapSense_SensingCSD_LL.c **** *  CapSense_IsBusy() returns a non-busy status.
1244:Generated_Source\PSoC4/CapSense_SensingCSD_LL.c **** *
1245:Generated_Source\PSoC4/CapSense_SensingCSD_LL.c **** *  Calling this function directly from the application layer is not
1246:Generated_Source\PSoC4/CapSense_SensingCSD_LL.c **** *  recommended. This function is used to implement only the user's specific
1247:Generated_Source\PSoC4/CapSense_SensingCSD_LL.c **** *  use cases (for faster execution time or pipeline scanning for example).
1248:Generated_Source\PSoC4/CapSense_SensingCSD_LL.c **** *
1249:Generated_Source\PSoC4/CapSense_SensingCSD_LL.c **** * \param widgetId
1250:Generated_Source\PSoC4/CapSense_SensingCSD_LL.c **** *  Specifies the ID number of the widget to perform hardware and firmware
1251:Generated_Source\PSoC4/CapSense_SensingCSD_LL.c **** *  initialization required for scanning the specific sensor in the specific
1252:Generated_Source\PSoC4/CapSense_SensingCSD_LL.c **** *  widget.
1253:Generated_Source\PSoC4/CapSense_SensingCSD_LL.c **** *  A macro for the widget ID can be found in the CapSense Configuration header
1254:Generated_Source\PSoC4/CapSense_SensingCSD_LL.c **** *  file defined as CapSense_<WidgetName>_WDGT_ID.
1255:Generated_Source\PSoC4/CapSense_SensingCSD_LL.c **** *
1256:Generated_Source\PSoC4/CapSense_SensingCSD_LL.c **** * \param sensorId
1257:Generated_Source\PSoC4/CapSense_SensingCSD_LL.c **** *  Specifies the ID number of the sensor within the widget to perform hardware
1258:Generated_Source\PSoC4/CapSense_SensingCSD_LL.c **** *  and firmware initialization required for scanning a specific sensor in a
1259:Generated_Source\PSoC4/CapSense_SensingCSD_LL.c **** *  specific widget.
1260:Generated_Source\PSoC4/CapSense_SensingCSD_LL.c **** *  A macro for the sensor ID within a specified widget can be found in the
1261:Generated_Source\PSoC4/CapSense_SensingCSD_LL.c **** *  CapSense Configuration header file defined as
1262:Generated_Source\PSoC4/CapSense_SensingCSD_LL.c **** *  CapSense_<WidgetName>_SNS<SensorNumber>_ID
1263:Generated_Source\PSoC4/CapSense_SensingCSD_LL.c **** *
1264:Generated_Source\PSoC4/CapSense_SensingCSD_LL.c **** *******************************************************************************/
1265:Generated_Source\PSoC4/CapSense_SensingCSD_LL.c **** void CapSense_CSDSetupWidgetExt(uint32 widgetId, uint32 sensorId)
1266:Generated_Source\PSoC4/CapSense_SensingCSD_LL.c **** {
1267:Generated_Source\PSoC4/CapSense_SensingCSD_LL.c ****     CapSense_RAM_WD_BASE_STRUCT const *ptrWdgt = (CapSense_RAM_WD_BASE_STRUCT *)
1268:Generated_Source\PSoC4/CapSense_SensingCSD_LL.c ****                                                     CapSense_dsFlash.wdgtArray[widgetId].ptr2WdgtRa
1269:Generated_Source\PSoC4/CapSense_SensingCSD_LL.c **** 
1270:Generated_Source\PSoC4/CapSense_SensingCSD_LL.c ****     /* Save widget and sensor Ids to have access to it after scanning  */
1271:Generated_Source\PSoC4/CapSense_SensingCSD_LL.c ****     CapSense_sensorIndex = (uint8)sensorId;
1272:Generated_Source\PSoC4/CapSense_SensingCSD_LL.c **** 
1273:Generated_Source\PSoC4/CapSense_SensingCSD_LL.c ****     /* Update global pointer to CapSense_RAM_SNS_STRUCT to current sensor  */
1274:Generated_Source\PSoC4/CapSense_SensingCSD_LL.c ****     CapSense_curRamSnsPtr = (CapSense_RAM_SNS_STRUCT *)
1275:Generated_Source\PSoC4/CapSense_SensingCSD_LL.c ****                                               CapSense_dsFlash.wdgtArray[widgetId].ptr2SnsRam
1276:Generated_Source\PSoC4/CapSense_SensingCSD_LL.c ****                                               + CapSense_sensorIndex;
1277:Generated_Source\PSoC4/CapSense_SensingCSD_LL.c **** 
1278:Generated_Source\PSoC4/CapSense_SensingCSD_LL.c ****     CapSense_CSDSetupWidget(widgetId);
ARM GAS  C:\Users\zack.li\AppData\Local\Temp\ccTyLy6m.s 			page 39


1279:Generated_Source\PSoC4/CapSense_SensingCSD_LL.c **** 
1280:Generated_Source\PSoC4/CapSense_SensingCSD_LL.c ****      /* Setup Idac Value */
1281:Generated_Source\PSoC4/CapSense_SensingCSD_LL.c ****     CapSense_SsCSDSetUpIdacs(ptrWdgt);
1282:Generated_Source\PSoC4/CapSense_SensingCSD_LL.c **** 
1283:Generated_Source\PSoC4/CapSense_SensingCSD_LL.c ****     #if (CapSense_ENABLE == CapSense_CSD_GANGED_SNS_EN)
1284:Generated_Source\PSoC4/CapSense_SensingCSD_LL.c ****         /* initialize access pointers for current pointer to widget configuration in Flash */
1285:Generated_Source\PSoC4/CapSense_SensingCSD_LL.c ****         CapSense_curFlashWdgtPtr = &CapSense_dsFlash.wdgtArray[widgetId];
1286:Generated_Source\PSoC4/CapSense_SensingCSD_LL.c ****     #endif /* (CapSense_ENABLE == CapSense_CSD_GANGED_SNS_EN)  */
1287:Generated_Source\PSoC4/CapSense_SensingCSD_LL.c **** 
1288:Generated_Source\PSoC4/CapSense_SensingCSD_LL.c ****     #if (CapSense_ENABLE == CapSense_CSD_GANGED_SNS_EN)
1289:Generated_Source\PSoC4/CapSense_SensingCSD_LL.c ****         CapSense_SsCSDConnectSensorExt(widgetId, sensorId);
1290:Generated_Source\PSoC4/CapSense_SensingCSD_LL.c ****     #else
1291:Generated_Source\PSoC4/CapSense_SensingCSD_LL.c ****         /* Enable sensor */
1292:Generated_Source\PSoC4/CapSense_SensingCSD_LL.c ****         CapSense_curSnsIOPtr += CapSense_sensorIndex;
1293:Generated_Source\PSoC4/CapSense_SensingCSD_LL.c ****         CapSense_CSDConnectSns(CapSense_curSnsIOPtr);
1294:Generated_Source\PSoC4/CapSense_SensingCSD_LL.c ****     #endif /* (CapSense_ENABLE == CapSense_CSD_GANGED_SNS_EN)  */
1295:Generated_Source\PSoC4/CapSense_SensingCSD_LL.c **** 
1296:Generated_Source\PSoC4/CapSense_SensingCSD_LL.c ****     #if (CapSense_ENABLE == CapSense_CSD_GANGED_SNS_EN)
1297:Generated_Source\PSoC4/CapSense_SensingCSD_LL.c ****         /* Save sns pointer */
1298:Generated_Source\PSoC4/CapSense_SensingCSD_LL.c ****         CapSense_curFlashSnsPtr = (CapSense_FLASH_SNS_STRUCT const *)
1299:Generated_Source\PSoC4/CapSense_SensingCSD_LL.c ****                                            CapSense_dsFlash.wdgtArray[CapSense_widgetIndex].ptr2Sns
1300:Generated_Source\PSoC4/CapSense_SensingCSD_LL.c ****                                            CapSense_sensorIndex;
1301:Generated_Source\PSoC4/CapSense_SensingCSD_LL.c ****     #endif /* (CapSense_ENABLE == CapSense_CSD_GANGED_SNS_EN) */
1302:Generated_Source\PSoC4/CapSense_SensingCSD_LL.c **** 
1303:Generated_Source\PSoC4/CapSense_SensingCSD_LL.c ****     CapSense_eleCsdDisconnectFlag = CapSense_DISCONNECT_IO_FLAG;
1304:Generated_Source\PSoC4/CapSense_SensingCSD_LL.c **** 
1305:Generated_Source\PSoC4/CapSense_SensingCSD_LL.c ****     /* Setup ISR handler to single-sensor scan function */
1306:Generated_Source\PSoC4/CapSense_SensingCSD_LL.c ****     CapSense_ISR_StartEx(&CapSense_CSDPostSingleScan);
1307:Generated_Source\PSoC4/CapSense_SensingCSD_LL.c **** }
1308:Generated_Source\PSoC4/CapSense_SensingCSD_LL.c **** 
1309:Generated_Source\PSoC4/CapSense_SensingCSD_LL.c **** /*******************************************************************************
1310:Generated_Source\PSoC4/CapSense_SensingCSD_LL.c **** * Function Name: CapSense_SsCSDStartSample
1311:Generated_Source\PSoC4/CapSense_SensingCSD_LL.c **** ****************************************************************************//**
1312:Generated_Source\PSoC4/CapSense_SensingCSD_LL.c **** *
1313:Generated_Source\PSoC4/CapSense_SensingCSD_LL.c **** * \brief
1314:Generated_Source\PSoC4/CapSense_SensingCSD_LL.c **** *   Starts the CSD conversion.
1315:Generated_Source\PSoC4/CapSense_SensingCSD_LL.c **** *
1316:Generated_Source\PSoC4/CapSense_SensingCSD_LL.c **** * \details
1317:Generated_Source\PSoC4/CapSense_SensingCSD_LL.c **** *   This function assumes that the CSD block is already set up using
1318:Generated_Source\PSoC4/CapSense_SensingCSD_LL.c **** *   the CapSense_CSDSetupWidget API and the sensor port-pin is connected to the CSD
1319:Generated_Source\PSoC4/CapSense_SensingCSD_LL.c **** *   block using CapSense_CSDConnectSns.
1320:Generated_Source\PSoC4/CapSense_SensingCSD_LL.c **** *   For Third-generation HW block the function performs the following tasks:
1321:Generated_Source\PSoC4/CapSense_SensingCSD_LL.c **** *   1. Disconnects the Vref buffer from AMUX;
1322:Generated_Source\PSoC4/CapSense_SensingCSD_LL.c **** *   2. Precharges Cmod;
1323:Generated_Source\PSoC4/CapSense_SensingCSD_LL.c **** *   3. Makes the PreSettling delay to have a stable Vref voltage;
1324:Generated_Source\PSoC4/CapSense_SensingCSD_LL.c **** *   4. Sets the resolution to the Counter register to start scanning.
1325:Generated_Source\PSoC4/CapSense_SensingCSD_LL.c **** *
1326:Generated_Source\PSoC4/CapSense_SensingCSD_LL.c **** *******************************************************************************/
1327:Generated_Source\PSoC4/CapSense_SensingCSD_LL.c **** void CapSense_SsCSDStartSample(void)
1328:Generated_Source\PSoC4/CapSense_SensingCSD_LL.c **** {
 805              		.loc 1 1328 0
 806              		.cfi_startproc
 807              		@ args = 0, pretend = 0, frame = 24
 808              		@ frame_needed = 0, uses_anonymous_args = 0
 809 0000 F0B5     		push	{r4, r5, r6, r7, lr}
 810              		.cfi_def_cfa_offset 20
 811              		.cfi_offset 4, -20
ARM GAS  C:\Users\zack.li\AppData\Local\Temp\ccTyLy6m.s 			page 40


 812              		.cfi_offset 5, -16
 813              		.cfi_offset 6, -12
 814              		.cfi_offset 7, -8
 815              		.cfi_offset 14, -4
1329:Generated_Source\PSoC4/CapSense_SensingCSD_LL.c ****     #if (CapSense_ENABLE != CapSense_CSDV2)
1330:Generated_Source\PSoC4/CapSense_SensingCSD_LL.c ****         uint8 interruptState;
1331:Generated_Source\PSoC4/CapSense_SensingCSD_LL.c ****     #endif
1332:Generated_Source\PSoC4/CapSense_SensingCSD_LL.c **** 
1333:Generated_Source\PSoC4/CapSense_SensingCSD_LL.c ****     #ifdef CapSense_START_SAMPLE_CALLBACK
1334:Generated_Source\PSoC4/CapSense_SensingCSD_LL.c ****         CapSense_StartSampleCallback(CapSense_widgetIndex, CapSense_sensorIndex);
1335:Generated_Source\PSoC4/CapSense_SensingCSD_LL.c ****     #endif /* CapSense_START_SAMPLE_CALLBACK */
1336:Generated_Source\PSoC4/CapSense_SensingCSD_LL.c **** 
1337:Generated_Source\PSoC4/CapSense_SensingCSD_LL.c ****     #if (CapSense_ENABLE == CapSense_CSDV2)
1338:Generated_Source\PSoC4/CapSense_SensingCSD_LL.c ****         /* Fourth-generation HW block section */
1339:Generated_Source\PSoC4/CapSense_SensingCSD_LL.c **** 
1340:Generated_Source\PSoC4/CapSense_SensingCSD_LL.c ****         /* Disable CSD interrupt to prevent it during coarse initialization */
1341:Generated_Source\PSoC4/CapSense_SensingCSD_LL.c ****         CyIntDisable(CapSense_ISR_NUMBER);
 816              		.loc 1 1341 0
 817 0002 0A20     		movs	r0, #10
1328:Generated_Source\PSoC4/CapSense_SensingCSD_LL.c ****     #if (CapSense_ENABLE != CapSense_CSDV2)
 818              		.loc 1 1328 0
 819 0004 87B0     		sub	sp, sp, #28
 820              		.cfi_def_cfa_offset 48
 821              		.loc 1 1341 0
 822 0006 FFF7FEFF 		bl	CyIntDisable
 823              	.LVL88:
1342:Generated_Source\PSoC4/CapSense_SensingCSD_LL.c **** 
1343:Generated_Source\PSoC4/CapSense_SensingCSD_LL.c ****         /* Enable power to sub-blocks */
1344:Generated_Source\PSoC4/CapSense_SensingCSD_LL.c ****         CY_SET_REG32(CapSense_HSCMP_PTR, CapSense_HSCMP_INIT_MASK);
 824              		.loc 1 1344 0
 825 000a 0123     		movs	r3, #1
 826 000c 334F     		ldr	r7, .L56
 827 000e 9C46     		mov	ip, r3
 828 0010 3B60     		str	r3, [r7]
 829              	.LBB22:
 830              	.LBB23:
1345:Generated_Source\PSoC4/CapSense_SensingCSD_LL.c **** 
1346:Generated_Source\PSoC4/CapSense_SensingCSD_LL.c ****         #if (CapSense_ENABLE == CapSense_BLOCK_OFF_AFTER_SCAN_EN)
1347:Generated_Source\PSoC4/CapSense_SensingCSD_LL.c ****             CY_SET_REG32(CapSense_CONFIG_PTR, CapSense_configCsd |
1348:Generated_Source\PSoC4/CapSense_SensingCSD_LL.c ****                                                       CapSense_CONFIG_SENSE_EN_MASK |
1349:Generated_Source\PSoC4/CapSense_SensingCSD_LL.c ****                                                       CapSense_CONFIG_ENABLE_MASK);
1350:Generated_Source\PSoC4/CapSense_SensingCSD_LL.c ****             #if(CapSense_CSD_ANALOG_STARTUP_DELAY_US > 0uL)
1351:Generated_Source\PSoC4/CapSense_SensingCSD_LL.c ****                 CyDelayUs(CapSense_CSD_ANALOG_STARTUP_DELAY_US);
1352:Generated_Source\PSoC4/CapSense_SensingCSD_LL.c ****             #endif /* (CapSense_CSD_ANALOG_STARTUP_DELAY_US > 0uL) */
1353:Generated_Source\PSoC4/CapSense_SensingCSD_LL.c ****         #endif /* (CapSense_ENABLE == CapSense_BLOCK_OFF_AFTER_SCAN_EN) */
1354:Generated_Source\PSoC4/CapSense_SensingCSD_LL.c **** 
1355:Generated_Source\PSoC4/CapSense_SensingCSD_LL.c ****         /* Precharging Cmod and Csh */
1356:Generated_Source\PSoC4/CapSense_SensingCSD_LL.c ****         CapSense_SsCSDCmodPrecharge();
1357:Generated_Source\PSoC4/CapSense_SensingCSD_LL.c **** 
1358:Generated_Source\PSoC4/CapSense_SensingCSD_LL.c ****         /* Trigger Scan */
1359:Generated_Source\PSoC4/CapSense_SensingCSD_LL.c ****         CapSense_SsCSDTriggerScan();
1360:Generated_Source\PSoC4/CapSense_SensingCSD_LL.c **** 
1361:Generated_Source\PSoC4/CapSense_SensingCSD_LL.c ****     #else
1362:Generated_Source\PSoC4/CapSense_SensingCSD_LL.c ****         /* Third-generation HW block section */
1363:Generated_Source\PSoC4/CapSense_SensingCSD_LL.c ****         interruptState = CyEnterCriticalSection();
1364:Generated_Source\PSoC4/CapSense_SensingCSD_LL.c **** 
1365:Generated_Source\PSoC4/CapSense_SensingCSD_LL.c ****         /* Enable CSD block. Disconnect Vref Buffer from AMUX */
ARM GAS  C:\Users\zack.li\AppData\Local\Temp\ccTyLy6m.s 			page 41


1366:Generated_Source\PSoC4/CapSense_SensingCSD_LL.c ****         #if ((CapSense_CSH_PRECHARGE_IO_BUF == CapSense_CSD_CSH_PRECHARGE_SRC) &&\
1367:Generated_Source\PSoC4/CapSense_SensingCSD_LL.c ****              (CapSense_ENABLE == CapSense_CSD_SHIELD_TANK_EN))
1368:Generated_Source\PSoC4/CapSense_SensingCSD_LL.c ****             CY_SET_REG32(CapSense_CONFIG_PTR, CapSense_configCsd | CapSense_CMOD_PRECHARGE_CONFIG_C
1369:Generated_Source\PSoC4/CapSense_SensingCSD_LL.c ****         #else
1370:Generated_Source\PSoC4/CapSense_SensingCSD_LL.c ****             CY_SET_REG32(CapSense_CONFIG_PTR, CapSense_configCsd | CapSense_CTANK_PRECHARGE_CONFIG_
1371:Generated_Source\PSoC4/CapSense_SensingCSD_LL.c ****         #endif
1372:Generated_Source\PSoC4/CapSense_SensingCSD_LL.c **** 
1373:Generated_Source\PSoC4/CapSense_SensingCSD_LL.c ****         /* Restart the clocks. Scan one cycle to reset the flip-flop for Direct clock mode */
1374:Generated_Source\PSoC4/CapSense_SensingCSD_LL.c ****         CapSense_SsCSDClockRestart();
1375:Generated_Source\PSoC4/CapSense_SensingCSD_LL.c **** 
1376:Generated_Source\PSoC4/CapSense_SensingCSD_LL.c ****         /* Precharging Cmod to Vref */
1377:Generated_Source\PSoC4/CapSense_SensingCSD_LL.c ****         CapSense_SsCSDCmodPrecharge();
1378:Generated_Source\PSoC4/CapSense_SensingCSD_LL.c **** 
1379:Generated_Source\PSoC4/CapSense_SensingCSD_LL.c ****         #if (CapSense_CLK_SOURCE_DIRECT != CapSense_CSD_SNS_CLK_SOURCE)
1380:Generated_Source\PSoC4/CapSense_SensingCSD_LL.c ****             /* Set PreSettling delay to skip IDAC glitch before scanning */
1381:Generated_Source\PSoC4/CapSense_SensingCSD_LL.c ****             CyDelayCycles(CapSense_GLITCH_ELIMINATION_CYCLES);
1382:Generated_Source\PSoC4/CapSense_SensingCSD_LL.c ****         #endif /* (CapSense_CSD_SNS_CLK_SOURCE != CapSense_CLK_SOURCE_DIRECT) */
1383:Generated_Source\PSoC4/CapSense_SensingCSD_LL.c **** 
1384:Generated_Source\PSoC4/CapSense_SensingCSD_LL.c ****         /* Trigger Scan */
1385:Generated_Source\PSoC4/CapSense_SensingCSD_LL.c ****         CapSense_SsCSDTriggerScan();
1386:Generated_Source\PSoC4/CapSense_SensingCSD_LL.c **** 
1387:Generated_Source\PSoC4/CapSense_SensingCSD_LL.c ****         CyExitCriticalSection(interruptState);
1388:Generated_Source\PSoC4/CapSense_SensingCSD_LL.c ****     #endif /* (CapSense_ENABLE == CapSense_CSDV2) */
1389:Generated_Source\PSoC4/CapSense_SensingCSD_LL.c **** }
1390:Generated_Source\PSoC4/CapSense_SensingCSD_LL.c **** 
1391:Generated_Source\PSoC4/CapSense_SensingCSD_LL.c **** 
1392:Generated_Source\PSoC4/CapSense_SensingCSD_LL.c **** /*******************************************************************************
1393:Generated_Source\PSoC4/CapSense_SensingCSD_LL.c **** * Function Name: CapSense_CSDScanExt
1394:Generated_Source\PSoC4/CapSense_SensingCSD_LL.c **** ****************************************************************************//**
1395:Generated_Source\PSoC4/CapSense_SensingCSD_LL.c **** *
1396:Generated_Source\PSoC4/CapSense_SensingCSD_LL.c **** * \brief
1397:Generated_Source\PSoC4/CapSense_SensingCSD_LL.c **** *  Starts the CSD conversion on the preconfigured sensor. This function requires
1398:Generated_Source\PSoC4/CapSense_SensingCSD_LL.c **** *  using the CapSense_CSDSetupWidgetExt() function to set up the a
1399:Generated_Source\PSoC4/CapSense_SensingCSD_LL.c **** *  widget.
1400:Generated_Source\PSoC4/CapSense_SensingCSD_LL.c **** *
1401:Generated_Source\PSoC4/CapSense_SensingCSD_LL.c **** * \details
1402:Generated_Source\PSoC4/CapSense_SensingCSD_LL.c **** *  Starts the CSD conversion on the preconfigured sensor. This function requires
1403:Generated_Source\PSoC4/CapSense_SensingCSD_LL.c **** *  using the CapSense_CSDSetupWidgetExt() function to set up the a
1404:Generated_Source\PSoC4/CapSense_SensingCSD_LL.c **** *  widget.
1405:Generated_Source\PSoC4/CapSense_SensingCSD_LL.c **** *
1406:Generated_Source\PSoC4/CapSense_SensingCSD_LL.c **** *  \note This function is obsolete and kept for backward compatibility only.
1407:Generated_Source\PSoC4/CapSense_SensingCSD_LL.c **** *  The CapSense_ScanExt() function should be used instead.
1408:Generated_Source\PSoC4/CapSense_SensingCSD_LL.c **** *
1409:Generated_Source\PSoC4/CapSense_SensingCSD_LL.c **** *  This function performs single scanning of one sensor in the widget configured
1410:Generated_Source\PSoC4/CapSense_SensingCSD_LL.c **** *  by the CapSense_CSDSetupWidgetExt() function. It does the following
1411:Generated_Source\PSoC4/CapSense_SensingCSD_LL.c **** *  tasks:
1412:Generated_Source\PSoC4/CapSense_SensingCSD_LL.c **** *    1. Sets the busy flag in the CapSense_dsRam structure.
1413:Generated_Source\PSoC4/CapSense_SensingCSD_LL.c **** *    2. Performs the clock-phase alignment of the sense and modulator clocks.
1414:Generated_Source\PSoC4/CapSense_SensingCSD_LL.c **** *    3. Performs the Cmod pre-charging.
1415:Generated_Source\PSoC4/CapSense_SensingCSD_LL.c **** *    4. Starts single scanning.
1416:Generated_Source\PSoC4/CapSense_SensingCSD_LL.c **** *
1417:Generated_Source\PSoC4/CapSense_SensingCSD_LL.c **** *  Calling this function directly from the application layer is not
1418:Generated_Source\PSoC4/CapSense_SensingCSD_LL.c **** *  recommended. This function is used to implement only the user's specific
1419:Generated_Source\PSoC4/CapSense_SensingCSD_LL.c **** *  use cases (for faster execution time or pipeline scanning for example).
1420:Generated_Source\PSoC4/CapSense_SensingCSD_LL.c **** *  This function is called when no scanning is in progress. I.e.
1421:Generated_Source\PSoC4/CapSense_SensingCSD_LL.c **** *  CapSense_IsBusy() returns a non-busy status.
1422:Generated_Source\PSoC4/CapSense_SensingCSD_LL.c **** *
ARM GAS  C:\Users\zack.li\AppData\Local\Temp\ccTyLy6m.s 			page 42


1423:Generated_Source\PSoC4/CapSense_SensingCSD_LL.c **** *  The sensor must be preconfigured by using the
1424:Generated_Source\PSoC4/CapSense_SensingCSD_LL.c **** *  CapSense_CSDSetupWidgetExt() API prior to calling this function.
1425:Generated_Source\PSoC4/CapSense_SensingCSD_LL.c **** *  The sensor remains ready for a next scan if a previous scan was triggered
1426:Generated_Source\PSoC4/CapSense_SensingCSD_LL.c **** *  by using the CapSense_CSDScanExt() function. In this case, calling
1427:Generated_Source\PSoC4/CapSense_SensingCSD_LL.c **** *  CapSense_CSDSetupWidgetExt() is not required every time before the
1428:Generated_Source\PSoC4/CapSense_SensingCSD_LL.c **** *  CapSense_CSDScanExt() function. If a previous scan was triggered in
1429:Generated_Source\PSoC4/CapSense_SensingCSD_LL.c **** *  any other way - CapSense_Scan(), CapSense_ScanAllWidgets() or
1430:Generated_Source\PSoC4/CapSense_SensingCSD_LL.c **** *  CapSense_RunTuner() - (see the CapSense_RunTuner() function
1431:Generated_Source\PSoC4/CapSense_SensingCSD_LL.c **** *  description for more details), the sensor must be preconfigured again by
1432:Generated_Source\PSoC4/CapSense_SensingCSD_LL.c **** *  using the CapSense_CSDSetupWidgetExt() API prior to calling the
1433:Generated_Source\PSoC4/CapSense_SensingCSD_LL.c **** *  CapSense_CSDScanExt() function.
1434:Generated_Source\PSoC4/CapSense_SensingCSD_LL.c **** *
1435:Generated_Source\PSoC4/CapSense_SensingCSD_LL.c **** *  If disconnection of the sensors is required after calling
1436:Generated_Source\PSoC4/CapSense_SensingCSD_LL.c **** *  CapSense_CSDScanExt(), the CapSense_CSDDisconnectSns()
1437:Generated_Source\PSoC4/CapSense_SensingCSD_LL.c **** *  function can be used.
1438:Generated_Source\PSoC4/CapSense_SensingCSD_LL.c **** *
1439:Generated_Source\PSoC4/CapSense_SensingCSD_LL.c **** *******************************************************************************/
1440:Generated_Source\PSoC4/CapSense_SensingCSD_LL.c **** void CapSense_CSDScanExt(void)
1441:Generated_Source\PSoC4/CapSense_SensingCSD_LL.c **** {
1442:Generated_Source\PSoC4/CapSense_SensingCSD_LL.c ****     #if ((CapSense_DISABLE == CapSense_CSD_COMMON_SNS_CLK_EN) && \
1443:Generated_Source\PSoC4/CapSense_SensingCSD_LL.c ****          (CapSense_CSD_MATRIX_WIDGET_EN || CapSense_CSD_TOUCHPAD_WIDGET_EN))
1444:Generated_Source\PSoC4/CapSense_SensingCSD_LL.c ****         CapSense_RAM_WD_BASE_STRUCT const *ptrWdgt = (CapSense_RAM_WD_BASE_STRUCT *)
1445:Generated_Source\PSoC4/CapSense_SensingCSD_LL.c ****                                                         CapSense_dsFlash.wdgtArray[CapSense_widgetI
1446:Generated_Source\PSoC4/CapSense_SensingCSD_LL.c **** 
1447:Generated_Source\PSoC4/CapSense_SensingCSD_LL.c ****         CapSense_SsCSDCalculateScanDuration(ptrWdgt);
1448:Generated_Source\PSoC4/CapSense_SensingCSD_LL.c ****         CapSense_SsCSDConfigClock();
1449:Generated_Source\PSoC4/CapSense_SensingCSD_LL.c ****     #endif
1450:Generated_Source\PSoC4/CapSense_SensingCSD_LL.c **** 
1451:Generated_Source\PSoC4/CapSense_SensingCSD_LL.c ****     /* Set Start of sensor scan flag */
1452:Generated_Source\PSoC4/CapSense_SensingCSD_LL.c ****     CapSense_dsRam.status |= (CapSense_SW_STS_BUSY | CapSense_WDGT_SW_STS_BUSY);
1453:Generated_Source\PSoC4/CapSense_SensingCSD_LL.c **** 
1454:Generated_Source\PSoC4/CapSense_SensingCSD_LL.c ****     #if (CapSense_ENABLE == CapSense_MULTI_FREQ_SCAN_EN)
1455:Generated_Source\PSoC4/CapSense_SensingCSD_LL.c ****         /* Reset the frequency scan channel if enabled */
1456:Generated_Source\PSoC4/CapSense_SensingCSD_LL.c ****         CapSense_scanFreqIndex = CapSense_FREQ_CHANNEL_0;
1457:Generated_Source\PSoC4/CapSense_SensingCSD_LL.c ****     #endif /* (CapSense_ENABLE == CapSense_MULTI_FREQ_SCAN_EN) */
1458:Generated_Source\PSoC4/CapSense_SensingCSD_LL.c **** 
1459:Generated_Source\PSoC4/CapSense_SensingCSD_LL.c ****     #if (CapSense_ENABLE != CapSense_BLOCK_OFF_AFTER_SCAN_EN) &&\
1460:Generated_Source\PSoC4/CapSense_SensingCSD_LL.c ****         (CapSense_ENABLE == CapSense_CSDV2)
1461:Generated_Source\PSoC4/CapSense_SensingCSD_LL.c ****         #if(CapSense_CSD_ANALOG_STARTUP_DELAY_US > 0uL)
1462:Generated_Source\PSoC4/CapSense_SensingCSD_LL.c ****             CyDelayUs(CapSense_CSD_ANALOG_STARTUP_DELAY_US);
1463:Generated_Source\PSoC4/CapSense_SensingCSD_LL.c ****         #endif /* (CapSense_CSD_ANALOG_STARTUP_DELAY_US > 0uL) */
1464:Generated_Source\PSoC4/CapSense_SensingCSD_LL.c ****     #endif /* (CapSense_ENABLE != CapSense_BLOCK_OFF_AFTER_SCAN_EN) &&\
1465:Generated_Source\PSoC4/CapSense_SensingCSD_LL.c ****               (CapSense_ENABLE == CapSense_CSDV2)*/
1466:Generated_Source\PSoC4/CapSense_SensingCSD_LL.c **** 
1467:Generated_Source\PSoC4/CapSense_SensingCSD_LL.c ****     CapSense_SsCSDStartSample();
1468:Generated_Source\PSoC4/CapSense_SensingCSD_LL.c **** }
1469:Generated_Source\PSoC4/CapSense_SensingCSD_LL.c **** 
1470:Generated_Source\PSoC4/CapSense_SensingCSD_LL.c **** 
1471:Generated_Source\PSoC4/CapSense_SensingCSD_LL.c **** /*******************************************************************************
1472:Generated_Source\PSoC4/CapSense_SensingCSD_LL.c **** * Function Name: CapSense_CSDScan
1473:Generated_Source\PSoC4/CapSense_SensingCSD_LL.c **** ****************************************************************************//**
1474:Generated_Source\PSoC4/CapSense_SensingCSD_LL.c **** *
1475:Generated_Source\PSoC4/CapSense_SensingCSD_LL.c **** * \brief
1476:Generated_Source\PSoC4/CapSense_SensingCSD_LL.c **** *  This function initiates a scan for the sensors of the widget initialized by the
1477:Generated_Source\PSoC4/CapSense_SensingCSD_LL.c **** *  CapSense_CSDSetupWidget() function.
1478:Generated_Source\PSoC4/CapSense_SensingCSD_LL.c **** *
1479:Generated_Source\PSoC4/CapSense_SensingCSD_LL.c **** * \details
ARM GAS  C:\Users\zack.li\AppData\Local\Temp\ccTyLy6m.s 			page 43


1480:Generated_Source\PSoC4/CapSense_SensingCSD_LL.c **** *  This function initiates a scan for the sensors of the widget initialized by the
1481:Generated_Source\PSoC4/CapSense_SensingCSD_LL.c **** *  CapSense_CSDSetupWidget() function.
1482:Generated_Source\PSoC4/CapSense_SensingCSD_LL.c **** *
1483:Generated_Source\PSoC4/CapSense_SensingCSD_LL.c **** *  \note This function is obsolete and kept for backward compatibility only.
1484:Generated_Source\PSoC4/CapSense_SensingCSD_LL.c **** *  The CapSense_Scan() function should be used instead.
1485:Generated_Source\PSoC4/CapSense_SensingCSD_LL.c **** *
1486:Generated_Source\PSoC4/CapSense_SensingCSD_LL.c **** *  This function performs scanning of all the sensors in the widget configured by
1487:Generated_Source\PSoC4/CapSense_SensingCSD_LL.c **** *  the CapSense_CSDSetupWidget() function. It does the following tasks:
1488:Generated_Source\PSoC4/CapSense_SensingCSD_LL.c **** *    1. Connects the first sensor of the widget.
1489:Generated_Source\PSoC4/CapSense_SensingCSD_LL.c **** *    2. Configures the IDAC value.
1490:Generated_Source\PSoC4/CapSense_SensingCSD_LL.c **** *    3. Initializes the interrupt callback function to initialize a scan of
1491:Generated_Source\PSoC4/CapSense_SensingCSD_LL.c **** *       the next sensors in a widget.
1492:Generated_Source\PSoC4/CapSense_SensingCSD_LL.c **** *    4. Starts scanning for the first sensor in the widget.
1493:Generated_Source\PSoC4/CapSense_SensingCSD_LL.c **** *
1494:Generated_Source\PSoC4/CapSense_SensingCSD_LL.c **** *  This function is called by the CapSense_Scan() API if the given
1495:Generated_Source\PSoC4/CapSense_SensingCSD_LL.c **** *  widget uses the CSD sensing method.
1496:Generated_Source\PSoC4/CapSense_SensingCSD_LL.c **** *
1497:Generated_Source\PSoC4/CapSense_SensingCSD_LL.c **** *  Calling this function directly from the application layer is not
1498:Generated_Source\PSoC4/CapSense_SensingCSD_LL.c **** *  recommended. This function is used to implement only the user's specific
1499:Generated_Source\PSoC4/CapSense_SensingCSD_LL.c **** *  use cases (for faster execution time or pipeline scanning for example).
1500:Generated_Source\PSoC4/CapSense_SensingCSD_LL.c **** *
1501:Generated_Source\PSoC4/CapSense_SensingCSD_LL.c **** *  This function is called when no scanning is in progress. I.e.
1502:Generated_Source\PSoC4/CapSense_SensingCSD_LL.c **** *  CapSense_IsBusy() returns a non-busy status. The widget must be
1503:Generated_Source\PSoC4/CapSense_SensingCSD_LL.c **** *  preconfigured by the CapSense_CSDSetupWidget() function if any other
1504:Generated_Source\PSoC4/CapSense_SensingCSD_LL.c **** *  widget was previously scanned or any other type of the scan functions was used.
1505:Generated_Source\PSoC4/CapSense_SensingCSD_LL.c **** *
1506:Generated_Source\PSoC4/CapSense_SensingCSD_LL.c **** *******************************************************************************/
1507:Generated_Source\PSoC4/CapSense_SensingCSD_LL.c **** void CapSense_CSDScan(void)
1508:Generated_Source\PSoC4/CapSense_SensingCSD_LL.c **** {
1509:Generated_Source\PSoC4/CapSense_SensingCSD_LL.c ****     CapSense_RAM_WD_BASE_STRUCT const *ptrWdgt = (CapSense_RAM_WD_BASE_STRUCT *)
1510:Generated_Source\PSoC4/CapSense_SensingCSD_LL.c ****                                                     CapSense_dsFlash.wdgtArray[CapSense_widgetIndex
1511:Generated_Source\PSoC4/CapSense_SensingCSD_LL.c **** 
1512:Generated_Source\PSoC4/CapSense_SensingCSD_LL.c ****     /* Set all the sensors to inactive state */
1513:Generated_Source\PSoC4/CapSense_SensingCSD_LL.c ****     if(CapSense_dsRam.scanCurrentISC != CapSense_dsRam.scanCsdISC)
1514:Generated_Source\PSoC4/CapSense_SensingCSD_LL.c ****     {
1515:Generated_Source\PSoC4/CapSense_SensingCSD_LL.c ****         CapSense_SsSetAllIOsState((uint32)CapSense_dsRam.scanCsdISC);
1516:Generated_Source\PSoC4/CapSense_SensingCSD_LL.c ****         CapSense_dsRam.scanCurrentISC = CapSense_dsRam.scanCsdISC;
1517:Generated_Source\PSoC4/CapSense_SensingCSD_LL.c ****     }
1518:Generated_Source\PSoC4/CapSense_SensingCSD_LL.c **** 
1519:Generated_Source\PSoC4/CapSense_SensingCSD_LL.c ****      /*
1520:Generated_Source\PSoC4/CapSense_SensingCSD_LL.c ****       * Update CapSense_sensorIndex with the first sensor in
1521:Generated_Source\PSoC4/CapSense_SensingCSD_LL.c ****       * widget to use it in ISR handler to configure the next sensor
1522:Generated_Source\PSoC4/CapSense_SensingCSD_LL.c ****       */
1523:Generated_Source\PSoC4/CapSense_SensingCSD_LL.c ****     CapSense_sensorIndex = 0u;
1524:Generated_Source\PSoC4/CapSense_SensingCSD_LL.c **** 
1525:Generated_Source\PSoC4/CapSense_SensingCSD_LL.c ****     /* Update global pointer to CapSense_RAM_SNS_STRUCT to current sensor  */
1526:Generated_Source\PSoC4/CapSense_SensingCSD_LL.c ****     CapSense_curRamSnsPtr = (CapSense_RAM_SNS_STRUCT *)
1527:Generated_Source\PSoC4/CapSense_SensingCSD_LL.c ****                                               CapSense_dsFlash.wdgtArray[CapSense_widgetIndex].ptr2
1528:Generated_Source\PSoC4/CapSense_SensingCSD_LL.c ****                                               + CapSense_sensorIndex;
1529:Generated_Source\PSoC4/CapSense_SensingCSD_LL.c **** 
1530:Generated_Source\PSoC4/CapSense_SensingCSD_LL.c ****     #if (CapSense_ENABLE == CapSense_MULTI_FREQ_SCAN_EN)
1531:Generated_Source\PSoC4/CapSense_SensingCSD_LL.c ****         /* Reset the frequency scan channel if enabled */
1532:Generated_Source\PSoC4/CapSense_SensingCSD_LL.c ****         CapSense_scanFreqIndex = CapSense_FREQ_CHANNEL_0;
1533:Generated_Source\PSoC4/CapSense_SensingCSD_LL.c ****     #endif /* (CapSense_ENABLE == CapSense_MULTI_FREQ_SCAN_EN) */
1534:Generated_Source\PSoC4/CapSense_SensingCSD_LL.c **** 
1535:Generated_Source\PSoC4/CapSense_SensingCSD_LL.c ****     /* Setup Idac Value */
1536:Generated_Source\PSoC4/CapSense_SensingCSD_LL.c ****    CapSense_SsCSDSetUpIdacs(ptrWdgt);
ARM GAS  C:\Users\zack.li\AppData\Local\Temp\ccTyLy6m.s 			page 44


1537:Generated_Source\PSoC4/CapSense_SensingCSD_LL.c **** 
1538:Generated_Source\PSoC4/CapSense_SensingCSD_LL.c ****     #if (CapSense_ENABLE == CapSense_CSD_GANGED_SNS_EN)
1539:Generated_Source\PSoC4/CapSense_SensingCSD_LL.c ****         /* Check ganged sns flag  */
1540:Generated_Source\PSoC4/CapSense_SensingCSD_LL.c ****         if (CapSense_GANGED_SNS_MASK == (CapSense_dsFlash.wdgtArray[CapSense_widgetIndex].staticCon
1541:Generated_Source\PSoC4/CapSense_SensingCSD_LL.c ****             CapSense_GANGED_SNS_MASK))
1542:Generated_Source\PSoC4/CapSense_SensingCSD_LL.c ****         {
1543:Generated_Source\PSoC4/CapSense_SensingCSD_LL.c ****             /* Setup ISR handler to multiple-sensor scan function with ganged sensors */
1544:Generated_Source\PSoC4/CapSense_SensingCSD_LL.c ****             CapSense_ISR_StartEx(&CapSense_CSDPostMultiScanGanged);
1545:Generated_Source\PSoC4/CapSense_SensingCSD_LL.c ****         }
1546:Generated_Source\PSoC4/CapSense_SensingCSD_LL.c ****         else
1547:Generated_Source\PSoC4/CapSense_SensingCSD_LL.c ****         {
1548:Generated_Source\PSoC4/CapSense_SensingCSD_LL.c ****             /* Set up ISR handler to multiple-sensor scan function without ganged sensors */
1549:Generated_Source\PSoC4/CapSense_SensingCSD_LL.c ****             CapSense_ISR_StartEx(&CapSense_CSDPostMultiScan);
1550:Generated_Source\PSoC4/CapSense_SensingCSD_LL.c ****         }
1551:Generated_Source\PSoC4/CapSense_SensingCSD_LL.c **** 
1552:Generated_Source\PSoC4/CapSense_SensingCSD_LL.c ****         CapSense_SsCSDConnectSensorExt((uint32)CapSense_widgetIndex, (uint32)CapSense_sensorIndex);
1553:Generated_Source\PSoC4/CapSense_SensingCSD_LL.c ****     #else
1554:Generated_Source\PSoC4/CapSense_SensingCSD_LL.c ****         /* initialize ptr to sensor IO structure to appropriate address */
1555:Generated_Source\PSoC4/CapSense_SensingCSD_LL.c ****         CapSense_curSnsIOPtr = (CapSense_FLASH_IO_STRUCT const *)
1556:Generated_Source\PSoC4/CapSense_SensingCSD_LL.c ****                                         CapSense_dsFlash.wdgtArray[CapSense_widgetIndex].ptr2SnsFla
1557:Generated_Source\PSoC4/CapSense_SensingCSD_LL.c ****                                         + CapSense_sensorIndex;
1558:Generated_Source\PSoC4/CapSense_SensingCSD_LL.c **** 
1559:Generated_Source\PSoC4/CapSense_SensingCSD_LL.c ****         /* Enable sensor */
1560:Generated_Source\PSoC4/CapSense_SensingCSD_LL.c ****         CapSense_CSDConnectSns(CapSense_curSnsIOPtr);
1561:Generated_Source\PSoC4/CapSense_SensingCSD_LL.c **** 
1562:Generated_Source\PSoC4/CapSense_SensingCSD_LL.c ****         /* Set-up ISR handler to multiple-sensor scan function without ganged sensors */
1563:Generated_Source\PSoC4/CapSense_SensingCSD_LL.c ****         CapSense_ISR_StartEx(&CapSense_CSDPostMultiScan);
1564:Generated_Source\PSoC4/CapSense_SensingCSD_LL.c ****     #endif /* (CapSense_ENABLE == CapSense_CSD_GANGED_SNS_EN)  */
1565:Generated_Source\PSoC4/CapSense_SensingCSD_LL.c **** 
1566:Generated_Source\PSoC4/CapSense_SensingCSD_LL.c ****     /* Start scanning */
1567:Generated_Source\PSoC4/CapSense_SensingCSD_LL.c ****     CapSense_CSDScanExt();
1568:Generated_Source\PSoC4/CapSense_SensingCSD_LL.c **** }
1569:Generated_Source\PSoC4/CapSense_SensingCSD_LL.c **** 
1570:Generated_Source\PSoC4/CapSense_SensingCSD_LL.c **** 
1571:Generated_Source\PSoC4/CapSense_SensingCSD_LL.c **** /*******************************************************************************
1572:Generated_Source\PSoC4/CapSense_SensingCSD_LL.c **** * Function Name: CapSense_SsCSDConnectSensorExt
1573:Generated_Source\PSoC4/CapSense_SensingCSD_LL.c **** ****************************************************************************//**
1574:Generated_Source\PSoC4/CapSense_SensingCSD_LL.c **** *
1575:Generated_Source\PSoC4/CapSense_SensingCSD_LL.c **** * \brief
1576:Generated_Source\PSoC4/CapSense_SensingCSD_LL.c **** *  Connects a ganged sensor port-pin to the sensing HW block via the AMUX bus.
1577:Generated_Source\PSoC4/CapSense_SensingCSD_LL.c **** *
1578:Generated_Source\PSoC4/CapSense_SensingCSD_LL.c **** * \details
1579:Generated_Source\PSoC4/CapSense_SensingCSD_LL.c **** *   The function gets the IO configuration registers addresses, their shifts and
1580:Generated_Source\PSoC4/CapSense_SensingCSD_LL.c **** *   masks from the FLASH_IO_STRUCT object. Basing on this data, it updates the HSIOM and
1581:Generated_Source\PSoC4/CapSense_SensingCSD_LL.c **** *   PC registers.
1582:Generated_Source\PSoC4/CapSense_SensingCSD_LL.c **** *
1583:Generated_Source\PSoC4/CapSense_SensingCSD_LL.c **** * \param widgetId
1584:Generated_Source\PSoC4/CapSense_SensingCSD_LL.c **** *  Specifies ID of the widget.
1585:Generated_Source\PSoC4/CapSense_SensingCSD_LL.c **** *
1586:Generated_Source\PSoC4/CapSense_SensingCSD_LL.c **** * \param sensorId
1587:Generated_Source\PSoC4/CapSense_SensingCSD_LL.c **** *  Specifies ID of the sensor in the widget.
1588:Generated_Source\PSoC4/CapSense_SensingCSD_LL.c **** *
1589:Generated_Source\PSoC4/CapSense_SensingCSD_LL.c **** *******************************************************************************/
1590:Generated_Source\PSoC4/CapSense_SensingCSD_LL.c **** void CapSense_SsCSDConnectSensorExt(uint32 widgetId, uint32 sensorId)
1591:Generated_Source\PSoC4/CapSense_SensingCSD_LL.c **** {
1592:Generated_Source\PSoC4/CapSense_SensingCSD_LL.c ****     #if (CapSense_ENABLE == CapSense_CSD_GANGED_SNS_EN)
1593:Generated_Source\PSoC4/CapSense_SensingCSD_LL.c ****         uint32 tempVal;
ARM GAS  C:\Users\zack.li\AppData\Local\Temp\ccTyLy6m.s 			page 45


1594:Generated_Source\PSoC4/CapSense_SensingCSD_LL.c ****     #endif /* (CapSense_ENABLE == CapSense_CSD_GANGED_SNS_EN) */
1595:Generated_Source\PSoC4/CapSense_SensingCSD_LL.c **** 
1596:Generated_Source\PSoC4/CapSense_SensingCSD_LL.c ****     /* initialize ptr to sensor IO structure to appropriate address */
1597:Generated_Source\PSoC4/CapSense_SensingCSD_LL.c ****     CapSense_curSnsIOPtr = (CapSense_FLASH_IO_STRUCT const *)
1598:Generated_Source\PSoC4/CapSense_SensingCSD_LL.c ****                                                       CapSense_dsFlash.wdgtArray[widgetId].ptr2SnsF
1599:Generated_Source\PSoC4/CapSense_SensingCSD_LL.c ****                                                       + sensorId;
1600:Generated_Source\PSoC4/CapSense_SensingCSD_LL.c **** 
1601:Generated_Source\PSoC4/CapSense_SensingCSD_LL.c ****     #if (CapSense_ENABLE == CapSense_CSD_GANGED_SNS_EN)
1602:Generated_Source\PSoC4/CapSense_SensingCSD_LL.c ****         /* Check ganged sns flag  */
1603:Generated_Source\PSoC4/CapSense_SensingCSD_LL.c ****         if (CapSense_GANGED_SNS_MASK ==
1604:Generated_Source\PSoC4/CapSense_SensingCSD_LL.c ****            (CapSense_dsFlash.wdgtArray[widgetId].staticConfig &
1605:Generated_Source\PSoC4/CapSense_SensingCSD_LL.c ****             CapSense_GANGED_SNS_MASK))
1606:Generated_Source\PSoC4/CapSense_SensingCSD_LL.c ****         {
1607:Generated_Source\PSoC4/CapSense_SensingCSD_LL.c ****             /* Get sns pointer */
1608:Generated_Source\PSoC4/CapSense_SensingCSD_LL.c ****             CapSense_curFlashSnsPtr = (CapSense_FLASH_SNS_STRUCT const *)
1609:Generated_Source\PSoC4/CapSense_SensingCSD_LL.c ****                                                CapSense_dsFlash.wdgtArray[widgetId].ptr2SnsFlash +
1610:Generated_Source\PSoC4/CapSense_SensingCSD_LL.c ****                                                sensorId;
1611:Generated_Source\PSoC4/CapSense_SensingCSD_LL.c **** 
1612:Generated_Source\PSoC4/CapSense_SensingCSD_LL.c ****             /* Get number of ganged pins */
1613:Generated_Source\PSoC4/CapSense_SensingCSD_LL.c ****             tempVal = CapSense_curFlashSnsPtr->numPins;
1614:Generated_Source\PSoC4/CapSense_SensingCSD_LL.c **** 
1615:Generated_Source\PSoC4/CapSense_SensingCSD_LL.c ****             /* Get IO pointer  */
1616:Generated_Source\PSoC4/CapSense_SensingCSD_LL.c ****             CapSense_curSnsIOPtr = &CapSense_ioList[CapSense_curFlashSnsPtr->firstPinId];
1617:Generated_Source\PSoC4/CapSense_SensingCSD_LL.c **** 
1618:Generated_Source\PSoC4/CapSense_SensingCSD_LL.c ****             /* Connect all ganged sensors  */
1619:Generated_Source\PSoC4/CapSense_SensingCSD_LL.c ****             do
1620:Generated_Source\PSoC4/CapSense_SensingCSD_LL.c ****             {
1621:Generated_Source\PSoC4/CapSense_SensingCSD_LL.c ****                 CapSense_CSDConnectSns(CapSense_curSnsIOPtr);
1622:Generated_Source\PSoC4/CapSense_SensingCSD_LL.c ****                 CapSense_curSnsIOPtr++;
1623:Generated_Source\PSoC4/CapSense_SensingCSD_LL.c ****                 tempVal--;
1624:Generated_Source\PSoC4/CapSense_SensingCSD_LL.c ****             } while (0u != tempVal);
1625:Generated_Source\PSoC4/CapSense_SensingCSD_LL.c ****         }
1626:Generated_Source\PSoC4/CapSense_SensingCSD_LL.c ****         else
1627:Generated_Source\PSoC4/CapSense_SensingCSD_LL.c ****         {
1628:Generated_Source\PSoC4/CapSense_SensingCSD_LL.c ****             /* Connect sensor */
1629:Generated_Source\PSoC4/CapSense_SensingCSD_LL.c ****             CapSense_CSDConnectSns(CapSense_curSnsIOPtr);
1630:Generated_Source\PSoC4/CapSense_SensingCSD_LL.c ****         }
1631:Generated_Source\PSoC4/CapSense_SensingCSD_LL.c ****     #else
1632:Generated_Source\PSoC4/CapSense_SensingCSD_LL.c ****         /* Connect sensor */
1633:Generated_Source\PSoC4/CapSense_SensingCSD_LL.c ****         CapSense_CSDConnectSns(CapSense_curSnsIOPtr);
1634:Generated_Source\PSoC4/CapSense_SensingCSD_LL.c ****     #endif /* (CapSense_ENABLE == CapSense_CSD_GANGED_SNS_EN) */
1635:Generated_Source\PSoC4/CapSense_SensingCSD_LL.c **** }
1636:Generated_Source\PSoC4/CapSense_SensingCSD_LL.c **** 
1637:Generated_Source\PSoC4/CapSense_SensingCSD_LL.c **** 
1638:Generated_Source\PSoC4/CapSense_SensingCSD_LL.c **** /*******************************************************************************
1639:Generated_Source\PSoC4/CapSense_SensingCSD_LL.c **** * Function Name: CapSense_SsCSDDisconnectSnsExt
1640:Generated_Source\PSoC4/CapSense_SensingCSD_LL.c **** ****************************************************************************//**
1641:Generated_Source\PSoC4/CapSense_SensingCSD_LL.c **** *
1642:Generated_Source\PSoC4/CapSense_SensingCSD_LL.c **** * \brief
1643:Generated_Source\PSoC4/CapSense_SensingCSD_LL.c **** *  Disconnects a ganged sensor port-pin from the sensing HW block and AMUX bus.
1644:Generated_Source\PSoC4/CapSense_SensingCSD_LL.c **** *  Sets the default state of the un-scanned sensor.
1645:Generated_Source\PSoC4/CapSense_SensingCSD_LL.c **** *
1646:Generated_Source\PSoC4/CapSense_SensingCSD_LL.c **** * \details
1647:Generated_Source\PSoC4/CapSense_SensingCSD_LL.c **** *   The function gets the IO configuration registers addresses, their shifts and
1648:Generated_Source\PSoC4/CapSense_SensingCSD_LL.c **** *   masks from the FLASH_IO_STRUCT object. Basing on this data and Inactive sensor
1649:Generated_Source\PSoC4/CapSense_SensingCSD_LL.c **** *   connection parameter, it updates the HSIOM, PC and DR registers.
1650:Generated_Source\PSoC4/CapSense_SensingCSD_LL.c **** *   The HSIOM register is updated only when the Inactive sensor connection parameter
ARM GAS  C:\Users\zack.li\AppData\Local\Temp\ccTyLy6m.s 			page 46


1651:Generated_Source\PSoC4/CapSense_SensingCSD_LL.c **** *   is set to Shield.
1652:Generated_Source\PSoC4/CapSense_SensingCSD_LL.c **** *
1653:Generated_Source\PSoC4/CapSense_SensingCSD_LL.c **** * \param widgetId
1654:Generated_Source\PSoC4/CapSense_SensingCSD_LL.c **** *  Specifies ID of the widget.
1655:Generated_Source\PSoC4/CapSense_SensingCSD_LL.c **** *
1656:Generated_Source\PSoC4/CapSense_SensingCSD_LL.c **** * \param sensorId
1657:Generated_Source\PSoC4/CapSense_SensingCSD_LL.c **** *  Specifies ID of the sensor in the widget.
1658:Generated_Source\PSoC4/CapSense_SensingCSD_LL.c **** *
1659:Generated_Source\PSoC4/CapSense_SensingCSD_LL.c **** *******************************************************************************/
1660:Generated_Source\PSoC4/CapSense_SensingCSD_LL.c **** void CapSense_SsCSDDisconnectSnsExt(uint32 widgetId, uint32 sensorId)
1661:Generated_Source\PSoC4/CapSense_SensingCSD_LL.c **** {
1662:Generated_Source\PSoC4/CapSense_SensingCSD_LL.c ****     #if (CapSense_ENABLE == CapSense_CSD_GANGED_SNS_EN)
1663:Generated_Source\PSoC4/CapSense_SensingCSD_LL.c ****         uint32 tempVal;
1664:Generated_Source\PSoC4/CapSense_SensingCSD_LL.c ****     #endif /* (CapSense_ENABLE == CapSense_CSD_GANGED_SNS_EN) */
1665:Generated_Source\PSoC4/CapSense_SensingCSD_LL.c **** 
1666:Generated_Source\PSoC4/CapSense_SensingCSD_LL.c ****     /* initialize ptr to sensor IO structure to appropriate address        */
1667:Generated_Source\PSoC4/CapSense_SensingCSD_LL.c ****     CapSense_curSnsIOPtr = (CapSense_FLASH_IO_STRUCT const *)
1668:Generated_Source\PSoC4/CapSense_SensingCSD_LL.c ****                                                       CapSense_dsFlash.wdgtArray[widgetId].ptr2SnsF
1669:Generated_Source\PSoC4/CapSense_SensingCSD_LL.c ****                                                       + sensorId;
1670:Generated_Source\PSoC4/CapSense_SensingCSD_LL.c **** 
1671:Generated_Source\PSoC4/CapSense_SensingCSD_LL.c ****     #if (CapSense_ENABLE == CapSense_CSD_GANGED_SNS_EN)
1672:Generated_Source\PSoC4/CapSense_SensingCSD_LL.c ****         /* Check ganged sns flag  */
1673:Generated_Source\PSoC4/CapSense_SensingCSD_LL.c ****         if ((CapSense_dsFlash.wdgtArray[widgetId].staticConfig &
1674:Generated_Source\PSoC4/CapSense_SensingCSD_LL.c ****             CapSense_GANGED_SNS_MASK) == CapSense_GANGED_SNS_MASK)
1675:Generated_Source\PSoC4/CapSense_SensingCSD_LL.c ****         {
1676:Generated_Source\PSoC4/CapSense_SensingCSD_LL.c ****             /* Get sns pointer */
1677:Generated_Source\PSoC4/CapSense_SensingCSD_LL.c ****             CapSense_curFlashSnsPtr = (CapSense_FLASH_SNS_STRUCT const *)
1678:Generated_Source\PSoC4/CapSense_SensingCSD_LL.c ****                                                CapSense_dsFlash.wdgtArray[widgetId].ptr2SnsFlash +
1679:Generated_Source\PSoC4/CapSense_SensingCSD_LL.c ****                                                sensorId;
1680:Generated_Source\PSoC4/CapSense_SensingCSD_LL.c **** 
1681:Generated_Source\PSoC4/CapSense_SensingCSD_LL.c ****             /* Get number of ganged pins */
1682:Generated_Source\PSoC4/CapSense_SensingCSD_LL.c ****             tempVal = CapSense_curFlashSnsPtr->numPins;
1683:Generated_Source\PSoC4/CapSense_SensingCSD_LL.c **** 
1684:Generated_Source\PSoC4/CapSense_SensingCSD_LL.c ****             /* Get IO pointer  */
1685:Generated_Source\PSoC4/CapSense_SensingCSD_LL.c ****             CapSense_curSnsIOPtr = &CapSense_ioList[CapSense_curFlashSnsPtr->firstPinId];
1686:Generated_Source\PSoC4/CapSense_SensingCSD_LL.c **** 
1687:Generated_Source\PSoC4/CapSense_SensingCSD_LL.c ****             /* Disconnect all ganged sensors */
1688:Generated_Source\PSoC4/CapSense_SensingCSD_LL.c ****             do
1689:Generated_Source\PSoC4/CapSense_SensingCSD_LL.c ****             {
1690:Generated_Source\PSoC4/CapSense_SensingCSD_LL.c ****                 CapSense_CSDDisconnectSns(CapSense_curSnsIOPtr);
1691:Generated_Source\PSoC4/CapSense_SensingCSD_LL.c ****                 CapSense_curSnsIOPtr++;
1692:Generated_Source\PSoC4/CapSense_SensingCSD_LL.c ****                 tempVal--;
1693:Generated_Source\PSoC4/CapSense_SensingCSD_LL.c ****             } while (0u != tempVal);
1694:Generated_Source\PSoC4/CapSense_SensingCSD_LL.c ****         }
1695:Generated_Source\PSoC4/CapSense_SensingCSD_LL.c ****         else
1696:Generated_Source\PSoC4/CapSense_SensingCSD_LL.c ****         {
1697:Generated_Source\PSoC4/CapSense_SensingCSD_LL.c ****             /* Disconnect ganged sensor */
1698:Generated_Source\PSoC4/CapSense_SensingCSD_LL.c ****             CapSense_CSDDisconnectSns(CapSense_curSnsIOPtr);
1699:Generated_Source\PSoC4/CapSense_SensingCSD_LL.c ****         }
1700:Generated_Source\PSoC4/CapSense_SensingCSD_LL.c ****     #else
1701:Generated_Source\PSoC4/CapSense_SensingCSD_LL.c ****         /* Disconnect ganged sensor */
1702:Generated_Source\PSoC4/CapSense_SensingCSD_LL.c ****         CapSense_CSDDisconnectSns(CapSense_curSnsIOPtr);
1703:Generated_Source\PSoC4/CapSense_SensingCSD_LL.c ****     #endif /* (CapSense_ENABLE == CapSense_CSD_GANGED_SNS_EN) */
1704:Generated_Source\PSoC4/CapSense_SensingCSD_LL.c **** }
1705:Generated_Source\PSoC4/CapSense_SensingCSD_LL.c **** 
1706:Generated_Source\PSoC4/CapSense_SensingCSD_LL.c **** 
1707:Generated_Source\PSoC4/CapSense_SensingCSD_LL.c **** /*******************************************************************************
ARM GAS  C:\Users\zack.li\AppData\Local\Temp\ccTyLy6m.s 			page 47


1708:Generated_Source\PSoC4/CapSense_SensingCSD_LL.c **** * Function Name: CapSense_CSDConnectSns
1709:Generated_Source\PSoC4/CapSense_SensingCSD_LL.c **** ****************************************************************************//**
1710:Generated_Source\PSoC4/CapSense_SensingCSD_LL.c **** *
1711:Generated_Source\PSoC4/CapSense_SensingCSD_LL.c **** * \brief
1712:Generated_Source\PSoC4/CapSense_SensingCSD_LL.c **** *  Connects a port pin used by the sensor to the AMUX bus of the sensing HW block.
1713:Generated_Source\PSoC4/CapSense_SensingCSD_LL.c **** *
1714:Generated_Source\PSoC4/CapSense_SensingCSD_LL.c **** * \details
1715:Generated_Source\PSoC4/CapSense_SensingCSD_LL.c **** *  Connects a port pin used by the sensor to the AMUX bus of the sensing HW block
1716:Generated_Source\PSoC4/CapSense_SensingCSD_LL.c **** *  while a sensor is being scanned. The function ignores the fact if
1717:Generated_Source\PSoC4/CapSense_SensingCSD_LL.c **** *  the sensor is a ganged sensor and connects only a specified pin.
1718:Generated_Source\PSoC4/CapSense_SensingCSD_LL.c **** *
1719:Generated_Source\PSoC4/CapSense_SensingCSD_LL.c **** *  Scanning should be completed before calling this API.
1720:Generated_Source\PSoC4/CapSense_SensingCSD_LL.c **** *
1721:Generated_Source\PSoC4/CapSense_SensingCSD_LL.c **** *  Calling this function directly from the application layer is not
1722:Generated_Source\PSoC4/CapSense_SensingCSD_LL.c **** *  recommended. This function is used to implement only the user's specific
1723:Generated_Source\PSoC4/CapSense_SensingCSD_LL.c **** *  use cases. Functions that perform a setup and scan of a sensor/widget,
1724:Generated_Source\PSoC4/CapSense_SensingCSD_LL.c **** *  automatically set the required pin states and perform the sensor connection.
1725:Generated_Source\PSoC4/CapSense_SensingCSD_LL.c **** *  They do not take into account changes in the design made by the
1726:Generated_Source\PSoC4/CapSense_SensingCSD_LL.c **** *  CapSense_CSDConnectSns() function.
1727:Generated_Source\PSoC4/CapSense_SensingCSD_LL.c **** *
1728:Generated_Source\PSoC4/CapSense_SensingCSD_LL.c **** * \param  snsAddrPtr
1729:Generated_Source\PSoC4/CapSense_SensingCSD_LL.c **** *  Specifies the pointer to the FLASH_IO_STRUCT object belonging to a sensor
1730:Generated_Source\PSoC4/CapSense_SensingCSD_LL.c **** *  which to be connected to the sensing HW block.
1731:Generated_Source\PSoC4/CapSense_SensingCSD_LL.c **** *
1732:Generated_Source\PSoC4/CapSense_SensingCSD_LL.c **** *******************************************************************************/
1733:Generated_Source\PSoC4/CapSense_SensingCSD_LL.c **** void CapSense_CSDConnectSns(CapSense_FLASH_IO_STRUCT const *snsAddrPtr)
1734:Generated_Source\PSoC4/CapSense_SensingCSD_LL.c **** {
1735:Generated_Source\PSoC4/CapSense_SensingCSD_LL.c ****     uint32 newRegisterValue;
1736:Generated_Source\PSoC4/CapSense_SensingCSD_LL.c ****     uint8  interruptState;
1737:Generated_Source\PSoC4/CapSense_SensingCSD_LL.c ****     uint32 pinModeShift;
1738:Generated_Source\PSoC4/CapSense_SensingCSD_LL.c ****     uint32 pinHSIOMShift;
1739:Generated_Source\PSoC4/CapSense_SensingCSD_LL.c **** 
1740:Generated_Source\PSoC4/CapSense_SensingCSD_LL.c ****     /* Get offsets for sensor */
1741:Generated_Source\PSoC4/CapSense_SensingCSD_LL.c ****     pinModeShift = (uint32)snsAddrPtr->shift;
1742:Generated_Source\PSoC4/CapSense_SensingCSD_LL.c ****     pinHSIOMShift = (uint32)snsAddrPtr->hsiomShift;
1743:Generated_Source\PSoC4/CapSense_SensingCSD_LL.c **** 
1744:Generated_Source\PSoC4/CapSense_SensingCSD_LL.c ****     interruptState = CyEnterCriticalSection();
1745:Generated_Source\PSoC4/CapSense_SensingCSD_LL.c **** 
1746:Generated_Source\PSoC4/CapSense_SensingCSD_LL.c ****     /* Use temporary variable to update registers without multiple writings to them */
1747:Generated_Source\PSoC4/CapSense_SensingCSD_LL.c ****     newRegisterValue = CY_GET_REG32(snsAddrPtr->hsiomPtr);
1748:Generated_Source\PSoC4/CapSense_SensingCSD_LL.c ****     newRegisterValue &= ~(CapSense_HSIOM_SEL_MASK << pinHSIOMShift);
1749:Generated_Source\PSoC4/CapSense_SensingCSD_LL.c ****     newRegisterValue |= (uint32)((uint32)CapSense_HSIOM_SEL_CSD_SENSE << pinHSIOMShift);
1750:Generated_Source\PSoC4/CapSense_SensingCSD_LL.c **** 
1751:Generated_Source\PSoC4/CapSense_SensingCSD_LL.c ****     /* Update port configuration register (drive mode) for sensor */
1752:Generated_Source\PSoC4/CapSense_SensingCSD_LL.c ****     CY_SET_REG32(snsAddrPtr->pcPtr, CY_GET_REG32(snsAddrPtr->pcPtr) & (uint32)~((uint32)CapSense_GP
1753:Generated_Source\PSoC4/CapSense_SensingCSD_LL.c **** 
1754:Generated_Source\PSoC4/CapSense_SensingCSD_LL.c ****     /* Update HSIOM register for sensor */
1755:Generated_Source\PSoC4/CapSense_SensingCSD_LL.c ****     CY_SET_REG32(snsAddrPtr->hsiomPtr, newRegisterValue);
1756:Generated_Source\PSoC4/CapSense_SensingCSD_LL.c **** 
1757:Generated_Source\PSoC4/CapSense_SensingCSD_LL.c ****     CyExitCriticalSection(interruptState);
1758:Generated_Source\PSoC4/CapSense_SensingCSD_LL.c **** }
1759:Generated_Source\PSoC4/CapSense_SensingCSD_LL.c **** 
1760:Generated_Source\PSoC4/CapSense_SensingCSD_LL.c **** 
1761:Generated_Source\PSoC4/CapSense_SensingCSD_LL.c **** /*******************************************************************************
1762:Generated_Source\PSoC4/CapSense_SensingCSD_LL.c **** * Function Name: CapSense_CSDDisconnectSns
1763:Generated_Source\PSoC4/CapSense_SensingCSD_LL.c **** ****************************************************************************//**
1764:Generated_Source\PSoC4/CapSense_SensingCSD_LL.c **** *
ARM GAS  C:\Users\zack.li\AppData\Local\Temp\ccTyLy6m.s 			page 48


1765:Generated_Source\PSoC4/CapSense_SensingCSD_LL.c **** * \brief
1766:Generated_Source\PSoC4/CapSense_SensingCSD_LL.c **** *  Disconnects a sensor port pin from the sensing HW block and the AMUX bus. Sets
1767:Generated_Source\PSoC4/CapSense_SensingCSD_LL.c **** *  the default state of the un-scanned sensor.
1768:Generated_Source\PSoC4/CapSense_SensingCSD_LL.c **** *
1769:Generated_Source\PSoC4/CapSense_SensingCSD_LL.c **** * \details
1770:Generated_Source\PSoC4/CapSense_SensingCSD_LL.c **** *  This function works identically to CapSense_CSDConnectSns() except
1771:Generated_Source\PSoC4/CapSense_SensingCSD_LL.c **** *  it disconnects the specified port-pin used by the sensor.
1772:Generated_Source\PSoC4/CapSense_SensingCSD_LL.c **** *
1773:Generated_Source\PSoC4/CapSense_SensingCSD_LL.c **** *  Calling this function directly from the application layer is not
1774:Generated_Source\PSoC4/CapSense_SensingCSD_LL.c **** *  recommended. This function is used to implement only the user's specific
1775:Generated_Source\PSoC4/CapSense_SensingCSD_LL.c **** *  use cases. Functions that perform a setup and scan of sensor/widget
1776:Generated_Source\PSoC4/CapSense_SensingCSD_LL.c **** *  automatically set the required pin states and perform the sensor connection.
1777:Generated_Source\PSoC4/CapSense_SensingCSD_LL.c **** *  They ignore changes in the design made by the
1778:Generated_Source\PSoC4/CapSense_SensingCSD_LL.c **** *  CapSense_CSDDisconnectSns() function.
1779:Generated_Source\PSoC4/CapSense_SensingCSD_LL.c **** *
1780:Generated_Source\PSoC4/CapSense_SensingCSD_LL.c **** * \param  snsAddrPtr
1781:Generated_Source\PSoC4/CapSense_SensingCSD_LL.c **** *  Specifies the pointer to the FLASH_IO_STRUCT object belonging to a sensor
1782:Generated_Source\PSoC4/CapSense_SensingCSD_LL.c **** *  which should be disconnected from the sensing HW block.
1783:Generated_Source\PSoC4/CapSense_SensingCSD_LL.c **** *
1784:Generated_Source\PSoC4/CapSense_SensingCSD_LL.c **** *******************************************************************************/
1785:Generated_Source\PSoC4/CapSense_SensingCSD_LL.c **** void CapSense_CSDDisconnectSns(CapSense_FLASH_IO_STRUCT const *snsAddrPtr)
1786:Generated_Source\PSoC4/CapSense_SensingCSD_LL.c **** {
1787:Generated_Source\PSoC4/CapSense_SensingCSD_LL.c ****     uint8  interruptState;
1788:Generated_Source\PSoC4/CapSense_SensingCSD_LL.c ****     uint32 pinHSIOMShift;
1789:Generated_Source\PSoC4/CapSense_SensingCSD_LL.c ****     uint32 pinModeShift;
1790:Generated_Source\PSoC4/CapSense_SensingCSD_LL.c ****     uint32 newPcRegValue;
1791:Generated_Source\PSoC4/CapSense_SensingCSD_LL.c ****     uint32 newHsiomRegValue;
1792:Generated_Source\PSoC4/CapSense_SensingCSD_LL.c **** 
1793:Generated_Source\PSoC4/CapSense_SensingCSD_LL.c ****     pinHSIOMShift = (uint32)snsAddrPtr->hsiomShift;
1794:Generated_Source\PSoC4/CapSense_SensingCSD_LL.c ****     pinModeShift = (uint32)snsAddrPtr->shift;
1795:Generated_Source\PSoC4/CapSense_SensingCSD_LL.c **** 
1796:Generated_Source\PSoC4/CapSense_SensingCSD_LL.c ****     interruptState = CyEnterCriticalSection();
1797:Generated_Source\PSoC4/CapSense_SensingCSD_LL.c **** 
1798:Generated_Source\PSoC4/CapSense_SensingCSD_LL.c ****     newPcRegValue  = CY_GET_REG32(snsAddrPtr->pcPtr);
1799:Generated_Source\PSoC4/CapSense_SensingCSD_LL.c ****     newPcRegValue &= ~(CapSense_GPIO_PC_MASK << pinModeShift);
1800:Generated_Source\PSoC4/CapSense_SensingCSD_LL.c **** 
1801:Generated_Source\PSoC4/CapSense_SensingCSD_LL.c ****     newHsiomRegValue  = CY_GET_REG32(snsAddrPtr->hsiomPtr);
1802:Generated_Source\PSoC4/CapSense_SensingCSD_LL.c ****     newHsiomRegValue &= ~(CapSense_HSIOM_SEL_MASK << pinHSIOMShift);
1803:Generated_Source\PSoC4/CapSense_SensingCSD_LL.c ****     CY_SET_REG32(snsAddrPtr->hsiomPtr, newHsiomRegValue);
1804:Generated_Source\PSoC4/CapSense_SensingCSD_LL.c **** 
1805:Generated_Source\PSoC4/CapSense_SensingCSD_LL.c ****     if(CapSense_SNS_CONNECTION_GROUND == CapSense_dsRam.scanCurrentISC)
1806:Generated_Source\PSoC4/CapSense_SensingCSD_LL.c ****     {
1807:Generated_Source\PSoC4/CapSense_SensingCSD_LL.c ****         newPcRegValue |= (CY_SYS_PINS_DM_STRONG << pinModeShift);
1808:Generated_Source\PSoC4/CapSense_SensingCSD_LL.c ****         CY_SET_REG32(snsAddrPtr->pcPtr, newPcRegValue);
1809:Generated_Source\PSoC4/CapSense_SensingCSD_LL.c ****     }
1810:Generated_Source\PSoC4/CapSense_SensingCSD_LL.c ****     else
1811:Generated_Source\PSoC4/CapSense_SensingCSD_LL.c ****     {
1812:Generated_Source\PSoC4/CapSense_SensingCSD_LL.c ****         newPcRegValue |= (CY_SYS_PINS_DM_ALG_HIZ << pinModeShift);
1813:Generated_Source\PSoC4/CapSense_SensingCSD_LL.c ****         if(CapSense_SNS_CONNECTION_SHIELD == CapSense_dsRam.scanCurrentISC)
1814:Generated_Source\PSoC4/CapSense_SensingCSD_LL.c ****         {
1815:Generated_Source\PSoC4/CapSense_SensingCSD_LL.c ****             /* Connect to Shield */
1816:Generated_Source\PSoC4/CapSense_SensingCSD_LL.c ****             newHsiomRegValue |= (CapSense_HSIOM_SEL_CSD_SHIELD << pinHSIOMShift);
1817:Generated_Source\PSoC4/CapSense_SensingCSD_LL.c ****             CY_SET_REG32(snsAddrPtr->pcPtr, newPcRegValue);
1818:Generated_Source\PSoC4/CapSense_SensingCSD_LL.c ****             CY_SET_REG32(snsAddrPtr->hsiomPtr, newHsiomRegValue);
1819:Generated_Source\PSoC4/CapSense_SensingCSD_LL.c ****         }
1820:Generated_Source\PSoC4/CapSense_SensingCSD_LL.c ****     }
1821:Generated_Source\PSoC4/CapSense_SensingCSD_LL.c ****     /* Set logic 0 to port data register */
ARM GAS  C:\Users\zack.li\AppData\Local\Temp\ccTyLy6m.s 			page 49


1822:Generated_Source\PSoC4/CapSense_SensingCSD_LL.c ****     CY_SET_REG32(snsAddrPtr->drPtr, CY_GET_REG32(snsAddrPtr->drPtr) & (uint32)~(uint32)((uint32)1u 
1823:Generated_Source\PSoC4/CapSense_SensingCSD_LL.c **** 
1824:Generated_Source\PSoC4/CapSense_SensingCSD_LL.c ****     CyExitCriticalSection(interruptState);
1825:Generated_Source\PSoC4/CapSense_SensingCSD_LL.c **** }
1826:Generated_Source\PSoC4/CapSense_SensingCSD_LL.c **** 
1827:Generated_Source\PSoC4/CapSense_SensingCSD_LL.c **** #if ((CapSense_CSD_SS_DIS != CapSense_CSD_AUTOTUNE) || \
1828:Generated_Source\PSoC4/CapSense_SensingCSD_LL.c ****      (CapSense_ENABLE == CapSense_CSD_IDAC_AUTOCAL_EN))
1829:Generated_Source\PSoC4/CapSense_SensingCSD_LL.c ****     /*******************************************************************************
1830:Generated_Source\PSoC4/CapSense_SensingCSD_LL.c ****     * Function Name: CapSense_SsCSDCalibrateCheck
1831:Generated_Source\PSoC4/CapSense_SensingCSD_LL.c ****     ****************************************************************************//**
1832:Generated_Source\PSoC4/CapSense_SensingCSD_LL.c ****     *
1833:Generated_Source\PSoC4/CapSense_SensingCSD_LL.c ****     * \brief
1834:Generated_Source\PSoC4/CapSense_SensingCSD_LL.c ****     *  This internal function checks if the calibration is performed successfully.
1835:Generated_Source\PSoC4/CapSense_SensingCSD_LL.c ****     *
1836:Generated_Source\PSoC4/CapSense_SensingCSD_LL.c ****     * \details
1837:Generated_Source\PSoC4/CapSense_SensingCSD_LL.c ****     *  The function verifies that raw counts are within acceptable range
1838:Generated_Source\PSoC4/CapSense_SensingCSD_LL.c ****     *  defined by target and calibration error parameters.
1839:Generated_Source\PSoC4/CapSense_SensingCSD_LL.c ****     *
1840:Generated_Source\PSoC4/CapSense_SensingCSD_LL.c ****     * \param widgetId
1841:Generated_Source\PSoC4/CapSense_SensingCSD_LL.c ****     *  The desired widget ID.
1842:Generated_Source\PSoC4/CapSense_SensingCSD_LL.c ****     *
1843:Generated_Source\PSoC4/CapSense_SensingCSD_LL.c ****     * \param target
1844:Generated_Source\PSoC4/CapSense_SensingCSD_LL.c ****     *  Raw count target in percentage.
1845:Generated_Source\PSoC4/CapSense_SensingCSD_LL.c ****     *
1846:Generated_Source\PSoC4/CapSense_SensingCSD_LL.c ****     * \return Returns the status of the operation:
1847:Generated_Source\PSoC4/CapSense_SensingCSD_LL.c ****     *   - Zero     - All the sensors in the widget are calibrated successfully.
1848:Generated_Source\PSoC4/CapSense_SensingCSD_LL.c ****     *   - Non-Zero - Calibration failed for any sensor in the widget.
1849:Generated_Source\PSoC4/CapSense_SensingCSD_LL.c ****     *
1850:Generated_Source\PSoC4/CapSense_SensingCSD_LL.c ****     *******************************************************************************/
1851:Generated_Source\PSoC4/CapSense_SensingCSD_LL.c ****     static cystatus CapSense_SsCSDCalibrateCheck(uint32 widgetId, uint32 target)
1852:Generated_Source\PSoC4/CapSense_SensingCSD_LL.c ****     {
1853:Generated_Source\PSoC4/CapSense_SensingCSD_LL.c ****         cystatus calibrateStatus = CYRET_SUCCESS;
1854:Generated_Source\PSoC4/CapSense_SensingCSD_LL.c ****         uint32 rawcount;
1855:Generated_Source\PSoC4/CapSense_SensingCSD_LL.c ****         uint32 snsIndex;
1856:Generated_Source\PSoC4/CapSense_SensingCSD_LL.c ****         uint32 freqChannel;
1857:Generated_Source\PSoC4/CapSense_SensingCSD_LL.c ****         uint32 upperLimit;
1858:Generated_Source\PSoC4/CapSense_SensingCSD_LL.c ****         uint32 lowerLimit;
1859:Generated_Source\PSoC4/CapSense_SensingCSD_LL.c **** 
1860:Generated_Source\PSoC4/CapSense_SensingCSD_LL.c ****         CapSense_FLASH_WD_STRUCT const *ptrFlashWidget = &CapSense_dsFlash.wdgtArray[widgetId];
1861:Generated_Source\PSoC4/CapSense_SensingCSD_LL.c ****         CapSense_RAM_WD_BASE_STRUCT *ptrRamWidget = (CapSense_RAM_WD_BASE_STRUCT *)ptrFlashWidget->
1862:Generated_Source\PSoC4/CapSense_SensingCSD_LL.c ****         CapSense_RAM_SNS_STRUCT *ptrRamSensor = ptrFlashWidget->ptr2SnsRam;
1863:Generated_Source\PSoC4/CapSense_SensingCSD_LL.c **** 
1864:Generated_Source\PSoC4/CapSense_SensingCSD_LL.c ****         /* Calculate acceptable raw count range based on the resolution, target and error */
1865:Generated_Source\PSoC4/CapSense_SensingCSD_LL.c ****         rawcount = (0x00000001Lu << ptrRamWidget->resolution) - 1u;
1866:Generated_Source\PSoC4/CapSense_SensingCSD_LL.c ****         lowerLimit = 0u;
1867:Generated_Source\PSoC4/CapSense_SensingCSD_LL.c ****         if (target > CapSense_CSD_CALIBRATION_ERROR)
1868:Generated_Source\PSoC4/CapSense_SensingCSD_LL.c ****         {
1869:Generated_Source\PSoC4/CapSense_SensingCSD_LL.c ****             lowerLimit = target - CapSense_CSD_CALIBRATION_ERROR;
1870:Generated_Source\PSoC4/CapSense_SensingCSD_LL.c ****         }
1871:Generated_Source\PSoC4/CapSense_SensingCSD_LL.c ****         upperLimit = target + CapSense_CSD_CALIBRATION_ERROR;
1872:Generated_Source\PSoC4/CapSense_SensingCSD_LL.c ****         if (upperLimit > CapSense_PERCENTAGE_100)
1873:Generated_Source\PSoC4/CapSense_SensingCSD_LL.c ****         {
1874:Generated_Source\PSoC4/CapSense_SensingCSD_LL.c ****             upperLimit = CapSense_PERCENTAGE_100;
1875:Generated_Source\PSoC4/CapSense_SensingCSD_LL.c ****         }
1876:Generated_Source\PSoC4/CapSense_SensingCSD_LL.c ****         lowerLimit = (rawcount * lowerLimit) / CapSense_PERCENTAGE_100;
1877:Generated_Source\PSoC4/CapSense_SensingCSD_LL.c ****         upperLimit = (rawcount * upperLimit) / CapSense_PERCENTAGE_100;
1878:Generated_Source\PSoC4/CapSense_SensingCSD_LL.c **** 
ARM GAS  C:\Users\zack.li\AppData\Local\Temp\ccTyLy6m.s 			page 50


1879:Generated_Source\PSoC4/CapSense_SensingCSD_LL.c ****         /* Check if raw count is in the defined range */
1880:Generated_Source\PSoC4/CapSense_SensingCSD_LL.c ****         for(snsIndex = 0u; snsIndex < ptrFlashWidget->totalNumSns; snsIndex++)
1881:Generated_Source\PSoC4/CapSense_SensingCSD_LL.c ****         {
1882:Generated_Source\PSoC4/CapSense_SensingCSD_LL.c ****             for(freqChannel = CapSense_NUM_SCAN_FREQS; freqChannel-- > 0u;)
1883:Generated_Source\PSoC4/CapSense_SensingCSD_LL.c ****             {
1884:Generated_Source\PSoC4/CapSense_SensingCSD_LL.c ****                 rawcount = ptrRamSensor->raw[freqChannel];
1885:Generated_Source\PSoC4/CapSense_SensingCSD_LL.c ****                 if ((rawcount < lowerLimit) || (rawcount > upperLimit))
1886:Generated_Source\PSoC4/CapSense_SensingCSD_LL.c ****                 {
1887:Generated_Source\PSoC4/CapSense_SensingCSD_LL.c ****                     calibrateStatus = CYRET_BAD_DATA;
1888:Generated_Source\PSoC4/CapSense_SensingCSD_LL.c ****                     break;
1889:Generated_Source\PSoC4/CapSense_SensingCSD_LL.c ****                 }
1890:Generated_Source\PSoC4/CapSense_SensingCSD_LL.c ****             }
1891:Generated_Source\PSoC4/CapSense_SensingCSD_LL.c ****             ptrRamSensor++;
1892:Generated_Source\PSoC4/CapSense_SensingCSD_LL.c ****         }
1893:Generated_Source\PSoC4/CapSense_SensingCSD_LL.c ****         return (calibrateStatus);
1894:Generated_Source\PSoC4/CapSense_SensingCSD_LL.c ****     }
1895:Generated_Source\PSoC4/CapSense_SensingCSD_LL.c **** 
1896:Generated_Source\PSoC4/CapSense_SensingCSD_LL.c **** 
1897:Generated_Source\PSoC4/CapSense_SensingCSD_LL.c ****     #if (CapSense_ENABLE == CapSense_CSD_IDAC_AUTO_GAIN_EN)
1898:Generated_Source\PSoC4/CapSense_SensingCSD_LL.c ****         /*******************************************************************************
1899:Generated_Source\PSoC4/CapSense_SensingCSD_LL.c ****         * Function Name: CapSense_SsCSDSwitchIdacGain
1900:Generated_Source\PSoC4/CapSense_SensingCSD_LL.c ****         ****************************************************************************//**
1901:Generated_Source\PSoC4/CapSense_SensingCSD_LL.c ****         *
1902:Generated_Source\PSoC4/CapSense_SensingCSD_LL.c ****         * \brief
1903:Generated_Source\PSoC4/CapSense_SensingCSD_LL.c ****         *  This internal function switches to the lower IDAC gain is possible.
1904:Generated_Source\PSoC4/CapSense_SensingCSD_LL.c ****         *
1905:Generated_Source\PSoC4/CapSense_SensingCSD_LL.c ****         * \details
1906:Generated_Source\PSoC4/CapSense_SensingCSD_LL.c ****         *  This internal function switches to the lower IDAC gain is possible.
1907:Generated_Source\PSoC4/CapSense_SensingCSD_LL.c ****         *  Conditions of switching to the lower IDAC gains:
1908:Generated_Source\PSoC4/CapSense_SensingCSD_LL.c ****         *  1. The current IDAC gain is not the lowest one.
1909:Generated_Source\PSoC4/CapSense_SensingCSD_LL.c ****         *  2. The maximum IDAC at gain switching will not be out of range.
1910:Generated_Source\PSoC4/CapSense_SensingCSD_LL.c ****         *  3. The minimum IDAC is still below the acceptable range.
1911:Generated_Source\PSoC4/CapSense_SensingCSD_LL.c ****         *
1912:Generated_Source\PSoC4/CapSense_SensingCSD_LL.c ****         * \param ptrFlashWidget
1913:Generated_Source\PSoC4/CapSense_SensingCSD_LL.c ****         *  Specifies the pointer to a widget.
1914:Generated_Source\PSoC4/CapSense_SensingCSD_LL.c ****         *
1915:Generated_Source\PSoC4/CapSense_SensingCSD_LL.c ****         * \return Returns the status of the operation:
1916:Generated_Source\PSoC4/CapSense_SensingCSD_LL.c ****         *   - Zero     - Gain switching is not needed.
1917:Generated_Source\PSoC4/CapSense_SensingCSD_LL.c ****         *   - Non-Zero - Gain was switched to the lower one.
1918:Generated_Source\PSoC4/CapSense_SensingCSD_LL.c ****         *
1919:Generated_Source\PSoC4/CapSense_SensingCSD_LL.c ****         *******************************************************************************/
1920:Generated_Source\PSoC4/CapSense_SensingCSD_LL.c ****         static uint32 CapSense_SsCSDSwitchIdacGain(CapSense_FLASH_WD_STRUCT const *ptrFlashWidget)
1921:Generated_Source\PSoC4/CapSense_SensingCSD_LL.c ****         {
1922:Generated_Source\PSoC4/CapSense_SensingCSD_LL.c ****             uint32 ratio;
1923:Generated_Source\PSoC4/CapSense_SensingCSD_LL.c ****             uint32 maxIdac;
1924:Generated_Source\PSoC4/CapSense_SensingCSD_LL.c ****             uint32 minIdac;
1925:Generated_Source\PSoC4/CapSense_SensingCSD_LL.c ****             uint32 status = 0u;
1926:Generated_Source\PSoC4/CapSense_SensingCSD_LL.c ****             uint32 freqChannel;
1927:Generated_Source\PSoC4/CapSense_SensingCSD_LL.c ****             uint32 gainIndex;
1928:Generated_Source\PSoC4/CapSense_SensingCSD_LL.c **** 
1929:Generated_Source\PSoC4/CapSense_SensingCSD_LL.c ****             CapSense_RAM_WD_BASE_STRUCT *ptrRamWidget = (CapSense_RAM_WD_BASE_STRUCT *)ptrFlashWidg
1930:Generated_Source\PSoC4/CapSense_SensingCSD_LL.c ****             #if (CapSense_ENABLE == CapSense_CSD_IDAC_COMP_EN)
1931:Generated_Source\PSoC4/CapSense_SensingCSD_LL.c ****                 uint32 snsIndex;
1932:Generated_Source\PSoC4/CapSense_SensingCSD_LL.c ****                 CapSense_RAM_SNS_STRUCT *ptrRamSensor = ptrFlashWidget->ptr2SnsRam;
1933:Generated_Source\PSoC4/CapSense_SensingCSD_LL.c ****             #endif
1934:Generated_Source\PSoC4/CapSense_SensingCSD_LL.c **** 
1935:Generated_Source\PSoC4/CapSense_SensingCSD_LL.c ****             gainIndex = ptrRamWidget->idacGainIndex;
ARM GAS  C:\Users\zack.li\AppData\Local\Temp\ccTyLy6m.s 			page 51


1936:Generated_Source\PSoC4/CapSense_SensingCSD_LL.c **** 
1937:Generated_Source\PSoC4/CapSense_SensingCSD_LL.c ****             /* Find maximum and minimum IDACs */
1938:Generated_Source\PSoC4/CapSense_SensingCSD_LL.c ****             maxIdac = 0u;
1939:Generated_Source\PSoC4/CapSense_SensingCSD_LL.c ****             minIdac = CapSense_CSD_CAL_IDAC_MAX_VALUE;
1940:Generated_Source\PSoC4/CapSense_SensingCSD_LL.c ****             for(freqChannel = CapSense_NUM_SCAN_FREQS; freqChannel-- > 0u;)
1941:Generated_Source\PSoC4/CapSense_SensingCSD_LL.c ****             {
1942:Generated_Source\PSoC4/CapSense_SensingCSD_LL.c ****                 if (maxIdac < ptrRamWidget->idacMod[freqChannel])
1943:Generated_Source\PSoC4/CapSense_SensingCSD_LL.c ****                 {
1944:Generated_Source\PSoC4/CapSense_SensingCSD_LL.c ****                     maxIdac = ptrRamWidget->idacMod[freqChannel];
1945:Generated_Source\PSoC4/CapSense_SensingCSD_LL.c ****                 }
1946:Generated_Source\PSoC4/CapSense_SensingCSD_LL.c ****                 if (minIdac > ptrRamWidget->idacMod[freqChannel])
1947:Generated_Source\PSoC4/CapSense_SensingCSD_LL.c ****                 {
1948:Generated_Source\PSoC4/CapSense_SensingCSD_LL.c ****                     minIdac = ptrRamWidget->idacMod[freqChannel];
1949:Generated_Source\PSoC4/CapSense_SensingCSD_LL.c ****                 }
1950:Generated_Source\PSoC4/CapSense_SensingCSD_LL.c ****                 #if (CapSense_CSD_MATRIX_WIDGET_EN || CapSense_CSD_TOUCHPAD_WIDGET_EN)
1951:Generated_Source\PSoC4/CapSense_SensingCSD_LL.c ****                     if ((CapSense_WD_TOUCHPAD_E == CapSense_GET_WIDGET_TYPE(ptrFlashWidget)) ||
1952:Generated_Source\PSoC4/CapSense_SensingCSD_LL.c ****                         (CapSense_WD_MATRIX_BUTTON_E == CapSense_GET_WIDGET_TYPE(ptrFlashWidget)))
1953:Generated_Source\PSoC4/CapSense_SensingCSD_LL.c ****                     {
1954:Generated_Source\PSoC4/CapSense_SensingCSD_LL.c ****                         if (maxIdac < ptrRamWidget->rowIdacMod[freqChannel])
1955:Generated_Source\PSoC4/CapSense_SensingCSD_LL.c ****                         {
1956:Generated_Source\PSoC4/CapSense_SensingCSD_LL.c ****                             maxIdac = ptrRamWidget->rowIdacMod[freqChannel];
1957:Generated_Source\PSoC4/CapSense_SensingCSD_LL.c ****                         }
1958:Generated_Source\PSoC4/CapSense_SensingCSD_LL.c ****                         if (minIdac > ptrRamWidget->rowIdacMod[freqChannel])
1959:Generated_Source\PSoC4/CapSense_SensingCSD_LL.c ****                         {
1960:Generated_Source\PSoC4/CapSense_SensingCSD_LL.c ****                             minIdac = ptrRamWidget->rowIdacMod[freqChannel];
1961:Generated_Source\PSoC4/CapSense_SensingCSD_LL.c ****                         }
1962:Generated_Source\PSoC4/CapSense_SensingCSD_LL.c ****                     }
1963:Generated_Source\PSoC4/CapSense_SensingCSD_LL.c ****                 #endif
1964:Generated_Source\PSoC4/CapSense_SensingCSD_LL.c ****             }
1965:Generated_Source\PSoC4/CapSense_SensingCSD_LL.c ****             #if (CapSense_ENABLE == CapSense_CSD_IDAC_COMP_EN)
1966:Generated_Source\PSoC4/CapSense_SensingCSD_LL.c ****                 for(snsIndex = 0u; snsIndex < ptrFlashWidget->totalNumSns; snsIndex++)
1967:Generated_Source\PSoC4/CapSense_SensingCSD_LL.c ****                 {
1968:Generated_Source\PSoC4/CapSense_SensingCSD_LL.c ****                     for(freqChannel = CapSense_NUM_SCAN_FREQS; freqChannel-- > 0u;)
1969:Generated_Source\PSoC4/CapSense_SensingCSD_LL.c ****                     {
1970:Generated_Source\PSoC4/CapSense_SensingCSD_LL.c ****                         if (minIdac > ptrRamSensor->idacComp[freqChannel])
1971:Generated_Source\PSoC4/CapSense_SensingCSD_LL.c ****                         {
1972:Generated_Source\PSoC4/CapSense_SensingCSD_LL.c ****                             minIdac = ptrRamSensor->idacComp[freqChannel];
1973:Generated_Source\PSoC4/CapSense_SensingCSD_LL.c ****                         }
1974:Generated_Source\PSoC4/CapSense_SensingCSD_LL.c ****                     }
1975:Generated_Source\PSoC4/CapSense_SensingCSD_LL.c ****                     ptrRamSensor++;
1976:Generated_Source\PSoC4/CapSense_SensingCSD_LL.c ****                 }
1977:Generated_Source\PSoC4/CapSense_SensingCSD_LL.c ****             #endif
1978:Generated_Source\PSoC4/CapSense_SensingCSD_LL.c **** 
1979:Generated_Source\PSoC4/CapSense_SensingCSD_LL.c ****             /* Check gain switch conditions */
1980:Generated_Source\PSoC4/CapSense_SensingCSD_LL.c ****             if (gainIndex != 0u)
1981:Generated_Source\PSoC4/CapSense_SensingCSD_LL.c ****             {
1982:Generated_Source\PSoC4/CapSense_SensingCSD_LL.c ****                 if (minIdac < CapSense_CSD_IDAC_MIN)
1983:Generated_Source\PSoC4/CapSense_SensingCSD_LL.c ****                 {
1984:Generated_Source\PSoC4/CapSense_SensingCSD_LL.c ****                     ratio = CapSense_idacGainTable[gainIndex].gainValue /
1985:Generated_Source\PSoC4/CapSense_SensingCSD_LL.c ****                             CapSense_idacGainTable[gainIndex - 1u].gainValue;
1986:Generated_Source\PSoC4/CapSense_SensingCSD_LL.c ****                     if ((maxIdac * ratio) < CapSense_CSD_CAL_IDAC_MAX_VALUE)
1987:Generated_Source\PSoC4/CapSense_SensingCSD_LL.c ****                     {
1988:Generated_Source\PSoC4/CapSense_SensingCSD_LL.c ****                         /* Switch to lower idac gain */
1989:Generated_Source\PSoC4/CapSense_SensingCSD_LL.c ****                         ptrRamWidget->idacGainIndex--;
1990:Generated_Source\PSoC4/CapSense_SensingCSD_LL.c ****                         status = 1u;
1991:Generated_Source\PSoC4/CapSense_SensingCSD_LL.c ****                     }
1992:Generated_Source\PSoC4/CapSense_SensingCSD_LL.c ****                 }
ARM GAS  C:\Users\zack.li\AppData\Local\Temp\ccTyLy6m.s 			page 52


1993:Generated_Source\PSoC4/CapSense_SensingCSD_LL.c ****             }
1994:Generated_Source\PSoC4/CapSense_SensingCSD_LL.c **** 
1995:Generated_Source\PSoC4/CapSense_SensingCSD_LL.c ****             return (status);
1996:Generated_Source\PSoC4/CapSense_SensingCSD_LL.c ****         }
1997:Generated_Source\PSoC4/CapSense_SensingCSD_LL.c ****     #endif /* (CapSense_ENABLE == CapSense_CSD_IDAC_AUTO_GAIN_EN) */
1998:Generated_Source\PSoC4/CapSense_SensingCSD_LL.c **** 
1999:Generated_Source\PSoC4/CapSense_SensingCSD_LL.c **** 
2000:Generated_Source\PSoC4/CapSense_SensingCSD_LL.c ****     #if (CapSense_ENABLE == CapSense_CSD_IDAC_COMP_EN)
2001:Generated_Source\PSoC4/CapSense_SensingCSD_LL.c ****         /*******************************************************************************
2002:Generated_Source\PSoC4/CapSense_SensingCSD_LL.c ****         * Function Name: CapSense_SsCSDNormalizeIdac
2003:Generated_Source\PSoC4/CapSense_SensingCSD_LL.c ****         ****************************************************************************//**
2004:Generated_Source\PSoC4/CapSense_SensingCSD_LL.c ****         *
2005:Generated_Source\PSoC4/CapSense_SensingCSD_LL.c ****         * \brief
2006:Generated_Source\PSoC4/CapSense_SensingCSD_LL.c ****         *  This function normalizes compensation IDAC.
2007:Generated_Source\PSoC4/CapSense_SensingCSD_LL.c ****         *
2008:Generated_Source\PSoC4/CapSense_SensingCSD_LL.c ****         * \details
2009:Generated_Source\PSoC4/CapSense_SensingCSD_LL.c ****         *  This function normalizes compensation IDAC.
2010:Generated_Source\PSoC4/CapSense_SensingCSD_LL.c ****         *
2011:Generated_Source\PSoC4/CapSense_SensingCSD_LL.c ****         * \param ptrFlashWidget
2012:Generated_Source\PSoC4/CapSense_SensingCSD_LL.c ****         *  Specifies the pointer to a widget.
2013:Generated_Source\PSoC4/CapSense_SensingCSD_LL.c ****         *
2014:Generated_Source\PSoC4/CapSense_SensingCSD_LL.c ****         * \param target
2015:Generated_Source\PSoC4/CapSense_SensingCSD_LL.c ****         *  Raw count target in percentage.
2016:Generated_Source\PSoC4/CapSense_SensingCSD_LL.c ****         *
2017:Generated_Source\PSoC4/CapSense_SensingCSD_LL.c ****         *******************************************************************************/
2018:Generated_Source\PSoC4/CapSense_SensingCSD_LL.c ****         static void CapSense_SsCSDNormalizeIdac(CapSense_FLASH_WD_STRUCT const *ptrFlashWidget, uin
2019:Generated_Source\PSoC4/CapSense_SensingCSD_LL.c ****         {
2020:Generated_Source\PSoC4/CapSense_SensingCSD_LL.c ****             uint32 snsIndex;
2021:Generated_Source\PSoC4/CapSense_SensingCSD_LL.c ****             uint32 freqChannel;
2022:Generated_Source\PSoC4/CapSense_SensingCSD_LL.c ****             uint32 maxIdac;
2023:Generated_Source\PSoC4/CapSense_SensingCSD_LL.c ****             uint32 minIdac;
2024:Generated_Source\PSoC4/CapSense_SensingCSD_LL.c ****             uint32 minRaw;
2025:Generated_Source\PSoC4/CapSense_SensingCSD_LL.c ****             uint32 maxRawLevel;
2026:Generated_Source\PSoC4/CapSense_SensingCSD_LL.c ****             uint32 rawLevel;
2027:Generated_Source\PSoC4/CapSense_SensingCSD_LL.c ****             uint32 iMod;
2028:Generated_Source\PSoC4/CapSense_SensingCSD_LL.c **** 
2029:Generated_Source\PSoC4/CapSense_SensingCSD_LL.c ****             CapSense_RAM_WD_BASE_STRUCT *ptrRamWidget = (CapSense_RAM_WD_BASE_STRUCT *)ptrFlashWidg
2030:Generated_Source\PSoC4/CapSense_SensingCSD_LL.c ****             CapSense_RAM_SNS_STRUCT *ptrRamSensor;
2031:Generated_Source\PSoC4/CapSense_SensingCSD_LL.c **** 
2032:Generated_Source\PSoC4/CapSense_SensingCSD_LL.c ****             /* Calculate raw count level based on resolution and target */
2033:Generated_Source\PSoC4/CapSense_SensingCSD_LL.c ****             maxRawLevel = (0x00000001Lu << ptrRamWidget->resolution) - 1u;
2034:Generated_Source\PSoC4/CapSense_SensingCSD_LL.c **** 
2035:Generated_Source\PSoC4/CapSense_SensingCSD_LL.c ****             /*
2036:Generated_Source\PSoC4/CapSense_SensingCSD_LL.c ****             * IDAC Normalization is performed separately for each multi-frequency channel
2037:Generated_Source\PSoC4/CapSense_SensingCSD_LL.c ****             * and separately for row and column
2038:Generated_Source\PSoC4/CapSense_SensingCSD_LL.c ****             */
2039:Generated_Source\PSoC4/CapSense_SensingCSD_LL.c ****             for(freqChannel = CapSense_NUM_SCAN_FREQS; freqChannel-- > 0u;)
2040:Generated_Source\PSoC4/CapSense_SensingCSD_LL.c ****             {
2041:Generated_Source\PSoC4/CapSense_SensingCSD_LL.c ****                 /* Find maximum and minimum IDACs */
2042:Generated_Source\PSoC4/CapSense_SensingCSD_LL.c ****                 maxIdac = ptrRamWidget->idacMod[freqChannel];
2043:Generated_Source\PSoC4/CapSense_SensingCSD_LL.c ****                 minIdac = ptrRamWidget->idacMod[freqChannel];
2044:Generated_Source\PSoC4/CapSense_SensingCSD_LL.c ****                 ptrRamSensor = ptrFlashWidget->ptr2SnsRam;
2045:Generated_Source\PSoC4/CapSense_SensingCSD_LL.c ****                 minRaw = ptrRamSensor->raw[freqChannel];
2046:Generated_Source\PSoC4/CapSense_SensingCSD_LL.c ****                 for(snsIndex = 0u; snsIndex < ptrFlashWidget->numCols; snsIndex++)
2047:Generated_Source\PSoC4/CapSense_SensingCSD_LL.c ****                 {
2048:Generated_Source\PSoC4/CapSense_SensingCSD_LL.c ****                     if (minIdac > ptrRamSensor->idacComp[freqChannel])
2049:Generated_Source\PSoC4/CapSense_SensingCSD_LL.c ****                     {
ARM GAS  C:\Users\zack.li\AppData\Local\Temp\ccTyLy6m.s 			page 53


2050:Generated_Source\PSoC4/CapSense_SensingCSD_LL.c ****                         minIdac = ptrRamSensor->idacComp[freqChannel];
2051:Generated_Source\PSoC4/CapSense_SensingCSD_LL.c ****                         minRaw = ptrRamSensor->raw[freqChannel];
2052:Generated_Source\PSoC4/CapSense_SensingCSD_LL.c ****                     }
2053:Generated_Source\PSoC4/CapSense_SensingCSD_LL.c ****                     ptrRamSensor++;
2054:Generated_Source\PSoC4/CapSense_SensingCSD_LL.c ****                 }
2055:Generated_Source\PSoC4/CapSense_SensingCSD_LL.c **** 
2056:Generated_Source\PSoC4/CapSense_SensingCSD_LL.c ****                 /* Define new modulator IDAC */
2057:Generated_Source\PSoC4/CapSense_SensingCSD_LL.c ****                 rawLevel = ((minRaw * CapSense_PERCENTAGE_100) / maxRawLevel) + CapSense_PERCENTAGE
2058:Generated_Source\PSoC4/CapSense_SensingCSD_LL.c ****                 iMod = (rawLevel * minIdac) / target;
2059:Generated_Source\PSoC4/CapSense_SensingCSD_LL.c **** 
2060:Generated_Source\PSoC4/CapSense_SensingCSD_LL.c ****                 if (iMod > maxIdac)
2061:Generated_Source\PSoC4/CapSense_SensingCSD_LL.c ****                 {
2062:Generated_Source\PSoC4/CapSense_SensingCSD_LL.c ****                     iMod = maxIdac;
2063:Generated_Source\PSoC4/CapSense_SensingCSD_LL.c ****                 }
2064:Generated_Source\PSoC4/CapSense_SensingCSD_LL.c ****                 ptrRamWidget->idacMod[freqChannel] = (uint8)iMod;
2065:Generated_Source\PSoC4/CapSense_SensingCSD_LL.c **** 
2066:Generated_Source\PSoC4/CapSense_SensingCSD_LL.c ****                 /* Re-calculate compensation IDAC */
2067:Generated_Source\PSoC4/CapSense_SensingCSD_LL.c ****                 ptrRamSensor = ptrFlashWidget->ptr2SnsRam;
2068:Generated_Source\PSoC4/CapSense_SensingCSD_LL.c ****                 for(snsIndex = 0u; snsIndex < ptrFlashWidget->numCols; snsIndex++)
2069:Generated_Source\PSoC4/CapSense_SensingCSD_LL.c ****                 {
2070:Generated_Source\PSoC4/CapSense_SensingCSD_LL.c ****                     rawLevel = (((ptrRamSensor->raw[freqChannel] * CapSense_PERCENTAGE_100) / maxRa
2071:Generated_Source\PSoC4/CapSense_SensingCSD_LL.c ****                         CapSense_PERCENTAGE_100) * ptrRamSensor->idacComp[freqChannel];
2072:Generated_Source\PSoC4/CapSense_SensingCSD_LL.c ****                     if (rawLevel < (iMod * target))
2073:Generated_Source\PSoC4/CapSense_SensingCSD_LL.c ****                     {
2074:Generated_Source\PSoC4/CapSense_SensingCSD_LL.c ****                         ptrRamSensor->idacComp[freqChannel] = 0u;
2075:Generated_Source\PSoC4/CapSense_SensingCSD_LL.c ****                     }
2076:Generated_Source\PSoC4/CapSense_SensingCSD_LL.c ****                     else
2077:Generated_Source\PSoC4/CapSense_SensingCSD_LL.c ****                     {
2078:Generated_Source\PSoC4/CapSense_SensingCSD_LL.c ****                         ptrRamSensor->idacComp[freqChannel] = (uint8)(((rawLevel - (iMod * target))
2079:Generated_Source\PSoC4/CapSense_SensingCSD_LL.c ****                             (CapSense_PERCENTAGE_100 >> 1u)) / CapSense_PERCENTAGE_100);
2080:Generated_Source\PSoC4/CapSense_SensingCSD_LL.c ****                     }
2081:Generated_Source\PSoC4/CapSense_SensingCSD_LL.c ****                     ptrRamSensor++;
2082:Generated_Source\PSoC4/CapSense_SensingCSD_LL.c ****                 }
2083:Generated_Source\PSoC4/CapSense_SensingCSD_LL.c **** 
2084:Generated_Source\PSoC4/CapSense_SensingCSD_LL.c ****                 #if (CapSense_CSD_MATRIX_WIDGET_EN || CapSense_CSD_TOUCHPAD_WIDGET_EN)
2085:Generated_Source\PSoC4/CapSense_SensingCSD_LL.c ****                     if ((CapSense_WD_TOUCHPAD_E == CapSense_GET_WIDGET_TYPE(ptrFlashWidget)) ||
2086:Generated_Source\PSoC4/CapSense_SensingCSD_LL.c ****                         (CapSense_WD_MATRIX_BUTTON_E == CapSense_GET_WIDGET_TYPE(ptrFlashWidget)))
2087:Generated_Source\PSoC4/CapSense_SensingCSD_LL.c ****                     {
2088:Generated_Source\PSoC4/CapSense_SensingCSD_LL.c ****                         /* Find maximum and minimum IDACs */
2089:Generated_Source\PSoC4/CapSense_SensingCSD_LL.c ****                         maxIdac = ptrRamWidget->rowIdacMod[freqChannel];
2090:Generated_Source\PSoC4/CapSense_SensingCSD_LL.c ****                         minIdac = ptrRamWidget->rowIdacMod[freqChannel];
2091:Generated_Source\PSoC4/CapSense_SensingCSD_LL.c ****                         ptrRamSensor = &(ptrFlashWidget->ptr2SnsRam[ptrFlashWidget->numCols]);
2092:Generated_Source\PSoC4/CapSense_SensingCSD_LL.c ****                         minRaw = ptrRamSensor->raw[freqChannel];
2093:Generated_Source\PSoC4/CapSense_SensingCSD_LL.c ****                         for(snsIndex = ptrFlashWidget->numCols; snsIndex < ptrFlashWidget->totalNum
2094:Generated_Source\PSoC4/CapSense_SensingCSD_LL.c ****                         {
2095:Generated_Source\PSoC4/CapSense_SensingCSD_LL.c ****                             if (minIdac > ptrRamSensor->idacComp[freqChannel])
2096:Generated_Source\PSoC4/CapSense_SensingCSD_LL.c ****                             {
2097:Generated_Source\PSoC4/CapSense_SensingCSD_LL.c ****                                 minIdac = ptrRamSensor->idacComp[freqChannel];
2098:Generated_Source\PSoC4/CapSense_SensingCSD_LL.c ****                                 minRaw = ptrRamSensor->raw[freqChannel];
2099:Generated_Source\PSoC4/CapSense_SensingCSD_LL.c ****                             }
2100:Generated_Source\PSoC4/CapSense_SensingCSD_LL.c ****                             ptrRamSensor++;
2101:Generated_Source\PSoC4/CapSense_SensingCSD_LL.c ****                         }
2102:Generated_Source\PSoC4/CapSense_SensingCSD_LL.c **** 
2103:Generated_Source\PSoC4/CapSense_SensingCSD_LL.c ****                         /* Define new modulator IDAC */
2104:Generated_Source\PSoC4/CapSense_SensingCSD_LL.c ****                         rawLevel = ((minRaw * CapSense_PERCENTAGE_100) / maxRawLevel) + CapSense_PE
2105:Generated_Source\PSoC4/CapSense_SensingCSD_LL.c ****                         iMod = (rawLevel * minIdac) / target;
2106:Generated_Source\PSoC4/CapSense_SensingCSD_LL.c **** 
ARM GAS  C:\Users\zack.li\AppData\Local\Temp\ccTyLy6m.s 			page 54


2107:Generated_Source\PSoC4/CapSense_SensingCSD_LL.c ****                         if (iMod > maxIdac)
2108:Generated_Source\PSoC4/CapSense_SensingCSD_LL.c ****                         {
2109:Generated_Source\PSoC4/CapSense_SensingCSD_LL.c ****                             iMod = maxIdac;
2110:Generated_Source\PSoC4/CapSense_SensingCSD_LL.c ****                         }
2111:Generated_Source\PSoC4/CapSense_SensingCSD_LL.c ****                         ptrRamWidget->rowIdacMod[freqChannel] = (uint8)iMod;
2112:Generated_Source\PSoC4/CapSense_SensingCSD_LL.c **** 
2113:Generated_Source\PSoC4/CapSense_SensingCSD_LL.c ****                         /* Re-calculate compensation IDAC */
2114:Generated_Source\PSoC4/CapSense_SensingCSD_LL.c ****                         ptrRamSensor = &(ptrFlashWidget->ptr2SnsRam[ptrFlashWidget->numCols]);
2115:Generated_Source\PSoC4/CapSense_SensingCSD_LL.c ****                         for(snsIndex = 0u; snsIndex < ptrFlashWidget->numRows; snsIndex++)
2116:Generated_Source\PSoC4/CapSense_SensingCSD_LL.c ****                         {
2117:Generated_Source\PSoC4/CapSense_SensingCSD_LL.c ****                             rawLevel = (((ptrRamSensor->raw[freqChannel] * CapSense_PERCENTAGE_100)
2118:Generated_Source\PSoC4/CapSense_SensingCSD_LL.c ****                                 CapSense_PERCENTAGE_100) * ptrRamSensor->idacComp[freqChannel];
2119:Generated_Source\PSoC4/CapSense_SensingCSD_LL.c ****                             if (rawLevel < (iMod * target))
2120:Generated_Source\PSoC4/CapSense_SensingCSD_LL.c ****                             {
2121:Generated_Source\PSoC4/CapSense_SensingCSD_LL.c ****                                 ptrRamSensor->idacComp[freqChannel] = 0u;
2122:Generated_Source\PSoC4/CapSense_SensingCSD_LL.c ****                             }
2123:Generated_Source\PSoC4/CapSense_SensingCSD_LL.c ****                             else
2124:Generated_Source\PSoC4/CapSense_SensingCSD_LL.c ****                             {
2125:Generated_Source\PSoC4/CapSense_SensingCSD_LL.c ****                                 ptrRamSensor->idacComp[freqChannel] = (uint8)(((rawLevel - (iMod * 
2126:Generated_Source\PSoC4/CapSense_SensingCSD_LL.c ****                                     (CapSense_PERCENTAGE_100 >> 1u)) / CapSense_PERCENTAGE_100);
2127:Generated_Source\PSoC4/CapSense_SensingCSD_LL.c ****                             }
2128:Generated_Source\PSoC4/CapSense_SensingCSD_LL.c ****                             ptrRamSensor++;
2129:Generated_Source\PSoC4/CapSense_SensingCSD_LL.c ****                         }
2130:Generated_Source\PSoC4/CapSense_SensingCSD_LL.c ****                     }
2131:Generated_Source\PSoC4/CapSense_SensingCSD_LL.c ****                 #endif
2132:Generated_Source\PSoC4/CapSense_SensingCSD_LL.c ****             }
2133:Generated_Source\PSoC4/CapSense_SensingCSD_LL.c ****         }
2134:Generated_Source\PSoC4/CapSense_SensingCSD_LL.c ****     #endif
2135:Generated_Source\PSoC4/CapSense_SensingCSD_LL.c **** 
2136:Generated_Source\PSoC4/CapSense_SensingCSD_LL.c **** 
2137:Generated_Source\PSoC4/CapSense_SensingCSD_LL.c ****     /*******************************************************************************
2138:Generated_Source\PSoC4/CapSense_SensingCSD_LL.c ****     * Function Name: CapSense_SsCSDCalibrate
2139:Generated_Source\PSoC4/CapSense_SensingCSD_LL.c ****     ****************************************************************************//**
2140:Generated_Source\PSoC4/CapSense_SensingCSD_LL.c ****     *
2141:Generated_Source\PSoC4/CapSense_SensingCSD_LL.c ****     * \brief
2142:Generated_Source\PSoC4/CapSense_SensingCSD_LL.c ****     *  Implements IDAC calibration for a desired widget using successive
2143:Generated_Source\PSoC4/CapSense_SensingCSD_LL.c ****     *  approximation algorithm.
2144:Generated_Source\PSoC4/CapSense_SensingCSD_LL.c ****     *
2145:Generated_Source\PSoC4/CapSense_SensingCSD_LL.c ****     * \details
2146:Generated_Source\PSoC4/CapSense_SensingCSD_LL.c ****     *  Implements IDAC calibration for a desired widget using successive
2147:Generated_Source\PSoC4/CapSense_SensingCSD_LL.c ****     *  approximation algorithm. It supports any type of CSD widgets, and works
2148:Generated_Source\PSoC4/CapSense_SensingCSD_LL.c ****     *  with multi-frequency scan and compensation IDAC features enabled.
2149:Generated_Source\PSoC4/CapSense_SensingCSD_LL.c ****     *
2150:Generated_Source\PSoC4/CapSense_SensingCSD_LL.c ****     *  As result of function operation, the modulator IDAC that corresponds to the
2151:Generated_Source\PSoC4/CapSense_SensingCSD_LL.c ****     *  sensor with the highest capacitance (the biggest modulator IDAC) is stored
2152:Generated_Source\PSoC4/CapSense_SensingCSD_LL.c ****     *  into widget data structure. If it is dual-axis widget type (touchpad or matrix
2153:Generated_Source\PSoC4/CapSense_SensingCSD_LL.c ****     *  buttons) or if multi-frequency scan feature is enabled then the maximum
2154:Generated_Source\PSoC4/CapSense_SensingCSD_LL.c ****     *  modulator IDAC found separately for each multi-frequency channel and for
2155:Generated_Source\PSoC4/CapSense_SensingCSD_LL.c ****     *  rows/columns.
2156:Generated_Source\PSoC4/CapSense_SensingCSD_LL.c ****     *
2157:Generated_Source\PSoC4/CapSense_SensingCSD_LL.c ****     *  If compensation IDAC is enabled, then it preserves IDAC value of
2158:Generated_Source\PSoC4/CapSense_SensingCSD_LL.c ****     *  single-sensor calibration. In dual IDAC mode each sensor was calibrated with
2159:Generated_Source\PSoC4/CapSense_SensingCSD_LL.c ****     *  equal values of modulator and compensation IDAC.
2160:Generated_Source\PSoC4/CapSense_SensingCSD_LL.c ****     *
2161:Generated_Source\PSoC4/CapSense_SensingCSD_LL.c ****     *  After IDACs were found each sensor scanned again to get real raw count stored
2162:Generated_Source\PSoC4/CapSense_SensingCSD_LL.c ****     *  in sensor structure.
2163:Generated_Source\PSoC4/CapSense_SensingCSD_LL.c ****     *
ARM GAS  C:\Users\zack.li\AppData\Local\Temp\ccTyLy6m.s 			page 55


2164:Generated_Source\PSoC4/CapSense_SensingCSD_LL.c ****     * \param widgetId
2165:Generated_Source\PSoC4/CapSense_SensingCSD_LL.c ****     *  Specifies the ID number of the CSD widget to calibrate its raw count.
2166:Generated_Source\PSoC4/CapSense_SensingCSD_LL.c ****     *  A macro for the widget ID can be found in the
2167:Generated_Source\PSoC4/CapSense_SensingCSD_LL.c ****     *  CapSense Configuration header file defined as
2168:Generated_Source\PSoC4/CapSense_SensingCSD_LL.c ****     *  CapSense_<WidgetName>_WDGT_ID.
2169:Generated_Source\PSoC4/CapSense_SensingCSD_LL.c ****     *
2170:Generated_Source\PSoC4/CapSense_SensingCSD_LL.c ****     * \param target
2171:Generated_Source\PSoC4/CapSense_SensingCSD_LL.c ****     *  Specifies the calibration target in percentages of the maximum raw count.
2172:Generated_Source\PSoC4/CapSense_SensingCSD_LL.c ****     *
2173:Generated_Source\PSoC4/CapSense_SensingCSD_LL.c ****     *******************************************************************************/
2174:Generated_Source\PSoC4/CapSense_SensingCSD_LL.c ****     static void CapSense_SsCSDCalibrate(uint32 widgetId, uint32 target)
2175:Generated_Source\PSoC4/CapSense_SensingCSD_LL.c ****     {
2176:Generated_Source\PSoC4/CapSense_SensingCSD_LL.c ****         uint32 snsIndex;
2177:Generated_Source\PSoC4/CapSense_SensingCSD_LL.c ****         uint32 freqChannel;
2178:Generated_Source\PSoC4/CapSense_SensingCSD_LL.c ****         uint32 calMask;
2179:Generated_Source\PSoC4/CapSense_SensingCSD_LL.c ****         uint32 temp;
2180:Generated_Source\PSoC4/CapSense_SensingCSD_LL.c ****         uint32 watchdogCounter;
2181:Generated_Source\PSoC4/CapSense_SensingCSD_LL.c **** 
2182:Generated_Source\PSoC4/CapSense_SensingCSD_LL.c ****         uint8 *ptrIdacMod;
2183:Generated_Source\PSoC4/CapSense_SensingCSD_LL.c ****         uint8 *ptrMaxIdac;
2184:Generated_Source\PSoC4/CapSense_SensingCSD_LL.c **** 
2185:Generated_Source\PSoC4/CapSense_SensingCSD_LL.c ****         uint8 maxIdac[CapSense_NUM_SCAN_FREQS];
2186:Generated_Source\PSoC4/CapSense_SensingCSD_LL.c **** 
2187:Generated_Source\PSoC4/CapSense_SensingCSD_LL.c ****         #if (CapSense_CSD_MATRIX_WIDGET_EN || CapSense_CSD_TOUCHPAD_WIDGET_EN)
2188:Generated_Source\PSoC4/CapSense_SensingCSD_LL.c ****             uint8 maxRowIdac[CapSense_NUM_SCAN_FREQS];
2189:Generated_Source\PSoC4/CapSense_SensingCSD_LL.c ****             uint32 dualWidgetType = 0u;
2190:Generated_Source\PSoC4/CapSense_SensingCSD_LL.c ****         #endif
2191:Generated_Source\PSoC4/CapSense_SensingCSD_LL.c **** 
2192:Generated_Source\PSoC4/CapSense_SensingCSD_LL.c ****         CapSense_RAM_SNS_STRUCT *ptrRamSensor;
2193:Generated_Source\PSoC4/CapSense_SensingCSD_LL.c ****         CapSense_FLASH_WD_STRUCT const *ptrFlashWidget = &CapSense_dsFlash.wdgtArray[widgetId];
2194:Generated_Source\PSoC4/CapSense_SensingCSD_LL.c ****         CapSense_RAM_WD_BASE_STRUCT *ptrRamWidget = (CapSense_RAM_WD_BASE_STRUCT *)ptrFlashWidget->
2195:Generated_Source\PSoC4/CapSense_SensingCSD_LL.c **** 
2196:Generated_Source\PSoC4/CapSense_SensingCSD_LL.c ****         ptrIdacMod = &ptrRamWidget->idacMod[0u];
2197:Generated_Source\PSoC4/CapSense_SensingCSD_LL.c ****         ptrMaxIdac = &maxIdac[0u];
2198:Generated_Source\PSoC4/CapSense_SensingCSD_LL.c **** 
2199:Generated_Source\PSoC4/CapSense_SensingCSD_LL.c ****         for(freqChannel = CapSense_NUM_SCAN_FREQS; freqChannel-- > 0u;)
2200:Generated_Source\PSoC4/CapSense_SensingCSD_LL.c ****         {
2201:Generated_Source\PSoC4/CapSense_SensingCSD_LL.c ****             maxIdac[freqChannel] = 0u;
2202:Generated_Source\PSoC4/CapSense_SensingCSD_LL.c ****             #if (CapSense_CSD_MATRIX_WIDGET_EN || CapSense_CSD_TOUCHPAD_WIDGET_EN)
2203:Generated_Source\PSoC4/CapSense_SensingCSD_LL.c ****                 maxRowIdac[freqChannel] = 0u;
2204:Generated_Source\PSoC4/CapSense_SensingCSD_LL.c ****             #endif
2205:Generated_Source\PSoC4/CapSense_SensingCSD_LL.c ****         }
2206:Generated_Source\PSoC4/CapSense_SensingCSD_LL.c **** 
2207:Generated_Source\PSoC4/CapSense_SensingCSD_LL.c ****         /* Calculate raw count level based on resolution and target */
2208:Generated_Source\PSoC4/CapSense_SensingCSD_LL.c ****         temp = (((0x00000001Lu << ptrRamWidget->resolution) - 1u) * target) / CapSense_PERCENTAGE_1
2209:Generated_Source\PSoC4/CapSense_SensingCSD_LL.c **** 
2210:Generated_Source\PSoC4/CapSense_SensingCSD_LL.c ****         #if (CapSense_CSD_MATRIX_WIDGET_EN || CapSense_CSD_TOUCHPAD_WIDGET_EN)
2211:Generated_Source\PSoC4/CapSense_SensingCSD_LL.c ****             if ((CapSense_WD_TOUCHPAD_E == CapSense_GET_WIDGET_TYPE(ptrFlashWidget)) ||
2212:Generated_Source\PSoC4/CapSense_SensingCSD_LL.c ****                 (CapSense_WD_MATRIX_BUTTON_E == CapSense_GET_WIDGET_TYPE(ptrFlashWidget)))
2213:Generated_Source\PSoC4/CapSense_SensingCSD_LL.c ****             {
2214:Generated_Source\PSoC4/CapSense_SensingCSD_LL.c ****                 dualWidgetType = 1u;
2215:Generated_Source\PSoC4/CapSense_SensingCSD_LL.c ****             }
2216:Generated_Source\PSoC4/CapSense_SensingCSD_LL.c ****         #endif
2217:Generated_Source\PSoC4/CapSense_SensingCSD_LL.c **** 
2218:Generated_Source\PSoC4/CapSense_SensingCSD_LL.c ****         /* Loop through the widget sensors */
2219:Generated_Source\PSoC4/CapSense_SensingCSD_LL.c ****         for(snsIndex = 0u; snsIndex < ptrFlashWidget->totalNumSns; snsIndex++)
2220:Generated_Source\PSoC4/CapSense_SensingCSD_LL.c ****         {
ARM GAS  C:\Users\zack.li\AppData\Local\Temp\ccTyLy6m.s 			page 56


2221:Generated_Source\PSoC4/CapSense_SensingCSD_LL.c ****             #if (CapSense_CSD_MATRIX_WIDGET_EN || CapSense_CSD_TOUCHPAD_WIDGET_EN)
2222:Generated_Source\PSoC4/CapSense_SensingCSD_LL.c ****                 if (snsIndex == ptrFlashWidget->numCols)
2223:Generated_Source\PSoC4/CapSense_SensingCSD_LL.c ****                 {
2224:Generated_Source\PSoC4/CapSense_SensingCSD_LL.c ****                     if (0u != dualWidgetType)
2225:Generated_Source\PSoC4/CapSense_SensingCSD_LL.c ****                     {
2226:Generated_Source\PSoC4/CapSense_SensingCSD_LL.c ****                         ptrIdacMod = &ptrRamWidget->rowIdacMod[0u];
2227:Generated_Source\PSoC4/CapSense_SensingCSD_LL.c ****                         ptrMaxIdac = &maxRowIdac[0u];
2228:Generated_Source\PSoC4/CapSense_SensingCSD_LL.c ****                     }
2229:Generated_Source\PSoC4/CapSense_SensingCSD_LL.c ****                 }
2230:Generated_Source\PSoC4/CapSense_SensingCSD_LL.c ****             #endif
2231:Generated_Source\PSoC4/CapSense_SensingCSD_LL.c **** 
2232:Generated_Source\PSoC4/CapSense_SensingCSD_LL.c ****             ptrRamSensor = &((ptrFlashWidget->ptr2SnsRam)[snsIndex]);
2233:Generated_Source\PSoC4/CapSense_SensingCSD_LL.c **** 
2234:Generated_Source\PSoC4/CapSense_SensingCSD_LL.c ****             /* Set default IDAC code */
2235:Generated_Source\PSoC4/CapSense_SensingCSD_LL.c ****             calMask = CapSense_CSD_CAL_MIDDLE_VALUE;
2236:Generated_Source\PSoC4/CapSense_SensingCSD_LL.c ****             for(freqChannel = CapSense_NUM_SCAN_FREQS; freqChannel-- > 0u;)
2237:Generated_Source\PSoC4/CapSense_SensingCSD_LL.c ****             {
2238:Generated_Source\PSoC4/CapSense_SensingCSD_LL.c ****                 ptrIdacMod[freqChannel] = CapSense_CSD_CAL_MIDDLE_VALUE;
2239:Generated_Source\PSoC4/CapSense_SensingCSD_LL.c ****                 #if (CapSense_ENABLE == CapSense_CSD_IDAC_COMP_EN)
2240:Generated_Source\PSoC4/CapSense_SensingCSD_LL.c ****                     ptrRamSensor->idacComp[freqChannel] = ptrIdacMod[freqChannel];
2241:Generated_Source\PSoC4/CapSense_SensingCSD_LL.c ****                 #endif
2242:Generated_Source\PSoC4/CapSense_SensingCSD_LL.c ****             }
2243:Generated_Source\PSoC4/CapSense_SensingCSD_LL.c **** 
2244:Generated_Source\PSoC4/CapSense_SensingCSD_LL.c ****             /* Loop through IDAC code */
2245:Generated_Source\PSoC4/CapSense_SensingCSD_LL.c ****             do
2246:Generated_Source\PSoC4/CapSense_SensingCSD_LL.c ****             {
2247:Generated_Source\PSoC4/CapSense_SensingCSD_LL.c ****                 /* Need to configure HW block with each IDAC change */
2248:Generated_Source\PSoC4/CapSense_SensingCSD_LL.c ****                 CapSense_CSDSetupWidgetExt(widgetId, snsIndex);
2249:Generated_Source\PSoC4/CapSense_SensingCSD_LL.c **** 
2250:Generated_Source\PSoC4/CapSense_SensingCSD_LL.c ****                 #if (CapSense_ENABLE == CapSense_CSDV2)
2251:Generated_Source\PSoC4/CapSense_SensingCSD_LL.c ****                     CapSense_DischargeExtCapacitors(CapSense_EXT_CAP_DISCHARGE_TIME);
2252:Generated_Source\PSoC4/CapSense_SensingCSD_LL.c ****                 #endif
2253:Generated_Source\PSoC4/CapSense_SensingCSD_LL.c **** 
2254:Generated_Source\PSoC4/CapSense_SensingCSD_LL.c ****                 /* Scan sensor */
2255:Generated_Source\PSoC4/CapSense_SensingCSD_LL.c ****                 CapSense_CSDScanExt();
2256:Generated_Source\PSoC4/CapSense_SensingCSD_LL.c **** 
2257:Generated_Source\PSoC4/CapSense_SensingCSD_LL.c ****                 watchdogCounter = CapSense_CSD_CALIBR_WATCHDOG_CYCLES_NUM;
2258:Generated_Source\PSoC4/CapSense_SensingCSD_LL.c ****                 while (((CapSense_dsRam.status & CapSense_SW_STS_BUSY) != 0u) && (0uL != watchdogCo
2259:Generated_Source\PSoC4/CapSense_SensingCSD_LL.c ****                 {
2260:Generated_Source\PSoC4/CapSense_SensingCSD_LL.c ****                     watchdogCounter--;
2261:Generated_Source\PSoC4/CapSense_SensingCSD_LL.c ****                 }
2262:Generated_Source\PSoC4/CapSense_SensingCSD_LL.c **** 
2263:Generated_Source\PSoC4/CapSense_SensingCSD_LL.c ****                 /* Update IDAC based on scan result */
2264:Generated_Source\PSoC4/CapSense_SensingCSD_LL.c ****                 for(freqChannel = CapSense_NUM_SCAN_FREQS; freqChannel-- > 0u;)
2265:Generated_Source\PSoC4/CapSense_SensingCSD_LL.c ****                 {
2266:Generated_Source\PSoC4/CapSense_SensingCSD_LL.c ****                     if (ptrRamSensor->raw[freqChannel] < temp)
2267:Generated_Source\PSoC4/CapSense_SensingCSD_LL.c ****                     {
2268:Generated_Source\PSoC4/CapSense_SensingCSD_LL.c ****                         ptrIdacMod[freqChannel] &= (uint8)(~calMask);
2269:Generated_Source\PSoC4/CapSense_SensingCSD_LL.c ****                     }
2270:Generated_Source\PSoC4/CapSense_SensingCSD_LL.c ****                 }
2271:Generated_Source\PSoC4/CapSense_SensingCSD_LL.c **** 
2272:Generated_Source\PSoC4/CapSense_SensingCSD_LL.c ****                 /* Switch to the lower IDAC mask */
2273:Generated_Source\PSoC4/CapSense_SensingCSD_LL.c ****                 calMask >>= 1u;
2274:Generated_Source\PSoC4/CapSense_SensingCSD_LL.c ****                 for(freqChannel = CapSense_NUM_SCAN_FREQS; freqChannel-- > 0u;)
2275:Generated_Source\PSoC4/CapSense_SensingCSD_LL.c ****                 {
2276:Generated_Source\PSoC4/CapSense_SensingCSD_LL.c ****                     ptrIdacMod[freqChannel] |= (uint8)calMask;
2277:Generated_Source\PSoC4/CapSense_SensingCSD_LL.c ****                     #if (CapSense_ENABLE == CapSense_CSD_IDAC_COMP_EN)
ARM GAS  C:\Users\zack.li\AppData\Local\Temp\ccTyLy6m.s 			page 57


2278:Generated_Source\PSoC4/CapSense_SensingCSD_LL.c ****                         ptrRamSensor->idacComp[freqChannel] = ptrIdacMod[freqChannel];
2279:Generated_Source\PSoC4/CapSense_SensingCSD_LL.c ****                     #endif
2280:Generated_Source\PSoC4/CapSense_SensingCSD_LL.c ****                     if (0u == calMask)
2281:Generated_Source\PSoC4/CapSense_SensingCSD_LL.c ****                     {
2282:Generated_Source\PSoC4/CapSense_SensingCSD_LL.c ****                         if (0u == ptrIdacMod[freqChannel])
2283:Generated_Source\PSoC4/CapSense_SensingCSD_LL.c ****                         {
2284:Generated_Source\PSoC4/CapSense_SensingCSD_LL.c ****                             ptrIdacMod[freqChannel] = 1u;
2285:Generated_Source\PSoC4/CapSense_SensingCSD_LL.c ****                             #if (CapSense_ENABLE == CapSense_CSD_IDAC_COMP_EN)
2286:Generated_Source\PSoC4/CapSense_SensingCSD_LL.c ****                                 ptrRamSensor->idacComp[freqChannel] = ptrIdacMod[freqChannel];
2287:Generated_Source\PSoC4/CapSense_SensingCSD_LL.c ****                             #endif
2288:Generated_Source\PSoC4/CapSense_SensingCSD_LL.c ****                         }
2289:Generated_Source\PSoC4/CapSense_SensingCSD_LL.c ****                     }
2290:Generated_Source\PSoC4/CapSense_SensingCSD_LL.c ****                 }
2291:Generated_Source\PSoC4/CapSense_SensingCSD_LL.c ****             }
2292:Generated_Source\PSoC4/CapSense_SensingCSD_LL.c ****             while (calMask != 0u);
2293:Generated_Source\PSoC4/CapSense_SensingCSD_LL.c **** 
2294:Generated_Source\PSoC4/CapSense_SensingCSD_LL.c ****             for(freqChannel = CapSense_NUM_SCAN_FREQS; freqChannel-- > 0u;)
2295:Generated_Source\PSoC4/CapSense_SensingCSD_LL.c ****             {
2296:Generated_Source\PSoC4/CapSense_SensingCSD_LL.c ****                 if (ptrMaxIdac[freqChannel] < ptrIdacMod[freqChannel])
2297:Generated_Source\PSoC4/CapSense_SensingCSD_LL.c ****                 {
2298:Generated_Source\PSoC4/CapSense_SensingCSD_LL.c ****                     ptrMaxIdac[freqChannel] = ptrIdacMod[freqChannel];
2299:Generated_Source\PSoC4/CapSense_SensingCSD_LL.c ****                 }
2300:Generated_Source\PSoC4/CapSense_SensingCSD_LL.c ****             }
2301:Generated_Source\PSoC4/CapSense_SensingCSD_LL.c **** 
2302:Generated_Source\PSoC4/CapSense_SensingCSD_LL.c ****             /* Perform scan again to get real raw count if IDAC was changed at the last iteration *
2303:Generated_Source\PSoC4/CapSense_SensingCSD_LL.c ****             CapSense_CSDSetupWidgetExt(widgetId, snsIndex);
2304:Generated_Source\PSoC4/CapSense_SensingCSD_LL.c ****             CapSense_CSDScanExt();
2305:Generated_Source\PSoC4/CapSense_SensingCSD_LL.c **** 
2306:Generated_Source\PSoC4/CapSense_SensingCSD_LL.c ****             watchdogCounter = CapSense_CSD_CALIBR_WATCHDOG_CYCLES_NUM;
2307:Generated_Source\PSoC4/CapSense_SensingCSD_LL.c ****             while (((CapSense_dsRam.status & CapSense_SW_STS_BUSY) != 0u) && (0uL != watchdogCounte
2308:Generated_Source\PSoC4/CapSense_SensingCSD_LL.c ****             {
2309:Generated_Source\PSoC4/CapSense_SensingCSD_LL.c ****                 watchdogCounter--;
2310:Generated_Source\PSoC4/CapSense_SensingCSD_LL.c ****             }
2311:Generated_Source\PSoC4/CapSense_SensingCSD_LL.c ****         }
2312:Generated_Source\PSoC4/CapSense_SensingCSD_LL.c **** 
2313:Generated_Source\PSoC4/CapSense_SensingCSD_LL.c ****         for(freqChannel = CapSense_NUM_SCAN_FREQS; freqChannel-- > 0u;)
2314:Generated_Source\PSoC4/CapSense_SensingCSD_LL.c ****         {
2315:Generated_Source\PSoC4/CapSense_SensingCSD_LL.c ****             ptrRamWidget->idacMod[freqChannel] = maxIdac[freqChannel];
2316:Generated_Source\PSoC4/CapSense_SensingCSD_LL.c ****             #if (CapSense_CSD_MATRIX_WIDGET_EN || CapSense_CSD_TOUCHPAD_WIDGET_EN)
2317:Generated_Source\PSoC4/CapSense_SensingCSD_LL.c ****                 if (0u != dualWidgetType)
2318:Generated_Source\PSoC4/CapSense_SensingCSD_LL.c ****                 {
2319:Generated_Source\PSoC4/CapSense_SensingCSD_LL.c ****                     ptrRamWidget->rowIdacMod[freqChannel] = maxRowIdac[freqChannel];
2320:Generated_Source\PSoC4/CapSense_SensingCSD_LL.c **** 
2321:Generated_Source\PSoC4/CapSense_SensingCSD_LL.c ****                     #if (CapSense_ENABLE == CapSense_CSD_COL_ROW_IDAC_ALIGNMENT_EN)
2322:Generated_Source\PSoC4/CapSense_SensingCSD_LL.c ****                         #if (CapSense_ENABLE == CapSense_CSD_COMMON_SNS_CLK_EN)
2323:Generated_Source\PSoC4/CapSense_SensingCSD_LL.c ****                             if (ptrRamWidget->idacMod[freqChannel] < ptrRamWidget->rowIdacMod[freqC
2324:Generated_Source\PSoC4/CapSense_SensingCSD_LL.c ****                             {
2325:Generated_Source\PSoC4/CapSense_SensingCSD_LL.c ****                                 temp = ptrRamWidget->rowIdacMod[freqChannel];
2326:Generated_Source\PSoC4/CapSense_SensingCSD_LL.c ****                                 if (temp > CapSense_CSD_CAL_IDAC_MAX_VALUE)
2327:Generated_Source\PSoC4/CapSense_SensingCSD_LL.c ****                                 {
2328:Generated_Source\PSoC4/CapSense_SensingCSD_LL.c ****                                     temp = CapSense_CSD_CAL_IDAC_MAX_VALUE;
2329:Generated_Source\PSoC4/CapSense_SensingCSD_LL.c ****                                 }
2330:Generated_Source\PSoC4/CapSense_SensingCSD_LL.c ****                                 ptrRamWidget->idacMod[freqChannel] = (uint8)temp;
2331:Generated_Source\PSoC4/CapSense_SensingCSD_LL.c ****                             }
2332:Generated_Source\PSoC4/CapSense_SensingCSD_LL.c ****                             else
2333:Generated_Source\PSoC4/CapSense_SensingCSD_LL.c ****                             {
2334:Generated_Source\PSoC4/CapSense_SensingCSD_LL.c ****                                 temp = ptrRamWidget->idacMod[freqChannel];
ARM GAS  C:\Users\zack.li\AppData\Local\Temp\ccTyLy6m.s 			page 58


2335:Generated_Source\PSoC4/CapSense_SensingCSD_LL.c ****                                 if (temp > CapSense_CSD_CAL_IDAC_MAX_VALUE)
2336:Generated_Source\PSoC4/CapSense_SensingCSD_LL.c ****                                 {
2337:Generated_Source\PSoC4/CapSense_SensingCSD_LL.c ****                                     temp = CapSense_CSD_CAL_IDAC_MAX_VALUE;
2338:Generated_Source\PSoC4/CapSense_SensingCSD_LL.c ****                                 }
2339:Generated_Source\PSoC4/CapSense_SensingCSD_LL.c ****                                 ptrRamWidget->rowIdacMod[freqChannel] = (uint8)temp;
2340:Generated_Source\PSoC4/CapSense_SensingCSD_LL.c ****                             }
2341:Generated_Source\PSoC4/CapSense_SensingCSD_LL.c ****                         #else
2342:Generated_Source\PSoC4/CapSense_SensingCSD_LL.c ****                             if (((uint32)ptrRamWidget->idacMod[freqChannel] * ptrRamWidget->snsClk)
2343:Generated_Source\PSoC4/CapSense_SensingCSD_LL.c ****                                 ((uint32)ptrRamWidget->rowIdacMod[freqChannel] * ptrRamWidget->rowS
2344:Generated_Source\PSoC4/CapSense_SensingCSD_LL.c ****                             {
2345:Generated_Source\PSoC4/CapSense_SensingCSD_LL.c ****                                 temp = ((uint32)ptrRamWidget->rowIdacMod[freqChannel] *
2346:Generated_Source\PSoC4/CapSense_SensingCSD_LL.c ****                                                 ptrRamWidget->rowSnsClk) / ptrRamWidget->snsClk;
2347:Generated_Source\PSoC4/CapSense_SensingCSD_LL.c ****                                 if (temp > CapSense_CSD_CAL_IDAC_MAX_VALUE)
2348:Generated_Source\PSoC4/CapSense_SensingCSD_LL.c ****                                 {
2349:Generated_Source\PSoC4/CapSense_SensingCSD_LL.c ****                                     temp = CapSense_CSD_CAL_IDAC_MAX_VALUE;
2350:Generated_Source\PSoC4/CapSense_SensingCSD_LL.c ****                                 }
2351:Generated_Source\PSoC4/CapSense_SensingCSD_LL.c ****                                 ptrRamWidget->idacMod[freqChannel] = (uint8)temp;
2352:Generated_Source\PSoC4/CapSense_SensingCSD_LL.c ****                             }
2353:Generated_Source\PSoC4/CapSense_SensingCSD_LL.c ****                             else
2354:Generated_Source\PSoC4/CapSense_SensingCSD_LL.c ****                             {
2355:Generated_Source\PSoC4/CapSense_SensingCSD_LL.c ****                                 temp = ((uint32)ptrRamWidget->idacMod[freqChannel] *
2356:Generated_Source\PSoC4/CapSense_SensingCSD_LL.c ****                                                 ptrRamWidget->snsClk) / ptrRamWidget->rowSnsClk;
2357:Generated_Source\PSoC4/CapSense_SensingCSD_LL.c ****                                 if (temp > CapSense_CSD_CAL_IDAC_MAX_VALUE)
2358:Generated_Source\PSoC4/CapSense_SensingCSD_LL.c ****                                 {
2359:Generated_Source\PSoC4/CapSense_SensingCSD_LL.c ****                                     temp = CapSense_CSD_CAL_IDAC_MAX_VALUE;
2360:Generated_Source\PSoC4/CapSense_SensingCSD_LL.c ****                                 }
2361:Generated_Source\PSoC4/CapSense_SensingCSD_LL.c ****                                 ptrRamWidget->rowIdacMod[freqChannel] = (uint8)temp;
2362:Generated_Source\PSoC4/CapSense_SensingCSD_LL.c ****                             }
2363:Generated_Source\PSoC4/CapSense_SensingCSD_LL.c ****                         #endif
2364:Generated_Source\PSoC4/CapSense_SensingCSD_LL.c ****                     #endif
2365:Generated_Source\PSoC4/CapSense_SensingCSD_LL.c ****                 }
2366:Generated_Source\PSoC4/CapSense_SensingCSD_LL.c ****             #endif
2367:Generated_Source\PSoC4/CapSense_SensingCSD_LL.c ****         }
2368:Generated_Source\PSoC4/CapSense_SensingCSD_LL.c ****     }
2369:Generated_Source\PSoC4/CapSense_SensingCSD_LL.c **** 
2370:Generated_Source\PSoC4/CapSense_SensingCSD_LL.c **** 
2371:Generated_Source\PSoC4/CapSense_SensingCSD_LL.c ****     /*******************************************************************************
2372:Generated_Source\PSoC4/CapSense_SensingCSD_LL.c ****     * Function Name: CapSense_CSDCalibrateWidget
2373:Generated_Source\PSoC4/CapSense_SensingCSD_LL.c ****     ****************************************************************************//**
2374:Generated_Source\PSoC4/CapSense_SensingCSD_LL.c ****     *
2375:Generated_Source\PSoC4/CapSense_SensingCSD_LL.c ****     * \brief
2376:Generated_Source\PSoC4/CapSense_SensingCSD_LL.c ****     *  Executes the IDAC calibration for all the sensors in the widget specified in
2377:Generated_Source\PSoC4/CapSense_SensingCSD_LL.c ****     *  the input.
2378:Generated_Source\PSoC4/CapSense_SensingCSD_LL.c ****     *
2379:Generated_Source\PSoC4/CapSense_SensingCSD_LL.c ****     * \details
2380:Generated_Source\PSoC4/CapSense_SensingCSD_LL.c ****     *  Executes the IDAC calibration for all the sensors in the widget specified in
2381:Generated_Source\PSoC4/CapSense_SensingCSD_LL.c ****     *  the input.
2382:Generated_Source\PSoC4/CapSense_SensingCSD_LL.c ****     *
2383:Generated_Source\PSoC4/CapSense_SensingCSD_LL.c ****     *  \note This function is obsolete and kept for backward compatibility only.
2384:Generated_Source\PSoC4/CapSense_SensingCSD_LL.c ****     *  The CapSense_CalibrateWidget() function should be used instead.
2385:Generated_Source\PSoC4/CapSense_SensingCSD_LL.c ****     *
2386:Generated_Source\PSoC4/CapSense_SensingCSD_LL.c ****     *  Performs a successive approximation search algorithm to find appropriate
2387:Generated_Source\PSoC4/CapSense_SensingCSD_LL.c ****     *  IDAC values for sensors in the specified widget that provides the raw
2388:Generated_Source\PSoC4/CapSense_SensingCSD_LL.c ****     *  count to the level specified by the target parameter.
2389:Generated_Source\PSoC4/CapSense_SensingCSD_LL.c ****     *
2390:Generated_Source\PSoC4/CapSense_SensingCSD_LL.c ****     *  Calibration fails if the achieved raw count is outside of the range specified
2391:Generated_Source\PSoC4/CapSense_SensingCSD_LL.c ****     *  by the target and acceptable calibration deviation.
ARM GAS  C:\Users\zack.li\AppData\Local\Temp\ccTyLy6m.s 			page 59


2392:Generated_Source\PSoC4/CapSense_SensingCSD_LL.c ****     *
2393:Generated_Source\PSoC4/CapSense_SensingCSD_LL.c ****     *  This function is available when the CSD Enable IDAC auto-calibration
2394:Generated_Source\PSoC4/CapSense_SensingCSD_LL.c ****     *  parameter is enabled or the  SmartSense auto-tuning mode is configured.
2395:Generated_Source\PSoC4/CapSense_SensingCSD_LL.c ****     *
2396:Generated_Source\PSoC4/CapSense_SensingCSD_LL.c ****     * \param widgetId
2397:Generated_Source\PSoC4/CapSense_SensingCSD_LL.c ****     *  Specifies the ID number of the CSD widget to calibrate its raw count.
2398:Generated_Source\PSoC4/CapSense_SensingCSD_LL.c ****     *  A macro for the widget ID can be found in the
2399:Generated_Source\PSoC4/CapSense_SensingCSD_LL.c ****     *  CapSense Configuration header file defined as
2400:Generated_Source\PSoC4/CapSense_SensingCSD_LL.c ****     *  CapSense_<WidgetName>_WDGT_ID.
2401:Generated_Source\PSoC4/CapSense_SensingCSD_LL.c ****     *
2402:Generated_Source\PSoC4/CapSense_SensingCSD_LL.c ****     * \param target
2403:Generated_Source\PSoC4/CapSense_SensingCSD_LL.c ****     *  Specifies the calibration target in percentages of the maximum raw count.
2404:Generated_Source\PSoC4/CapSense_SensingCSD_LL.c ****     *
2405:Generated_Source\PSoC4/CapSense_SensingCSD_LL.c ****     * \return
2406:Generated_Source\PSoC4/CapSense_SensingCSD_LL.c ****     *  Returns the status of the specified widget calibration:
2407:Generated_Source\PSoC4/CapSense_SensingCSD_LL.c ****     *    - CYRET_SUCCESS - The operation is successfully completed.
2408:Generated_Source\PSoC4/CapSense_SensingCSD_LL.c ****     *    - CYRET_BAD_PARAM - The input parameter is invalid.
2409:Generated_Source\PSoC4/CapSense_SensingCSD_LL.c ****     *    - CYRET_BAD_DATA - The calibration failed and the Component may not operate
2410:Generated_Source\PSoC4/CapSense_SensingCSD_LL.c ****     *      as expected.
2411:Generated_Source\PSoC4/CapSense_SensingCSD_LL.c ****     *    - CYRET_TIMEOUT - The calibration failed due to timeout.
2412:Generated_Source\PSoC4/CapSense_SensingCSD_LL.c ****     *    - CYRET_INVALID_STATE - The previous scanning is not completed and the
2413:Generated_Source\PSoC4/CapSense_SensingCSD_LL.c ****     *      hardware block is busy.
2414:Generated_Source\PSoC4/CapSense_SensingCSD_LL.c ****     *
2415:Generated_Source\PSoC4/CapSense_SensingCSD_LL.c ****     *******************************************************************************/
2416:Generated_Source\PSoC4/CapSense_SensingCSD_LL.c ****     cystatus CapSense_CSDCalibrateWidget(uint32 widgetId, uint32 target)
2417:Generated_Source\PSoC4/CapSense_SensingCSD_LL.c ****     {
2418:Generated_Source\PSoC4/CapSense_SensingCSD_LL.c ****         cystatus calibrateStatus = CYRET_SUCCESS;
2419:Generated_Source\PSoC4/CapSense_SensingCSD_LL.c ****         uint32 watchdogCounter;
2420:Generated_Source\PSoC4/CapSense_SensingCSD_LL.c **** 
2421:Generated_Source\PSoC4/CapSense_SensingCSD_LL.c ****         #if (CapSense_ENABLE == CapSense_CSD_IDAC_AUTO_GAIN_EN)
2422:Generated_Source\PSoC4/CapSense_SensingCSD_LL.c ****             uint32 gainSwitch;
2423:Generated_Source\PSoC4/CapSense_SensingCSD_LL.c ****         #endif
2424:Generated_Source\PSoC4/CapSense_SensingCSD_LL.c **** 
2425:Generated_Source\PSoC4/CapSense_SensingCSD_LL.c ****         CapSense_FLASH_WD_STRUCT const *ptrFlashWidget = &CapSense_dsFlash.wdgtArray[widgetId];
2426:Generated_Source\PSoC4/CapSense_SensingCSD_LL.c **** 
2427:Generated_Source\PSoC4/CapSense_SensingCSD_LL.c ****         if (CapSense_WDGT_SW_STS_BUSY == (CapSense_dsRam.status & CapSense_WDGT_SW_STS_BUSY))
2428:Generated_Source\PSoC4/CapSense_SensingCSD_LL.c ****         {
2429:Generated_Source\PSoC4/CapSense_SensingCSD_LL.c ****             /* Previous widget is being scanned, return error */
2430:Generated_Source\PSoC4/CapSense_SensingCSD_LL.c ****             calibrateStatus = CYRET_INVALID_STATE;
2431:Generated_Source\PSoC4/CapSense_SensingCSD_LL.c ****         }
2432:Generated_Source\PSoC4/CapSense_SensingCSD_LL.c ****         else
2433:Generated_Source\PSoC4/CapSense_SensingCSD_LL.c ****         {
2434:Generated_Source\PSoC4/CapSense_SensingCSD_LL.c ****             /* Set default IDAC gain */
2435:Generated_Source\PSoC4/CapSense_SensingCSD_LL.c ****             ((CapSense_RAM_WD_BASE_STRUCT *)ptrFlashWidget->ptr2WdgtRam)->idacGainIndex =
2436:Generated_Source\PSoC4/CapSense_SensingCSD_LL.c ****                 CapSense_CSD_IDAC_GAIN_INDEX_DEFAULT;
2437:Generated_Source\PSoC4/CapSense_SensingCSD_LL.c **** 
2438:Generated_Source\PSoC4/CapSense_SensingCSD_LL.c ****             /* Perform calibration */
2439:Generated_Source\PSoC4/CapSense_SensingCSD_LL.c ****             #if (CapSense_ENABLE != CapSense_CSD_IDAC_AUTO_GAIN_EN)
2440:Generated_Source\PSoC4/CapSense_SensingCSD_LL.c ****                 CapSense_SsCSDCalibrate(widgetId, target);
2441:Generated_Source\PSoC4/CapSense_SensingCSD_LL.c ****             #else
2442:Generated_Source\PSoC4/CapSense_SensingCSD_LL.c ****                 do
2443:Generated_Source\PSoC4/CapSense_SensingCSD_LL.c ****                 {
2444:Generated_Source\PSoC4/CapSense_SensingCSD_LL.c ****                     CapSense_SsCSDCalibrate(widgetId, target);
2445:Generated_Source\PSoC4/CapSense_SensingCSD_LL.c ****                     gainSwitch = CapSense_SsCSDSwitchIdacGain(ptrFlashWidget);
2446:Generated_Source\PSoC4/CapSense_SensingCSD_LL.c ****                 } while(0u != gainSwitch);
2447:Generated_Source\PSoC4/CapSense_SensingCSD_LL.c ****             #endif
2448:Generated_Source\PSoC4/CapSense_SensingCSD_LL.c **** 
ARM GAS  C:\Users\zack.li\AppData\Local\Temp\ccTyLy6m.s 			page 60


2449:Generated_Source\PSoC4/CapSense_SensingCSD_LL.c ****             #if (CapSense_ENABLE == CapSense_CSD_IDAC_COMP_EN)
2450:Generated_Source\PSoC4/CapSense_SensingCSD_LL.c ****                 /* IDAC Normalization in Dual IDAC mode */
2451:Generated_Source\PSoC4/CapSense_SensingCSD_LL.c ****                 CapSense_SsCSDNormalizeIdac(ptrFlashWidget, target);
2452:Generated_Source\PSoC4/CapSense_SensingCSD_LL.c ****             #endif
2453:Generated_Source\PSoC4/CapSense_SensingCSD_LL.c **** 
2454:Generated_Source\PSoC4/CapSense_SensingCSD_LL.c ****             /* Perform specified widget scan to check calibration result */
2455:Generated_Source\PSoC4/CapSense_SensingCSD_LL.c ****             CapSense_CSDSetupWidget(widgetId);
2456:Generated_Source\PSoC4/CapSense_SensingCSD_LL.c ****             CapSense_CSDScan();
2457:Generated_Source\PSoC4/CapSense_SensingCSD_LL.c **** 
2458:Generated_Source\PSoC4/CapSense_SensingCSD_LL.c ****             watchdogCounter = CapSense_WIDGET_MAX_SCAN_TIME;
2459:Generated_Source\PSoC4/CapSense_SensingCSD_LL.c ****             while (((CapSense_dsRam.status & CapSense_SW_STS_BUSY) != 0u) && (0uL != watchdogCounte
2460:Generated_Source\PSoC4/CapSense_SensingCSD_LL.c ****             {
2461:Generated_Source\PSoC4/CapSense_SensingCSD_LL.c ****                 watchdogCounter--;
2462:Generated_Source\PSoC4/CapSense_SensingCSD_LL.c ****             }
2463:Generated_Source\PSoC4/CapSense_SensingCSD_LL.c **** 
2464:Generated_Source\PSoC4/CapSense_SensingCSD_LL.c ****             /* Verification of calibration result */
2465:Generated_Source\PSoC4/CapSense_SensingCSD_LL.c ****             if (0u == watchdogCounter)
2466:Generated_Source\PSoC4/CapSense_SensingCSD_LL.c ****             {
2467:Generated_Source\PSoC4/CapSense_SensingCSD_LL.c ****                 calibrateStatus = CYRET_TIMEOUT;
2468:Generated_Source\PSoC4/CapSense_SensingCSD_LL.c ****             }
2469:Generated_Source\PSoC4/CapSense_SensingCSD_LL.c ****             else
2470:Generated_Source\PSoC4/CapSense_SensingCSD_LL.c ****             {
2471:Generated_Source\PSoC4/CapSense_SensingCSD_LL.c ****                 calibrateStatus = CapSense_SsCSDCalibrateCheck(widgetId, target);
2472:Generated_Source\PSoC4/CapSense_SensingCSD_LL.c ****             }
2473:Generated_Source\PSoC4/CapSense_SensingCSD_LL.c **** 
2474:Generated_Source\PSoC4/CapSense_SensingCSD_LL.c ****              /* Update CRC */
2475:Generated_Source\PSoC4/CapSense_SensingCSD_LL.c ****             #if (CapSense_ENABLE ==CapSense_TST_WDGT_CRC_EN)
2476:Generated_Source\PSoC4/CapSense_SensingCSD_LL.c ****                 CapSense_DsUpdateWidgetCrc(widgetId);
2477:Generated_Source\PSoC4/CapSense_SensingCSD_LL.c ****             #endif
2478:Generated_Source\PSoC4/CapSense_SensingCSD_LL.c ****         }
2479:Generated_Source\PSoC4/CapSense_SensingCSD_LL.c **** 
2480:Generated_Source\PSoC4/CapSense_SensingCSD_LL.c ****         return calibrateStatus;
2481:Generated_Source\PSoC4/CapSense_SensingCSD_LL.c ****     }
2482:Generated_Source\PSoC4/CapSense_SensingCSD_LL.c **** #endif /* ((CapSense_CSD_SS_DIS != CapSense_CSD_AUTOTUNE)) || \
2483:Generated_Source\PSoC4/CapSense_SensingCSD_LL.c ****             (CapSense_ENABLE == CapSense_CSD_IDAC_AUTOCAL_EN)) */
2484:Generated_Source\PSoC4/CapSense_SensingCSD_LL.c **** 
2485:Generated_Source\PSoC4/CapSense_SensingCSD_LL.c **** 
2486:Generated_Source\PSoC4/CapSense_SensingCSD_LL.c **** #if (CapSense_DISABLE == CapSense_CSDV2)
2487:Generated_Source\PSoC4/CapSense_SensingCSD_LL.c ****     /*******************************************************************************
2488:Generated_Source\PSoC4/CapSense_SensingCSD_LL.c ****     * Function Name: CapSense_SsCSDClockRestart
2489:Generated_Source\PSoC4/CapSense_SensingCSD_LL.c ****     ****************************************************************************//**
2490:Generated_Source\PSoC4/CapSense_SensingCSD_LL.c ****     *
2491:Generated_Source\PSoC4/CapSense_SensingCSD_LL.c ****     * \brief
2492:Generated_Source\PSoC4/CapSense_SensingCSD_LL.c ****     *  This function restarts the clocks.
2493:Generated_Source\PSoC4/CapSense_SensingCSD_LL.c ****     *
2494:Generated_Source\PSoC4/CapSense_SensingCSD_LL.c ****     * \details
2495:Generated_Source\PSoC4/CapSense_SensingCSD_LL.c ****     *  The function performs following:
2496:Generated_Source\PSoC4/CapSense_SensingCSD_LL.c ****     *  1) Stops, sets dividers and starts ModClk clock;
2497:Generated_Source\PSoC4/CapSense_SensingCSD_LL.c ****     *  2) Stops and starts SnsClk clock;
2498:Generated_Source\PSoC4/CapSense_SensingCSD_LL.c ****     *  3) Scan one cycle to reset the flip-flop for Direct clock mode.
2499:Generated_Source\PSoC4/CapSense_SensingCSD_LL.c ****     *
2500:Generated_Source\PSoC4/CapSense_SensingCSD_LL.c ****     *******************************************************************************/
2501:Generated_Source\PSoC4/CapSense_SensingCSD_LL.c ****     CY_INLINE static void CapSense_SsCSDClockRestart(void)
2502:Generated_Source\PSoC4/CapSense_SensingCSD_LL.c ****     {
2503:Generated_Source\PSoC4/CapSense_SensingCSD_LL.c ****         #if (CapSense_CLK_SOURCE_DIRECT == CapSense_CSD_SNS_CLK_SOURCE)
2504:Generated_Source\PSoC4/CapSense_SensingCSD_LL.c ****             uint32 watchdogCounter;
2505:Generated_Source\PSoC4/CapSense_SensingCSD_LL.c ****         #endif /* (CapSense_CLK_SOURCE_DIRECT == CapSense_CSD_SNS_CLK_SOURCE) */
ARM GAS  C:\Users\zack.li\AppData\Local\Temp\ccTyLy6m.s 			page 61


2506:Generated_Source\PSoC4/CapSense_SensingCSD_LL.c **** 
2507:Generated_Source\PSoC4/CapSense_SensingCSD_LL.c ****         /* Stop clocks, set dividers, and start clock to align clock phase */
2508:Generated_Source\PSoC4/CapSense_SensingCSD_LL.c ****         CapSense_SsSetModClkClockDivider((uint32)CapSense_dsRam.modCsdClk);
2509:Generated_Source\PSoC4/CapSense_SensingCSD_LL.c **** 
2510:Generated_Source\PSoC4/CapSense_SensingCSD_LL.c ****         #if (CapSense_ENABLE == CapSense_IS_M0S8PERI_BLOCK)
2511:Generated_Source\PSoC4/CapSense_SensingCSD_LL.c ****             /* Stop sense clock clock   */
2512:Generated_Source\PSoC4/CapSense_SensingCSD_LL.c ****             CY_SET_REG32(CapSense_SNSCLK_CMD_PTR,
2513:Generated_Source\PSoC4/CapSense_SensingCSD_LL.c ****                          ((uint32)CapSense_SnsClk__DIV_ID <<
2514:Generated_Source\PSoC4/CapSense_SensingCSD_LL.c ****                          CapSense_SNSCLK_CMD_DIV_SHIFT)|
2515:Generated_Source\PSoC4/CapSense_SensingCSD_LL.c ****                          ((uint32)CapSense_SNSCLK_CMD_DISABLE_MASK));
2516:Generated_Source\PSoC4/CapSense_SensingCSD_LL.c **** 
2517:Generated_Source\PSoC4/CapSense_SensingCSD_LL.c ****             /* Check whether previous sense clock start command has finished. */
2518:Generated_Source\PSoC4/CapSense_SensingCSD_LL.c ****             while(0u != (CY_GET_REG32(CapSense_SNSCLK_CMD_PTR) & CapSense_SNSCLK_CMD_ENABLE_MASK))
2519:Generated_Source\PSoC4/CapSense_SensingCSD_LL.c ****             {
2520:Generated_Source\PSoC4/CapSense_SensingCSD_LL.c ****                 /* Wait until previous sense clock start command has finished. */
2521:Generated_Source\PSoC4/CapSense_SensingCSD_LL.c ****             }
2522:Generated_Source\PSoC4/CapSense_SensingCSD_LL.c **** 
2523:Generated_Source\PSoC4/CapSense_SensingCSD_LL.c ****             /* Start sense clock aligned to previously started modulator clock. */
2524:Generated_Source\PSoC4/CapSense_SensingCSD_LL.c ****             CY_SET_REG32(CapSense_SNSCLK_CMD_PTR,
2525:Generated_Source\PSoC4/CapSense_SensingCSD_LL.c ****                          (uint32)(((uint32)CapSense_SnsClk__DIV_ID << CapSense_SNSCLK_CMD_DIV_SHIFT
2526:Generated_Source\PSoC4/CapSense_SensingCSD_LL.c ****                           ((uint32)CapSense_ModClk__PA_DIV_ID << CapSense_SNSCLK_CMD_PA_DIV_SHIFT) 
2527:Generated_Source\PSoC4/CapSense_SensingCSD_LL.c ****                           CapSense_SNSCLK_CMD_ENABLE_MASK));
2528:Generated_Source\PSoC4/CapSense_SensingCSD_LL.c ****         #else
2529:Generated_Source\PSoC4/CapSense_SensingCSD_LL.c ****             /* Clear bit to disable SnsClk clock. */
2530:Generated_Source\PSoC4/CapSense_SensingCSD_LL.c ****             CY_SET_REG32(CapSense_SNSCLK_CMD_PTR,
2531:Generated_Source\PSoC4/CapSense_SensingCSD_LL.c ****                          CY_GET_REG32(CapSense_SNSCLK_CMD_PTR) &
2532:Generated_Source\PSoC4/CapSense_SensingCSD_LL.c ****                          (uint32)(~(uint32)CapSense_SnsClk__ENABLE_MASK));
2533:Generated_Source\PSoC4/CapSense_SensingCSD_LL.c **** 
2534:Generated_Source\PSoC4/CapSense_SensingCSD_LL.c ****             /* Set bit to enable SnsClk clock. */
2535:Generated_Source\PSoC4/CapSense_SensingCSD_LL.c ****             CY_SET_REG32(CapSense_SNSCLK_CMD_PTR,
2536:Generated_Source\PSoC4/CapSense_SensingCSD_LL.c ****                          CY_GET_REG32(CapSense_SNSCLK_CMD_PTR) |
2537:Generated_Source\PSoC4/CapSense_SensingCSD_LL.c ****                         CapSense_SnsClk__ENABLE_MASK);
2538:Generated_Source\PSoC4/CapSense_SensingCSD_LL.c ****         #endif /* (CapSense_ENABLE == CapSense_IS_M0S8PERI_BLOCK) */
2539:Generated_Source\PSoC4/CapSense_SensingCSD_LL.c **** 
2540:Generated_Source\PSoC4/CapSense_SensingCSD_LL.c ****         #if (CapSense_CLK_SOURCE_DIRECT == CapSense_CSD_SNS_CLK_SOURCE)
2541:Generated_Source\PSoC4/CapSense_SensingCSD_LL.c ****             /* Scan one cycle to reset the flip-flop for Direct clock mode */
2542:Generated_Source\PSoC4/CapSense_SensingCSD_LL.c ****             CyIntDisable(CapSense_ISR_NUMBER);
2543:Generated_Source\PSoC4/CapSense_SensingCSD_LL.c ****             CY_SET_REG32(CapSense_COUNTER_PTR, CapSense_ONE_CYCLE);
2544:Generated_Source\PSoC4/CapSense_SensingCSD_LL.c **** 
2545:Generated_Source\PSoC4/CapSense_SensingCSD_LL.c ****             watchdogCounter = CapSense_ONE_CLOCK_WATCHDOG_CYCLES_NUM;
2546:Generated_Source\PSoC4/CapSense_SensingCSD_LL.c ****             while((0u != (CY_GET_REG32(CapSense_COUNTER_PTR) & CapSense_RESOLUTION_16_BITS)) && (0u
2547:Generated_Source\PSoC4/CapSense_SensingCSD_LL.c ****             {
2548:Generated_Source\PSoC4/CapSense_SensingCSD_LL.c ****                 watchdogCounter--;
2549:Generated_Source\PSoC4/CapSense_SensingCSD_LL.c ****             }
2550:Generated_Source\PSoC4/CapSense_SensingCSD_LL.c ****             CY_SET_REG32(CapSense_INTR_PTR, CapSense_INTR_SET_MASK);
2551:Generated_Source\PSoC4/CapSense_SensingCSD_LL.c ****             CyIntClearPending(CapSense_ISR_NUMBER);
2552:Generated_Source\PSoC4/CapSense_SensingCSD_LL.c ****         #endif /* (CapSense_CLK_SOURCE_DIRECT == CapSense_CSD_SNS_CLK_SOURCE) */
2553:Generated_Source\PSoC4/CapSense_SensingCSD_LL.c ****     }
2554:Generated_Source\PSoC4/CapSense_SensingCSD_LL.c **** #endif /* (CapSense_DISABLE == CapSense_CSDV2) */
2555:Generated_Source\PSoC4/CapSense_SensingCSD_LL.c **** 
2556:Generated_Source\PSoC4/CapSense_SensingCSD_LL.c **** 
2557:Generated_Source\PSoC4/CapSense_SensingCSD_LL.c **** /*******************************************************************************
2558:Generated_Source\PSoC4/CapSense_SensingCSD_LL.c **** * Function Name: CapSense_SsCSDCmodPrecharge
2559:Generated_Source\PSoC4/CapSense_SensingCSD_LL.c **** ****************************************************************************//**
2560:Generated_Source\PSoC4/CapSense_SensingCSD_LL.c **** *
2561:Generated_Source\PSoC4/CapSense_SensingCSD_LL.c **** * \brief
2562:Generated_Source\PSoC4/CapSense_SensingCSD_LL.c **** *  This function initializes the Cmod charging to Vref.
ARM GAS  C:\Users\zack.li\AppData\Local\Temp\ccTyLy6m.s 			page 62


2563:Generated_Source\PSoC4/CapSense_SensingCSD_LL.c **** *
2564:Generated_Source\PSoC4/CapSense_SensingCSD_LL.c **** * \details
2565:Generated_Source\PSoC4/CapSense_SensingCSD_LL.c **** *  For Third-generation HW block:
2566:Generated_Source\PSoC4/CapSense_SensingCSD_LL.c **** *  The function initializes the Cmod charging to Vref.
2567:Generated_Source\PSoC4/CapSense_SensingCSD_LL.c **** *  Then it waits the even when Cmod is completely charged
2568:Generated_Source\PSoC4/CapSense_SensingCSD_LL.c **** *  to Vref to have stable raw counts. Software Watchdog Counter is implemented to
2569:Generated_Source\PSoC4/CapSense_SensingCSD_LL.c **** *  prevent the project hanging.
2570:Generated_Source\PSoC4/CapSense_SensingCSD_LL.c **** *
2571:Generated_Source\PSoC4/CapSense_SensingCSD_LL.c **** *  For Fourth-generation HW block:
2572:Generated_Source\PSoC4/CapSense_SensingCSD_LL.c **** *  Coarse initialization for CMOD and Cch.
2573:Generated_Source\PSoC4/CapSense_SensingCSD_LL.c **** *  The coarse initialization is performed by HSCOMP.
2574:Generated_Source\PSoC4/CapSense_SensingCSD_LL.c **** *  The HSCOMP monitors the Cmod voltage via Cmod sense path
2575:Generated_Source\PSoC4/CapSense_SensingCSD_LL.c **** *  and charges the Cmod using HCAV switch via CSDBUS-A, AMUXBUS-A
2576:Generated_Source\PSoC4/CapSense_SensingCSD_LL.c **** *  and static connection of Cmod to AMUXBUS-A.
2577:Generated_Source\PSoC4/CapSense_SensingCSD_LL.c **** *
2578:Generated_Source\PSoC4/CapSense_SensingCSD_LL.c **** *******************************************************************************/
2579:Generated_Source\PSoC4/CapSense_SensingCSD_LL.c **** CY_INLINE static void CapSense_SsCSDCmodPrecharge(void)
2580:Generated_Source\PSoC4/CapSense_SensingCSD_LL.c **** {
2581:Generated_Source\PSoC4/CapSense_SensingCSD_LL.c ****     #if (CapSense_ENABLE == CapSense_CSDV2)
2582:Generated_Source\PSoC4/CapSense_SensingCSD_LL.c ****         uint32 watchdogCounter;
2583:Generated_Source\PSoC4/CapSense_SensingCSD_LL.c ****         /* Fourth-generation HW block section */
2584:Generated_Source\PSoC4/CapSense_SensingCSD_LL.c **** 
2585:Generated_Source\PSoC4/CapSense_SensingCSD_LL.c ****         CY_SET_REG32(CapSense_CSDCMP_PTR, CapSense_CSD_CSDCMP_INIT);
2586:Generated_Source\PSoC4/CapSense_SensingCSD_LL.c ****         CY_SET_REG32(CapSense_SW_FW_MOD_SEL_PTR,  CapSense_CSD_SW_FW_MOD_SEL_INIT);
2587:Generated_Source\PSoC4/CapSense_SensingCSD_LL.c ****         CY_SET_REG32(CapSense_SW_FW_TANK_SEL_PTR, CapSense_CSD_SW_FW_TANK_SEL_INIT);
2588:Generated_Source\PSoC4/CapSense_SensingCSD_LL.c ****         CY_SET_REG32(CapSense_SW_SHIELD_SEL_PTR,  CapSense_CSD_SW_SHIELD_SEL_INIT);
 831              		.loc 1 2588 0
 832 0012 0622     		movs	r2, #6
2585:Generated_Source\PSoC4/CapSense_SensingCSD_LL.c ****         CY_SET_REG32(CapSense_SW_FW_MOD_SEL_PTR,  CapSense_CSD_SW_FW_MOD_SEL_INIT);
 833              		.loc 1 2585 0
 834 0014 0023     		movs	r3, #0
 835 0016 324E     		ldr	r6, .L56+4
2586:Generated_Source\PSoC4/CapSense_SensingCSD_LL.c ****         CY_SET_REG32(CapSense_SW_FW_TANK_SEL_PTR, CapSense_CSD_SW_FW_TANK_SEL_INIT);
 836              		.loc 1 2586 0
 837 0018 324D     		ldr	r5, .L56+8
2587:Generated_Source\PSoC4/CapSense_SensingCSD_LL.c ****         CY_SET_REG32(CapSense_SW_SHIELD_SEL_PTR,  CapSense_CSD_SW_SHIELD_SEL_INIT);
 838              		.loc 1 2587 0
 839 001a 334C     		ldr	r4, .L56+12
 840              		.loc 1 2588 0
 841 001c 3348     		ldr	r0, .L56+16
2589:Generated_Source\PSoC4/CapSense_SensingCSD_LL.c ****         #if (CapSense_ENABLE == CapSense_CSD_SHIELD_EN)
2590:Generated_Source\PSoC4/CapSense_SensingCSD_LL.c ****             /*
2591:Generated_Source\PSoC4/CapSense_SensingCSD_LL.c ****              * Connect CMOD to (sense path) to HSCOMP: HMPM or HMPS or HMPT switches depend on Cmod
2592:Generated_Source\PSoC4/CapSense_SensingCSD_LL.c ****              * Connect AMUXBUS-B to HSCMP positive input
2593:Generated_Source\PSoC4/CapSense_SensingCSD_LL.c ****              */
2594:Generated_Source\PSoC4/CapSense_SensingCSD_LL.c ****             CY_SET_REG32(CapSense_SW_HS_P_SEL_PTR, CapSense_SW_HS_P_SEL_COARSE);
 842              		.loc 1 2594 0
 843 001e 3449     		ldr	r1, .L56+20
2585:Generated_Source\PSoC4/CapSense_SensingCSD_LL.c ****         CY_SET_REG32(CapSense_SW_FW_MOD_SEL_PTR,  CapSense_CSD_SW_FW_MOD_SEL_INIT);
 844              		.loc 1 2585 0
 845 0020 3360     		str	r3, [r6]
2586:Generated_Source\PSoC4/CapSense_SensingCSD_LL.c ****         CY_SET_REG32(CapSense_SW_FW_TANK_SEL_PTR, CapSense_CSD_SW_FW_TANK_SEL_INIT);
 846              		.loc 1 2586 0
 847 0022 2B60     		str	r3, [r5]
2587:Generated_Source\PSoC4/CapSense_SensingCSD_LL.c ****         CY_SET_REG32(CapSense_SW_SHIELD_SEL_PTR,  CapSense_CSD_SW_SHIELD_SEL_INIT);
 848              		.loc 1 2587 0
 849 0024 2360     		str	r3, [r4]
ARM GAS  C:\Users\zack.li\AppData\Local\Temp\ccTyLy6m.s 			page 63


2588:Generated_Source\PSoC4/CapSense_SensingCSD_LL.c ****         #if (CapSense_ENABLE == CapSense_CSD_SHIELD_EN)
 850              		.loc 1 2588 0
 851 0026 0260     		str	r2, [r0]
 852              		.loc 1 2594 0
 853 0028 FA32     		adds	r2, r2, #250
 854 002a 0A60     		str	r2, [r1]
2595:Generated_Source\PSoC4/CapSense_SensingCSD_LL.c **** 
2596:Generated_Source\PSoC4/CapSense_SensingCSD_LL.c ****             #if(0u != CapSense_CSD_SHIELD_TANK_EN)
2597:Generated_Source\PSoC4/CapSense_SensingCSD_LL.c ****                 /* Connect CTANK to AMUXBUS-A */
2598:Generated_Source\PSoC4/CapSense_SensingCSD_LL.c ****                 CapSense_WriteBitsSafe(CapSense_CSH_HSIOM_PTR, CapSense_CSH_HSIOM_MASK,
2599:Generated_Source\PSoC4/CapSense_SensingCSD_LL.c ****                     (uint32)(CapSense_HSIOM_SEL_AMUXA << CapSense_CSH_HSIOM_SHIFT));
2600:Generated_Source\PSoC4/CapSense_SensingCSD_LL.c ****             #endif /* (0u != CapSense_CSD_SHIELD_TANK_EN) */
2601:Generated_Source\PSoC4/CapSense_SensingCSD_LL.c ****         #else
2602:Generated_Source\PSoC4/CapSense_SensingCSD_LL.c ****             /* Connect CMOD to (sense path) to HSCOMP: HMPM or HMPS or HMPT switches depend on Cmod
2603:Generated_Source\PSoC4/CapSense_SensingCSD_LL.c ****             CY_SET_REG32(CapSense_SW_HS_P_SEL_PTR, CapSense_SW_HS_P_SEL_COARSE);
2604:Generated_Source\PSoC4/CapSense_SensingCSD_LL.c ****         #endif /* (CapSense_ENABLE == CapSense_CSD_SHIELD_EN) */
2605:Generated_Source\PSoC4/CapSense_SensingCSD_LL.c **** 
2606:Generated_Source\PSoC4/CapSense_SensingCSD_LL.c ****         CY_SET_REG32(CapSense_SW_RES_PTR, CapSense_CSD_SW_RES_INIT);
 855              		.loc 1 2606 0
 856 002c 6146     		mov	r1, ip
 857 002e 314A     		ldr	r2, .L56+24
 858 0030 1160     		str	r1, [r2]
2607:Generated_Source\PSoC4/CapSense_SensingCSD_LL.c **** 
2608:Generated_Source\PSoC4/CapSense_SensingCSD_LL.c ****         /* Clear all interrupt pending requests */
2609:Generated_Source\PSoC4/CapSense_SensingCSD_LL.c ****         CY_SET_REG32(CapSense_INTR_PTR, CapSense_INTR_ALL_MASK);
 859              		.loc 1 2609 0
 860 0032 0631     		adds	r1, r1, #6
 861 0034 FF31     		adds	r1, r1, #255
 862 0036 8C46     		mov	ip, r1
 863 0038 6246     		mov	r2, ip
 864 003a 2F49     		ldr	r1, .L56+28
 865 003c 0A60     		str	r2, [r1]
2610:Generated_Source\PSoC4/CapSense_SensingCSD_LL.c **** 
2611:Generated_Source\PSoC4/CapSense_SensingCSD_LL.c ****         CY_SET_REG32(CapSense_INTR_MASK_PTR, CapSense_CLEAR_MASK);
 866              		.loc 1 2611 0
 867 003e 2F4A     		ldr	r2, .L56+32
 868 0040 9446     		mov	ip, r2
 869 0042 1360     		str	r3, [r2]
2612:Generated_Source\PSoC4/CapSense_SensingCSD_LL.c **** 
2613:Generated_Source\PSoC4/CapSense_SensingCSD_LL.c ****         /* Start SEQUENCER for coarse initialization for Cmod */
2614:Generated_Source\PSoC4/CapSense_SensingCSD_LL.c ****         CY_SET_REG32(CapSense_SEQ_START_PTR, CapSense_SEQ_START_SEQ_MODE_MASK |
 870              		.loc 1 2614 0
 871 0044 2E4A     		ldr	r2, .L56+36
 872 0046 0333     		adds	r3, r3, #3
 873 0048 1360     		str	r3, [r2]
 874              	.LVL89:
 875 004a 0395     		str	r5, [sp, #12]
 876 004c 0A00     		movs	r2, r1
 877 004e 6546     		mov	r5, ip
2615:Generated_Source\PSoC4/CapSense_SensingCSD_LL.c ****                                                          CapSense_SEQ_START_START_MASK);
2616:Generated_Source\PSoC4/CapSense_SensingCSD_LL.c **** 
2617:Generated_Source\PSoC4/CapSense_SensingCSD_LL.c ****         /* Init Watchdog Counter to prevent a hang */
2618:Generated_Source\PSoC4/CapSense_SensingCSD_LL.c ****         watchdogCounter = CapSense_CSD_PRECHARGE_WATCHDOG_CYCLES_NUM;
2619:Generated_Source\PSoC4/CapSense_SensingCSD_LL.c **** 
2620:Generated_Source\PSoC4/CapSense_SensingCSD_LL.c ****         /* Wait for INTR.INIT goes high */
2621:Generated_Source\PSoC4/CapSense_SensingCSD_LL.c ****         while((0u == (CY_GET_REG32(CapSense_INTR_PTR) & CapSense_INTR_INIT_MASK)) && (0u != watchdo
 878              		.loc 1 2621 0
ARM GAS  C:\Users\zack.li\AppData\Local\Temp\ccTyLy6m.s 			page 64


 879 0050 0421     		movs	r1, #4
 880 0052 0197     		str	r7, [sp, #4]
 881 0054 0296     		str	r6, [sp, #8]
 882 0056 0494     		str	r4, [sp, #16]
 883 0058 254F     		ldr	r7, .L56+20
 884 005a 264C     		ldr	r4, .L56+24
 885 005c 284E     		ldr	r6, .L56+36
2618:Generated_Source\PSoC4/CapSense_SensingCSD_LL.c **** 
 886              		.loc 1 2618 0
 887 005e ED33     		adds	r3, r3, #237
 888 0060 0590     		str	r0, [sp, #20]
 889              	.LVL90:
 890              	.L45:
 891              		.loc 1 2621 0
 892 0062 1068     		ldr	r0, [r2]
 893 0064 0842     		tst	r0, r1
 894 0066 03D1     		bne	.L46
 895 0068 002B     		cmp	r3, #0
 896 006a 03D0     		beq	.L48
2622:Generated_Source\PSoC4/CapSense_SensingCSD_LL.c ****         {
2623:Generated_Source\PSoC4/CapSense_SensingCSD_LL.c ****             watchdogCounter--;
 897              		.loc 1 2623 0
 898 006c 013B     		subs	r3, r3, #1
 899              	.LVL91:
 900 006e F8E7     		b	.L45
 901              	.L46:
2624:Generated_Source\PSoC4/CapSense_SensingCSD_LL.c ****         }
2625:Generated_Source\PSoC4/CapSense_SensingCSD_LL.c **** 
2626:Generated_Source\PSoC4/CapSense_SensingCSD_LL.c ****         if (0u == watchdogCounter)
 902              		.loc 1 2626 0
 903 0070 002B     		cmp	r3, #0
 904 0072 01D1     		bne	.L49
 905              	.L48:
2627:Generated_Source\PSoC4/CapSense_SensingCSD_LL.c ****         {
2628:Generated_Source\PSoC4/CapSense_SensingCSD_LL.c ****             /* Set sequencer to idle state if coarse initialization fails */
2629:Generated_Source\PSoC4/CapSense_SensingCSD_LL.c ****             CY_SET_REG32(CapSense_SEQ_START_PTR, CapSense_SEQ_START_ABORT_MASK);
 906              		.loc 1 2629 0
 907 0074 0823     		movs	r3, #8
 908              	.LVL92:
 909 0076 3360     		str	r3, [r6]
 910              	.L49:
 911              	.LBE23:
 912              	.LBE22:
 913              	.LBB24:
 914              	.LBB25:
2630:Generated_Source\PSoC4/CapSense_SensingCSD_LL.c ****         }
2631:Generated_Source\PSoC4/CapSense_SensingCSD_LL.c **** 
2632:Generated_Source\PSoC4/CapSense_SensingCSD_LL.c ****     #else
2633:Generated_Source\PSoC4/CapSense_SensingCSD_LL.c **** 
2634:Generated_Source\PSoC4/CapSense_SensingCSD_LL.c ****         uint32 tmpRegValue;
2635:Generated_Source\PSoC4/CapSense_SensingCSD_LL.c ****         uint32 newRegValue;
2636:Generated_Source\PSoC4/CapSense_SensingCSD_LL.c ****         uint32 watchdogCounter;
2637:Generated_Source\PSoC4/CapSense_SensingCSD_LL.c **** 
2638:Generated_Source\PSoC4/CapSense_SensingCSD_LL.c ****         /* Save the current IDAC configuration */
2639:Generated_Source\PSoC4/CapSense_SensingCSD_LL.c ****         tmpRegValue = CY_GET_REG32(CapSense_IDAC_PTR);
2640:Generated_Source\PSoC4/CapSense_SensingCSD_LL.c **** 
2641:Generated_Source\PSoC4/CapSense_SensingCSD_LL.c ****         /* Wait until Cmod discharges below Vref */
ARM GAS  C:\Users\zack.li\AppData\Local\Temp\ccTyLy6m.s 			page 65


2642:Generated_Source\PSoC4/CapSense_SensingCSD_LL.c ****         CyDelayCycles(CapSense_CMOD_DISCHARGE_CYCLES);
2643:Generated_Source\PSoC4/CapSense_SensingCSD_LL.c **** 
2644:Generated_Source\PSoC4/CapSense_SensingCSD_LL.c ****         newRegValue = CapSense_CSD_IDAC_PRECHARGE_CONFIG | (tmpRegValue & ~CapSense_IDAC_MOD_CFG_MA
2645:Generated_Source\PSoC4/CapSense_SensingCSD_LL.c **** 
2646:Generated_Source\PSoC4/CapSense_SensingCSD_LL.c ****         /* Set the IDAC configuration for fast Cmod precharge to Vref */
2647:Generated_Source\PSoC4/CapSense_SensingCSD_LL.c ****         CY_SET_REG32(CapSense_IDAC_PTR, newRegValue);
2648:Generated_Source\PSoC4/CapSense_SensingCSD_LL.c **** 
2649:Generated_Source\PSoC4/CapSense_SensingCSD_LL.c ****         #if (CapSense_IDAC_SINKING == CapSense_CSD_IDAC_CONFIG)
2650:Generated_Source\PSoC4/CapSense_SensingCSD_LL.c ****             CY_SET_REG32(CapSense_CONFIG_PTR, CY_GET_REG32(CapSense_CONFIG_PTR) & ~CapSense_CONFIG_
2651:Generated_Source\PSoC4/CapSense_SensingCSD_LL.c ****         #endif /* (CapSense_IDAC_SINKING == CapSense_CSD_IDAC_CONFIG) */
2652:Generated_Source\PSoC4/CapSense_SensingCSD_LL.c **** 
2653:Generated_Source\PSoC4/CapSense_SensingCSD_LL.c ****         /* Init Watchdog Counter to prevent a hang */
2654:Generated_Source\PSoC4/CapSense_SensingCSD_LL.c ****         watchdogCounter = CapSense_CSD_PRECHARGE_WATCHDOG_CYCLES_NUM;
2655:Generated_Source\PSoC4/CapSense_SensingCSD_LL.c **** 
2656:Generated_Source\PSoC4/CapSense_SensingCSD_LL.c ****         /* Wait until Cmod reaches to Vref */
2657:Generated_Source\PSoC4/CapSense_SensingCSD_LL.c ****         while((0u == (CY_GET_REG32(CapSense_STATUS_PTR) & CapSense_STATUS_SAMPLE)) && (0u != watchd
2658:Generated_Source\PSoC4/CapSense_SensingCSD_LL.c ****         {
2659:Generated_Source\PSoC4/CapSense_SensingCSD_LL.c ****             watchdogCounter--;
2660:Generated_Source\PSoC4/CapSense_SensingCSD_LL.c ****         }
2661:Generated_Source\PSoC4/CapSense_SensingCSD_LL.c **** 
2662:Generated_Source\PSoC4/CapSense_SensingCSD_LL.c ****         #if (CapSense_IDAC_SINKING == CapSense_CSD_IDAC_CONFIG)
2663:Generated_Source\PSoC4/CapSense_SensingCSD_LL.c ****             CY_SET_REG32(CapSense_CONFIG_PTR, CY_GET_REG32(CapSense_CONFIG_PTR) | CapSense_CONFIG_P
2664:Generated_Source\PSoC4/CapSense_SensingCSD_LL.c ****         #endif /* (CapSense_IDAC_SINKING == CapSense_CSD_IDAC_CONFIG) */
2665:Generated_Source\PSoC4/CapSense_SensingCSD_LL.c **** 
2666:Generated_Source\PSoC4/CapSense_SensingCSD_LL.c ****         /* Restore the current IDAC configuration */
2667:Generated_Source\PSoC4/CapSense_SensingCSD_LL.c ****         CY_SET_REG32(CapSense_IDAC_PTR, tmpRegValue);
2668:Generated_Source\PSoC4/CapSense_SensingCSD_LL.c **** 
2669:Generated_Source\PSoC4/CapSense_SensingCSD_LL.c ****         /* Enable the sense modulator output */
2670:Generated_Source\PSoC4/CapSense_SensingCSD_LL.c ****         CY_SET_REG32(CapSense_CONFIG_PTR, CapSense_configCsd | CapSense_CTANK_PRECHARGE_CONFIG_CSD_
2671:Generated_Source\PSoC4/CapSense_SensingCSD_LL.c **** 
2672:Generated_Source\PSoC4/CapSense_SensingCSD_LL.c ****         CyIntEnable(CapSense_ISR_NUMBER);
2673:Generated_Source\PSoC4/CapSense_SensingCSD_LL.c **** 
2674:Generated_Source\PSoC4/CapSense_SensingCSD_LL.c ****     #endif /* (CapSense_ENABLE == CapSense_CSDV2) */
2675:Generated_Source\PSoC4/CapSense_SensingCSD_LL.c **** }
2676:Generated_Source\PSoC4/CapSense_SensingCSD_LL.c **** 
2677:Generated_Source\PSoC4/CapSense_SensingCSD_LL.c **** 
2678:Generated_Source\PSoC4/CapSense_SensingCSD_LL.c **** /*******************************************************************************
2679:Generated_Source\PSoC4/CapSense_SensingCSD_LL.c **** * Function Name: CapSense_SsCSDTriggerScan
2680:Generated_Source\PSoC4/CapSense_SensingCSD_LL.c **** ****************************************************************************//**
2681:Generated_Source\PSoC4/CapSense_SensingCSD_LL.c **** *
2682:Generated_Source\PSoC4/CapSense_SensingCSD_LL.c **** * \brief
2683:Generated_Source\PSoC4/CapSense_SensingCSD_LL.c **** *  This function triggers the scanning.
2684:Generated_Source\PSoC4/CapSense_SensingCSD_LL.c **** *
2685:Generated_Source\PSoC4/CapSense_SensingCSD_LL.c **** * \details
2686:Generated_Source\PSoC4/CapSense_SensingCSD_LL.c **** *  For Third-generation HW block:
2687:Generated_Source\PSoC4/CapSense_SensingCSD_LL.c **** *  Writes resolution to start the scanning.
2688:Generated_Source\PSoC4/CapSense_SensingCSD_LL.c **** *
2689:Generated_Source\PSoC4/CapSense_SensingCSD_LL.c **** *  For Fourth-generation HW block:
2690:Generated_Source\PSoC4/CapSense_SensingCSD_LL.c **** *  Trigger the fine initialization (scan some dummy cycles) and start sampling.
2691:Generated_Source\PSoC4/CapSense_SensingCSD_LL.c **** *  Fine initialization for CMOD and Start scan.
2692:Generated_Source\PSoC4/CapSense_SensingCSD_LL.c **** *  For the fine initialization and sampling, Cmod is static connected to AMUXBUS-A
2693:Generated_Source\PSoC4/CapSense_SensingCSD_LL.c **** *  and in every conversion (one cycle of SnsClk), the sensor capacitance is charged
2694:Generated_Source\PSoC4/CapSense_SensingCSD_LL.c **** *  from Cmod and discharged to ground using the switches in GPIO cell.
2695:Generated_Source\PSoC4/CapSense_SensingCSD_LL.c **** *  The CSDCOMP monitors voltage on Cmod using the sense path and charges Cmod back
2696:Generated_Source\PSoC4/CapSense_SensingCSD_LL.c **** *  to Vref using IDACs by connecting IDAC to CSDBUS-A and then the AMUXBUS-A.
2697:Generated_Source\PSoC4/CapSense_SensingCSD_LL.c **** *
2698:Generated_Source\PSoC4/CapSense_SensingCSD_LL.c **** *******************************************************************************/
ARM GAS  C:\Users\zack.li\AppData\Local\Temp\ccTyLy6m.s 			page 66


2699:Generated_Source\PSoC4/CapSense_SensingCSD_LL.c **** CY_INLINE static void CapSense_SsCSDTriggerScan(void)
2700:Generated_Source\PSoC4/CapSense_SensingCSD_LL.c **** {
2701:Generated_Source\PSoC4/CapSense_SensingCSD_LL.c ****     #if (CapSense_ENABLE == CapSense_CSDV2)
2702:Generated_Source\PSoC4/CapSense_SensingCSD_LL.c **** 
2703:Generated_Source\PSoC4/CapSense_SensingCSD_LL.c ****         /* Fourth-generation HW block section */
2704:Generated_Source\PSoC4/CapSense_SensingCSD_LL.c **** 
2705:Generated_Source\PSoC4/CapSense_SensingCSD_LL.c ****         uint32 watchdogCounter;
2706:Generated_Source\PSoC4/CapSense_SensingCSD_LL.c **** 
2707:Generated_Source\PSoC4/CapSense_SensingCSD_LL.c ****         /* Clear previous interrupts */
2708:Generated_Source\PSoC4/CapSense_SensingCSD_LL.c ****         CY_SET_REG32(CapSense_INTR_PTR, CapSense_INTR_ALL_MASK);
 915              		.loc 1 2708 0
 916 0078 8323     		movs	r3, #131
 917 007a 5B00     		lsls	r3, r3, #1
 918 007c 1360     		str	r3, [r2]
2709:Generated_Source\PSoC4/CapSense_SensingCSD_LL.c **** 
2710:Generated_Source\PSoC4/CapSense_SensingCSD_LL.c ****         /* Clear pending interrupts  */
2711:Generated_Source\PSoC4/CapSense_SensingCSD_LL.c ****         CyIntClearPending(CapSense_ISR_NUMBER);
 919              		.loc 1 2711 0
 920 007e 0A20     		movs	r0, #10
 921 0080 FFF7FEFF 		bl	CyIntClearPending
 922              	.LVL93:
2712:Generated_Source\PSoC4/CapSense_SensingCSD_LL.c **** 
2713:Generated_Source\PSoC4/CapSense_SensingCSD_LL.c ****         /* Enable CSD interrupt */
2714:Generated_Source\PSoC4/CapSense_SensingCSD_LL.c ****         CyIntEnable(CapSense_ISR_NUMBER);
 923              		.loc 1 2714 0
 924 0084 0A20     		movs	r0, #10
 925 0086 FFF7FEFF 		bl	CyIntEnable
 926              	.LVL94:
2715:Generated_Source\PSoC4/CapSense_SensingCSD_LL.c **** 
2716:Generated_Source\PSoC4/CapSense_SensingCSD_LL.c **** 
2717:Generated_Source\PSoC4/CapSense_SensingCSD_LL.c ****         CY_SET_REG32(CapSense_SW_HS_P_SEL_PTR, CapSense_CSD_SW_HS_P_SEL_SCAN);
 927              		.loc 1 2717 0
 928 008a 8023     		movs	r3, #128
 929 008c 5B02     		lsls	r3, r3, #9
 930 008e 3B60     		str	r3, [r7]
2718:Generated_Source\PSoC4/CapSense_SensingCSD_LL.c **** 
2719:Generated_Source\PSoC4/CapSense_SensingCSD_LL.c ****         /* Set scanning configuration for switches */
2720:Generated_Source\PSoC4/CapSense_SensingCSD_LL.c ****         CY_SET_REG32(CapSense_SW_FW_MOD_SEL_PTR, CapSense_CSD_SW_FW_MOD_SEL_SCAN);
 931              		.loc 1 2720 0
 932 0090 0023     		movs	r3, #0
 933 0092 039A     		ldr	r2, [sp, #12]
2721:Generated_Source\PSoC4/CapSense_SensingCSD_LL.c ****         CY_SET_REG32(CapSense_SW_FW_TANK_SEL_PTR,CapSense_CSD_SW_FW_TANK_SEL_SCAN);
2722:Generated_Source\PSoC4/CapSense_SensingCSD_LL.c **** 
2723:Generated_Source\PSoC4/CapSense_SensingCSD_LL.c ****         CY_SET_REG32(CapSense_SW_SHIELD_SEL_PTR,  CapSense_CSD_SW_SHIELD_SEL_SCAN);
2724:Generated_Source\PSoC4/CapSense_SensingCSD_LL.c **** 
2725:Generated_Source\PSoC4/CapSense_SensingCSD_LL.c ****         #if((CapSense_ENABLE == CapSense_CSD_SHIELD_EN) && (CapSense_ENABLE == CapSense_CSD_SHIELD_
2726:Generated_Source\PSoC4/CapSense_SensingCSD_LL.c ****             /* Connect CTANK to AMUXBUS-B */
2727:Generated_Source\PSoC4/CapSense_SensingCSD_LL.c ****             CapSense_SsCSDEnableShieldTank();
2728:Generated_Source\PSoC4/CapSense_SensingCSD_LL.c ****         #endif /* ((CapSense_ENABLE == CapSense_CSD_SHIELD_EN) && (CapSense_ENABLE == CapSense_CSD_
2729:Generated_Source\PSoC4/CapSense_SensingCSD_LL.c **** 
2730:Generated_Source\PSoC4/CapSense_SensingCSD_LL.c ****         CY_SET_REG32(CapSense_SW_RES_PTR, CapSense_CSD_SW_RES_SCAN);
2731:Generated_Source\PSoC4/CapSense_SensingCSD_LL.c ****         CY_SET_REG32(CapSense_CSDCMP_PTR, CapSense_CSD_CSDCMP_SCAN);
2732:Generated_Source\PSoC4/CapSense_SensingCSD_LL.c **** 
2733:Generated_Source\PSoC4/CapSense_SensingCSD_LL.c ****         #if (CapSense_DISABLE == CapSense_CSD_SHIELD_EN)
2734:Generated_Source\PSoC4/CapSense_SensingCSD_LL.c ****             /* Disable HSCOMP during the sampling phase when shield is disabled */
2735:Generated_Source\PSoC4/CapSense_SensingCSD_LL.c ****             CY_SET_REG32(CapSense_HSCMP_PTR, 0u);
2736:Generated_Source\PSoC4/CapSense_SensingCSD_LL.c ****         #else
ARM GAS  C:\Users\zack.li\AppData\Local\Temp\ccTyLy6m.s 			page 67


2737:Generated_Source\PSoC4/CapSense_SensingCSD_LL.c ****             CY_SET_REG32(CapSense_HSCMP_PTR, CapSense_HSCMP_SCAN_MASK);
2738:Generated_Source\PSoC4/CapSense_SensingCSD_LL.c ****         #endif /* (CapSense_DISABLE == CapSense_CSD_SHIELD_EN) */
2739:Generated_Source\PSoC4/CapSense_SensingCSD_LL.c **** 
2740:Generated_Source\PSoC4/CapSense_SensingCSD_LL.c ****         #if (CapSense_CLK_SOURCE_DIRECT != CapSense_CSD_SNS_CLK_SOURCE)
2741:Generated_Source\PSoC4/CapSense_SensingCSD_LL.c ****             /* Force the LFSR to it's initial state (all ones) */
2742:Generated_Source\PSoC4/CapSense_SensingCSD_LL.c ****             CY_SET_REG32(CapSense_SENSE_PERIOD_PTR, CY_GET_REG32(CapSense_SENSE_PERIOD_PTR) |
 934              		.loc 1 2742 0
 935 0094 8021     		movs	r1, #128
2720:Generated_Source\PSoC4/CapSense_SensingCSD_LL.c ****         CY_SET_REG32(CapSense_SW_FW_TANK_SEL_PTR,CapSense_CSD_SW_FW_TANK_SEL_SCAN);
 936              		.loc 1 2720 0
 937 0096 1360     		str	r3, [r2]
2721:Generated_Source\PSoC4/CapSense_SensingCSD_LL.c ****         CY_SET_REG32(CapSense_SW_FW_TANK_SEL_PTR,CapSense_CSD_SW_FW_TANK_SEL_SCAN);
 938              		.loc 1 2721 0
 939 0098 049A     		ldr	r2, [sp, #16]
 940              		.loc 1 2742 0
 941 009a 4904     		lsls	r1, r1, #17
2721:Generated_Source\PSoC4/CapSense_SensingCSD_LL.c ****         CY_SET_REG32(CapSense_SW_FW_TANK_SEL_PTR,CapSense_CSD_SW_FW_TANK_SEL_SCAN);
 942              		.loc 1 2721 0
 943 009c 1360     		str	r3, [r2]
2723:Generated_Source\PSoC4/CapSense_SensingCSD_LL.c **** 
 944              		.loc 1 2723 0
 945 009e 9423     		movs	r3, #148
 946 00a0 059A     		ldr	r2, [sp, #20]
 947 00a2 9B01     		lsls	r3, r3, #6
 948 00a4 1360     		str	r3, [r2]
2730:Generated_Source\PSoC4/CapSense_SensingCSD_LL.c ****         CY_SET_REG32(CapSense_CSDCMP_PTR, CapSense_CSD_CSDCMP_SCAN);
 949              		.loc 1 2730 0
 950 00a6 5023     		movs	r3, #80
2731:Generated_Source\PSoC4/CapSense_SensingCSD_LL.c **** 
 951              		.loc 1 2731 0
 952 00a8 029A     		ldr	r2, [sp, #8]
2730:Generated_Source\PSoC4/CapSense_SensingCSD_LL.c ****         CY_SET_REG32(CapSense_CSDCMP_PTR, CapSense_CSD_CSDCMP_SCAN);
 953              		.loc 1 2730 0
 954 00aa 2360     		str	r3, [r4]
2731:Generated_Source\PSoC4/CapSense_SensingCSD_LL.c **** 
 955              		.loc 1 2731 0
 956 00ac 4F3B     		subs	r3, r3, #79
 957 00ae 1360     		str	r3, [r2]
2737:Generated_Source\PSoC4/CapSense_SensingCSD_LL.c ****         #endif /* (CapSense_DISABLE == CapSense_CSD_SHIELD_EN) */
 958              		.loc 1 2737 0
 959 00b0 019A     		ldr	r2, [sp, #4]
 960 00b2 1360     		str	r3, [r2]
 961              		.loc 1 2742 0
 962 00b4 134A     		ldr	r2, .L56+40
 963 00b6 1368     		ldr	r3, [r2]
 964 00b8 0B43     		orrs	r3, r1
 965 00ba 1360     		str	r3, [r2]
2743:Generated_Source\PSoC4/CapSense_SensingCSD_LL.c ****                                                            CapSense_SENSE_PERIOD_LFSR_CLEAR_MASK);
2744:Generated_Source\PSoC4/CapSense_SensingCSD_LL.c ****         #endif /* (CapSense_CLK_SOURCE_DIRECT != CapSense_CSD_SNS_CLK_SOURCE) */
2745:Generated_Source\PSoC4/CapSense_SensingCSD_LL.c **** 
2746:Generated_Source\PSoC4/CapSense_SensingCSD_LL.c ****         /* Enable SAMPLE interrupt */
2747:Generated_Source\PSoC4/CapSense_SensingCSD_LL.c ****         CY_SET_REG32(CapSense_INTR_MASK_PTR, CapSense_INTR_MASK_SAMPLE_MASK);
 966              		.loc 1 2747 0
 967 00bc 0223     		movs	r3, #2
2748:Generated_Source\PSoC4/CapSense_SensingCSD_LL.c **** 
2749:Generated_Source\PSoC4/CapSense_SensingCSD_LL.c ****         /* Init Watchdog Counter to prevent a hang */
2750:Generated_Source\PSoC4/CapSense_SensingCSD_LL.c ****         watchdogCounter = CapSense_CSD_PRECHARGE_WATCHDOG_CYCLES_NUM;
ARM GAS  C:\Users\zack.li\AppData\Local\Temp\ccTyLy6m.s 			page 68


2751:Generated_Source\PSoC4/CapSense_SensingCSD_LL.c **** 
2752:Generated_Source\PSoC4/CapSense_SensingCSD_LL.c ****         /* Wait for IDLE state of the HW sequencer */
2753:Generated_Source\PSoC4/CapSense_SensingCSD_LL.c ****         while((0u != (CapSense_STAT_SEQ_REG & CapSense_STAT_SEQ_SEQ_STATE_MASK)) && (0u != watchdog
 968              		.loc 1 2753 0
 969 00be 0721     		movs	r1, #7
 970 00c0 114A     		ldr	r2, .L56+44
2747:Generated_Source\PSoC4/CapSense_SensingCSD_LL.c **** 
 971              		.loc 1 2747 0
 972 00c2 2B60     		str	r3, [r5]
 973              	.LVL95:
 974 00c4 EF33     		adds	r3, r3, #239
 975              	.LVL96:
 976              	.L51:
 977              		.loc 1 2753 0
 978 00c6 1068     		ldr	r0, [r2]
 979 00c8 0842     		tst	r0, r1
 980 00ca 02D0     		beq	.L50
 981 00cc 013B     		subs	r3, r3, #1
 982              	.LVL97:
 983 00ce 002B     		cmp	r3, #0
 984 00d0 F9D1     		bne	.L51
 985              	.LVL98:
 986              	.L50:
2754:Generated_Source\PSoC4/CapSense_SensingCSD_LL.c ****         {
2755:Generated_Source\PSoC4/CapSense_SensingCSD_LL.c ****             watchdogCounter--;
2756:Generated_Source\PSoC4/CapSense_SensingCSD_LL.c ****         }
2757:Generated_Source\PSoC4/CapSense_SensingCSD_LL.c **** 
2758:Generated_Source\PSoC4/CapSense_SensingCSD_LL.c ****         /* Start SEQUENCER for fine initialization scan for Cmod and then for normal scan */
2759:Generated_Source\PSoC4/CapSense_SensingCSD_LL.c ****         CY_SET_REG32(CapSense_SEQ_START_PTR, CapSense_SEQ_START_AZ0_SKIP_MASK |
 987              		.loc 1 2759 0
 988 00d2 0E4B     		ldr	r3, .L56+48
 989 00d4 3360     		str	r3, [r6]
 990              	.LBE25:
 991              	.LBE24:
1389:Generated_Source\PSoC4/CapSense_SensingCSD_LL.c **** 
 992              		.loc 1 1389 0
 993 00d6 07B0     		add	sp, sp, #28
 994              		@ sp needed
 995 00d8 F0BD     		pop	{r4, r5, r6, r7, pc}
 996              	.L57:
 997 00da C046     		.align	2
 998              	.L56:
 999 00dc 80010B40 		.word	1074463104
 1000 00e0 8C010B40 		.word	1074463116
 1001 00e4 B0020B40 		.word	1074463408
 1002 00e8 B4020B40 		.word	1074463412
 1003 00ec 88020B40 		.word	1074463368
 1004 00f0 80020B40 		.word	1074463360
 1005 00f4 F0010B40 		.word	1074463216
 1006 00f8 F0000B40 		.word	1074462960
 1007 00fc F8000B40 		.word	1074462968
 1008 0100 40030B40 		.word	1074463552
 1009 0104 00020B40 		.word	1074463232
 1010 0108 00000B40 		.word	1074462720
 1011 010c 01030000 		.word	769
 1012              		.cfi_endproc
 1013              	.LFE16:
ARM GAS  C:\Users\zack.li\AppData\Local\Temp\ccTyLy6m.s 			page 69


 1014              		.size	CapSense_SsCSDStartSample, .-CapSense_SsCSDStartSample
 1015              		.section	.text.CapSense_CSDScanExt,"ax",%progbits
 1016              		.align	1
 1017              		.global	CapSense_CSDScanExt
 1018              		.code	16
 1019              		.thumb_func
 1020              		.type	CapSense_CSDScanExt, %function
 1021              	CapSense_CSDScanExt:
 1022              	.LFB17:
1441:Generated_Source\PSoC4/CapSense_SensingCSD_LL.c ****     #if ((CapSense_DISABLE == CapSense_CSD_COMMON_SNS_CLK_EN) && \
 1023              		.loc 1 1441 0
 1024              		.cfi_startproc
 1025              		@ args = 0, pretend = 0, frame = 0
 1026              		@ frame_needed = 0, uses_anonymous_args = 0
 1027 0000 10B5     		push	{r4, lr}
 1028              		.cfi_def_cfa_offset 8
 1029              		.cfi_offset 4, -8
 1030              		.cfi_offset 14, -4
1452:Generated_Source\PSoC4/CapSense_SensingCSD_LL.c **** 
 1031              		.loc 1 1452 0
 1032 0002 054A     		ldr	r2, .L59
 1033 0004 0549     		ldr	r1, .L59+4
 1034 0006 D368     		ldr	r3, [r2, #12]
1462:Generated_Source\PSoC4/CapSense_SensingCSD_LL.c ****         #endif /* (CapSense_CSD_ANALOG_STARTUP_DELAY_US > 0uL) */
 1035              		.loc 1 1462 0
 1036 0008 0A20     		movs	r0, #10
1452:Generated_Source\PSoC4/CapSense_SensingCSD_LL.c **** 
 1037              		.loc 1 1452 0
 1038 000a 0B43     		orrs	r3, r1
 1039 000c D360     		str	r3, [r2, #12]
1468:Generated_Source\PSoC4/CapSense_SensingCSD_LL.c **** 
 1040              		.loc 1 1468 0
 1041              		@ sp needed
1462:Generated_Source\PSoC4/CapSense_SensingCSD_LL.c ****         #endif /* (CapSense_CSD_ANALOG_STARTUP_DELAY_US > 0uL) */
 1042              		.loc 1 1462 0
 1043 000e FFF7FEFF 		bl	CyDelayUs
 1044              	.LVL99:
1467:Generated_Source\PSoC4/CapSense_SensingCSD_LL.c **** }
 1045              		.loc 1 1467 0
 1046 0012 FFF7FEFF 		bl	CapSense_SsCSDStartSample
 1047              	.LVL100:
1468:Generated_Source\PSoC4/CapSense_SensingCSD_LL.c **** 
 1048              		.loc 1 1468 0
 1049 0016 10BD     		pop	{r4, pc}
 1050              	.L60:
 1051              		.align	2
 1052              	.L59:
 1053 0018 00000000 		.word	CapSense_dsRam
 1054 001c 80000100 		.word	65664
 1055              		.cfi_endproc
 1056              	.LFE17:
 1057              		.size	CapSense_CSDScanExt, .-CapSense_CSDScanExt
 1058              		.section	.text.CapSense_CSDConnectSns,"ax",%progbits
 1059              		.align	1
 1060              		.global	CapSense_CSDConnectSns
 1061              		.code	16
 1062              		.thumb_func
ARM GAS  C:\Users\zack.li\AppData\Local\Temp\ccTyLy6m.s 			page 70


 1063              		.type	CapSense_CSDConnectSns, %function
 1064              	CapSense_CSDConnectSns:
 1065              	.LFB21:
1734:Generated_Source\PSoC4/CapSense_SensingCSD_LL.c ****     uint32 newRegisterValue;
 1066              		.loc 1 1734 0
 1067              		.cfi_startproc
 1068              		@ args = 0, pretend = 0, frame = 0
 1069              		@ frame_needed = 0, uses_anonymous_args = 0
 1070              	.LVL101:
 1071 0000 F8B5     		push	{r3, r4, r5, r6, r7, lr}
 1072              		.cfi_def_cfa_offset 24
 1073              		.cfi_offset 3, -24
 1074              		.cfi_offset 4, -20
 1075              		.cfi_offset 5, -16
 1076              		.cfi_offset 6, -12
 1077              		.cfi_offset 7, -8
 1078              		.cfi_offset 14, -4
1734:Generated_Source\PSoC4/CapSense_SensingCSD_LL.c ****     uint32 newRegisterValue;
 1079              		.loc 1 1734 0
 1080 0002 0400     		movs	r4, r0
1742:Generated_Source\PSoC4/CapSense_SensingCSD_LL.c **** 
 1081              		.loc 1 1742 0
 1082 0004 077E     		ldrb	r7, [r0, #24]
1741:Generated_Source\PSoC4/CapSense_SensingCSD_LL.c ****     pinHSIOMShift = (uint32)snsAddrPtr->hsiomShift;
 1083              		.loc 1 1741 0
 1084 0006 857E     		ldrb	r5, [r0, #26]
 1085              	.LVL102:
1744:Generated_Source\PSoC4/CapSense_SensingCSD_LL.c **** 
 1086              		.loc 1 1744 0
 1087 0008 FFF7FEFF 		bl	CyEnterCriticalSection
 1088              	.LVL103:
1748:Generated_Source\PSoC4/CapSense_SensingCSD_LL.c ****     newRegisterValue |= (uint32)((uint32)CapSense_HSIOM_SEL_CSD_SENSE << pinHSIOMShift);
 1089              		.loc 1 1748 0
 1090 000c 0F22     		movs	r2, #15
 1091 000e BA40     		lsls	r2, r2, r7
1747:Generated_Source\PSoC4/CapSense_SensingCSD_LL.c ****     newRegisterValue &= ~(CapSense_HSIOM_SEL_MASK << pinHSIOMShift);
 1092              		.loc 1 1747 0
 1093 0010 2668     		ldr	r6, [r4]
1752:Generated_Source\PSoC4/CapSense_SensingCSD_LL.c **** 
 1094              		.loc 1 1752 0
 1095 0012 0721     		movs	r1, #7
1747:Generated_Source\PSoC4/CapSense_SensingCSD_LL.c ****     newRegisterValue &= ~(CapSense_HSIOM_SEL_MASK << pinHSIOMShift);
 1096              		.loc 1 1747 0
 1097 0014 3368     		ldr	r3, [r6]
 1098              	.LVL104:
1752:Generated_Source\PSoC4/CapSense_SensingCSD_LL.c **** 
 1099              		.loc 1 1752 0
 1100 0016 A940     		lsls	r1, r1, r5
1748:Generated_Source\PSoC4/CapSense_SensingCSD_LL.c ****     newRegisterValue |= (uint32)((uint32)CapSense_HSIOM_SEL_CSD_SENSE << pinHSIOMShift);
 1101              		.loc 1 1748 0
 1102 0018 9343     		bics	r3, r2
 1103              	.LVL105:
 1104 001a 1A00     		movs	r2, r3
 1105              	.LVL106:
1749:Generated_Source\PSoC4/CapSense_SensingCSD_LL.c **** 
 1106              		.loc 1 1749 0
 1107 001c 0423     		movs	r3, #4
ARM GAS  C:\Users\zack.li\AppData\Local\Temp\ccTyLy6m.s 			page 71


 1108 001e BB40     		lsls	r3, r3, r7
1752:Generated_Source\PSoC4/CapSense_SensingCSD_LL.c **** 
 1109              		.loc 1 1752 0
 1110 0020 6468     		ldr	r4, [r4, #4]
 1111              	.LVL107:
1749:Generated_Source\PSoC4/CapSense_SensingCSD_LL.c **** 
 1112              		.loc 1 1749 0
 1113 0022 1343     		orrs	r3, r2
 1114              	.LVL108:
1752:Generated_Source\PSoC4/CapSense_SensingCSD_LL.c **** 
 1115              		.loc 1 1752 0
 1116 0024 2268     		ldr	r2, [r4]
1758:Generated_Source\PSoC4/CapSense_SensingCSD_LL.c **** 
 1117              		.loc 1 1758 0
 1118              		@ sp needed
1752:Generated_Source\PSoC4/CapSense_SensingCSD_LL.c **** 
 1119              		.loc 1 1752 0
 1120 0026 8A43     		bics	r2, r1
 1121 0028 2260     		str	r2, [r4]
1755:Generated_Source\PSoC4/CapSense_SensingCSD_LL.c **** 
 1122              		.loc 1 1755 0
 1123 002a 3360     		str	r3, [r6]
1757:Generated_Source\PSoC4/CapSense_SensingCSD_LL.c **** }
 1124              		.loc 1 1757 0
 1125 002c FFF7FEFF 		bl	CyExitCriticalSection
 1126              	.LVL109:
 1127              	.LVL110:
 1128              	.LVL111:
1758:Generated_Source\PSoC4/CapSense_SensingCSD_LL.c **** 
 1129              		.loc 1 1758 0
 1130 0030 F8BD     		pop	{r3, r4, r5, r6, r7, pc}
 1131              		.cfi_endproc
 1132              	.LFE21:
 1133              		.size	CapSense_CSDConnectSns, .-CapSense_CSDConnectSns
 1134              		.section	.text.CapSense_CSDScan,"ax",%progbits
 1135              		.align	1
 1136              		.global	CapSense_CSDScan
 1137              		.code	16
 1138              		.thumb_func
 1139              		.type	CapSense_CSDScan, %function
 1140              	CapSense_CSDScan:
 1141              	.LFB18:
1508:Generated_Source\PSoC4/CapSense_SensingCSD_LL.c ****     CapSense_RAM_WD_BASE_STRUCT const *ptrWdgt = (CapSense_RAM_WD_BASE_STRUCT *)
 1142              		.loc 1 1508 0
 1143              		.cfi_startproc
 1144              		@ args = 0, pretend = 0, frame = 8
 1145              		@ frame_needed = 0, uses_anonymous_args = 0
1509:Generated_Source\PSoC4/CapSense_SensingCSD_LL.c ****                                                     CapSense_dsFlash.wdgtArray[CapSense_widgetIndex
 1146              		.loc 1 1509 0
 1147 0000 1C23     		movs	r3, #28
1508:Generated_Source\PSoC4/CapSense_SensingCSD_LL.c ****     CapSense_RAM_WD_BASE_STRUCT const *ptrWdgt = (CapSense_RAM_WD_BASE_STRUCT *)
 1148              		.loc 1 1508 0
 1149 0002 F7B5     		push	{r0, r1, r2, r4, r5, r6, r7, lr}
 1150              		.cfi_def_cfa_offset 32
 1151              		.cfi_offset 0, -32
 1152              		.cfi_offset 1, -28
 1153              		.cfi_offset 2, -24
ARM GAS  C:\Users\zack.li\AppData\Local\Temp\ccTyLy6m.s 			page 72


 1154              		.cfi_offset 4, -20
 1155              		.cfi_offset 5, -16
 1156              		.cfi_offset 6, -12
 1157              		.cfi_offset 7, -8
 1158              		.cfi_offset 14, -4
1513:Generated_Source\PSoC4/CapSense_SensingCSD_LL.c ****     {
 1159              		.loc 1 1513 0
 1160 0004 1A4C     		ldr	r4, .L64
1510:Generated_Source\PSoC4/CapSense_SensingCSD_LL.c **** 
 1161              		.loc 1 1510 0
 1162 0006 1B4D     		ldr	r5, .L64+4
1513:Generated_Source\PSoC4/CapSense_SensingCSD_LL.c ****     {
 1163              		.loc 1 1513 0
 1164 0008 2600     		movs	r6, r4
1510:Generated_Source\PSoC4/CapSense_SensingCSD_LL.c **** 
 1165              		.loc 1 1510 0
 1166 000a 2A78     		ldrb	r2, [r5]
1513:Generated_Source\PSoC4/CapSense_SensingCSD_LL.c ****     {
 1167              		.loc 1 1513 0
 1168 000c AC36     		adds	r6, r6, #172
1509:Generated_Source\PSoC4/CapSense_SensingCSD_LL.c ****                                                     CapSense_dsFlash.wdgtArray[CapSense_widgetIndex
 1169              		.loc 1 1509 0
 1170 000e 5343     		muls	r3, r2
 1171 0010 194A     		ldr	r2, .L64+8
1513:Generated_Source\PSoC4/CapSense_SensingCSD_LL.c ****     {
 1172              		.loc 1 1513 0
 1173 0012 AD34     		adds	r4, r4, #173
1509:Generated_Source\PSoC4/CapSense_SensingCSD_LL.c ****                                                     CapSense_dsFlash.wdgtArray[CapSense_widgetIndex
 1174              		.loc 1 1509 0
 1175 0014 D318     		adds	r3, r2, r3
 1176 0016 5B68     		ldr	r3, [r3, #4]
 1177 0018 0193     		str	r3, [sp, #4]
 1178              	.LVL112:
1513:Generated_Source\PSoC4/CapSense_SensingCSD_LL.c ****     {
 1179              		.loc 1 1513 0
 1180 001a 3078     		ldrb	r0, [r6]
 1181 001c 2378     		ldrb	r3, [r4]
 1182              	.LVL113:
 1183 001e 8342     		cmp	r3, r0
 1184 0020 03D0     		beq	.L63
1515:Generated_Source\PSoC4/CapSense_SensingCSD_LL.c ****         CapSense_dsRam.scanCurrentISC = CapSense_dsRam.scanCsdISC;
 1185              		.loc 1 1515 0
 1186 0022 FFF7FEFF 		bl	CapSense_SsSetAllIOsState
 1187              	.LVL114:
1516:Generated_Source\PSoC4/CapSense_SensingCSD_LL.c ****     }
 1188              		.loc 1 1516 0
 1189 0026 3378     		ldrb	r3, [r6]
 1190 0028 2370     		strb	r3, [r4]
 1191              	.L63:
1523:Generated_Source\PSoC4/CapSense_SensingCSD_LL.c **** 
 1192              		.loc 1 1523 0
 1193 002a 0023     		movs	r3, #0
1527:Generated_Source\PSoC4/CapSense_SensingCSD_LL.c ****                                               + CapSense_sensorIndex;
 1194              		.loc 1 1527 0
 1195 002c 1C24     		movs	r4, #28
1523:Generated_Source\PSoC4/CapSense_SensingCSD_LL.c **** 
 1196              		.loc 1 1523 0
ARM GAS  C:\Users\zack.li\AppData\Local\Temp\ccTyLy6m.s 			page 73


 1197 002e 134E     		ldr	r6, .L64+12
1527:Generated_Source\PSoC4/CapSense_SensingCSD_LL.c ****                                               + CapSense_sensorIndex;
 1198              		.loc 1 1527 0
 1199 0030 114F     		ldr	r7, .L64+8
1523:Generated_Source\PSoC4/CapSense_SensingCSD_LL.c **** 
 1200              		.loc 1 1523 0
 1201 0032 3370     		strb	r3, [r6]
1526:Generated_Source\PSoC4/CapSense_SensingCSD_LL.c ****                                               CapSense_dsFlash.wdgtArray[CapSense_widgetIndex].ptr2
 1202              		.loc 1 1526 0
 1203 0034 2A78     		ldrb	r2, [r5]
1528:Generated_Source\PSoC4/CapSense_SensingCSD_LL.c **** 
 1204              		.loc 1 1528 0
 1205 0036 3178     		ldrb	r1, [r6]
1527:Generated_Source\PSoC4/CapSense_SensingCSD_LL.c ****                                               + CapSense_sensorIndex;
 1206              		.loc 1 1527 0
 1207 0038 6243     		muls	r2, r4
1526:Generated_Source\PSoC4/CapSense_SensingCSD_LL.c ****                                               CapSense_dsFlash.wdgtArray[CapSense_widgetIndex].ptr2
 1208              		.loc 1 1526 0
 1209 003a 0A33     		adds	r3, r3, #10
 1210 003c 4B43     		muls	r3, r1
1527:Generated_Source\PSoC4/CapSense_SensingCSD_LL.c ****                                               + CapSense_sensorIndex;
 1211              		.loc 1 1527 0
 1212 003e BA18     		adds	r2, r7, r2
1526:Generated_Source\PSoC4/CapSense_SensingCSD_LL.c ****                                               CapSense_dsFlash.wdgtArray[CapSense_widgetIndex].ptr2
 1213              		.loc 1 1526 0
 1214 0040 9268     		ldr	r2, [r2, #8]
1536:Generated_Source\PSoC4/CapSense_SensingCSD_LL.c **** 
 1215              		.loc 1 1536 0
 1216 0042 0198     		ldr	r0, [sp, #4]
1526:Generated_Source\PSoC4/CapSense_SensingCSD_LL.c ****                                               CapSense_dsFlash.wdgtArray[CapSense_widgetIndex].ptr2
 1217              		.loc 1 1526 0
 1218 0044 D318     		adds	r3, r2, r3
 1219 0046 0E4A     		ldr	r2, .L64+16
1568:Generated_Source\PSoC4/CapSense_SensingCSD_LL.c **** 
 1220              		.loc 1 1568 0
 1221              		@ sp needed
1526:Generated_Source\PSoC4/CapSense_SensingCSD_LL.c ****                                               CapSense_dsFlash.wdgtArray[CapSense_widgetIndex].ptr2
 1222              		.loc 1 1526 0
 1223 0048 1360     		str	r3, [r2]
1536:Generated_Source\PSoC4/CapSense_SensingCSD_LL.c **** 
 1224              		.loc 1 1536 0
 1225 004a FFF7FEFF 		bl	CapSense_SsCSDSetUpIdacs
 1226              	.LVL115:
1555:Generated_Source\PSoC4/CapSense_SensingCSD_LL.c ****                                         CapSense_dsFlash.wdgtArray[CapSense_widgetIndex].ptr2SnsFla
 1227              		.loc 1 1555 0
 1228 004e 2B78     		ldrb	r3, [r5]
1557:Generated_Source\PSoC4/CapSense_SensingCSD_LL.c **** 
 1229              		.loc 1 1557 0
 1230 0050 3078     		ldrb	r0, [r6]
1556:Generated_Source\PSoC4/CapSense_SensingCSD_LL.c ****                                         + CapSense_sensorIndex;
 1231              		.loc 1 1556 0
 1232 0052 6343     		muls	r3, r4
1557:Generated_Source\PSoC4/CapSense_SensingCSD_LL.c **** 
 1233              		.loc 1 1557 0
 1234 0054 4443     		muls	r4, r0
 1235 0056 D859     		ldr	r0, [r3, r7]
1555:Generated_Source\PSoC4/CapSense_SensingCSD_LL.c ****                                         CapSense_dsFlash.wdgtArray[CapSense_widgetIndex].ptr2SnsFla
ARM GAS  C:\Users\zack.li\AppData\Local\Temp\ccTyLy6m.s 			page 74


 1236              		.loc 1 1555 0
 1237 0058 0A4B     		ldr	r3, .L64+20
1557:Generated_Source\PSoC4/CapSense_SensingCSD_LL.c **** 
 1238              		.loc 1 1557 0
 1239 005a 0019     		adds	r0, r0, r4
1555:Generated_Source\PSoC4/CapSense_SensingCSD_LL.c ****                                         CapSense_dsFlash.wdgtArray[CapSense_widgetIndex].ptr2SnsFla
 1240              		.loc 1 1555 0
 1241 005c 1860     		str	r0, [r3]
1560:Generated_Source\PSoC4/CapSense_SensingCSD_LL.c **** 
 1242              		.loc 1 1560 0
 1243 005e FFF7FEFF 		bl	CapSense_CSDConnectSns
 1244              	.LVL116:
1563:Generated_Source\PSoC4/CapSense_SensingCSD_LL.c ****     #endif /* (CapSense_ENABLE == CapSense_CSD_GANGED_SNS_EN)  */
 1245              		.loc 1 1563 0
 1246 0062 0948     		ldr	r0, .L64+24
 1247 0064 FFF7FEFF 		bl	CapSense_ISR_StartEx
 1248              	.LVL117:
1567:Generated_Source\PSoC4/CapSense_SensingCSD_LL.c **** }
 1249              		.loc 1 1567 0
 1250 0068 FFF7FEFF 		bl	CapSense_CSDScanExt
 1251              	.LVL118:
1568:Generated_Source\PSoC4/CapSense_SensingCSD_LL.c **** 
 1252              		.loc 1 1568 0
 1253 006c F7BD     		pop	{r0, r1, r2, r4, r5, r6, r7, pc}
 1254              	.L65:
 1255 006e C046     		.align	2
 1256              	.L64:
 1257 0070 00000000 		.word	CapSense_dsRam
 1258 0074 00000000 		.word	CapSense_widgetIndex
 1259 0078 00000000 		.word	CapSense_dsFlash
 1260 007c 00000000 		.word	CapSense_sensorIndex
 1261 0080 00000000 		.word	CapSense_curRamSnsPtr
 1262 0084 00000000 		.word	CapSense_curSnsIOPtr
 1263 0088 00000000 		.word	CapSense_CSDPostMultiScan
 1264              		.cfi_endproc
 1265              	.LFE18:
 1266              		.size	CapSense_CSDScan, .-CapSense_CSDScan
 1267              		.section	.text.CapSense_SsCSDConnectSensorExt,"ax",%progbits
 1268              		.align	1
 1269              		.global	CapSense_SsCSDConnectSensorExt
 1270              		.code	16
 1271              		.thumb_func
 1272              		.type	CapSense_SsCSDConnectSensorExt, %function
 1273              	CapSense_SsCSDConnectSensorExt:
 1274              	.LFB19:
1591:Generated_Source\PSoC4/CapSense_SensingCSD_LL.c ****     #if (CapSense_ENABLE == CapSense_CSD_GANGED_SNS_EN)
 1275              		.loc 1 1591 0
 1276              		.cfi_startproc
 1277              		@ args = 0, pretend = 0, frame = 0
 1278              		@ frame_needed = 0, uses_anonymous_args = 0
 1279              	.LVL119:
1598:Generated_Source\PSoC4/CapSense_SensingCSD_LL.c ****                                                       + sensorId;
 1280              		.loc 1 1598 0
 1281 0000 1C23     		movs	r3, #28
 1282 0002 0200     		movs	r2, r0
 1283 0004 5A43     		muls	r2, r3
1599:Generated_Source\PSoC4/CapSense_SensingCSD_LL.c **** 
ARM GAS  C:\Users\zack.li\AppData\Local\Temp\ccTyLy6m.s 			page 75


 1284              		.loc 1 1599 0
 1285 0006 4B43     		muls	r3, r1
 1286 0008 0449     		ldr	r1, .L67
 1287              	.LVL120:
1591:Generated_Source\PSoC4/CapSense_SensingCSD_LL.c ****     #if (CapSense_ENABLE == CapSense_CSD_GANGED_SNS_EN)
 1288              		.loc 1 1591 0
 1289 000a 10B5     		push	{r4, lr}
 1290              		.cfi_def_cfa_offset 8
 1291              		.cfi_offset 4, -8
 1292              		.cfi_offset 14, -4
1599:Generated_Source\PSoC4/CapSense_SensingCSD_LL.c **** 
 1293              		.loc 1 1599 0
 1294 000c 5058     		ldr	r0, [r2, r1]
 1295              	.LVL121:
1635:Generated_Source\PSoC4/CapSense_SensingCSD_LL.c **** 
 1296              		.loc 1 1635 0
 1297              		@ sp needed
1599:Generated_Source\PSoC4/CapSense_SensingCSD_LL.c **** 
 1298              		.loc 1 1599 0
 1299 000e C018     		adds	r0, r0, r3
1597:Generated_Source\PSoC4/CapSense_SensingCSD_LL.c ****                                                       CapSense_dsFlash.wdgtArray[widgetId].ptr2SnsF
 1300              		.loc 1 1597 0
 1301 0010 034B     		ldr	r3, .L67+4
 1302 0012 1860     		str	r0, [r3]
1633:Generated_Source\PSoC4/CapSense_SensingCSD_LL.c ****     #endif /* (CapSense_ENABLE == CapSense_CSD_GANGED_SNS_EN) */
 1303              		.loc 1 1633 0
 1304 0014 FFF7FEFF 		bl	CapSense_CSDConnectSns
 1305              	.LVL122:
1635:Generated_Source\PSoC4/CapSense_SensingCSD_LL.c **** 
 1306              		.loc 1 1635 0
 1307 0018 10BD     		pop	{r4, pc}
 1308              	.L68:
 1309 001a C046     		.align	2
 1310              	.L67:
 1311 001c 00000000 		.word	CapSense_dsFlash
 1312 0020 00000000 		.word	CapSense_curSnsIOPtr
 1313              		.cfi_endproc
 1314              	.LFE19:
 1315              		.size	CapSense_SsCSDConnectSensorExt, .-CapSense_SsCSDConnectSensorExt
 1316              		.section	.text.CapSense_CSDDisconnectSns,"ax",%progbits
 1317              		.align	1
 1318              		.global	CapSense_CSDDisconnectSns
 1319              		.code	16
 1320              		.thumb_func
 1321              		.type	CapSense_CSDDisconnectSns, %function
 1322              	CapSense_CSDDisconnectSns:
 1323              	.LFB22:
1786:Generated_Source\PSoC4/CapSense_SensingCSD_LL.c ****     uint8  interruptState;
 1324              		.loc 1 1786 0
 1325              		.cfi_startproc
 1326              		@ args = 0, pretend = 0, frame = 8
 1327              		@ frame_needed = 0, uses_anonymous_args = 0
 1328              	.LVL123:
 1329 0000 F7B5     		push	{r0, r1, r2, r4, r5, r6, r7, lr}
 1330              		.cfi_def_cfa_offset 32
 1331              		.cfi_offset 0, -32
 1332              		.cfi_offset 1, -28
ARM GAS  C:\Users\zack.li\AppData\Local\Temp\ccTyLy6m.s 			page 76


 1333              		.cfi_offset 2, -24
 1334              		.cfi_offset 4, -20
 1335              		.cfi_offset 5, -16
 1336              		.cfi_offset 6, -12
 1337              		.cfi_offset 7, -8
 1338              		.cfi_offset 14, -4
1799:Generated_Source\PSoC4/CapSense_SensingCSD_LL.c **** 
 1339              		.loc 1 1799 0
 1340 0002 0727     		movs	r7, #7
1786:Generated_Source\PSoC4/CapSense_SensingCSD_LL.c ****     uint8  interruptState;
 1341              		.loc 1 1786 0
 1342 0004 0400     		movs	r4, r0
1794:Generated_Source\PSoC4/CapSense_SensingCSD_LL.c **** 
 1343              		.loc 1 1794 0
 1344 0006 857E     		ldrb	r5, [r0, #26]
1793:Generated_Source\PSoC4/CapSense_SensingCSD_LL.c ****     pinModeShift = (uint32)snsAddrPtr->shift;
 1345              		.loc 1 1793 0
 1346 0008 067E     		ldrb	r6, [r0, #24]
 1347              	.LVL124:
1799:Generated_Source\PSoC4/CapSense_SensingCSD_LL.c **** 
 1348              		.loc 1 1799 0
 1349 000a AF40     		lsls	r7, r7, r5
1796:Generated_Source\PSoC4/CapSense_SensingCSD_LL.c **** 
 1350              		.loc 1 1796 0
 1351 000c FFF7FEFF 		bl	CyEnterCriticalSection
 1352              	.LVL125:
1798:Generated_Source\PSoC4/CapSense_SensingCSD_LL.c ****     newPcRegValue &= ~(CapSense_GPIO_PC_MASK << pinModeShift);
 1353              		.loc 1 1798 0
 1354 0010 6268     		ldr	r2, [r4, #4]
1796:Generated_Source\PSoC4/CapSense_SensingCSD_LL.c **** 
 1355              		.loc 1 1796 0
 1356 0012 0190     		str	r0, [sp, #4]
 1357              	.LVL126:
1798:Generated_Source\PSoC4/CapSense_SensingCSD_LL.c ****     newPcRegValue &= ~(CapSense_GPIO_PC_MASK << pinModeShift);
 1358              		.loc 1 1798 0
 1359 0014 1368     		ldr	r3, [r2]
 1360              	.LVL127:
1799:Generated_Source\PSoC4/CapSense_SensingCSD_LL.c **** 
 1361              		.loc 1 1799 0
 1362 0016 BB43     		bics	r3, r7
 1363              	.LVL128:
1801:Generated_Source\PSoC4/CapSense_SensingCSD_LL.c ****     newHsiomRegValue &= ~(CapSense_HSIOM_SEL_MASK << pinHSIOMShift);
 1364              		.loc 1 1801 0
 1365 0018 2768     		ldr	r7, [r4]
1799:Generated_Source\PSoC4/CapSense_SensingCSD_LL.c **** 
 1366              		.loc 1 1799 0
 1367 001a 1900     		movs	r1, r3
 1368              	.LVL129:
1801:Generated_Source\PSoC4/CapSense_SensingCSD_LL.c ****     newHsiomRegValue &= ~(CapSense_HSIOM_SEL_MASK << pinHSIOMShift);
 1369              		.loc 1 1801 0
 1370 001c 3B68     		ldr	r3, [r7]
 1371 001e 9C46     		mov	ip, r3
 1372              	.LVL130:
1802:Generated_Source\PSoC4/CapSense_SensingCSD_LL.c ****     CY_SET_REG32(snsAddrPtr->hsiomPtr, newHsiomRegValue);
 1373              		.loc 1 1802 0
 1374 0020 0F23     		movs	r3, #15
 1375              	.LVL131:
ARM GAS  C:\Users\zack.li\AppData\Local\Temp\ccTyLy6m.s 			page 77


 1376 0022 6046     		mov	r0, ip
 1377 0024 B340     		lsls	r3, r3, r6
 1378 0026 9843     		bics	r0, r3
1803:Generated_Source\PSoC4/CapSense_SensingCSD_LL.c **** 
 1379              		.loc 1 1803 0
 1380 0028 3860     		str	r0, [r7]
1802:Generated_Source\PSoC4/CapSense_SensingCSD_LL.c ****     CY_SET_REG32(snsAddrPtr->hsiomPtr, newHsiomRegValue);
 1381              		.loc 1 1802 0
 1382 002a 0300     		movs	r3, r0
 1383              	.LVL132:
1805:Generated_Source\PSoC4/CapSense_SensingCSD_LL.c ****     {
 1384              		.loc 1 1805 0
 1385 002c 0F48     		ldr	r0, .L72
 1386              	.LVL133:
 1387 002e 8446     		mov	ip, r0
 1388 0030 AD20     		movs	r0, #173
 1389 0032 8444     		add	ip, ip, r0
 1390 0034 6046     		mov	r0, ip
 1391 0036 0078     		ldrb	r0, [r0]
 1392 0038 0028     		cmp	r0, #0
 1393 003a 04D1     		bne	.L70
1807:Generated_Source\PSoC4/CapSense_SensingCSD_LL.c ****         CY_SET_REG32(snsAddrPtr->pcPtr, newPcRegValue);
 1394              		.loc 1 1807 0
 1395 003c 0623     		movs	r3, #6
 1396              	.LVL134:
 1397 003e AB40     		lsls	r3, r3, r5
 1398 0040 0B43     		orrs	r3, r1
 1399              	.LVL135:
1808:Generated_Source\PSoC4/CapSense_SensingCSD_LL.c ****     }
 1400              		.loc 1 1808 0
 1401 0042 1360     		str	r3, [r2]
 1402              	.LVL136:
 1403 0044 06E0     		b	.L71
 1404              	.LVL137:
 1405              	.L70:
1813:Generated_Source\PSoC4/CapSense_SensingCSD_LL.c ****         {
 1406              		.loc 1 1813 0
 1407 0046 0228     		cmp	r0, #2
 1408 0048 04D1     		bne	.L71
1816:Generated_Source\PSoC4/CapSense_SensingCSD_LL.c ****             CY_SET_REG32(snsAddrPtr->pcPtr, newPcRegValue);
 1409              		.loc 1 1816 0
 1410 004a 0525     		movs	r5, #5
 1411              	.LVL138:
 1412 004c B540     		lsls	r5, r5, r6
 1413 004e 2B43     		orrs	r3, r5
 1414              	.LVL139:
1817:Generated_Source\PSoC4/CapSense_SensingCSD_LL.c ****             CY_SET_REG32(snsAddrPtr->hsiomPtr, newHsiomRegValue);
 1415              		.loc 1 1817 0
 1416 0050 1160     		str	r1, [r2]
1818:Generated_Source\PSoC4/CapSense_SensingCSD_LL.c ****         }
 1417              		.loc 1 1818 0
 1418 0052 3B60     		str	r3, [r7]
 1419              	.LVL140:
 1420              	.L71:
1822:Generated_Source\PSoC4/CapSense_SensingCSD_LL.c **** 
 1421              		.loc 1 1822 0
 1422 0054 0122     		movs	r2, #1
ARM GAS  C:\Users\zack.li\AppData\Local\Temp\ccTyLy6m.s 			page 78


 1423 0056 A168     		ldr	r1, [r4, #8]
 1424 0058 647E     		ldrb	r4, [r4, #25]
 1425              	.LVL141:
 1426 005a 0B68     		ldr	r3, [r1]
 1427 005c A240     		lsls	r2, r2, r4
 1428 005e 9343     		bics	r3, r2
 1429 0060 0B60     		str	r3, [r1]
1824:Generated_Source\PSoC4/CapSense_SensingCSD_LL.c **** }
 1430              		.loc 1 1824 0
 1431 0062 0198     		ldr	r0, [sp, #4]
 1432 0064 FFF7FEFF 		bl	CyExitCriticalSection
 1433              	.LVL142:
1825:Generated_Source\PSoC4/CapSense_SensingCSD_LL.c **** 
 1434              		.loc 1 1825 0
 1435              		@ sp needed
 1436              	.LVL143:
 1437 0068 F7BD     		pop	{r0, r1, r2, r4, r5, r6, r7, pc}
 1438              	.L73:
 1439 006a C046     		.align	2
 1440              	.L72:
 1441 006c 00000000 		.word	CapSense_dsRam
 1442              		.cfi_endproc
 1443              	.LFE22:
 1444              		.size	CapSense_CSDDisconnectSns, .-CapSense_CSDDisconnectSns
 1445              		.section	.text.CapSense_SsCSDElectrodeCheck,"ax",%progbits
 1446              		.align	1
 1447              		.global	CapSense_SsCSDElectrodeCheck
 1448              		.code	16
 1449              		.thumb_func
 1450              		.type	CapSense_SsCSDElectrodeCheck, %function
 1451              	CapSense_SsCSDElectrodeCheck:
 1452              	.LFB9:
 738:Generated_Source\PSoC4/CapSense_SensingCSD_LL.c ****     #if (CapSense_ENABLE == CapSense_CSD_GANGED_SNS_EN)
 1453              		.loc 1 738 0
 1454              		.cfi_startproc
 1455              		@ args = 0, pretend = 0, frame = 0
 1456              		@ frame_needed = 0, uses_anonymous_args = 0
 1457 0000 10B5     		push	{r4, lr}
 1458              		.cfi_def_cfa_offset 8
 1459              		.cfi_offset 4, -8
 1460              		.cfi_offset 14, -4
 743:Generated_Source\PSoC4/CapSense_SensingCSD_LL.c ****     {
 1461              		.loc 1 743 0
 1462 0002 054C     		ldr	r4, .L76
 1463 0004 2378     		ldrb	r3, [r4]
 1464 0006 012B     		cmp	r3, #1
 1465 0008 05D1     		bne	.L74
 1466              	.LBB28:
 1467              	.LBB29:
 771:Generated_Source\PSoC4/CapSense_SensingCSD_LL.c ****         #endif /* (CapSense_ENABLE == CapSense_CSD_GANGED_SNS_EN)  */
 1468              		.loc 1 771 0
 1469 000a 044B     		ldr	r3, .L76+4
 1470 000c 1868     		ldr	r0, [r3]
 1471 000e FFF7FEFF 		bl	CapSense_CSDDisconnectSns
 1472              	.LVL144:
 774:Generated_Source\PSoC4/CapSense_SensingCSD_LL.c ****     }
 1473              		.loc 1 774 0
ARM GAS  C:\Users\zack.li\AppData\Local\Temp\ccTyLy6m.s 			page 79


 1474 0012 0023     		movs	r3, #0
 1475 0014 2370     		strb	r3, [r4]
 1476              	.L74:
 1477              	.LBE29:
 1478              	.LBE28:
 776:Generated_Source\PSoC4/CapSense_SensingCSD_LL.c **** 
 1479              		.loc 1 776 0
 1480              		@ sp needed
 1481 0016 10BD     		pop	{r4, pc}
 1482              	.L77:
 1483              		.align	2
 1484              	.L76:
 1485 0018 00000000 		.word	.LANCHOR1
 1486 001c 00000000 		.word	CapSense_curSnsIOPtr
 1487              		.cfi_endproc
 1488              	.LFE9:
 1489              		.size	CapSense_SsCSDElectrodeCheck, .-CapSense_SsCSDElectrodeCheck
 1490              		.section	.text.CapSense_CSDSetupWidget,"ax",%progbits
 1491              		.align	1
 1492              		.global	CapSense_CSDSetupWidget
 1493              		.code	16
 1494              		.thumb_func
 1495              		.type	CapSense_CSDSetupWidget, %function
 1496              	CapSense_CSDSetupWidget:
 1497              	.LFB14:
1180:Generated_Source\PSoC4/CapSense_SensingCSD_LL.c ****     CapSense_RAM_WD_BASE_STRUCT const *ptrWdgt = (CapSense_RAM_WD_BASE_STRUCT *)
 1498              		.loc 1 1180 0
 1499              		.cfi_startproc
 1500              		@ args = 0, pretend = 0, frame = 0
 1501              		@ frame_needed = 0, uses_anonymous_args = 0
 1502              	.LVL145:
 1503 0000 F8B5     		push	{r3, r4, r5, r6, r7, lr}
 1504              		.cfi_def_cfa_offset 24
 1505              		.cfi_offset 3, -24
 1506              		.cfi_offset 4, -20
 1507              		.cfi_offset 5, -16
 1508              		.cfi_offset 6, -12
 1509              		.cfi_offset 7, -8
 1510              		.cfi_offset 14, -4
1181:Generated_Source\PSoC4/CapSense_SensingCSD_LL.c ****                                                 CapSense_dsFlash.wdgtArray[widgetId].ptr2WdgtRam;
 1511              		.loc 1 1181 0
 1512 0002 1C24     		movs	r4, #28
 1513 0004 2300     		movs	r3, r4
 1514 0006 4343     		muls	r3, r0
1185:Generated_Source\PSoC4/CapSense_SensingCSD_LL.c **** 
 1515              		.loc 1 1185 0
 1516 0008 0F4D     		ldr	r5, .L79
1181:Generated_Source\PSoC4/CapSense_SensingCSD_LL.c ****                                                 CapSense_dsFlash.wdgtArray[widgetId].ptr2WdgtRam;
 1517              		.loc 1 1181 0
 1518 000a 104F     		ldr	r7, .L79+4
1185:Generated_Source\PSoC4/CapSense_SensingCSD_LL.c **** 
 1519              		.loc 1 1185 0
 1520 000c C0B2     		uxtb	r0, r0
 1521              	.LVL146:
1181:Generated_Source\PSoC4/CapSense_SensingCSD_LL.c ****                                                 CapSense_dsFlash.wdgtArray[widgetId].ptr2WdgtRam;
 1522              		.loc 1 1181 0
 1523 000e FB18     		adds	r3, r7, r3
ARM GAS  C:\Users\zack.li\AppData\Local\Temp\ccTyLy6m.s 			page 80


1185:Generated_Source\PSoC4/CapSense_SensingCSD_LL.c **** 
 1524              		.loc 1 1185 0
 1525 0010 2870     		strb	r0, [r5]
1187:Generated_Source\PSoC4/CapSense_SensingCSD_LL.c **** 
 1526              		.loc 1 1187 0
 1527 0012 0120     		movs	r0, #1
1181:Generated_Source\PSoC4/CapSense_SensingCSD_LL.c ****                                                 CapSense_dsFlash.wdgtArray[widgetId].ptr2WdgtRam;
 1528              		.loc 1 1181 0
 1529 0014 5E68     		ldr	r6, [r3, #4]
 1530              	.LVL147:
1187:Generated_Source\PSoC4/CapSense_SensingCSD_LL.c **** 
 1531              		.loc 1 1187 0
 1532 0016 FFF7FEFF 		bl	CapSense_SsSwitchSensingMode
 1533              	.LVL148:
1195:Generated_Source\PSoC4/CapSense_SensingCSD_LL.c **** 
 1534              		.loc 1 1195 0
 1535 001a FFF7FEFF 		bl	CapSense_SsCSDElectrodeCheck
 1536              	.LVL149:
1202:Generated_Source\PSoC4/CapSense_SensingCSD_LL.c ****     CapSense_dsRam.status |= CapSense_widgetIndex;
 1537              		.loc 1 1202 0
 1538 001e 7F21     		movs	r1, #127
1199:Generated_Source\PSoC4/CapSense_SensingCSD_LL.c **** 
 1539              		.loc 1 1199 0
 1540 0020 2B78     		ldrb	r3, [r5]
1205:Generated_Source\PSoC4/CapSense_SensingCSD_LL.c ****     #if (((CapSense_DISABLE == CapSense_CSD_COMMON_SNS_CLK_EN) || \
 1541              		.loc 1 1205 0
 1542 0022 3000     		movs	r0, r6
1199:Generated_Source\PSoC4/CapSense_SensingCSD_LL.c **** 
 1543              		.loc 1 1199 0
 1544 0024 5C43     		muls	r4, r3
1198:Generated_Source\PSoC4/CapSense_SensingCSD_LL.c ****                                     CapSense_dsFlash.wdgtArray[CapSense_widgetIndex].ptr2SnsFlash;
 1545              		.loc 1 1198 0
 1546 0026 0A4B     		ldr	r3, .L79+8
 1547 0028 E259     		ldr	r2, [r4, r7]
1212:Generated_Source\PSoC4/CapSense_SensingCSD_LL.c **** 
 1548              		.loc 1 1212 0
 1549              		@ sp needed
1198:Generated_Source\PSoC4/CapSense_SensingCSD_LL.c ****                                     CapSense_dsFlash.wdgtArray[CapSense_widgetIndex].ptr2SnsFlash;
 1550              		.loc 1 1198 0
 1551 002a 1A60     		str	r2, [r3]
1202:Generated_Source\PSoC4/CapSense_SensingCSD_LL.c ****     CapSense_dsRam.status |= CapSense_widgetIndex;
 1552              		.loc 1 1202 0
 1553 002c 094B     		ldr	r3, .L79+12
 1554 002e DA68     		ldr	r2, [r3, #12]
 1555 0030 8A43     		bics	r2, r1
 1556 0032 DA60     		str	r2, [r3, #12]
1203:Generated_Source\PSoC4/CapSense_SensingCSD_LL.c **** 
 1557              		.loc 1 1203 0
 1558 0034 2978     		ldrb	r1, [r5]
 1559 0036 DA68     		ldr	r2, [r3, #12]
 1560 0038 0A43     		orrs	r2, r1
 1561 003a DA60     		str	r2, [r3, #12]
1205:Generated_Source\PSoC4/CapSense_SensingCSD_LL.c ****     #if (((CapSense_DISABLE == CapSense_CSD_COMMON_SNS_CLK_EN) || \
 1562              		.loc 1 1205 0
 1563 003c FFF7FEFF 		bl	CapSense_SsCSDCalculateScanDuration
 1564              	.LVL150:
1210:Generated_Source\PSoC4/CapSense_SensingCSD_LL.c ****     #endif
ARM GAS  C:\Users\zack.li\AppData\Local\Temp\ccTyLy6m.s 			page 81


 1565              		.loc 1 1210 0
 1566 0040 FFF7FEFF 		bl	CapSense_SsCSDConfigClock
 1567              	.LVL151:
 1568              	.LVL152:
 1569              	.LVL153:
1212:Generated_Source\PSoC4/CapSense_SensingCSD_LL.c **** 
 1570              		.loc 1 1212 0
 1571 0044 F8BD     		pop	{r3, r4, r5, r6, r7, pc}
 1572              	.L80:
 1573 0046 C046     		.align	2
 1574              	.L79:
 1575 0048 00000000 		.word	CapSense_widgetIndex
 1576 004c 00000000 		.word	CapSense_dsFlash
 1577 0050 00000000 		.word	CapSense_curSnsIOPtr
 1578 0054 00000000 		.word	CapSense_dsRam
 1579              		.cfi_endproc
 1580              	.LFE14:
 1581              		.size	CapSense_CSDSetupWidget, .-CapSense_CSDSetupWidget
 1582              		.section	.text.CapSense_CSDSetupWidgetExt,"ax",%progbits
 1583              		.align	1
 1584              		.global	CapSense_CSDSetupWidgetExt
 1585              		.code	16
 1586              		.thumb_func
 1587              		.type	CapSense_CSDSetupWidgetExt, %function
 1588              	CapSense_CSDSetupWidgetExt:
 1589              	.LFB15:
1266:Generated_Source\PSoC4/CapSense_SensingCSD_LL.c ****     CapSense_RAM_WD_BASE_STRUCT const *ptrWdgt = (CapSense_RAM_WD_BASE_STRUCT *)
 1590              		.loc 1 1266 0
 1591              		.cfi_startproc
 1592              		@ args = 0, pretend = 0, frame = 0
 1593              		@ frame_needed = 0, uses_anonymous_args = 0
 1594              	.LVL154:
 1595 0000 70B5     		push	{r4, r5, r6, lr}
 1596              		.cfi_def_cfa_offset 16
 1597              		.cfi_offset 4, -16
 1598              		.cfi_offset 5, -12
 1599              		.cfi_offset 6, -8
 1600              		.cfi_offset 14, -4
1267:Generated_Source\PSoC4/CapSense_SensingCSD_LL.c ****                                                     CapSense_dsFlash.wdgtArray[widgetId].ptr2WdgtRa
 1601              		.loc 1 1267 0
 1602 0002 1C24     		movs	r4, #28
 1603 0004 2300     		movs	r3, r4
 1604 0006 4343     		muls	r3, r0
 1605 0008 104A     		ldr	r2, .L82
1271:Generated_Source\PSoC4/CapSense_SensingCSD_LL.c **** 
 1606              		.loc 1 1271 0
 1607 000a 114D     		ldr	r5, .L82+4
1267:Generated_Source\PSoC4/CapSense_SensingCSD_LL.c ****                                                     CapSense_dsFlash.wdgtArray[widgetId].ptr2WdgtRa
 1608              		.loc 1 1267 0
 1609 000c D218     		adds	r2, r2, r3
1274:Generated_Source\PSoC4/CapSense_SensingCSD_LL.c ****                                               CapSense_dsFlash.wdgtArray[widgetId].ptr2SnsRam
 1610              		.loc 1 1274 0
 1611 000e 0A23     		movs	r3, #10
1271:Generated_Source\PSoC4/CapSense_SensingCSD_LL.c **** 
 1612              		.loc 1 1271 0
 1613 0010 C9B2     		uxtb	r1, r1
 1614              	.LVL155:
ARM GAS  C:\Users\zack.li\AppData\Local\Temp\ccTyLy6m.s 			page 82


 1615 0012 2970     		strb	r1, [r5]
1276:Generated_Source\PSoC4/CapSense_SensingCSD_LL.c **** 
 1616              		.loc 1 1276 0
 1617 0014 2978     		ldrb	r1, [r5]
1267:Generated_Source\PSoC4/CapSense_SensingCSD_LL.c ****                                                     CapSense_dsFlash.wdgtArray[widgetId].ptr2WdgtRa
 1618              		.loc 1 1267 0
 1619 0016 5668     		ldr	r6, [r2, #4]
 1620              	.LVL156:
1274:Generated_Source\PSoC4/CapSense_SensingCSD_LL.c ****                                               CapSense_dsFlash.wdgtArray[widgetId].ptr2SnsRam
 1621              		.loc 1 1274 0
 1622 0018 4B43     		muls	r3, r1
 1623 001a 9268     		ldr	r2, [r2, #8]
1307:Generated_Source\PSoC4/CapSense_SensingCSD_LL.c **** 
 1624              		.loc 1 1307 0
 1625              		@ sp needed
1274:Generated_Source\PSoC4/CapSense_SensingCSD_LL.c ****                                               CapSense_dsFlash.wdgtArray[widgetId].ptr2SnsRam
 1626              		.loc 1 1274 0
 1627 001c D318     		adds	r3, r2, r3
 1628 001e 0D4A     		ldr	r2, .L82+8
 1629 0020 1360     		str	r3, [r2]
1278:Generated_Source\PSoC4/CapSense_SensingCSD_LL.c **** 
 1630              		.loc 1 1278 0
 1631 0022 FFF7FEFF 		bl	CapSense_CSDSetupWidget
 1632              	.LVL157:
1281:Generated_Source\PSoC4/CapSense_SensingCSD_LL.c **** 
 1633              		.loc 1 1281 0
 1634 0026 3000     		movs	r0, r6
 1635 0028 FFF7FEFF 		bl	CapSense_SsCSDSetUpIdacs
 1636              	.LVL158:
1292:Generated_Source\PSoC4/CapSense_SensingCSD_LL.c ****         CapSense_CSDConnectSns(CapSense_curSnsIOPtr);
 1637              		.loc 1 1292 0
 1638 002c 2878     		ldrb	r0, [r5]
 1639 002e 0A4B     		ldr	r3, .L82+12
 1640 0030 6043     		muls	r0, r4
 1641 0032 1A68     		ldr	r2, [r3]
 1642 0034 1018     		adds	r0, r2, r0
 1643 0036 1860     		str	r0, [r3]
1293:Generated_Source\PSoC4/CapSense_SensingCSD_LL.c ****     #endif /* (CapSense_ENABLE == CapSense_CSD_GANGED_SNS_EN)  */
 1644              		.loc 1 1293 0
 1645 0038 FFF7FEFF 		bl	CapSense_CSDConnectSns
 1646              	.LVL159:
1303:Generated_Source\PSoC4/CapSense_SensingCSD_LL.c **** 
 1647              		.loc 1 1303 0
 1648 003c 0122     		movs	r2, #1
 1649 003e 074B     		ldr	r3, .L82+16
1306:Generated_Source\PSoC4/CapSense_SensingCSD_LL.c **** }
 1650              		.loc 1 1306 0
 1651 0040 0748     		ldr	r0, .L82+20
1303:Generated_Source\PSoC4/CapSense_SensingCSD_LL.c **** 
 1652              		.loc 1 1303 0
 1653 0042 1A70     		strb	r2, [r3]
1306:Generated_Source\PSoC4/CapSense_SensingCSD_LL.c **** }
 1654              		.loc 1 1306 0
 1655 0044 FFF7FEFF 		bl	CapSense_ISR_StartEx
 1656              	.LVL160:
 1657              	.LVL161:
1307:Generated_Source\PSoC4/CapSense_SensingCSD_LL.c **** 
ARM GAS  C:\Users\zack.li\AppData\Local\Temp\ccTyLy6m.s 			page 83


 1658              		.loc 1 1307 0
 1659 0048 70BD     		pop	{r4, r5, r6, pc}
 1660              	.L83:
 1661 004a C046     		.align	2
 1662              	.L82:
 1663 004c 00000000 		.word	CapSense_dsFlash
 1664 0050 00000000 		.word	CapSense_sensorIndex
 1665 0054 00000000 		.word	CapSense_curRamSnsPtr
 1666 0058 00000000 		.word	CapSense_curSnsIOPtr
 1667 005c 00000000 		.word	.LANCHOR1
 1668 0060 00000000 		.word	CapSense_CSDPostSingleScan
 1669              		.cfi_endproc
 1670              	.LFE15:
 1671              		.size	CapSense_CSDSetupWidgetExt, .-CapSense_CSDSetupWidgetExt
 1672              		.section	.text.CapSense_SsCSDDisconnectSnsExt,"ax",%progbits
 1673              		.align	1
 1674              		.global	CapSense_SsCSDDisconnectSnsExt
 1675              		.code	16
 1676              		.thumb_func
 1677              		.type	CapSense_SsCSDDisconnectSnsExt, %function
 1678              	CapSense_SsCSDDisconnectSnsExt:
 1679              	.LFB20:
1661:Generated_Source\PSoC4/CapSense_SensingCSD_LL.c ****     #if (CapSense_ENABLE == CapSense_CSD_GANGED_SNS_EN)
 1680              		.loc 1 1661 0
 1681              		.cfi_startproc
 1682              		@ args = 0, pretend = 0, frame = 0
 1683              		@ frame_needed = 0, uses_anonymous_args = 0
 1684              	.LVL162:
1668:Generated_Source\PSoC4/CapSense_SensingCSD_LL.c ****                                                       + sensorId;
 1685              		.loc 1 1668 0
 1686 0000 1C23     		movs	r3, #28
 1687 0002 0200     		movs	r2, r0
 1688 0004 5A43     		muls	r2, r3
1669:Generated_Source\PSoC4/CapSense_SensingCSD_LL.c **** 
 1689              		.loc 1 1669 0
 1690 0006 4B43     		muls	r3, r1
 1691 0008 0449     		ldr	r1, .L85
 1692              	.LVL163:
1661:Generated_Source\PSoC4/CapSense_SensingCSD_LL.c ****     #if (CapSense_ENABLE == CapSense_CSD_GANGED_SNS_EN)
 1693              		.loc 1 1661 0
 1694 000a 10B5     		push	{r4, lr}
 1695              		.cfi_def_cfa_offset 8
 1696              		.cfi_offset 4, -8
 1697              		.cfi_offset 14, -4
1669:Generated_Source\PSoC4/CapSense_SensingCSD_LL.c **** 
 1698              		.loc 1 1669 0
 1699 000c 5058     		ldr	r0, [r2, r1]
 1700              	.LVL164:
1704:Generated_Source\PSoC4/CapSense_SensingCSD_LL.c **** 
 1701              		.loc 1 1704 0
 1702              		@ sp needed
1669:Generated_Source\PSoC4/CapSense_SensingCSD_LL.c **** 
 1703              		.loc 1 1669 0
 1704 000e C018     		adds	r0, r0, r3
1667:Generated_Source\PSoC4/CapSense_SensingCSD_LL.c ****                                                       CapSense_dsFlash.wdgtArray[widgetId].ptr2SnsF
 1705              		.loc 1 1667 0
 1706 0010 034B     		ldr	r3, .L85+4
ARM GAS  C:\Users\zack.li\AppData\Local\Temp\ccTyLy6m.s 			page 84


 1707 0012 1860     		str	r0, [r3]
1702:Generated_Source\PSoC4/CapSense_SensingCSD_LL.c ****     #endif /* (CapSense_ENABLE == CapSense_CSD_GANGED_SNS_EN) */
 1708              		.loc 1 1702 0
 1709 0014 FFF7FEFF 		bl	CapSense_CSDDisconnectSns
 1710              	.LVL165:
1704:Generated_Source\PSoC4/CapSense_SensingCSD_LL.c **** 
 1711              		.loc 1 1704 0
 1712 0018 10BD     		pop	{r4, pc}
 1713              	.L86:
 1714 001a C046     		.align	2
 1715              	.L85:
 1716 001c 00000000 		.word	CapSense_dsFlash
 1717 0020 00000000 		.word	CapSense_curSnsIOPtr
 1718              		.cfi_endproc
 1719              	.LFE20:
 1720              		.size	CapSense_SsCSDDisconnectSnsExt, .-CapSense_SsCSDDisconnectSnsExt
 1721              		.section	.text.CapSense_CSDCalibrateWidget,"ax",%progbits
 1722              		.align	1
 1723              		.global	CapSense_CSDCalibrateWidget
 1724              		.code	16
 1725              		.thumb_func
 1726              		.type	CapSense_CSDCalibrateWidget, %function
 1727              	CapSense_CSDCalibrateWidget:
 1728              	.LFB27:
2417:Generated_Source\PSoC4/CapSense_SensingCSD_LL.c ****         cystatus calibrateStatus = CYRET_SUCCESS;
 1729              		.loc 1 2417 0
 1730              		.cfi_startproc
 1731              		@ args = 0, pretend = 0, frame = 32
 1732              		@ frame_needed = 0, uses_anonymous_args = 0
 1733              	.LVL166:
 1734 0000 F0B5     		push	{r4, r5, r6, r7, lr}
 1735              		.cfi_def_cfa_offset 20
 1736              		.cfi_offset 4, -20
 1737              		.cfi_offset 5, -16
 1738              		.cfi_offset 6, -12
 1739              		.cfi_offset 7, -8
 1740              		.cfi_offset 14, -4
2427:Generated_Source\PSoC4/CapSense_SensingCSD_LL.c ****         {
 1741              		.loc 1 2427 0
 1742 0002 994B     		ldr	r3, .L147
2417:Generated_Source\PSoC4/CapSense_SensingCSD_LL.c ****         cystatus calibrateStatus = CYRET_SUCCESS;
 1743              		.loc 1 2417 0
 1744 0004 89B0     		sub	sp, sp, #36
 1745              		.cfi_def_cfa_offset 56
2427:Generated_Source\PSoC4/CapSense_SensingCSD_LL.c ****         {
 1746              		.loc 1 2427 0
 1747 0006 DB68     		ldr	r3, [r3, #12]
2417:Generated_Source\PSoC4/CapSense_SensingCSD_LL.c ****         cystatus calibrateStatus = CYRET_SUCCESS;
 1748              		.loc 1 2417 0
 1749 0008 0290     		str	r0, [sp, #8]
 1750 000a 0391     		str	r1, [sp, #12]
2430:Generated_Source\PSoC4/CapSense_SensingCSD_LL.c ****         }
 1751              		.loc 1 2430 0
 1752 000c 1122     		movs	r2, #17
2427:Generated_Source\PSoC4/CapSense_SensingCSD_LL.c ****         {
 1753              		.loc 1 2427 0
 1754 000e DB03     		lsls	r3, r3, #15
ARM GAS  C:\Users\zack.li\AppData\Local\Temp\ccTyLy6m.s 			page 85


 1755 0010 00D5     		bpl	.LCB1433
 1756 0012 26E1     		b	.L136	@long jump
 1757              	.LCB1433:
2435:Generated_Source\PSoC4/CapSense_SensingCSD_LL.c ****                 CapSense_CSD_IDAC_GAIN_INDEX_DEFAULT;
 1758              		.loc 1 2435 0
 1759 0014 0300     		movs	r3, r0
 1760 0016 0B32     		adds	r2, r2, #11
 1761 0018 5343     		muls	r3, r2
 1762 001a 9449     		ldr	r1, .L147+4
 1763              	.LVL167:
 1764              	.LBB38:
 1765              	.LBB39:
2219:Generated_Source\PSoC4/CapSense_SensingCSD_LL.c ****         {
 1766              		.loc 1 2219 0
 1767 001c 0792     		str	r2, [sp, #28]
 1768              	.LBE39:
 1769              	.LBE38:
2435:Generated_Source\PSoC4/CapSense_SensingCSD_LL.c ****                 CapSense_CSD_IDAC_GAIN_INDEX_DEFAULT;
 1770              		.loc 1 2435 0
 1771 001e CB18     		adds	r3, r1, r3
 1772 0020 5F68     		ldr	r7, [r3, #4]
 1773 0022 0423     		movs	r3, #4
 1774 0024 BB72     		strb	r3, [r7, #10]
 1775              	.LVL168:
 1776              	.L104:
 1777              	.LBB43:
 1778              	.LBB40:
2208:Generated_Source\PSoC4/CapSense_SensingCSD_LL.c **** 
 1779              		.loc 1 2208 0 discriminator 1
 1780 0026 0120     		movs	r0, #1
 1781 0028 3B88     		ldrh	r3, [r7]
 1782 002a 6421     		movs	r1, #100
 1783 002c 9840     		lsls	r0, r0, r3
 1784 002e 039B     		ldr	r3, [sp, #12]
 1785 0030 0138     		subs	r0, r0, #1
 1786 0032 5843     		muls	r0, r3
 1787 0034 FFF7FEFF 		bl	__aeabi_uidiv
 1788              	.LVL169:
2201:Generated_Source\PSoC4/CapSense_SensingCSD_LL.c ****             #if (CapSense_CSD_MATRIX_WIDGET_EN || CapSense_CSD_TOUCHPAD_WIDGET_EN)
 1789              		.loc 1 2201 0 discriminator 1
 1790 0038 0024     		movs	r4, #0
2219:Generated_Source\PSoC4/CapSense_SensingCSD_LL.c ****         {
 1791              		.loc 1 2219 0 discriminator 1
 1792 003a 029A     		ldr	r2, [sp, #8]
 1793 003c 079B     		ldr	r3, [sp, #28]
2208:Generated_Source\PSoC4/CapSense_SensingCSD_LL.c **** 
 1794              		.loc 1 2208 0 discriminator 1
 1795 003e 0690     		str	r0, [sp, #24]
 1796              	.LVL170:
2219:Generated_Source\PSoC4/CapSense_SensingCSD_LL.c ****         {
 1797              		.loc 1 2219 0 discriminator 1
 1798 0040 5343     		muls	r3, r2
 1799 0042 8A4A     		ldr	r2, .L147+4
 1800 0044 0194     		str	r4, [sp, #4]
 1801 0046 D318     		adds	r3, r2, r3
 1802 0048 0593     		str	r3, [sp, #20]
 1803              	.LVL171:
ARM GAS  C:\Users\zack.li\AppData\Local\Temp\ccTyLy6m.s 			page 86


 1804              	.L89:
2219:Generated_Source\PSoC4/CapSense_SensingCSD_LL.c ****         {
 1805              		.loc 1 2219 0 is_stmt 0
 1806 004a 059B     		ldr	r3, [sp, #20]
 1807 004c 019A     		ldr	r2, [sp, #4]
 1808 004e 198B     		ldrh	r1, [r3, #24]
 1809 0050 0833     		adds	r3, r3, #8
 1810 0052 8A42     		cmp	r2, r1
 1811 0054 36D2     		bcs	.L145
2232:Generated_Source\PSoC4/CapSense_SensingCSD_LL.c **** 
 1812              		.loc 1 2232 0 is_stmt 1
 1813 0056 0A25     		movs	r5, #10
 1814 0058 019B     		ldr	r3, [sp, #4]
2238:Generated_Source\PSoC4/CapSense_SensingCSD_LL.c ****                 #if (CapSense_ENABLE == CapSense_CSD_IDAC_COMP_EN)
 1815              		.loc 1 2238 0
 1816 005a 4026     		movs	r6, #64
2232:Generated_Source\PSoC4/CapSense_SensingCSD_LL.c **** 
 1817              		.loc 1 2232 0
 1818 005c 5D43     		muls	r5, r3
 1819 005e 059B     		ldr	r3, [sp, #20]
2238:Generated_Source\PSoC4/CapSense_SensingCSD_LL.c ****                 #if (CapSense_ENABLE == CapSense_CSD_IDAC_COMP_EN)
 1820              		.loc 1 2238 0
 1821 0060 7E72     		strb	r6, [r7, #9]
2232:Generated_Source\PSoC4/CapSense_SensingCSD_LL.c **** 
 1822              		.loc 1 2232 0
 1823 0062 9B68     		ldr	r3, [r3, #8]
 1824 0064 5D19     		adds	r5, r3, r5
 1825              	.LVL172:
2240:Generated_Source\PSoC4/CapSense_SensingCSD_LL.c ****                 #endif
 1826              		.loc 1 2240 0
 1827 0066 0723     		movs	r3, #7
 1828 0068 6E72     		strb	r6, [r5, #9]
 1829              	.LVL173:
 1830 006a 0493     		str	r3, [sp, #16]
 1831              	.LVL174:
 1832              	.L93:
2248:Generated_Source\PSoC4/CapSense_SensingCSD_LL.c **** 
 1833              		.loc 1 2248 0
 1834 006c 0199     		ldr	r1, [sp, #4]
 1835 006e 0298     		ldr	r0, [sp, #8]
 1836 0070 FFF7FEFF 		bl	CapSense_CSDSetupWidgetExt
 1837              	.LVL175:
2251:Generated_Source\PSoC4/CapSense_SensingCSD_LL.c ****                 #endif
 1838              		.loc 1 2251 0
 1839 0074 0120     		movs	r0, #1
 1840 0076 FFF7FEFF 		bl	CapSense_DischargeExtCapacitors
 1841              	.LVL176:
2255:Generated_Source\PSoC4/CapSense_SensingCSD_LL.c **** 
 1842              		.loc 1 2255 0
 1843 007a FFF7FEFF 		bl	CapSense_CSDScanExt
 1844              	.LVL177:
 1845 007e 7C4B     		ldr	r3, .L147+8
2258:Generated_Source\PSoC4/CapSense_SensingCSD_LL.c ****                 {
 1846              		.loc 1 2258 0
 1847 0080 794A     		ldr	r2, .L147
 1848              	.LVL178:
 1849              	.L91:
ARM GAS  C:\Users\zack.li\AppData\Local\Temp\ccTyLy6m.s 			page 87


 1850 0082 8020     		movs	r0, #128
 1851 0084 D168     		ldr	r1, [r2, #12]
 1852 0086 0142     		tst	r1, r0
 1853 0088 02D0     		beq	.L90
 1854 008a 013B     		subs	r3, r3, #1
 1855              	.LVL179:
 1856 008c 002B     		cmp	r3, #0
 1857 008e F8D1     		bne	.L91
 1858              	.LVL180:
 1859              	.L90:
2266:Generated_Source\PSoC4/CapSense_SensingCSD_LL.c ****                     {
 1860              		.loc 1 2266 0
 1861 0090 2B88     		ldrh	r3, [r5]
 1862 0092 069A     		ldr	r2, [sp, #24]
 1863 0094 9A42     		cmp	r2, r3
 1864 0096 02D9     		bls	.L92
2268:Generated_Source\PSoC4/CapSense_SensingCSD_LL.c ****                     }
 1865              		.loc 1 2268 0
 1866 0098 7B7A     		ldrb	r3, [r7, #9]
 1867 009a B343     		bics	r3, r6
 1868 009c 7B72     		strb	r3, [r7, #9]
 1869              	.L92:
 1870              	.LVL181:
2276:Generated_Source\PSoC4/CapSense_SensingCSD_LL.c ****                     #if (CapSense_ENABLE == CapSense_CSD_IDAC_COMP_EN)
 1871              		.loc 1 2276 0
 1872 009e 7B7A     		ldrb	r3, [r7, #9]
2273:Generated_Source\PSoC4/CapSense_SensingCSD_LL.c ****                 for(freqChannel = CapSense_NUM_SCAN_FREQS; freqChannel-- > 0u;)
 1873              		.loc 1 2273 0
 1874 00a0 7608     		lsrs	r6, r6, #1
 1875              	.LVL182:
2276:Generated_Source\PSoC4/CapSense_SensingCSD_LL.c ****                     #if (CapSense_ENABLE == CapSense_CSD_IDAC_COMP_EN)
 1876              		.loc 1 2276 0
 1877 00a2 3343     		orrs	r3, r6
 1878 00a4 DBB2     		uxtb	r3, r3
 1879 00a6 7B72     		strb	r3, [r7, #9]
2278:Generated_Source\PSoC4/CapSense_SensingCSD_LL.c ****                     #endif
 1880              		.loc 1 2278 0
 1881 00a8 6B72     		strb	r3, [r5, #9]
 1882 00aa 049B     		ldr	r3, [sp, #16]
 1883 00ac 013B     		subs	r3, r3, #1
 1884 00ae 0493     		str	r3, [sp, #16]
2280:Generated_Source\PSoC4/CapSense_SensingCSD_LL.c ****                     {
 1885              		.loc 1 2280 0
 1886 00b0 002B     		cmp	r3, #0
 1887 00b2 DBD1     		bne	.L93
2282:Generated_Source\PSoC4/CapSense_SensingCSD_LL.c ****                         {
 1888              		.loc 1 2282 0
 1889 00b4 7B7A     		ldrb	r3, [r7, #9]
 1890 00b6 002B     		cmp	r3, #0
 1891 00b8 30D1     		bne	.L94
2284:Generated_Source\PSoC4/CapSense_SensingCSD_LL.c ****                             #if (CapSense_ENABLE == CapSense_CSD_IDAC_COMP_EN)
 1892              		.loc 1 2284 0
 1893 00ba 0133     		adds	r3, r3, #1
 1894 00bc 7B72     		strb	r3, [r7, #9]
2286:Generated_Source\PSoC4/CapSense_SensingCSD_LL.c ****                             #endif
 1895              		.loc 1 2286 0
 1896 00be 0123     		movs	r3, #1
ARM GAS  C:\Users\zack.li\AppData\Local\Temp\ccTyLy6m.s 			page 88


 1897 00c0 6B72     		strb	r3, [r5, #9]
 1898 00c2 2BE0     		b	.L94
 1899              	.LVL183:
 1900              	.L145:
 1901              	.LBE40:
 1902              	.LBE43:
 1903              	.LBB44:
 1904              	.LBB45:
1932:Generated_Source\PSoC4/CapSense_SensingCSD_LL.c ****             #endif
 1905              		.loc 1 1932 0
 1906 00c4 1B68     		ldr	r3, [r3]
 1907              	.LBE45:
 1908              	.LBE44:
 1909              	.LBB47:
 1910              	.LBB41:
2315:Generated_Source\PSoC4/CapSense_SensingCSD_LL.c ****             #if (CapSense_CSD_MATRIX_WIDGET_EN || CapSense_CSD_TOUCHPAD_WIDGET_EN)
 1911              		.loc 1 2315 0
 1912 00c6 7C72     		strb	r4, [r7, #9]
 1913              	.LVL184:
 1914              	.LBE41:
 1915              	.LBE47:
 1916              	.LBB48:
 1917              	.LBB46:
1932:Generated_Source\PSoC4/CapSense_SensingCSD_LL.c ****             #endif
 1918              		.loc 1 1932 0
 1919 00c8 0193     		str	r3, [sp, #4]
 1920              	.LVL185:
1935:Generated_Source\PSoC4/CapSense_SensingCSD_LL.c **** 
 1921              		.loc 1 1935 0
 1922 00ca BD7A     		ldrb	r5, [r7, #10]
 1923              	.LVL186:
1946:Generated_Source\PSoC4/CapSense_SensingCSD_LL.c ****                 {
 1924              		.loc 1 1946 0
 1925 00cc 261E     		subs	r6, r4, #0
1942:Generated_Source\PSoC4/CapSense_SensingCSD_LL.c ****                 {
 1926              		.loc 1 1942 0
 1927 00ce 02D0     		beq	.L124
 1928              	.LVL187:
1939:Generated_Source\PSoC4/CapSense_SensingCSD_LL.c ****             for(freqChannel = CapSense_NUM_SCAN_FREQS; freqChannel-- > 0u;)
 1929              		.loc 1 1939 0
 1930 00d0 7F23     		movs	r3, #127
 1931              	.LVL188:
1946:Generated_Source\PSoC4/CapSense_SensingCSD_LL.c ****                 {
 1932              		.loc 1 1946 0
 1933 00d2 7E2C     		cmp	r4, #126
 1934 00d4 00D8     		bhi	.L99
 1935              	.L124:
1942:Generated_Source\PSoC4/CapSense_SensingCSD_LL.c ****                 {
 1936              		.loc 1 1942 0
 1937 00d6 2300     		movs	r3, r4
 1938              	.L99:
 1939 00d8 0A22     		movs	r2, #10
 1940 00da 4A43     		muls	r2, r1
 1941 00dc 0199     		ldr	r1, [sp, #4]
 1942 00de 8A18     		adds	r2, r1, r2
 1943 00e0 0492     		str	r2, [sp, #16]
1932:Generated_Source\PSoC4/CapSense_SensingCSD_LL.c ****             #endif
ARM GAS  C:\Users\zack.li\AppData\Local\Temp\ccTyLy6m.s 			page 89


 1944              		.loc 1 1932 0
 1945 00e2 0A00     		movs	r2, r1
 1946              	.LVL189:
 1947              	.L102:
1966:Generated_Source\PSoC4/CapSense_SensingCSD_LL.c ****                 {
 1948              		.loc 1 1966 0
 1949 00e4 0499     		ldr	r1, [sp, #16]
 1950 00e6 8A42     		cmp	r2, r1
 1951 00e8 05D0     		beq	.L100
 1952              	.LVL190:
 1953 00ea 517A     		ldrb	r1, [r2, #9]
 1954 00ec 8B42     		cmp	r3, r1
 1955 00ee 00D9     		bls	.L101
 1956 00f0 0B00     		movs	r3, r1
 1957              	.LVL191:
 1958              	.L101:
1975:Generated_Source\PSoC4/CapSense_SensingCSD_LL.c ****                 }
 1959              		.loc 1 1975 0
 1960 00f2 0A32     		adds	r2, r2, #10
 1961              	.LVL192:
 1962 00f4 F6E7     		b	.L102
 1963              	.LVL193:
 1964              	.L100:
1980:Generated_Source\PSoC4/CapSense_SensingCSD_LL.c ****             {
 1965              		.loc 1 1980 0
 1966 00f6 002D     		cmp	r5, #0
 1967 00f8 29D0     		beq	.L103
1982:Generated_Source\PSoC4/CapSense_SensingCSD_LL.c ****                 {
 1968              		.loc 1 1982 0
 1969 00fa 132B     		cmp	r3, #19
 1970 00fc 27D8     		bhi	.L103
 1971              	.LVL194:
1984:Generated_Source\PSoC4/CapSense_SensingCSD_LL.c ****                             CapSense_idacGainTable[gainIndex - 1u].gainValue;
 1972              		.loc 1 1984 0
 1973 00fe 5D49     		ldr	r1, .L147+12
 1974 0100 EB00     		lsls	r3, r5, #3
 1975              	.LVL195:
1985:Generated_Source\PSoC4/CapSense_SensingCSD_LL.c ****                     if ((maxIdac * ratio) < CapSense_CSD_CAL_IDAC_MAX_VALUE)
 1976              		.loc 1 1985 0
 1977 0102 013D     		subs	r5, r5, #1
 1978              	.LVL196:
 1979 0104 EA00     		lsls	r2, r5, #3
 1980              	.LVL197:
1984:Generated_Source\PSoC4/CapSense_SensingCSD_LL.c ****                             CapSense_idacGainTable[gainIndex - 1u].gainValue;
 1981              		.loc 1 1984 0
 1982 0106 CB18     		adds	r3, r1, r3
1985:Generated_Source\PSoC4/CapSense_SensingCSD_LL.c ****                     if ((maxIdac * ratio) < CapSense_CSD_CAL_IDAC_MAX_VALUE)
 1983              		.loc 1 1985 0
 1984 0108 8A18     		adds	r2, r1, r2
1986:Generated_Source\PSoC4/CapSense_SensingCSD_LL.c ****                     {
 1985              		.loc 1 1986 0
 1986 010a 5168     		ldr	r1, [r2, #4]
 1987 010c 5868     		ldr	r0, [r3, #4]
 1988 010e FFF7FEFF 		bl	__aeabi_uidiv
 1989              	.LVL198:
 1990 0112 4643     		muls	r6, r0
 1991 0114 7E2E     		cmp	r6, #126
ARM GAS  C:\Users\zack.li\AppData\Local\Temp\ccTyLy6m.s 			page 90


 1992 0116 1AD8     		bhi	.L103
1989:Generated_Source\PSoC4/CapSense_SensingCSD_LL.c ****                         status = 1u;
 1993              		.loc 1 1989 0
 1994 0118 BD72     		strb	r5, [r7, #10]
 1995              	.LVL199:
 1996 011a 84E7     		b	.L104
 1997              	.LVL200:
 1998              	.L94:
 1999              	.LBE46:
 2000              	.LBE48:
 2001              	.LBB49:
 2002              	.LBB42:
2303:Generated_Source\PSoC4/CapSense_SensingCSD_LL.c ****             CapSense_CSDScanExt();
 2003              		.loc 1 2303 0
 2004 011c 0199     		ldr	r1, [sp, #4]
 2005 011e 0298     		ldr	r0, [sp, #8]
2296:Generated_Source\PSoC4/CapSense_SensingCSD_LL.c ****                 {
 2006              		.loc 1 2296 0
 2007 0120 7D7A     		ldrb	r5, [r7, #9]
 2008              	.LVL201:
2303:Generated_Source\PSoC4/CapSense_SensingCSD_LL.c ****             CapSense_CSDScanExt();
 2009              		.loc 1 2303 0
 2010 0122 FFF7FEFF 		bl	CapSense_CSDSetupWidgetExt
 2011              	.LVL202:
2304:Generated_Source\PSoC4/CapSense_SensingCSD_LL.c **** 
 2012              		.loc 1 2304 0
 2013 0126 FFF7FEFF 		bl	CapSense_CSDScanExt
 2014              	.LVL203:
2307:Generated_Source\PSoC4/CapSense_SensingCSD_LL.c ****             {
 2015              		.loc 1 2307 0
 2016 012a 8022     		movs	r2, #128
2304:Generated_Source\PSoC4/CapSense_SensingCSD_LL.c **** 
 2017              		.loc 1 2304 0
 2018 012c 504B     		ldr	r3, .L147+8
2307:Generated_Source\PSoC4/CapSense_SensingCSD_LL.c ****             {
 2019              		.loc 1 2307 0
 2020 012e 4E49     		ldr	r1, .L147
 2021              	.LVL204:
 2022              	.L96:
 2023 0130 C868     		ldr	r0, [r1, #12]
 2024 0132 1042     		tst	r0, r2
 2025 0134 02D0     		beq	.L95
 2026 0136 013B     		subs	r3, r3, #1
 2027              	.LVL205:
 2028 0138 002B     		cmp	r3, #0
 2029 013a F9D1     		bne	.L96
 2030              	.LVL206:
 2031              	.L95:
 2032 013c 2B1C     		adds	r3, r5, #0
 2033 013e A542     		cmp	r5, r4
 2034 0140 00D2     		bcs	.L97
 2035 0142 231C     		adds	r3, r4, #0
 2036              	.L97:
 2037              	.LVL207:
 2038 0144 DCB2     		uxtb	r4, r3
 2039              	.LVL208:
2219:Generated_Source\PSoC4/CapSense_SensingCSD_LL.c ****         {
ARM GAS  C:\Users\zack.li\AppData\Local\Temp\ccTyLy6m.s 			page 91


 2040              		.loc 1 2219 0
 2041 0146 019B     		ldr	r3, [sp, #4]
 2042 0148 0133     		adds	r3, r3, #1
 2043 014a 0193     		str	r3, [sp, #4]
 2044              	.LVL209:
 2045 014c 7DE7     		b	.L89
 2046              	.LVL210:
 2047              	.L103:
 2048              	.LBE42:
 2049              	.LBE49:
 2050              	.LBB50:
 2051              	.LBB51:
2045:Generated_Source\PSoC4/CapSense_SensingCSD_LL.c ****                 for(snsIndex = 0u; snsIndex < ptrFlashWidget->numCols; snsIndex++)
 2052              		.loc 1 2045 0
 2053 014e 019B     		ldr	r3, [sp, #4]
2046:Generated_Source\PSoC4/CapSense_SensingCSD_LL.c ****                 {
 2054              		.loc 1 2046 0
 2055 0150 029A     		ldr	r2, [sp, #8]
2045:Generated_Source\PSoC4/CapSense_SensingCSD_LL.c ****                 for(snsIndex = 0u; snsIndex < ptrFlashWidget->numCols; snsIndex++)
 2056              		.loc 1 2045 0
 2057 0152 1888     		ldrh	r0, [r3]
 2058              	.LVL211:
2046:Generated_Source\PSoC4/CapSense_SensingCSD_LL.c ****                 {
 2059              		.loc 1 2046 0
 2060 0154 1C23     		movs	r3, #28
 2061 0156 5343     		muls	r3, r2
 2062 0158 444A     		ldr	r2, .L147+4
 2063 015a 2500     		movs	r5, r4
 2064 015c D318     		adds	r3, r2, r3
 2065 015e 0022     		movs	r2, #0
 2066 0160 DB7E     		ldrb	r3, [r3, #27]
 2067 0162 0693     		str	r3, [sp, #24]
 2068 0164 019B     		ldr	r3, [sp, #4]
 2069              	.LVL212:
 2070              	.L107:
 2071 0166 0699     		ldr	r1, [sp, #24]
 2072 0168 8A42     		cmp	r2, r1
 2073 016a 08D2     		bcs	.L105
2048:Generated_Source\PSoC4/CapSense_SensingCSD_LL.c ****                     {
 2074              		.loc 1 2048 0
 2075 016c 597A     		ldrb	r1, [r3, #9]
 2076 016e 8D42     		cmp	r5, r1
 2077 0170 02D8     		bhi	.L106
 2078              	.L108:
2053:Generated_Source\PSoC4/CapSense_SensingCSD_LL.c ****                 }
 2079              		.loc 1 2053 0
 2080 0172 0A33     		adds	r3, r3, #10
 2081              	.LVL213:
2046:Generated_Source\PSoC4/CapSense_SensingCSD_LL.c ****                 {
 2082              		.loc 1 2046 0
 2083 0174 0132     		adds	r2, r2, #1
 2084              	.LVL214:
 2085 0176 F6E7     		b	.L107
 2086              	.L106:
 2087              	.LVL215:
2051:Generated_Source\PSoC4/CapSense_SensingCSD_LL.c ****                     }
 2088              		.loc 1 2051 0
ARM GAS  C:\Users\zack.li\AppData\Local\Temp\ccTyLy6m.s 			page 92


 2089 0178 1888     		ldrh	r0, [r3]
 2090              	.LVL216:
 2091 017a 0D00     		movs	r5, r1
 2092 017c F9E7     		b	.L108
 2093              	.LVL217:
 2094              	.L105:
2033:Generated_Source\PSoC4/CapSense_SensingCSD_LL.c **** 
 2095              		.loc 1 2033 0
 2096 017e 0123     		movs	r3, #1
 2097              	.LVL218:
 2098 0180 3A88     		ldrh	r2, [r7]
 2099              	.LVL219:
 2100 0182 9340     		lsls	r3, r3, r2
 2101 0184 013B     		subs	r3, r3, #1
 2102 0186 0593     		str	r3, [sp, #20]
 2103              	.LVL220:
2058:Generated_Source\PSoC4/CapSense_SensingCSD_LL.c **** 
 2104              		.loc 1 2058 0
 2105 0188 6423     		movs	r3, #100
 2106              	.LVL221:
 2107 018a 0599     		ldr	r1, [sp, #20]
 2108 018c 5843     		muls	r0, r3
 2109              	.LVL222:
 2110 018e FFF7FEFF 		bl	__aeabi_uidiv
 2111              	.LVL223:
 2112 0192 6430     		adds	r0, r0, #100
 2113 0194 6843     		muls	r0, r5
 2114 0196 0399     		ldr	r1, [sp, #12]
 2115 0198 FFF7FEFF 		bl	__aeabi_uidiv
 2116              	.LVL224:
 2117 019c A042     		cmp	r0, r4
 2118 019e 00D9     		bls	.L109
 2119 01a0 2000     		movs	r0, r4
 2120              	.LVL225:
 2121              	.L109:
2078:Generated_Source\PSoC4/CapSense_SensingCSD_LL.c ****                             (CapSense_PERCENTAGE_100 >> 1u)) / CapSense_PERCENTAGE_100);
 2122              		.loc 1 2078 0
 2123 01a2 3223     		movs	r3, #50
2068:Generated_Source\PSoC4/CapSense_SensingCSD_LL.c ****                 {
 2124              		.loc 1 2068 0
 2125 01a4 0025     		movs	r5, #0
 2126              	.LVL226:
2072:Generated_Source\PSoC4/CapSense_SensingCSD_LL.c ****                     {
 2127              		.loc 1 2072 0
 2128 01a6 039E     		ldr	r6, [sp, #12]
 2129 01a8 019C     		ldr	r4, [sp, #4]
 2130              	.LVL227:
 2131 01aa 4643     		muls	r6, r0
2078:Generated_Source\PSoC4/CapSense_SensingCSD_LL.c ****                             (CapSense_PERCENTAGE_100 >> 1u)) / CapSense_PERCENTAGE_100);
 2132              		.loc 1 2078 0
 2133 01ac 9B1B     		subs	r3, r3, r6
2064:Generated_Source\PSoC4/CapSense_SensingCSD_LL.c **** 
 2134              		.loc 1 2064 0
 2135 01ae 7872     		strb	r0, [r7, #9]
 2136              	.LVL228:
2078:Generated_Source\PSoC4/CapSense_SensingCSD_LL.c ****                             (CapSense_PERCENTAGE_100 >> 1u)) / CapSense_PERCENTAGE_100);
 2137              		.loc 1 2078 0
ARM GAS  C:\Users\zack.li\AppData\Local\Temp\ccTyLy6m.s 			page 93


 2138 01b0 0793     		str	r3, [sp, #28]
 2139              	.LVL229:
 2140              	.L113:
2068:Generated_Source\PSoC4/CapSense_SensingCSD_LL.c ****                 {
 2141              		.loc 1 2068 0
 2142 01b2 069B     		ldr	r3, [sp, #24]
 2143 01b4 AB42     		cmp	r3, r5
 2144 01b6 16D9     		bls	.L110
2070:Generated_Source\PSoC4/CapSense_SensingCSD_LL.c ****                         CapSense_PERCENTAGE_100) * ptrRamSensor->idacComp[freqChannel];
 2145              		.loc 1 2070 0
 2146 01b8 6423     		movs	r3, #100
 2147 01ba 2088     		ldrh	r0, [r4]
 2148 01bc 0599     		ldr	r1, [sp, #20]
 2149 01be 5843     		muls	r0, r3
 2150 01c0 FFF7FEFF 		bl	__aeabi_uidiv
 2151              	.LVL230:
 2152 01c4 637A     		ldrb	r3, [r4, #9]
 2153 01c6 6430     		adds	r0, r0, #100
 2154 01c8 5843     		muls	r0, r3
 2155              	.LVL231:
2072:Generated_Source\PSoC4/CapSense_SensingCSD_LL.c ****                     {
 2156              		.loc 1 2072 0
 2157 01ca B042     		cmp	r0, r6
 2158 01cc 08D3     		bcc	.L111
2078:Generated_Source\PSoC4/CapSense_SensingCSD_LL.c ****                             (CapSense_PERCENTAGE_100 >> 1u)) / CapSense_PERCENTAGE_100);
 2159              		.loc 1 2078 0
 2160 01ce 079B     		ldr	r3, [sp, #28]
 2161 01d0 6421     		movs	r1, #100
 2162 01d2 1818     		adds	r0, r3, r0
 2163              	.LVL232:
 2164 01d4 FFF7FEFF 		bl	__aeabi_uidiv
 2165              	.LVL233:
 2166 01d8 6072     		strb	r0, [r4, #9]
 2167              	.L114:
2081:Generated_Source\PSoC4/CapSense_SensingCSD_LL.c ****                 }
 2168              		.loc 1 2081 0
 2169 01da 0A34     		adds	r4, r4, #10
 2170              	.LVL234:
2068:Generated_Source\PSoC4/CapSense_SensingCSD_LL.c ****                 {
 2171              		.loc 1 2068 0
 2172 01dc 0135     		adds	r5, r5, #1
 2173              	.LVL235:
 2174 01de E8E7     		b	.L113
 2175              	.LVL236:
 2176              	.L111:
2074:Generated_Source\PSoC4/CapSense_SensingCSD_LL.c ****                     }
 2177              		.loc 1 2074 0
 2178 01e0 0023     		movs	r3, #0
 2179 01e2 6372     		strb	r3, [r4, #9]
 2180 01e4 F9E7     		b	.L114
 2181              	.LVL237:
 2182              	.L110:
 2183              	.LBE51:
 2184              	.LBE50:
2459:Generated_Source\PSoC4/CapSense_SensingCSD_LL.c ****             {
 2185              		.loc 1 2459 0
 2186 01e6 8024     		movs	r4, #128
ARM GAS  C:\Users\zack.li\AppData\Local\Temp\ccTyLy6m.s 			page 94


2455:Generated_Source\PSoC4/CapSense_SensingCSD_LL.c ****             CapSense_CSDScan();
 2187              		.loc 1 2455 0
 2188 01e8 0298     		ldr	r0, [sp, #8]
 2189 01ea FFF7FEFF 		bl	CapSense_CSDSetupWidget
 2190              	.LVL238:
2456:Generated_Source\PSoC4/CapSense_SensingCSD_LL.c **** 
 2191              		.loc 1 2456 0
 2192 01ee FFF7FEFF 		bl	CapSense_CSDScan
 2193              	.LVL239:
2458:Generated_Source\PSoC4/CapSense_SensingCSD_LL.c ****             while (((CapSense_dsRam.status & CapSense_SW_STS_BUSY) != 0u) && (0uL != watchdogCounte
 2194              		.loc 1 2458 0
 2195 01f2 2149     		ldr	r1, .L147+16
2459:Generated_Source\PSoC4/CapSense_SensingCSD_LL.c ****             {
 2196              		.loc 1 2459 0
 2197 01f4 1C4A     		ldr	r2, .L147
 2198              	.LVL240:
 2199              	.L115:
 2200 01f6 D068     		ldr	r0, [r2, #12]
 2201 01f8 0300     		movs	r3, r0
 2202 01fa 2340     		ands	r3, r4
 2203 01fc 05D0     		beq	.L116
2459:Generated_Source\PSoC4/CapSense_SensingCSD_LL.c ****             {
 2204              		.loc 1 2459 0 is_stmt 0 discriminator 1
 2205 01fe 0029     		cmp	r1, #0
 2206 0200 01D0     		beq	.L146
2461:Generated_Source\PSoC4/CapSense_SensingCSD_LL.c ****             }
 2207              		.loc 1 2461 0 is_stmt 1
 2208 0202 0139     		subs	r1, r1, #1
 2209              	.LVL241:
 2210 0204 F7E7     		b	.L115
 2211              	.L146:
2467:Generated_Source\PSoC4/CapSense_SensingCSD_LL.c ****             }
 2212              		.loc 1 2467 0
 2213 0206 1022     		movs	r2, #16
 2214 0208 2BE0     		b	.L136
 2215              	.L116:
 2216 020a 1022     		movs	r2, #16
2465:Generated_Source\PSoC4/CapSense_SensingCSD_LL.c ****             {
 2217              		.loc 1 2465 0
 2218 020c 0029     		cmp	r1, #0
 2219 020e 28D0     		beq	.L136
 2220              	.LVL242:
 2221              	.LBB52:
 2222              	.LBB53:
1865:Generated_Source\PSoC4/CapSense_SensingCSD_LL.c ****         lowerLimit = 0u;
 2223              		.loc 1 1865 0
 2224 0210 0124     		movs	r4, #1
 2225 0212 3A88     		ldrh	r2, [r7]
1866:Generated_Source\PSoC4/CapSense_SensingCSD_LL.c ****         if (target > CapSense_CSD_CALIBRATION_ERROR)
 2226              		.loc 1 1866 0
 2227 0214 1800     		movs	r0, r3
1865:Generated_Source\PSoC4/CapSense_SensingCSD_LL.c ****         lowerLimit = 0u;
 2228              		.loc 1 1865 0
 2229 0216 9440     		lsls	r4, r4, r2
1867:Generated_Source\PSoC4/CapSense_SensingCSD_LL.c ****         {
 2230              		.loc 1 1867 0
 2231 0218 039B     		ldr	r3, [sp, #12]
ARM GAS  C:\Users\zack.li\AppData\Local\Temp\ccTyLy6m.s 			page 95


1865:Generated_Source\PSoC4/CapSense_SensingCSD_LL.c ****         lowerLimit = 0u;
 2232              		.loc 1 1865 0
 2233 021a 013C     		subs	r4, r4, #1
 2234              	.LVL243:
1867:Generated_Source\PSoC4/CapSense_SensingCSD_LL.c ****         {
 2235              		.loc 1 1867 0
 2236 021c 0A2B     		cmp	r3, #10
 2237 021e 01D9     		bls	.L118
1869:Generated_Source\PSoC4/CapSense_SensingCSD_LL.c ****         }
 2238              		.loc 1 1869 0
 2239 0220 1800     		movs	r0, r3
 2240 0222 0A38     		subs	r0, r0, #10
 2241              	.LVL244:
 2242              	.L118:
1876:Generated_Source\PSoC4/CapSense_SensingCSD_LL.c ****         upperLimit = (rawcount * upperLimit) / CapSense_PERCENTAGE_100;
 2243              		.loc 1 1876 0
 2244 0224 6043     		muls	r0, r4
 2245              	.LVL245:
 2246 0226 6421     		movs	r1, #100
 2247              	.LVL246:
 2248 0228 FFF7FEFF 		bl	__aeabi_uidiv
 2249              	.LVL247:
1871:Generated_Source\PSoC4/CapSense_SensingCSD_LL.c ****         if (upperLimit > CapSense_PERCENTAGE_100)
 2250              		.loc 1 1871 0
 2251 022c 039D     		ldr	r5, [sp, #12]
1876:Generated_Source\PSoC4/CapSense_SensingCSD_LL.c ****         upperLimit = (rawcount * upperLimit) / CapSense_PERCENTAGE_100;
 2252              		.loc 1 1876 0
 2253 022e 0600     		movs	r6, r0
1871:Generated_Source\PSoC4/CapSense_SensingCSD_LL.c ****         if (upperLimit > CapSense_PERCENTAGE_100)
 2254              		.loc 1 1871 0
 2255 0230 0A35     		adds	r5, r5, #10
 2256              	.LVL248:
1877:Generated_Source\PSoC4/CapSense_SensingCSD_LL.c **** 
 2257              		.loc 1 1877 0
 2258 0232 642D     		cmp	r5, #100
 2259 0234 00D9     		bls	.L119
 2260 0236 6425     		movs	r5, #100
 2261              	.LVL249:
 2262              	.L119:
 2263 0238 2000     		movs	r0, r4
 2264              	.LVL250:
 2265 023a 6421     		movs	r1, #100
 2266 023c 6843     		muls	r0, r5
 2267 023e FFF7FEFF 		bl	__aeabi_uidiv
 2268              	.LVL251:
1853:Generated_Source\PSoC4/CapSense_SensingCSD_LL.c ****         uint32 rawcount;
 2269              		.loc 1 1853 0
 2270 0242 0022     		movs	r2, #0
 2271              	.LVL252:
 2272              	.L120:
1880:Generated_Source\PSoC4/CapSense_SensingCSD_LL.c ****         {
 2273              		.loc 1 1880 0
 2274 0244 049B     		ldr	r3, [sp, #16]
 2275 0246 0199     		ldr	r1, [sp, #4]
 2276 0248 8B42     		cmp	r3, r1
 2277 024a 0AD0     		beq	.L136
 2278              	.LVL253:
ARM GAS  C:\Users\zack.li\AppData\Local\Temp\ccTyLy6m.s 			page 96


1884:Generated_Source\PSoC4/CapSense_SensingCSD_LL.c ****                 if ((rawcount < lowerLimit) || (rawcount > upperLimit))
 2279              		.loc 1 1884 0
 2280 024c 019B     		ldr	r3, [sp, #4]
 2281 024e 1B88     		ldrh	r3, [r3]
 2282              	.LVL254:
1885:Generated_Source\PSoC4/CapSense_SensingCSD_LL.c ****                 {
 2283              		.loc 1 1885 0
 2284 0250 B342     		cmp	r3, r6
 2285 0252 01D3     		bcc	.L129
 2286 0254 8342     		cmp	r3, r0
 2287 0256 00D9     		bls	.L121
 2288              	.L129:
1887:Generated_Source\PSoC4/CapSense_SensingCSD_LL.c ****                     break;
 2289              		.loc 1 1887 0
 2290 0258 0622     		movs	r2, #6
 2291              	.LVL255:
 2292              	.L121:
1891:Generated_Source\PSoC4/CapSense_SensingCSD_LL.c ****         }
 2293              		.loc 1 1891 0
 2294 025a 019B     		ldr	r3, [sp, #4]
 2295              	.LVL256:
 2296 025c 0A33     		adds	r3, r3, #10
 2297 025e 0193     		str	r3, [sp, #4]
 2298              	.LVL257:
 2299 0260 F0E7     		b	.L120
 2300              	.LVL258:
 2301              	.L136:
 2302              	.LBE53:
 2303              	.LBE52:
2481:Generated_Source\PSoC4/CapSense_SensingCSD_LL.c **** #endif /* ((CapSense_CSD_SS_DIS != CapSense_CSD_AUTOTUNE)) || \
 2304              		.loc 1 2481 0
 2305 0262 1000     		movs	r0, r2
 2306 0264 09B0     		add	sp, sp, #36
 2307              		@ sp needed
 2308 0266 F0BD     		pop	{r4, r5, r6, r7, pc}
 2309              	.L148:
 2310              		.align	2
 2311              	.L147:
 2312 0268 00000000 		.word	CapSense_dsRam
 2313 026c 00000000 		.word	CapSense_dsFlash
 2314 0270 01A60E00 		.word	960001
 2315 0274 00000000 		.word	CapSense_idacGainTable
 2316 0278 00366E01 		.word	24000000
 2317              		.cfi_endproc
 2318              	.LFE27:
 2319              		.size	CapSense_CSDCalibrateWidget, .-CapSense_CSDCalibrateWidget
 2320              		.global	CapSense_configCsd
 2321              		.data
 2322              		.align	2
 2323              		.set	.LANCHOR0,. + 0
 2324              		.type	CapSense_configCsd, %object
 2325              		.size	CapSense_configCsd, 4
 2326              	CapSense_configCsd:
 2327 0000 20000004 		.word	67108896
 2328              		.bss
 2329              		.set	.LANCHOR1,. + 0
 2330              		.type	CapSense_eleCsdDisconnectFlag, %object
ARM GAS  C:\Users\zack.li\AppData\Local\Temp\ccTyLy6m.s 			page 97


 2331              		.size	CapSense_eleCsdDisconnectFlag, 1
 2332              	CapSense_eleCsdDisconnectFlag:
 2333 0000 00       		.space	1
 2334              		.text
 2335              	.Letext0:
 2336              		.file 2 "Generated_Source\\PSoC4/cytypes.h"
 2337              		.file 3 "Generated_Source\\PSoC4\\CapSense_Configuration.h"
 2338              		.file 4 "Generated_Source\\PSoC4\\CapSense_Structure.h"
 2339              		.file 5 "Generated_Source\\PSoC4\\CapSense_Sensing.h"
 2340              		.file 6 "Generated_Source\\PSoC4/CyLib.h"
 2341              		.file 7 "Generated_Source\\PSoC4\\CapSense_ISR.h"
 2342              		.section	.debug_info,"",%progbits
 2343              	.Ldebug_info0:
 2344 0000 2D160000 		.4byte	0x162d
 2345 0004 0400     		.2byte	0x4
 2346 0006 00000000 		.4byte	.Ldebug_abbrev0
 2347 000a 04       		.byte	0x4
 2348 000b 01       		.uleb128 0x1
 2349 000c 0C0A0000 		.4byte	.LASF200
 2350 0010 0C       		.byte	0xc
 2351 0011 CF070000 		.4byte	.LASF201
 2352 0015 6B070000 		.4byte	.LASF202
 2353 0019 40000000 		.4byte	.Ldebug_ranges0+0x40
 2354 001d 00000000 		.4byte	0
 2355 0021 00000000 		.4byte	.Ldebug_line0
 2356 0025 02       		.uleb128 0x2
 2357 0026 04       		.byte	0x4
 2358 0027 07       		.byte	0x7
 2359 0028 BF000000 		.4byte	.LASF0
 2360 002c 02       		.uleb128 0x2
 2361 002d 01       		.byte	0x1
 2362 002e 06       		.byte	0x6
 2363 002f 830C0000 		.4byte	.LASF1
 2364 0033 02       		.uleb128 0x2
 2365 0034 01       		.byte	0x1
 2366 0035 08       		.byte	0x8
 2367 0036 810B0000 		.4byte	.LASF2
 2368 003a 02       		.uleb128 0x2
 2369 003b 02       		.byte	0x2
 2370 003c 05       		.byte	0x5
 2371 003d A2080000 		.4byte	.LASF3
 2372 0041 02       		.uleb128 0x2
 2373 0042 02       		.byte	0x2
 2374 0043 07       		.byte	0x7
 2375 0044 AB0C0000 		.4byte	.LASF4
 2376 0048 02       		.uleb128 0x2
 2377 0049 04       		.byte	0x4
 2378 004a 05       		.byte	0x5
 2379 004b 2A090000 		.4byte	.LASF5
 2380 004f 02       		.uleb128 0x2
 2381 0050 04       		.byte	0x4
 2382 0051 07       		.byte	0x7
 2383 0052 AF0A0000 		.4byte	.LASF6
 2384 0056 02       		.uleb128 0x2
 2385 0057 08       		.byte	0x8
 2386 0058 05       		.byte	0x5
 2387 0059 ED050000 		.4byte	.LASF7
ARM GAS  C:\Users\zack.li\AppData\Local\Temp\ccTyLy6m.s 			page 98


 2388 005d 02       		.uleb128 0x2
 2389 005e 08       		.byte	0x8
 2390 005f 07       		.byte	0x7
 2391 0060 F9020000 		.4byte	.LASF8
 2392 0064 03       		.uleb128 0x3
 2393 0065 04       		.byte	0x4
 2394 0066 05       		.byte	0x5
 2395 0067 696E7400 		.ascii	"int\000"
 2396 006b 04       		.uleb128 0x4
 2397 006c E20C0000 		.4byte	.LASF9
 2398 0070 02       		.byte	0x2
 2399 0071 E401     		.2byte	0x1e4
 2400 0073 33000000 		.4byte	0x33
 2401 0077 04       		.uleb128 0x4
 2402 0078 58050000 		.4byte	.LASF10
 2403 007c 02       		.byte	0x2
 2404 007d E501     		.2byte	0x1e5
 2405 007f 41000000 		.4byte	0x41
 2406 0083 04       		.uleb128 0x4
 2407 0084 30070000 		.4byte	.LASF11
 2408 0088 02       		.byte	0x2
 2409 0089 E601     		.2byte	0x1e6
 2410 008b 4F000000 		.4byte	0x4f
 2411 008f 02       		.uleb128 0x2
 2412 0090 04       		.byte	0x4
 2413 0091 04       		.byte	0x4
 2414 0092 7A020000 		.4byte	.LASF12
 2415 0096 02       		.uleb128 0x2
 2416 0097 08       		.byte	0x8
 2417 0098 04       		.byte	0x4
 2418 0099 E80C0000 		.4byte	.LASF13
 2419 009d 02       		.uleb128 0x2
 2420 009e 01       		.byte	0x1
 2421 009f 08       		.byte	0x8
 2422 00a0 DD040000 		.4byte	.LASF14
 2423 00a4 04       		.uleb128 0x4
 2424 00a5 3A0B0000 		.4byte	.LASF15
 2425 00a9 02       		.byte	0x2
 2426 00aa 8602     		.2byte	0x286
 2427 00ac 4F000000 		.4byte	0x4f
 2428 00b0 05       		.uleb128 0x5
 2429 00b1 6B000000 		.4byte	0x6b
 2430 00b5 04       		.uleb128 0x4
 2431 00b6 41080000 		.4byte	.LASF16
 2432 00ba 02       		.byte	0x2
 2433 00bb 9002     		.2byte	0x290
 2434 00bd C1000000 		.4byte	0xc1
 2435 00c1 05       		.uleb128 0x5
 2436 00c2 83000000 		.4byte	0x83
 2437 00c6 04       		.uleb128 0x4
 2438 00c7 C80B0000 		.4byte	.LASF17
 2439 00cb 03       		.byte	0x3
 2440 00cc 2E01     		.2byte	0x12e
 2441 00ce 77000000 		.4byte	0x77
 2442 00d2 04       		.uleb128 0x4
 2443 00d3 C3050000 		.4byte	.LASF18
 2444 00d7 03       		.byte	0x3
ARM GAS  C:\Users\zack.li\AppData\Local\Temp\ccTyLy6m.s 			page 99


 2445 00d8 3201     		.2byte	0x132
 2446 00da 6B000000 		.4byte	0x6b
 2447 00de 06       		.uleb128 0x6
 2448 00df 01       		.byte	0x1
 2449 00e0 33000000 		.4byte	0x33
 2450 00e4 04       		.byte	0x4
 2451 00e5 70       		.byte	0x70
 2452 00e6 09010000 		.4byte	0x109
 2453 00ea 07       		.uleb128 0x7
 2454 00eb A5000000 		.4byte	.LASF19
 2455 00ef 00       		.byte	0
 2456 00f0 07       		.uleb128 0x7
 2457 00f1 37010000 		.4byte	.LASF20
 2458 00f5 01       		.byte	0x1
 2459 00f6 07       		.uleb128 0x7
 2460 00f7 71090000 		.4byte	.LASF21
 2461 00fb 02       		.byte	0x2
 2462 00fc 07       		.uleb128 0x7
 2463 00fd 0B0C0000 		.4byte	.LASF22
 2464 0101 03       		.byte	0x3
 2465 0102 07       		.uleb128 0x7
 2466 0103 FF070000 		.4byte	.LASF23
 2467 0107 04       		.byte	0x4
 2468 0108 00       		.byte	0
 2469 0109 08       		.uleb128 0x8
 2470 010a 10       		.byte	0x10
 2471 010b 04       		.byte	0x4
 2472 010c AD       		.byte	0xad
 2473 010d 96010000 		.4byte	0x196
 2474 0111 09       		.uleb128 0x9
 2475 0112 B1050000 		.4byte	.LASF24
 2476 0116 04       		.byte	0x4
 2477 0117 B2       		.byte	0xb2
 2478 0118 77000000 		.4byte	0x77
 2479 011c 00       		.byte	0
 2480 011d 09       		.uleb128 0x9
 2481 011e EB0A0000 		.4byte	.LASF25
 2482 0122 04       		.byte	0x4
 2483 0123 B7       		.byte	0xb7
 2484 0124 C6000000 		.4byte	0xc6
 2485 0128 02       		.byte	0x2
 2486 0129 09       		.uleb128 0x9
 2487 012a C3040000 		.4byte	.LASF26
 2488 012e 04       		.byte	0x4
 2489 012f BC       		.byte	0xbc
 2490 0130 6B000000 		.4byte	0x6b
 2491 0134 04       		.byte	0x4
 2492 0135 09       		.uleb128 0x9
 2493 0136 CE060000 		.4byte	.LASF27
 2494 013a 04       		.byte	0x4
 2495 013b C1       		.byte	0xc1
 2496 013c 6B000000 		.4byte	0x6b
 2497 0140 05       		.byte	0x5
 2498 0141 09       		.uleb128 0x9
 2499 0142 2E040000 		.4byte	.LASF28
 2500 0146 04       		.byte	0x4
 2501 0147 C7       		.byte	0xc7
ARM GAS  C:\Users\zack.li\AppData\Local\Temp\ccTyLy6m.s 			page 100


 2502 0148 6B000000 		.4byte	0x6b
 2503 014c 06       		.byte	0x6
 2504 014d 09       		.uleb128 0x9
 2505 014e 41060000 		.4byte	.LASF29
 2506 0152 04       		.byte	0x4
 2507 0153 CD       		.byte	0xcd
 2508 0154 6B000000 		.4byte	0x6b
 2509 0158 07       		.byte	0x7
 2510 0159 09       		.uleb128 0x9
 2511 015a 5B040000 		.4byte	.LASF30
 2512 015e 04       		.byte	0x4
 2513 015f D4       		.byte	0xd4
 2514 0160 D2000000 		.4byte	0xd2
 2515 0164 08       		.byte	0x8
 2516 0165 09       		.uleb128 0x9
 2517 0166 C10A0000 		.4byte	.LASF31
 2518 016a 04       		.byte	0x4
 2519 016b DB       		.byte	0xdb
 2520 016c 96010000 		.4byte	0x196
 2521 0170 09       		.byte	0x9
 2522 0171 09       		.uleb128 0x9
 2523 0172 43020000 		.4byte	.LASF32
 2524 0176 04       		.byte	0x4
 2525 0177 E0       		.byte	0xe0
 2526 0178 6B000000 		.4byte	0x6b
 2527 017c 0A       		.byte	0xa
 2528 017d 09       		.uleb128 0x9
 2529 017e 440C0000 		.4byte	.LASF33
 2530 0182 04       		.byte	0x4
 2531 0183 E8       		.byte	0xe8
 2532 0184 77000000 		.4byte	0x77
 2533 0188 0C       		.byte	0xc
 2534 0189 09       		.uleb128 0x9
 2535 018a 78080000 		.4byte	.LASF34
 2536 018e 04       		.byte	0x4
 2537 018f ED       		.byte	0xed
 2538 0190 6B000000 		.4byte	0x6b
 2539 0194 0E       		.byte	0xe
 2540 0195 00       		.byte	0
 2541 0196 0A       		.uleb128 0xa
 2542 0197 6B000000 		.4byte	0x6b
 2543 019b A6010000 		.4byte	0x1a6
 2544 019f 0B       		.uleb128 0xb
 2545 01a0 A6010000 		.4byte	0x1a6
 2546 01a4 00       		.byte	0
 2547 01a5 00       		.byte	0
 2548 01a6 02       		.uleb128 0x2
 2549 01a7 04       		.byte	0x4
 2550 01a8 07       		.byte	0x7
 2551 01a9 9E0A0000 		.4byte	.LASF35
 2552 01ad 0C       		.uleb128 0xc
 2553 01ae FF060000 		.4byte	.LASF36
 2554 01b2 04       		.byte	0x4
 2555 01b3 EE       		.byte	0xee
 2556 01b4 09010000 		.4byte	0x109
 2557 01b8 08       		.uleb128 0x8
 2558 01b9 10       		.byte	0x10
ARM GAS  C:\Users\zack.li\AppData\Local\Temp\ccTyLy6m.s 			page 101


 2559 01ba 04       		.byte	0x4
 2560 01bb F3       		.byte	0xf3
 2561 01bc 4E020000 		.4byte	0x24e
 2562 01c0 09       		.uleb128 0x9
 2563 01c1 B1050000 		.4byte	.LASF24
 2564 01c5 04       		.byte	0x4
 2565 01c6 F8       		.byte	0xf8
 2566 01c7 77000000 		.4byte	0x77
 2567 01cb 00       		.byte	0
 2568 01cc 09       		.uleb128 0x9
 2569 01cd EB0A0000 		.4byte	.LASF25
 2570 01d1 04       		.byte	0x4
 2571 01d2 FD       		.byte	0xfd
 2572 01d3 C6000000 		.4byte	0xc6
 2573 01d7 02       		.byte	0x2
 2574 01d8 0D       		.uleb128 0xd
 2575 01d9 C3040000 		.4byte	.LASF26
 2576 01dd 04       		.byte	0x4
 2577 01de 0201     		.2byte	0x102
 2578 01e0 6B000000 		.4byte	0x6b
 2579 01e4 04       		.byte	0x4
 2580 01e5 0D       		.uleb128 0xd
 2581 01e6 CE060000 		.4byte	.LASF27
 2582 01ea 04       		.byte	0x4
 2583 01eb 0701     		.2byte	0x107
 2584 01ed 6B000000 		.4byte	0x6b
 2585 01f1 05       		.byte	0x5
 2586 01f2 0D       		.uleb128 0xd
 2587 01f3 2E040000 		.4byte	.LASF28
 2588 01f7 04       		.byte	0x4
 2589 01f8 0D01     		.2byte	0x10d
 2590 01fa 6B000000 		.4byte	0x6b
 2591 01fe 06       		.byte	0x6
 2592 01ff 0D       		.uleb128 0xd
 2593 0200 41060000 		.4byte	.LASF29
 2594 0204 04       		.byte	0x4
 2595 0205 1301     		.2byte	0x113
 2596 0207 6B000000 		.4byte	0x6b
 2597 020b 07       		.byte	0x7
 2598 020c 0D       		.uleb128 0xd
 2599 020d 5B040000 		.4byte	.LASF30
 2600 0211 04       		.byte	0x4
 2601 0212 1A01     		.2byte	0x11a
 2602 0214 D2000000 		.4byte	0xd2
 2603 0218 08       		.byte	0x8
 2604 0219 0D       		.uleb128 0xd
 2605 021a C10A0000 		.4byte	.LASF31
 2606 021e 04       		.byte	0x4
 2607 021f 2101     		.2byte	0x121
 2608 0221 96010000 		.4byte	0x196
 2609 0225 09       		.byte	0x9
 2610 0226 0D       		.uleb128 0xd
 2611 0227 43020000 		.4byte	.LASF32
 2612 022b 04       		.byte	0x4
 2613 022c 2601     		.2byte	0x126
 2614 022e 6B000000 		.4byte	0x6b
 2615 0232 0A       		.byte	0xa
ARM GAS  C:\Users\zack.li\AppData\Local\Temp\ccTyLy6m.s 			page 102


 2616 0233 0D       		.uleb128 0xd
 2617 0234 440C0000 		.4byte	.LASF33
 2618 0238 04       		.byte	0x4
 2619 0239 2E01     		.2byte	0x12e
 2620 023b 77000000 		.4byte	0x77
 2621 023f 0C       		.byte	0xc
 2622 0240 0D       		.uleb128 0xd
 2623 0241 78080000 		.4byte	.LASF34
 2624 0245 04       		.byte	0x4
 2625 0246 3301     		.2byte	0x133
 2626 0248 6B000000 		.4byte	0x6b
 2627 024c 0E       		.byte	0xe
 2628 024d 00       		.byte	0
 2629 024e 04       		.uleb128 0x4
 2630 024f 1C0B0000 		.4byte	.LASF37
 2631 0253 04       		.byte	0x4
 2632 0254 3401     		.2byte	0x134
 2633 0256 B8010000 		.4byte	0x1b8
 2634 025a 0E       		.uleb128 0xe
 2635 025b 12       		.byte	0x12
 2636 025c 04       		.byte	0x4
 2637 025d 3901     		.2byte	0x139
 2638 025f 00030000 		.4byte	0x300
 2639 0263 0D       		.uleb128 0xd
 2640 0264 B1050000 		.4byte	.LASF24
 2641 0268 04       		.byte	0x4
 2642 0269 3E01     		.2byte	0x13e
 2643 026b 77000000 		.4byte	0x77
 2644 026f 00       		.byte	0
 2645 0270 0D       		.uleb128 0xd
 2646 0271 EB0A0000 		.4byte	.LASF25
 2647 0275 04       		.byte	0x4
 2648 0276 4301     		.2byte	0x143
 2649 0278 C6000000 		.4byte	0xc6
 2650 027c 02       		.byte	0x2
 2651 027d 0D       		.uleb128 0xd
 2652 027e C3040000 		.4byte	.LASF26
 2653 0282 04       		.byte	0x4
 2654 0283 4801     		.2byte	0x148
 2655 0285 6B000000 		.4byte	0x6b
 2656 0289 04       		.byte	0x4
 2657 028a 0D       		.uleb128 0xd
 2658 028b CE060000 		.4byte	.LASF27
 2659 028f 04       		.byte	0x4
 2660 0290 4D01     		.2byte	0x14d
 2661 0292 6B000000 		.4byte	0x6b
 2662 0296 05       		.byte	0x5
 2663 0297 0D       		.uleb128 0xd
 2664 0298 2E040000 		.4byte	.LASF28
 2665 029c 04       		.byte	0x4
 2666 029d 5301     		.2byte	0x153
 2667 029f 6B000000 		.4byte	0x6b
 2668 02a3 06       		.byte	0x6
 2669 02a4 0D       		.uleb128 0xd
 2670 02a5 41060000 		.4byte	.LASF29
 2671 02a9 04       		.byte	0x4
 2672 02aa 5901     		.2byte	0x159
ARM GAS  C:\Users\zack.li\AppData\Local\Temp\ccTyLy6m.s 			page 103


 2673 02ac 6B000000 		.4byte	0x6b
 2674 02b0 07       		.byte	0x7
 2675 02b1 0D       		.uleb128 0xd
 2676 02b2 5B040000 		.4byte	.LASF30
 2677 02b6 04       		.byte	0x4
 2678 02b7 6001     		.2byte	0x160
 2679 02b9 D2000000 		.4byte	0xd2
 2680 02bd 08       		.byte	0x8
 2681 02be 0D       		.uleb128 0xd
 2682 02bf C10A0000 		.4byte	.LASF31
 2683 02c3 04       		.byte	0x4
 2684 02c4 6701     		.2byte	0x167
 2685 02c6 96010000 		.4byte	0x196
 2686 02ca 09       		.byte	0x9
 2687 02cb 0D       		.uleb128 0xd
 2688 02cc 43020000 		.4byte	.LASF32
 2689 02d0 04       		.byte	0x4
 2690 02d1 6C01     		.2byte	0x16c
 2691 02d3 6B000000 		.4byte	0x6b
 2692 02d7 0A       		.byte	0xa
 2693 02d8 0D       		.uleb128 0xd
 2694 02d9 440C0000 		.4byte	.LASF33
 2695 02dd 04       		.byte	0x4
 2696 02de 7401     		.2byte	0x174
 2697 02e0 77000000 		.4byte	0x77
 2698 02e4 0C       		.byte	0xc
 2699 02e5 0D       		.uleb128 0xd
 2700 02e6 78080000 		.4byte	.LASF34
 2701 02ea 04       		.byte	0x4
 2702 02eb 7901     		.2byte	0x179
 2703 02ed 6B000000 		.4byte	0x6b
 2704 02f1 0E       		.byte	0xe
 2705 02f2 0D       		.uleb128 0xd
 2706 02f3 74000000 		.4byte	.LASF38
 2707 02f7 04       		.byte	0x4
 2708 02f8 7E01     		.2byte	0x17e
 2709 02fa C6000000 		.4byte	0xc6
 2710 02fe 10       		.byte	0x10
 2711 02ff 00       		.byte	0
 2712 0300 04       		.uleb128 0x4
 2713 0301 430B0000 		.4byte	.LASF39
 2714 0305 04       		.byte	0x4
 2715 0306 7F01     		.2byte	0x17f
 2716 0308 5A020000 		.4byte	0x25a
 2717 030c 0E       		.uleb128 0xe
 2718 030d 52       		.byte	0x52
 2719 030e 04       		.byte	0x4
 2720 030f 8501     		.2byte	0x185
 2721 0311 57030000 		.4byte	0x357
 2722 0315 0D       		.uleb128 0xd
 2723 0316 28000000 		.4byte	.LASF40
 2724 031a 04       		.byte	0x4
 2725 031b 8A01     		.2byte	0x18a
 2726 031d 4E020000 		.4byte	0x24e
 2727 0321 00       		.byte	0
 2728 0322 0D       		.uleb128 0xd
 2729 0323 A6010000 		.4byte	.LASF41
ARM GAS  C:\Users\zack.li\AppData\Local\Temp\ccTyLy6m.s 			page 104


 2730 0327 04       		.byte	0x4
 2731 0328 8F01     		.2byte	0x18f
 2732 032a 4E020000 		.4byte	0x24e
 2733 032e 10       		.byte	0x10
 2734 032f 0D       		.uleb128 0xd
 2735 0330 BE0C0000 		.4byte	.LASF42
 2736 0334 04       		.byte	0x4
 2737 0335 9401     		.2byte	0x194
 2738 0337 4E020000 		.4byte	0x24e
 2739 033b 20       		.byte	0x20
 2740 033c 0D       		.uleb128 0xd
 2741 033d EE030000 		.4byte	.LASF43
 2742 0341 04       		.byte	0x4
 2743 0342 9901     		.2byte	0x199
 2744 0344 4E020000 		.4byte	0x24e
 2745 0348 30       		.byte	0x30
 2746 0349 0D       		.uleb128 0xd
 2747 034a E60A0000 		.4byte	.LASF44
 2748 034e 04       		.byte	0x4
 2749 034f 9E01     		.2byte	0x19e
 2750 0351 00030000 		.4byte	0x300
 2751 0355 40       		.byte	0x40
 2752 0356 00       		.byte	0
 2753 0357 04       		.uleb128 0x4
 2754 0358 02020000 		.4byte	.LASF45
 2755 035c 04       		.byte	0x4
 2756 035d 9F01     		.2byte	0x19f
 2757 035f 0C030000 		.4byte	0x30c
 2758 0363 0E       		.uleb128 0xe
 2759 0364 0A       		.byte	0xa
 2760 0365 04       		.byte	0x4
 2761 0366 A501     		.2byte	0x1a5
 2762 0368 BB030000 		.4byte	0x3bb
 2763 036c 0F       		.uleb128 0xf
 2764 036d 72617700 		.ascii	"raw\000"
 2765 0371 04       		.byte	0x4
 2766 0372 AA01     		.2byte	0x1aa
 2767 0374 BB030000 		.4byte	0x3bb
 2768 0378 00       		.byte	0
 2769 0379 0D       		.uleb128 0xd
 2770 037a A60C0000 		.4byte	.LASF46
 2771 037e 04       		.byte	0x4
 2772 037f AF01     		.2byte	0x1af
 2773 0381 BB030000 		.4byte	0x3bb
 2774 0385 02       		.byte	0x2
 2775 0386 0D       		.uleb128 0xd
 2776 0387 F40A0000 		.4byte	.LASF47
 2777 038b 04       		.byte	0x4
 2778 038c B501     		.2byte	0x1b5
 2779 038e 96010000 		.4byte	0x196
 2780 0392 04       		.byte	0x4
 2781 0393 0D       		.uleb128 0xd
 2782 0394 44090000 		.4byte	.LASF48
 2783 0398 04       		.byte	0x4
 2784 0399 BA01     		.2byte	0x1ba
 2785 039b C6000000 		.4byte	0xc6
 2786 039f 06       		.byte	0x6
ARM GAS  C:\Users\zack.li\AppData\Local\Temp\ccTyLy6m.s 			page 105


 2787 03a0 0D       		.uleb128 0xd
 2788 03a1 EF0C0000 		.4byte	.LASF49
 2789 03a5 04       		.byte	0x4
 2790 03a6 BF01     		.2byte	0x1bf
 2791 03a8 CB030000 		.4byte	0x3cb
 2792 03ac 08       		.byte	0x8
 2793 03ad 0D       		.uleb128 0xd
 2794 03ae DE050000 		.4byte	.LASF50
 2795 03b2 04       		.byte	0x4
 2796 03b3 C401     		.2byte	0x1c4
 2797 03b5 96010000 		.4byte	0x196
 2798 03b9 09       		.byte	0x9
 2799 03ba 00       		.byte	0
 2800 03bb 0A       		.uleb128 0xa
 2801 03bc 77000000 		.4byte	0x77
 2802 03c0 CB030000 		.4byte	0x3cb
 2803 03c4 0B       		.uleb128 0xb
 2804 03c5 A6010000 		.4byte	0x1a6
 2805 03c9 00       		.byte	0
 2806 03ca 00       		.byte	0
 2807 03cb 0A       		.uleb128 0xa
 2808 03cc D2000000 		.4byte	0xd2
 2809 03d0 DB030000 		.4byte	0x3db
 2810 03d4 0B       		.uleb128 0xb
 2811 03d5 A6010000 		.4byte	0x1a6
 2812 03d9 00       		.byte	0
 2813 03da 00       		.byte	0
 2814 03db 04       		.uleb128 0x4
 2815 03dc C9030000 		.4byte	.LASF51
 2816 03e0 04       		.byte	0x4
 2817 03e1 C501     		.2byte	0x1c5
 2818 03e3 63030000 		.4byte	0x363
 2819 03e7 0E       		.uleb128 0xe
 2820 03e8 32       		.byte	0x32
 2821 03e9 04       		.byte	0x4
 2822 03ea CB01     		.2byte	0x1cb
 2823 03ec 32040000 		.4byte	0x432
 2824 03f0 0D       		.uleb128 0xd
 2825 03f1 28000000 		.4byte	.LASF40
 2826 03f5 04       		.byte	0x4
 2827 03f6 D001     		.2byte	0x1d0
 2828 03f8 32040000 		.4byte	0x432
 2829 03fc 00       		.byte	0
 2830 03fd 0D       		.uleb128 0xd
 2831 03fe A6010000 		.4byte	.LASF41
 2832 0402 04       		.byte	0x4
 2833 0403 D501     		.2byte	0x1d5
 2834 0405 32040000 		.4byte	0x432
 2835 0409 0A       		.byte	0xa
 2836 040a 0D       		.uleb128 0xd
 2837 040b BE0C0000 		.4byte	.LASF42
 2838 040f 04       		.byte	0x4
 2839 0410 DA01     		.2byte	0x1da
 2840 0412 32040000 		.4byte	0x432
 2841 0416 14       		.byte	0x14
 2842 0417 0D       		.uleb128 0xd
 2843 0418 EE030000 		.4byte	.LASF43
ARM GAS  C:\Users\zack.li\AppData\Local\Temp\ccTyLy6m.s 			page 106


 2844 041c 04       		.byte	0x4
 2845 041d DF01     		.2byte	0x1df
 2846 041f 32040000 		.4byte	0x432
 2847 0423 1E       		.byte	0x1e
 2848 0424 0D       		.uleb128 0xd
 2849 0425 E60A0000 		.4byte	.LASF44
 2850 0429 04       		.byte	0x4
 2851 042a E401     		.2byte	0x1e4
 2852 042c 32040000 		.4byte	0x432
 2853 0430 28       		.byte	0x28
 2854 0431 00       		.byte	0
 2855 0432 0A       		.uleb128 0xa
 2856 0433 DB030000 		.4byte	0x3db
 2857 0437 42040000 		.4byte	0x442
 2858 043b 0B       		.uleb128 0xb
 2859 043c A6010000 		.4byte	0x1a6
 2860 0440 00       		.byte	0
 2861 0441 00       		.byte	0
 2862 0442 04       		.uleb128 0x4
 2863 0443 6E0D0000 		.4byte	.LASF52
 2864 0447 04       		.byte	0x4
 2865 0448 E501     		.2byte	0x1e5
 2866 044a E7030000 		.4byte	0x3e7
 2867 044e 0E       		.uleb128 0xe
 2868 044f B0       		.byte	0xb0
 2869 0450 04       		.byte	0x4
 2870 0451 EB01     		.2byte	0x1eb
 2871 0453 4F050000 		.4byte	0x54f
 2872 0457 0D       		.uleb128 0xd
 2873 0458 5A080000 		.4byte	.LASF53
 2874 045c 04       		.byte	0x4
 2875 045d F201     		.2byte	0x1f2
 2876 045f 77000000 		.4byte	0x77
 2877 0463 00       		.byte	0
 2878 0464 0D       		.uleb128 0xd
 2879 0465 370D0000 		.4byte	.LASF54
 2880 0469 04       		.byte	0x4
 2881 046a F701     		.2byte	0x1f7
 2882 046c 77000000 		.4byte	0x77
 2883 0470 02       		.byte	0x2
 2884 0471 0D       		.uleb128 0xd
 2885 0472 EE000000 		.4byte	.LASF55
 2886 0476 04       		.byte	0x4
 2887 0477 FC01     		.2byte	0x1fc
 2888 0479 77000000 		.4byte	0x77
 2889 047d 04       		.byte	0x4
 2890 047e 0D       		.uleb128 0xd
 2891 047f 63090000 		.4byte	.LASF56
 2892 0483 04       		.byte	0x4
 2893 0484 0202     		.2byte	0x202
 2894 0486 77000000 		.4byte	0x77
 2895 048a 06       		.byte	0x6
 2896 048b 0D       		.uleb128 0xd
 2897 048c DC000000 		.4byte	.LASF57
 2898 0490 04       		.byte	0x4
 2899 0491 0702     		.2byte	0x207
 2900 0493 77000000 		.4byte	0x77
ARM GAS  C:\Users\zack.li\AppData\Local\Temp\ccTyLy6m.s 			page 107


 2901 0497 08       		.byte	0x8
 2902 0498 0D       		.uleb128 0xd
 2903 0499 BC050000 		.4byte	.LASF58
 2904 049d 04       		.byte	0x4
 2905 049e 0C02     		.2byte	0x20c
 2906 04a0 C1000000 		.4byte	0xc1
 2907 04a4 0C       		.byte	0xc
 2908 04a5 0D       		.uleb128 0xd
 2909 04a6 39090000 		.4byte	.LASF59
 2910 04aa 04       		.byte	0x4
 2911 04ab 1202     		.2byte	0x212
 2912 04ad 4F050000 		.4byte	0x54f
 2913 04b1 10       		.byte	0x10
 2914 04b2 0D       		.uleb128 0xd
 2915 04b3 EA090000 		.4byte	.LASF60
 2916 04b7 04       		.byte	0x4
 2917 04b8 1902     		.2byte	0x219
 2918 04ba 4F050000 		.4byte	0x54f
 2919 04be 14       		.byte	0x14
 2920 04bf 0D       		.uleb128 0xd
 2921 04c0 6E080000 		.4byte	.LASF61
 2922 04c4 04       		.byte	0x4
 2923 04c5 2902     		.2byte	0x229
 2924 04c7 5F050000 		.4byte	0x55f
 2925 04cb 18       		.byte	0x18
 2926 04cc 0D       		.uleb128 0xd
 2927 04cd D7060000 		.4byte	.LASF62
 2928 04d1 04       		.byte	0x4
 2929 04d2 2F02     		.2byte	0x22f
 2930 04d4 77000000 		.4byte	0x77
 2931 04d8 1E       		.byte	0x1e
 2932 04d9 0D       		.uleb128 0xd
 2933 04da BF030000 		.4byte	.LASF63
 2934 04de 04       		.byte	0x4
 2935 04df 3402     		.2byte	0x234
 2936 04e1 6B000000 		.4byte	0x6b
 2937 04e5 20       		.byte	0x20
 2938 04e6 0D       		.uleb128 0xd
 2939 04e7 66060000 		.4byte	.LASF64
 2940 04eb 04       		.byte	0x4
 2941 04ec 3902     		.2byte	0x239
 2942 04ee 57030000 		.4byte	0x357
 2943 04f2 22       		.byte	0x22
 2944 04f3 0D       		.uleb128 0xd
 2945 04f4 DC020000 		.4byte	.LASF65
 2946 04f8 04       		.byte	0x4
 2947 04f9 3E02     		.2byte	0x23e
 2948 04fb 42040000 		.4byte	0x442
 2949 04ff 74       		.byte	0x74
 2950 0500 0D       		.uleb128 0xd
 2951 0501 95000000 		.4byte	.LASF66
 2952 0505 04       		.byte	0x4
 2953 0506 4302     		.2byte	0x243
 2954 0508 6B000000 		.4byte	0x6b
 2955 050c A6       		.byte	0xa6
 2956 050d 0D       		.uleb128 0xd
 2957 050e 3E030000 		.4byte	.LASF67
ARM GAS  C:\Users\zack.li\AppData\Local\Temp\ccTyLy6m.s 			page 108


 2958 0512 04       		.byte	0x4
 2959 0513 4802     		.2byte	0x248
 2960 0515 6B000000 		.4byte	0x6b
 2961 0519 A7       		.byte	0xa7
 2962 051a 0D       		.uleb128 0xd
 2963 051b 47080000 		.4byte	.LASF68
 2964 051f 04       		.byte	0x4
 2965 0520 4D02     		.2byte	0x24d
 2966 0522 77000000 		.4byte	0x77
 2967 0526 A8       		.byte	0xa8
 2968 0527 0D       		.uleb128 0xd
 2969 0528 AB060000 		.4byte	.LASF69
 2970 052c 04       		.byte	0x4
 2971 052d 5202     		.2byte	0x252
 2972 052f BB030000 		.4byte	0x3bb
 2973 0533 AA       		.byte	0xaa
 2974 0534 0D       		.uleb128 0xd
 2975 0535 F6000000 		.4byte	.LASF70
 2976 0539 04       		.byte	0x4
 2977 053a 5702     		.2byte	0x257
 2978 053c 6B000000 		.4byte	0x6b
 2979 0540 AC       		.byte	0xac
 2980 0541 0D       		.uleb128 0xd
 2981 0542 AD0B0000 		.4byte	.LASF71
 2982 0546 04       		.byte	0x4
 2983 0547 5C02     		.2byte	0x25c
 2984 0549 6B000000 		.4byte	0x6b
 2985 054d AD       		.byte	0xad
 2986 054e 00       		.byte	0
 2987 054f 0A       		.uleb128 0xa
 2988 0550 83000000 		.4byte	0x83
 2989 0554 5F050000 		.4byte	0x55f
 2990 0558 0B       		.uleb128 0xb
 2991 0559 A6010000 		.4byte	0x1a6
 2992 055d 00       		.byte	0
 2993 055e 00       		.byte	0
 2994 055f 0A       		.uleb128 0xa
 2995 0560 6B000000 		.4byte	0x6b
 2996 0564 6F050000 		.4byte	0x56f
 2997 0568 0B       		.uleb128 0xb
 2998 0569 A6010000 		.4byte	0x1a6
 2999 056d 04       		.byte	0x4
 3000 056e 00       		.byte	0
 3001 056f 04       		.uleb128 0x4
 3002 0570 BD080000 		.4byte	.LASF72
 3003 0574 04       		.byte	0x4
 3004 0575 5D02     		.2byte	0x25d
 3005 0577 4E040000 		.4byte	0x44e
 3006 057b 0E       		.uleb128 0xe
 3007 057c 1C       		.byte	0x1c
 3008 057d 04       		.byte	0x4
 3009 057e 6302     		.2byte	0x263
 3010 0580 FA050000 		.4byte	0x5fa
 3011 0584 0D       		.uleb128 0xd
 3012 0585 27070000 		.4byte	.LASF73
 3013 0589 04       		.byte	0x4
 3014 058a 6802     		.2byte	0x268
ARM GAS  C:\Users\zack.li\AppData\Local\Temp\ccTyLy6m.s 			page 109


 3015 058c FA050000 		.4byte	0x5fa
 3016 0590 00       		.byte	0
 3017 0591 0D       		.uleb128 0xd
 3018 0592 E7050000 		.4byte	.LASF74
 3019 0596 04       		.byte	0x4
 3020 0597 6D02     		.2byte	0x26d
 3021 0599 FA050000 		.4byte	0x5fa
 3022 059d 04       		.byte	0x4
 3023 059e 0D       		.uleb128 0xd
 3024 059f FF030000 		.4byte	.LASF75
 3025 05a3 04       		.byte	0x4
 3026 05a4 7202     		.2byte	0x272
 3027 05a6 FA050000 		.4byte	0x5fa
 3028 05aa 08       		.byte	0x8
 3029 05ab 0D       		.uleb128 0xd
 3030 05ac 8D090000 		.4byte	.LASF76
 3031 05b0 04       		.byte	0x4
 3032 05b1 7702     		.2byte	0x277
 3033 05b3 FA050000 		.4byte	0x5fa
 3034 05b7 0C       		.byte	0xc
 3035 05b8 0D       		.uleb128 0xd
 3036 05b9 2E0C0000 		.4byte	.LASF77
 3037 05bd 04       		.byte	0x4
 3038 05be 7C02     		.2byte	0x27c
 3039 05c0 83000000 		.4byte	0x83
 3040 05c4 10       		.byte	0x10
 3041 05c5 0D       		.uleb128 0xd
 3042 05c6 66070000 		.4byte	.LASF78
 3043 05ca 04       		.byte	0x4
 3044 05cb 8102     		.2byte	0x281
 3045 05cd 83000000 		.4byte	0x83
 3046 05d1 14       		.byte	0x14
 3047 05d2 0D       		.uleb128 0xd
 3048 05d3 4D050000 		.4byte	.LASF79
 3049 05d7 04       		.byte	0x4
 3050 05d8 8602     		.2byte	0x286
 3051 05da 6B000000 		.4byte	0x6b
 3052 05de 18       		.byte	0x18
 3053 05df 0D       		.uleb128 0xd
 3054 05e0 A70A0000 		.4byte	.LASF80
 3055 05e4 04       		.byte	0x4
 3056 05e5 8B02     		.2byte	0x28b
 3057 05e7 6B000000 		.4byte	0x6b
 3058 05eb 19       		.byte	0x19
 3059 05ec 0D       		.uleb128 0xd
 3060 05ed 9A020000 		.4byte	.LASF81
 3061 05f1 04       		.byte	0x4
 3062 05f2 9002     		.2byte	0x290
 3063 05f4 6B000000 		.4byte	0x6b
 3064 05f8 1A       		.byte	0x1a
 3065 05f9 00       		.byte	0
 3066 05fa 10       		.uleb128 0x10
 3067 05fb 04       		.byte	0x4
 3068 05fc B5000000 		.4byte	0xb5
 3069 0600 04       		.uleb128 0x4
 3070 0601 25030000 		.4byte	.LASF82
 3071 0605 04       		.byte	0x4
ARM GAS  C:\Users\zack.li\AppData\Local\Temp\ccTyLy6m.s 			page 110


 3072 0606 9102     		.2byte	0x291
 3073 0608 7B050000 		.4byte	0x57b
 3074 060c 0E       		.uleb128 0xe
 3075 060d 1C       		.byte	0x1c
 3076 060e 04       		.byte	0x4
 3077 060f C402     		.2byte	0x2c4
 3078 0611 8B060000 		.4byte	0x68b
 3079 0615 0D       		.uleb128 0xd
 3080 0616 C90C0000 		.4byte	.LASF83
 3081 061a 04       		.byte	0x4
 3082 061b CD02     		.2byte	0x2cd
 3083 061d 8B060000 		.4byte	0x68b
 3084 0621 00       		.byte	0
 3085 0622 0D       		.uleb128 0xd
 3086 0623 BC0B0000 		.4byte	.LASF84
 3087 0627 04       		.byte	0x4
 3088 0628 D402     		.2byte	0x2d4
 3089 062a 92060000 		.4byte	0x692
 3090 062e 04       		.byte	0x4
 3091 062f 0D       		.uleb128 0xd
 3092 0630 63080000 		.4byte	.LASF85
 3093 0634 04       		.byte	0x4
 3094 0635 DA02     		.2byte	0x2da
 3095 0637 94060000 		.4byte	0x694
 3096 063b 08       		.byte	0x8
 3097 063c 0D       		.uleb128 0xd
 3098 063d 37070000 		.4byte	.LASF86
 3099 0641 04       		.byte	0x4
 3100 0642 E002     		.2byte	0x2e0
 3101 0644 92060000 		.4byte	0x692
 3102 0648 0C       		.byte	0xc
 3103 0649 0D       		.uleb128 0xd
 3104 064a 7B050000 		.4byte	.LASF87
 3105 064e 04       		.byte	0x4
 3106 064f E702     		.2byte	0x2e7
 3107 0651 9A060000 		.4byte	0x69a
 3108 0655 10       		.byte	0x10
 3109 0656 0D       		.uleb128 0xd
 3110 0657 A00B0000 		.4byte	.LASF88
 3111 065b 04       		.byte	0x4
 3112 065c EC02     		.2byte	0x2ec
 3113 065e 83000000 		.4byte	0x83
 3114 0662 14       		.byte	0x14
 3115 0663 0D       		.uleb128 0xd
 3116 0664 86040000 		.4byte	.LASF89
 3117 0668 04       		.byte	0x4
 3118 0669 F302     		.2byte	0x2f3
 3119 066b 77000000 		.4byte	0x77
 3120 066f 18       		.byte	0x18
 3121 0670 0D       		.uleb128 0xd
 3122 0671 56030000 		.4byte	.LASF90
 3123 0675 04       		.byte	0x4
 3124 0676 FA02     		.2byte	0x2fa
 3125 0678 6B000000 		.4byte	0x6b
 3126 067c 1A       		.byte	0x1a
 3127 067d 0D       		.uleb128 0xd
 3128 067e FB050000 		.4byte	.LASF91
ARM GAS  C:\Users\zack.li\AppData\Local\Temp\ccTyLy6m.s 			page 111


 3129 0682 04       		.byte	0x4
 3130 0683 0403     		.2byte	0x304
 3131 0685 6B000000 		.4byte	0x6b
 3132 0689 1B       		.byte	0x1b
 3133 068a 00       		.byte	0
 3134 068b 10       		.uleb128 0x10
 3135 068c 04       		.byte	0x4
 3136 068d 91060000 		.4byte	0x691
 3137 0691 11       		.uleb128 0x11
 3138 0692 12       		.uleb128 0x12
 3139 0693 04       		.byte	0x4
 3140 0694 10       		.uleb128 0x10
 3141 0695 04       		.byte	0x4
 3142 0696 DB030000 		.4byte	0x3db
 3143 069a 10       		.uleb128 0x10
 3144 069b 04       		.byte	0x4
 3145 069c 6B000000 		.4byte	0x6b
 3146 06a0 04       		.uleb128 0x4
 3147 06a1 42040000 		.4byte	.LASF92
 3148 06a5 04       		.byte	0x4
 3149 06a6 0503     		.2byte	0x305
 3150 06a8 0C060000 		.4byte	0x60c
 3151 06ac 0E       		.uleb128 0xe
 3152 06ad 8C       		.byte	0x8c
 3153 06ae 04       		.byte	0x4
 3154 06af 0B03     		.2byte	0x30b
 3155 06b1 C3060000 		.4byte	0x6c3
 3156 06b5 0D       		.uleb128 0xd
 3157 06b6 8B0D0000 		.4byte	.LASF93
 3158 06ba 04       		.byte	0x4
 3159 06bb 1003     		.2byte	0x310
 3160 06bd C3060000 		.4byte	0x6c3
 3161 06c1 00       		.byte	0
 3162 06c2 00       		.byte	0
 3163 06c3 0A       		.uleb128 0xa
 3164 06c4 A0060000 		.4byte	0x6a0
 3165 06c8 D3060000 		.4byte	0x6d3
 3166 06cc 0B       		.uleb128 0xb
 3167 06cd A6010000 		.4byte	0x1a6
 3168 06d1 04       		.byte	0x4
 3169 06d2 00       		.byte	0
 3170 06d3 04       		.uleb128 0x4
 3171 06d4 6F060000 		.4byte	.LASF94
 3172 06d8 04       		.byte	0x4
 3173 06d9 1103     		.2byte	0x311
 3174 06db AC060000 		.4byte	0x6ac
 3175 06df 0E       		.uleb128 0xe
 3176 06e0 14       		.byte	0x14
 3177 06e1 04       		.byte	0x4
 3178 06e2 1603     		.2byte	0x316
 3179 06e4 44070000 		.4byte	0x744
 3180 06e8 0D       		.uleb128 0xd
 3181 06e9 27070000 		.4byte	.LASF73
 3182 06ed 04       		.byte	0x4
 3183 06ee 1B03     		.2byte	0x31b
 3184 06f0 FA050000 		.4byte	0x5fa
 3185 06f4 00       		.byte	0
ARM GAS  C:\Users\zack.li\AppData\Local\Temp\ccTyLy6m.s 			page 112


 3186 06f5 0D       		.uleb128 0xd
 3187 06f6 E7050000 		.4byte	.LASF74
 3188 06fa 04       		.byte	0x4
 3189 06fb 2003     		.2byte	0x320
 3190 06fd FA050000 		.4byte	0x5fa
 3191 0701 04       		.byte	0x4
 3192 0702 0D       		.uleb128 0xd
 3193 0703 FF030000 		.4byte	.LASF75
 3194 0707 04       		.byte	0x4
 3195 0708 2403     		.2byte	0x324
 3196 070a FA050000 		.4byte	0x5fa
 3197 070e 08       		.byte	0x8
 3198 070f 0D       		.uleb128 0xd
 3199 0710 2E0C0000 		.4byte	.LASF77
 3200 0714 04       		.byte	0x4
 3201 0715 2903     		.2byte	0x329
 3202 0717 83000000 		.4byte	0x83
 3203 071b 0C       		.byte	0xc
 3204 071c 0D       		.uleb128 0xd
 3205 071d 4D050000 		.4byte	.LASF79
 3206 0721 04       		.byte	0x4
 3207 0722 2E03     		.2byte	0x32e
 3208 0724 6B000000 		.4byte	0x6b
 3209 0728 10       		.byte	0x10
 3210 0729 0D       		.uleb128 0xd
 3211 072a A70A0000 		.4byte	.LASF80
 3212 072e 04       		.byte	0x4
 3213 072f 3303     		.2byte	0x333
 3214 0731 6B000000 		.4byte	0x6b
 3215 0735 11       		.byte	0x11
 3216 0736 0D       		.uleb128 0xd
 3217 0737 9A020000 		.4byte	.LASF81
 3218 073b 04       		.byte	0x4
 3219 073c 3803     		.2byte	0x338
 3220 073e 6B000000 		.4byte	0x6b
 3221 0742 12       		.byte	0x12
 3222 0743 00       		.byte	0
 3223 0744 04       		.uleb128 0x4
 3224 0745 E00B0000 		.4byte	.LASF95
 3225 0749 04       		.byte	0x4
 3226 074a 3903     		.2byte	0x339
 3227 074c DF060000 		.4byte	0x6df
 3228 0750 02       		.uleb128 0x2
 3229 0751 08       		.byte	0x8
 3230 0752 04       		.byte	0x4
 3231 0753 1B080000 		.4byte	.LASF96
 3232 0757 08       		.uleb128 0x8
 3233 0758 08       		.byte	0x8
 3234 0759 05       		.byte	0x5
 3235 075a CF       		.byte	0xcf
 3236 075b 78070000 		.4byte	0x778
 3237 075f 09       		.uleb128 0x9
 3238 0760 BD090000 		.4byte	.LASF97
 3239 0764 05       		.byte	0x5
 3240 0765 D4       		.byte	0xd4
 3241 0766 83000000 		.4byte	0x83
 3242 076a 00       		.byte	0
ARM GAS  C:\Users\zack.li\AppData\Local\Temp\ccTyLy6m.s 			page 113


 3243 076b 09       		.uleb128 0x9
 3244 076c 47070000 		.4byte	.LASF98
 3245 0770 05       		.byte	0x5
 3246 0771 D9       		.byte	0xd9
 3247 0772 83000000 		.4byte	0x83
 3248 0776 04       		.byte	0x4
 3249 0777 00       		.byte	0
 3250 0778 0C       		.uleb128 0xc
 3251 0779 FC0A0000 		.4byte	.LASF99
 3252 077d 05       		.byte	0x5
 3253 077e DA       		.byte	0xda
 3254 077f 57070000 		.4byte	0x757
 3255 0783 13       		.uleb128 0x13
 3256 0784 EB080000 		.4byte	.LASF101
 3257 0788 01       		.byte	0x1
 3258 0789 8D01     		.2byte	0x18d
 3259 078b 01       		.byte	0x1
 3260 078c A9070000 		.4byte	0x7a9
 3261 0790 14       		.uleb128 0x14
 3262 0791 78080000 		.4byte	.LASF34
 3263 0795 01       		.byte	0x1
 3264 0796 8D01     		.2byte	0x18d
 3265 0798 83000000 		.4byte	0x83
 3266 079c 14       		.uleb128 0x14
 3267 079d 200D0000 		.4byte	.LASF100
 3268 07a1 01       		.byte	0x1
 3269 07a2 8D01     		.2byte	0x18d
 3270 07a4 83000000 		.4byte	0x83
 3271 07a8 00       		.byte	0
 3272 07a9 15       		.uleb128 0x15
 3273 07aa 85080000 		.4byte	.LASF203
 3274 07ae 01       		.byte	0x1
 3275 07af E102     		.2byte	0x2e1
 3276 07b1 01       		.byte	0x1
 3277 07b2 16       		.uleb128 0x16
 3278 07b3 00000000 		.4byte	.LASF102
 3279 07b7 01       		.byte	0x1
 3280 07b8 CB       		.byte	0xcb
 3281 07b9 01       		.byte	0x1
 3282 07ba CA070000 		.4byte	0x7ca
 3283 07be 17       		.uleb128 0x17
 3284 07bf 33090000 		.4byte	.LASF103
 3285 07c3 01       		.byte	0x1
 3286 07c4 CB       		.byte	0xcb
 3287 07c5 83000000 		.4byte	0x83
 3288 07c9 00       		.byte	0
 3289 07ca 18       		.uleb128 0x18
 3290 07cb 01010000 		.4byte	.LASF110
 3291 07cf 01       		.byte	0x1
 3292 07d0 3901     		.2byte	0x139
 3293 07d2 00000000 		.4byte	.LFB4
 3294 07d6 68000000 		.4byte	.LFE4-.LFB4
 3295 07da 01       		.uleb128 0x1
 3296 07db 9C       		.byte	0x9c
 3297 07dc 6F080000 		.4byte	0x86f
 3298 07e0 19       		.uleb128 0x19
 3299 07e1 280C0000 		.4byte	.LASF119
ARM GAS  C:\Users\zack.li\AppData\Local\Temp\ccTyLy6m.s 			page 114


 3300 07e5 01       		.byte	0x1
 3301 07e6 3901     		.2byte	0x139
 3302 07e8 83000000 		.4byte	0x83
 3303 07ec 00000000 		.4byte	.LLST0
 3304 07f0 1A       		.uleb128 0x1a
 3305 07f1 28010000 		.4byte	.LASF104
 3306 07f5 01       		.byte	0x1
 3307 07f6 3B01     		.2byte	0x13b
 3308 07f8 6B000000 		.4byte	0x6b
 3309 07fc 21000000 		.4byte	.LLST1
 3310 0800 1A       		.uleb128 0x1a
 3311 0801 51020000 		.4byte	.LASF105
 3312 0805 01       		.byte	0x1
 3313 0806 3D01     		.2byte	0x13d
 3314 0808 83000000 		.4byte	0x83
 3315 080c 34000000 		.4byte	.LLST2
 3316 0810 1A       		.uleb128 0x1a
 3317 0811 22040000 		.4byte	.LASF106
 3318 0815 01       		.byte	0x1
 3319 0816 3F01     		.2byte	0x13f
 3320 0818 83000000 		.4byte	0x83
 3321 081c 54000000 		.4byte	.LLST3
 3322 0820 1A       		.uleb128 0x1a
 3323 0821 96030000 		.4byte	.LASF107
 3324 0825 01       		.byte	0x1
 3325 0826 4001     		.2byte	0x140
 3326 0828 83000000 		.4byte	0x83
 3327 082c 73000000 		.4byte	.LLST4
 3328 0830 1A       		.uleb128 0x1a
 3329 0831 3D050000 		.4byte	.LASF108
 3330 0835 01       		.byte	0x1
 3331 0836 4201     		.2byte	0x142
 3332 0838 83000000 		.4byte	0x83
 3333 083c 92000000 		.4byte	.LLST5
 3334 0840 1A       		.uleb128 0x1a
 3335 0841 8F0B0000 		.4byte	.LASF109
 3336 0845 01       		.byte	0x1
 3337 0846 4301     		.2byte	0x143
 3338 0848 83000000 		.4byte	0x83
 3339 084c D3000000 		.4byte	.LLST6
 3340 0850 1B       		.uleb128 0x1b
 3341 0851 26020000 		.4byte	.LASF114
 3342 0855 01       		.byte	0x1
 3343 0856 4501     		.2byte	0x145
 3344 0858 6F080000 		.4byte	0x86f
 3345 085c 1C       		.uleb128 0x1c
 3346 085d 1C000000 		.4byte	.LVL4
 3347 0861 AC150000 		.4byte	0x15ac
 3348 0865 1C       		.uleb128 0x1c
 3349 0866 62000000 		.4byte	.LVL20
 3350 086a B7150000 		.4byte	0x15b7
 3351 086e 00       		.byte	0
 3352 086f 10       		.uleb128 0x10
 3353 0870 04       		.byte	0x4
 3354 0871 75080000 		.4byte	0x875
 3355 0875 1D       		.uleb128 0x1d
 3356 0876 44070000 		.4byte	0x744
ARM GAS  C:\Users\zack.li\AppData\Local\Temp\ccTyLy6m.s 			page 115


 3357 087a 18       		.uleb128 0x18
 3358 087b 03060000 		.4byte	.LASF111
 3359 087f 01       		.byte	0x1
 3360 0880 0301     		.2byte	0x103
 3361 0882 00000000 		.4byte	.LFB2
 3362 0886 0A000000 		.4byte	.LFE2-.LFB2
 3363 088a 01       		.uleb128 0x1
 3364 088b 9C       		.byte	0x9c
 3365 088c A0080000 		.4byte	0x8a0
 3366 0890 1E       		.uleb128 0x1e
 3367 0891 08000000 		.4byte	.LVL21
 3368 0895 CA070000 		.4byte	0x7ca
 3369 0899 1F       		.uleb128 0x1f
 3370 089a 01       		.uleb128 0x1
 3371 089b 50       		.byte	0x50
 3372 089c 01       		.uleb128 0x1
 3373 089d 32       		.byte	0x32
 3374 089e 00       		.byte	0
 3375 089f 00       		.byte	0
 3376 08a0 18       		.uleb128 0x18
 3377 08a1 8B050000 		.4byte	.LASF112
 3378 08a5 01       		.byte	0x1
 3379 08a6 1601     		.2byte	0x116
 3380 08a8 00000000 		.4byte	.LFB3
 3381 08ac 0A000000 		.4byte	.LFE3-.LFB3
 3382 08b0 01       		.uleb128 0x1
 3383 08b1 9C       		.byte	0x9c
 3384 08b2 C6080000 		.4byte	0x8c6
 3385 08b6 1E       		.uleb128 0x1e
 3386 08b7 08000000 		.4byte	.LVL22
 3387 08bb CA070000 		.4byte	0x7ca
 3388 08bf 1F       		.uleb128 0x1f
 3389 08c0 01       		.uleb128 0x1
 3390 08c1 50       		.byte	0x50
 3391 08c2 01       		.uleb128 0x1
 3392 08c3 30       		.byte	0x30
 3393 08c4 00       		.byte	0
 3394 08c5 00       		.byte	0
 3395 08c6 13       		.uleb128 0x13
 3396 08c7 640B0000 		.4byte	.LASF113
 3397 08cb 01       		.byte	0x1
 3398 08cc AD01     		.2byte	0x1ad
 3399 08ce 01       		.byte	0x1
 3400 08cf E0080000 		.4byte	0x8e0
 3401 08d3 1B       		.uleb128 0x1b
 3402 08d4 BF070000 		.4byte	.LASF115
 3403 08d8 01       		.byte	0x1
 3404 08d9 B001     		.2byte	0x1b0
 3405 08db 83000000 		.4byte	0x83
 3406 08df 00       		.byte	0
 3407 08e0 20       		.uleb128 0x20
 3408 08e1 53010000 		.4byte	.LASF204
 3409 08e5 01       		.byte	0x1
 3410 08e6 D601     		.2byte	0x1d6
 3411 08e8 01       		.byte	0x1
 3412 08e9 21       		.uleb128 0x21
 3413 08ea 28060000 		.4byte	.LASF116
ARM GAS  C:\Users\zack.li\AppData\Local\Temp\ccTyLy6m.s 			page 116


 3414 08ee 01       		.byte	0x1
 3415 08ef 0C02     		.2byte	0x20c
 3416 08f1 00000000 		.4byte	.LFB8
 3417 08f5 94010000 		.4byte	.LFE8-.LFB8
 3418 08f9 01       		.uleb128 0x1
 3419 08fa 9C       		.byte	0x9c
 3420 08fb D1090000 		.4byte	0x9d1
 3421 08ff 1A       		.uleb128 0x1a
 3422 0900 D60C0000 		.4byte	.LASF117
 3423 0904 01       		.byte	0x1
 3424 0905 0F02     		.2byte	0x20f
 3425 0907 83000000 		.4byte	0x83
 3426 090b FD000000 		.4byte	.LLST7
 3427 090f 22       		.uleb128 0x22
 3428 0910 E0080000 		.4byte	0x8e0
 3429 0914 B6000000 		.4byte	.LBB10
 3430 0918 0E000000 		.4byte	.LBE10-.LBB10
 3431 091c 01       		.byte	0x1
 3432 091d 9702     		.2byte	0x297
 3433 091f 23       		.uleb128 0x23
 3434 0920 B2070000 		.4byte	0x7b2
 3435 0924 CA000000 		.4byte	.LBB12
 3436 0928 02000000 		.4byte	.LBE12-.LBB12
 3437 092c 01       		.byte	0x1
 3438 092d 9E02     		.2byte	0x29e
 3439 092f 39090000 		.4byte	0x939
 3440 0933 24       		.uleb128 0x24
 3441 0934 BE070000 		.4byte	0x7be
 3442 0938 00       		.byte	0
 3443 0939 23       		.uleb128 0x23
 3444 093a C6080000 		.4byte	0x8c6
 3445 093e CC000000 		.4byte	.LBB14
 3446 0942 20000000 		.4byte	.LBE14-.LBB14
 3447 0946 01       		.byte	0x1
 3448 0947 A202     		.2byte	0x2a2
 3449 0949 5D090000 		.4byte	0x95d
 3450 094d 25       		.uleb128 0x25
 3451 094e CC000000 		.4byte	.LBB15
 3452 0952 20000000 		.4byte	.LBE15-.LBB15
 3453 0956 26       		.uleb128 0x26
 3454 0957 D3080000 		.4byte	0x8d3
 3455 095b 00       		.byte	0
 3456 095c 00       		.byte	0
 3457 095d 1C       		.uleb128 0x1c
 3458 095e 16000000 		.4byte	.LVL23
 3459 0962 C2150000 		.4byte	0x15c2
 3460 0966 1C       		.uleb128 0x1c
 3461 0967 1E000000 		.4byte	.LVL24
 3462 096b 7A080000 		.4byte	0x87a
 3463 096f 27       		.uleb128 0x27
 3464 0970 24000000 		.4byte	.LVL25
 3465 0974 CD150000 		.4byte	0x15cd
 3466 0978 82090000 		.4byte	0x982
 3467 097c 1F       		.uleb128 0x1f
 3468 097d 01       		.uleb128 0x1
 3469 097e 50       		.byte	0x50
 3470 097f 01       		.uleb128 0x1
ARM GAS  C:\Users\zack.li\AppData\Local\Temp\ccTyLy6m.s 			page 117


 3471 0980 31       		.byte	0x31
 3472 0981 00       		.byte	0
 3473 0982 27       		.uleb128 0x27
 3474 0983 66000000 		.4byte	.LVL30
 3475 0987 D8150000 		.4byte	0x15d8
 3476 098b A5090000 		.4byte	0x9a5
 3477 098f 1F       		.uleb128 0x1f
 3478 0990 01       		.uleb128 0x1
 3479 0991 50       		.byte	0x50
 3480 0992 05       		.uleb128 0x5
 3481 0993 0C       		.byte	0xc
 3482 0994 00040240 		.4byte	0x40020400
 3483 0998 1F       		.uleb128 0x1f
 3484 0999 01       		.uleb128 0x1
 3485 099a 51       		.byte	0x51
 3486 099b 02       		.uleb128 0x2
 3487 099c 08       		.byte	0x8
 3488 099d F0       		.byte	0xf0
 3489 099e 1F       		.uleb128 0x1f
 3490 099f 01       		.uleb128 0x1
 3491 09a0 52       		.byte	0x52
 3492 09a1 02       		.uleb128 0x2
 3493 09a2 08       		.byte	0x8
 3494 09a3 60       		.byte	0x60
 3495 09a4 00       		.byte	0
 3496 09a5 27       		.uleb128 0x27
 3497 09a6 70000000 		.4byte	.LVL31
 3498 09aa D8150000 		.4byte	0x15d8
 3499 09ae C7090000 		.4byte	0x9c7
 3500 09b2 1F       		.uleb128 0x1f
 3501 09b3 01       		.uleb128 0x1
 3502 09b4 50       		.byte	0x50
 3503 09b5 05       		.uleb128 0x5
 3504 09b6 0C       		.byte	0xc
 3505 09b7 00040440 		.4byte	0x40040400
 3506 09bb 1F       		.uleb128 0x1f
 3507 09bc 01       		.uleb128 0x1
 3508 09bd 51       		.byte	0x51
 3509 09be 01       		.uleb128 0x1
 3510 09bf 32       		.byte	0x32
 3511 09c0 1F       		.uleb128 0x1f
 3512 09c1 01       		.uleb128 0x1
 3513 09c2 52       		.byte	0x52
 3514 09c3 02       		.uleb128 0x2
 3515 09c4 74       		.byte	0x74
 3516 09c5 00       		.sleb128 0
 3517 09c6 00       		.byte	0
 3518 09c7 1C       		.uleb128 0x1c
 3519 09c8 CA000000 		.4byte	.LVL40
 3520 09cc E3150000 		.4byte	0x15e3
 3521 09d0 00       		.byte	0
 3522 09d1 18       		.uleb128 0x18
 3523 09d2 6D040000 		.4byte	.LASF118
 3524 09d6 01       		.byte	0x1
 3525 09d7 1E03     		.2byte	0x31e
 3526 09d9 00000000 		.4byte	.LFB10
 3527 09dd 60000000 		.4byte	.LFE10-.LFB10
ARM GAS  C:\Users\zack.li\AppData\Local\Temp\ccTyLy6m.s 			page 118


 3528 09e1 01       		.uleb128 0x1
 3529 09e2 9C       		.byte	0x9c
 3530 09e3 5C0A0000 		.4byte	0xa5c
 3531 09e7 19       		.uleb128 0x19
 3532 09e8 3B020000 		.4byte	.LASF120
 3533 09ec 01       		.byte	0x1
 3534 09ed 1E03     		.2byte	0x31e
 3535 09ef 5C0A0000 		.4byte	0xa5c
 3536 09f3 4A010000 		.4byte	.LLST8
 3537 09f7 1A       		.uleb128 0x1a
 3538 09f8 28010000 		.4byte	.LASF104
 3539 09fc 01       		.byte	0x1
 3540 09fd 2003     		.2byte	0x320
 3541 09ff 6B000000 		.4byte	0x6b
 3542 0a03 76010000 		.4byte	.LLST9
 3543 0a07 1A       		.uleb128 0x1a
 3544 0a08 2E0D0000 		.4byte	.LASF121
 3545 0a0c 01       		.byte	0x1
 3546 0a0d 2103     		.2byte	0x321
 3547 0a0f 83000000 		.4byte	0x83
 3548 0a13 94010000 		.4byte	.LLST10
 3549 0a17 1A       		.uleb128 0x1a
 3550 0a18 93090000 		.4byte	.LASF122
 3551 0a1c 01       		.byte	0x1
 3552 0a1d 2703     		.2byte	0x327
 3553 0a1f 83000000 		.4byte	0x83
 3554 0a23 A7010000 		.4byte	.LLST11
 3555 0a27 1A       		.uleb128 0x1a
 3556 0a28 1A000000 		.4byte	.LASF123
 3557 0a2c 01       		.byte	0x1
 3558 0a2d 2903     		.2byte	0x329
 3559 0a2f 83000000 		.4byte	0x83
 3560 0a33 D8010000 		.4byte	.LLST12
 3561 0a37 1C       		.uleb128 0x1c
 3562 0a38 10000000 		.4byte	.LVL45
 3563 0a3c AC150000 		.4byte	0x15ac
 3564 0a40 1C       		.uleb128 0x1c
 3565 0a41 2A000000 		.4byte	.LVL51
 3566 0a45 B7150000 		.4byte	0x15b7
 3567 0a49 1C       		.uleb128 0x1c
 3568 0a4a 2E000000 		.4byte	.LVL52
 3569 0a4e AC150000 		.4byte	0x15ac
 3570 0a52 1C       		.uleb128 0x1c
 3571 0a53 46000000 		.4byte	.LVL60
 3572 0a57 B7150000 		.4byte	0x15b7
 3573 0a5b 00       		.byte	0
 3574 0a5c 10       		.uleb128 0x10
 3575 0a5d 04       		.byte	0x4
 3576 0a5e 620A0000 		.4byte	0xa62
 3577 0a62 1D       		.uleb128 0x1d
 3578 0a63 AD010000 		.4byte	0x1ad
 3579 0a67 28       		.uleb128 0x28
 3580 0a68 18050000 		.4byte	.LASF174
 3581 0a6c 01       		.byte	0x1
 3582 0a6d 9803     		.2byte	0x398
 3583 0a6f 83000000 		.4byte	0x83
 3584 0a73 00000000 		.4byte	.LFB11
ARM GAS  C:\Users\zack.li\AppData\Local\Temp\ccTyLy6m.s 			page 119


 3585 0a77 30000000 		.4byte	.LFE11-.LFB11
 3586 0a7b 01       		.uleb128 0x1
 3587 0a7c 9C       		.byte	0x9c
 3588 0a7d C20A0000 		.4byte	0xac2
 3589 0a81 19       		.uleb128 0x19
 3590 0a82 200D0000 		.4byte	.LASF100
 3591 0a86 01       		.byte	0x1
 3592 0a87 9803     		.2byte	0x398
 3593 0a89 83000000 		.4byte	0x83
 3594 0a8d 53020000 		.4byte	.LLST13
 3595 0a91 19       		.uleb128 0x19
 3596 0a92 B1050000 		.4byte	.LASF24
 3597 0a96 01       		.byte	0x1
 3598 0a97 9803     		.2byte	0x398
 3599 0a99 83000000 		.4byte	0x83
 3600 0a9d 7F020000 		.4byte	.LLST14
 3601 0aa1 19       		.uleb128 0x19
 3602 0aa2 A0020000 		.4byte	.LASF124
 3603 0aa6 01       		.byte	0x1
 3604 0aa7 9803     		.2byte	0x398
 3605 0aa9 83000000 		.4byte	0x83
 3606 0aad A0020000 		.4byte	.LLST15
 3607 0ab1 1A       		.uleb128 0x1a
 3608 0ab2 5F050000 		.4byte	.LASF125
 3609 0ab6 01       		.byte	0x1
 3610 0ab7 9A03     		.2byte	0x39a
 3611 0ab9 83000000 		.4byte	0x83
 3612 0abd D9020000 		.4byte	.LLST16
 3613 0ac1 00       		.byte	0
 3614 0ac2 18       		.uleb128 0x18
 3615 0ac3 27080000 		.4byte	.LASF126
 3616 0ac7 01       		.byte	0x1
 3617 0ac8 EA03     		.2byte	0x3ea
 3618 0aca 00000000 		.4byte	.LFB12
 3619 0ace 44000000 		.4byte	.LFE12-.LFB12
 3620 0ad2 01       		.uleb128 0x1
 3621 0ad3 9C       		.byte	0x9c
 3622 0ad4 3A0B0000 		.4byte	0xb3a
 3623 0ad8 1A       		.uleb128 0x1a
 3624 0ad9 200D0000 		.4byte	.LASF100
 3625 0add 01       		.byte	0x1
 3626 0ade EC03     		.2byte	0x3ec
 3627 0ae0 83000000 		.4byte	0x83
 3628 0ae4 F7020000 		.4byte	.LLST17
 3629 0ae8 1A       		.uleb128 0x1a
 3630 0ae9 A0020000 		.4byte	.LASF124
 3631 0aed 01       		.byte	0x1
 3632 0aee ED03     		.2byte	0x3ed
 3633 0af0 83000000 		.4byte	0x83
 3634 0af4 17030000 		.4byte	.LLST18
 3635 0af8 29       		.uleb128 0x29
 3636 0af9 D60C0000 		.4byte	.LASF117
 3637 0afd 01       		.byte	0x1
 3638 0afe EE03     		.2byte	0x3ee
 3639 0b00 83000000 		.4byte	0x83
 3640 0b04 01       		.uleb128 0x1
 3641 0b05 51       		.byte	0x51
ARM GAS  C:\Users\zack.li\AppData\Local\Temp\ccTyLy6m.s 			page 120


 3642 0b06 1A       		.uleb128 0x1a
 3643 0b07 3B020000 		.4byte	.LASF120
 3644 0b0b 01       		.byte	0x1
 3645 0b0c F003     		.2byte	0x3f0
 3646 0b0e 5C0A0000 		.4byte	0xa5c
 3647 0b12 37030000 		.4byte	.LLST19
 3648 0b16 2A       		.uleb128 0x2a
 3649 0b17 83070000 		.4byte	0x783
 3650 0b1b 2C000000 		.4byte	.LBB16
 3651 0b1f 08000000 		.4byte	.LBE16-.LBB16
 3652 0b23 01       		.byte	0x1
 3653 0b24 3904     		.2byte	0x439
 3654 0b26 2B       		.uleb128 0x2b
 3655 0b27 9C070000 		.4byte	0x79c
 3656 0b2b 4A030000 		.4byte	.LLST20
 3657 0b2f 2B       		.uleb128 0x2b
 3658 0b30 90070000 		.4byte	0x790
 3659 0b34 6A030000 		.4byte	.LLST21
 3660 0b38 00       		.byte	0
 3661 0b39 00       		.byte	0
 3662 0b3a 18       		.uleb128 0x18
 3663 0b3b 3A000000 		.4byte	.LASF127
 3664 0b3f 01       		.byte	0x1
 3665 0b40 5104     		.2byte	0x451
 3666 0b42 00000000 		.4byte	.LFB13
 3667 0b46 18000000 		.4byte	.LFE13-.LFB13
 3668 0b4a 01       		.uleb128 0x1
 3669 0b4b 9C       		.byte	0x9c
 3670 0b4c 8A0B0000 		.4byte	0xb8a
 3671 0b50 19       		.uleb128 0x19
 3672 0b51 3B020000 		.4byte	.LASF120
 3673 0b55 01       		.byte	0x1
 3674 0b56 5104     		.2byte	0x451
 3675 0b58 5C0A0000 		.4byte	0xa5c
 3676 0b5c 7D030000 		.4byte	.LLST22
 3677 0b60 1A       		.uleb128 0x1a
 3678 0b61 5F050000 		.4byte	.LASF125
 3679 0b65 01       		.byte	0x1
 3680 0b66 5404     		.2byte	0x454
 3681 0b68 83000000 		.4byte	0x83
 3682 0b6c 9E030000 		.4byte	.LLST23
 3683 0b70 1A       		.uleb128 0x1a
 3684 0b71 200D0000 		.4byte	.LASF100
 3685 0b75 01       		.byte	0x1
 3686 0b76 5504     		.2byte	0x455
 3687 0b78 83000000 		.4byte	0x83
 3688 0b7c B1030000 		.4byte	.LLST24
 3689 0b80 1C       		.uleb128 0x1c
 3690 0b81 0C000000 		.4byte	.LVL86
 3691 0b85 670A0000 		.4byte	0xa67
 3692 0b89 00       		.byte	0
 3693 0b8a 13       		.uleb128 0x13
 3694 0b8b 80020000 		.4byte	.LASF128
 3695 0b8f 01       		.byte	0x1
 3696 0b90 8B0A     		.2byte	0xa8b
 3697 0b92 03       		.byte	0x3
 3698 0b93 A40B0000 		.4byte	0xba4
ARM GAS  C:\Users\zack.li\AppData\Local\Temp\ccTyLy6m.s 			page 121


 3699 0b97 1B       		.uleb128 0x1b
 3700 0b98 AA020000 		.4byte	.LASF129
 3701 0b9c 01       		.byte	0x1
 3702 0b9d 910A     		.2byte	0xa91
 3703 0b9f 83000000 		.4byte	0x83
 3704 0ba3 00       		.byte	0
 3705 0ba4 13       		.uleb128 0x13
 3706 0ba5 7A030000 		.4byte	.LASF130
 3707 0ba9 01       		.byte	0x1
 3708 0baa 130A     		.2byte	0xa13
 3709 0bac 03       		.byte	0x3
 3710 0bad BE0B0000 		.4byte	0xbbe
 3711 0bb1 1B       		.uleb128 0x1b
 3712 0bb2 AA020000 		.4byte	.LASF129
 3713 0bb6 01       		.byte	0x1
 3714 0bb7 160A     		.2byte	0xa16
 3715 0bb9 83000000 		.4byte	0x83
 3716 0bbd 00       		.byte	0
 3717 0bbe 18       		.uleb128 0x18
 3718 0bbf 49090000 		.4byte	.LASF131
 3719 0bc3 01       		.byte	0x1
 3720 0bc4 2F05     		.2byte	0x52f
 3721 0bc6 00000000 		.4byte	.LFB16
 3722 0bca 10010000 		.4byte	.LFE16-.LFB16
 3723 0bce 01       		.uleb128 0x1
 3724 0bcf 9C       		.byte	0x9c
 3725 0bd0 560C0000 		.4byte	0xc56
 3726 0bd4 23       		.uleb128 0x23
 3727 0bd5 A40B0000 		.4byte	0xba4
 3728 0bd9 12000000 		.4byte	.LBB22
 3729 0bdd 66000000 		.4byte	.LBE22-.LBB22
 3730 0be1 01       		.byte	0x1
 3731 0be2 4C05     		.2byte	0x54c
 3732 0be4 FC0B0000 		.4byte	0xbfc
 3733 0be8 25       		.uleb128 0x25
 3734 0be9 12000000 		.4byte	.LBB23
 3735 0bed 66000000 		.4byte	.LBE23-.LBB23
 3736 0bf1 2C       		.uleb128 0x2c
 3737 0bf2 B10B0000 		.4byte	0xbb1
 3738 0bf6 E2030000 		.4byte	.LLST25
 3739 0bfa 00       		.byte	0
 3740 0bfb 00       		.byte	0
 3741 0bfc 23       		.uleb128 0x23
 3742 0bfd 8A0B0000 		.4byte	0xb8a
 3743 0c01 78000000 		.4byte	.LBB24
 3744 0c05 5E000000 		.4byte	.LBE24-.LBB24
 3745 0c09 01       		.byte	0x1
 3746 0c0a 4F05     		.2byte	0x54f
 3747 0c0c 460C0000 		.4byte	0xc46
 3748 0c10 25       		.uleb128 0x25
 3749 0c11 78000000 		.4byte	.LBB25
 3750 0c15 5E000000 		.4byte	.LBE25-.LBB25
 3751 0c19 2C       		.uleb128 0x2c
 3752 0c1a 970B0000 		.4byte	0xb97
 3753 0c1e 02040000 		.4byte	.LLST26
 3754 0c22 27       		.uleb128 0x27
 3755 0c23 84000000 		.4byte	.LVL93
ARM GAS  C:\Users\zack.li\AppData\Local\Temp\ccTyLy6m.s 			page 122


 3756 0c27 EE150000 		.4byte	0x15ee
 3757 0c2b 350C0000 		.4byte	0xc35
 3758 0c2f 1F       		.uleb128 0x1f
 3759 0c30 01       		.uleb128 0x1
 3760 0c31 50       		.byte	0x50
 3761 0c32 01       		.uleb128 0x1
 3762 0c33 3A       		.byte	0x3a
 3763 0c34 00       		.byte	0
 3764 0c35 1E       		.uleb128 0x1e
 3765 0c36 8A000000 		.4byte	.LVL94
 3766 0c3a F9150000 		.4byte	0x15f9
 3767 0c3e 1F       		.uleb128 0x1f
 3768 0c3f 01       		.uleb128 0x1
 3769 0c40 50       		.byte	0x50
 3770 0c41 01       		.uleb128 0x1
 3771 0c42 3A       		.byte	0x3a
 3772 0c43 00       		.byte	0
 3773 0c44 00       		.byte	0
 3774 0c45 00       		.byte	0
 3775 0c46 1E       		.uleb128 0x1e
 3776 0c47 0A000000 		.4byte	.LVL88
 3777 0c4b 04160000 		.4byte	0x1604
 3778 0c4f 1F       		.uleb128 0x1f
 3779 0c50 01       		.uleb128 0x1
 3780 0c51 50       		.byte	0x50
 3781 0c52 01       		.uleb128 0x1
 3782 0c53 3A       		.byte	0x3a
 3783 0c54 00       		.byte	0
 3784 0c55 00       		.byte	0
 3785 0c56 18       		.uleb128 0x18
 3786 0c57 D6090000 		.4byte	.LASF132
 3787 0c5b 01       		.byte	0x1
 3788 0c5c A005     		.2byte	0x5a0
 3789 0c5e 00000000 		.4byte	.LFB17
 3790 0c62 20000000 		.4byte	.LFE17-.LFB17
 3791 0c66 01       		.uleb128 0x1
 3792 0c67 9C       		.byte	0x9c
 3793 0c68 890C0000 		.4byte	0xc89
 3794 0c6c 27       		.uleb128 0x27
 3795 0c6d 12000000 		.4byte	.LVL99
 3796 0c71 0F160000 		.4byte	0x160f
 3797 0c75 7F0C0000 		.4byte	0xc7f
 3798 0c79 1F       		.uleb128 0x1f
 3799 0c7a 01       		.uleb128 0x1
 3800 0c7b 50       		.byte	0x50
 3801 0c7c 01       		.uleb128 0x1
 3802 0c7d 3A       		.byte	0x3a
 3803 0c7e 00       		.byte	0
 3804 0c7f 1C       		.uleb128 0x1c
 3805 0c80 16000000 		.4byte	.LVL100
 3806 0c84 BE0B0000 		.4byte	0xbbe
 3807 0c88 00       		.byte	0
 3808 0c89 18       		.uleb128 0x18
 3809 0c8a F5090000 		.4byte	.LASF133
 3810 0c8e 01       		.byte	0x1
 3811 0c8f C506     		.2byte	0x6c5
 3812 0c91 00000000 		.4byte	.LFB21
ARM GAS  C:\Users\zack.li\AppData\Local\Temp\ccTyLy6m.s 			page 123


 3813 0c95 32000000 		.4byte	.LFE21-.LFB21
 3814 0c99 01       		.uleb128 0x1
 3815 0c9a 9C       		.byte	0x9c
 3816 0c9b 020D0000 		.4byte	0xd02
 3817 0c9f 19       		.uleb128 0x19
 3818 0ca0 2F000000 		.4byte	.LASF134
 3819 0ca4 01       		.byte	0x1
 3820 0ca5 C506     		.2byte	0x6c5
 3821 0ca7 020D0000 		.4byte	0xd02
 3822 0cab 2F040000 		.4byte	.LLST27
 3823 0caf 1A       		.uleb128 0x1a
 3824 0cb0 AE030000 		.4byte	.LASF135
 3825 0cb4 01       		.byte	0x1
 3826 0cb5 C706     		.2byte	0x6c7
 3827 0cb7 83000000 		.4byte	0x83
 3828 0cbb 5B040000 		.4byte	.LLST28
 3829 0cbf 1A       		.uleb128 0x1a
 3830 0cc0 28010000 		.4byte	.LASF104
 3831 0cc4 01       		.byte	0x1
 3832 0cc5 C806     		.2byte	0x6c8
 3833 0cc7 6B000000 		.4byte	0x6b
 3834 0ccb 84040000 		.4byte	.LLST29
 3835 0ccf 1A       		.uleb128 0x1a
 3836 0cd0 D0010000 		.4byte	.LASF136
 3837 0cd4 01       		.byte	0x1
 3838 0cd5 C906     		.2byte	0x6c9
 3839 0cd7 83000000 		.4byte	0x83
 3840 0cdb 97040000 		.4byte	.LLST30
 3841 0cdf 1A       		.uleb128 0x1a
 3842 0ce0 6D010000 		.4byte	.LASF137
 3843 0ce4 01       		.byte	0x1
 3844 0ce5 CA06     		.2byte	0x6ca
 3845 0ce7 83000000 		.4byte	0x83
 3846 0ceb AA040000 		.4byte	.LLST31
 3847 0cef 1C       		.uleb128 0x1c
 3848 0cf0 0C000000 		.4byte	.LVL103
 3849 0cf4 AC150000 		.4byte	0x15ac
 3850 0cf8 1C       		.uleb128 0x1c
 3851 0cf9 30000000 		.4byte	.LVL109
 3852 0cfd B7150000 		.4byte	0x15b7
 3853 0d01 00       		.byte	0
 3854 0d02 10       		.uleb128 0x10
 3855 0d03 04       		.byte	0x4
 3856 0d04 080D0000 		.4byte	0xd08
 3857 0d08 1D       		.uleb128 0x1d
 3858 0d09 00060000 		.4byte	0x600
 3859 0d0d 18       		.uleb128 0x18
 3860 0d0e FA0B0000 		.4byte	.LASF138
 3861 0d12 01       		.byte	0x1
 3862 0d13 E305     		.2byte	0x5e3
 3863 0d15 00000000 		.4byte	.LFB18
 3864 0d19 8C000000 		.4byte	.LFE18-.LFB18
 3865 0d1d 01       		.uleb128 0x1
 3866 0d1e 9C       		.byte	0x9c
 3867 0d1f 6D0D0000 		.4byte	0xd6d
 3868 0d23 1A       		.uleb128 0x1a
 3869 0d24 3B020000 		.4byte	.LASF120
ARM GAS  C:\Users\zack.li\AppData\Local\Temp\ccTyLy6m.s 			page 124


 3870 0d28 01       		.byte	0x1
 3871 0d29 E505     		.2byte	0x5e5
 3872 0d2b 5C0A0000 		.4byte	0xa5c
 3873 0d2f BD040000 		.4byte	.LLST32
 3874 0d33 1C       		.uleb128 0x1c
 3875 0d34 26000000 		.4byte	.LVL114
 3876 0d38 C2150000 		.4byte	0x15c2
 3877 0d3c 27       		.uleb128 0x27
 3878 0d3d 4E000000 		.4byte	.LVL115
 3879 0d41 D1090000 		.4byte	0x9d1
 3880 0d45 510D0000 		.4byte	0xd51
 3881 0d49 1F       		.uleb128 0x1f
 3882 0d4a 01       		.uleb128 0x1
 3883 0d4b 50       		.byte	0x50
 3884 0d4c 03       		.uleb128 0x3
 3885 0d4d 91       		.byte	0x91
 3886 0d4e 64       		.sleb128 -28
 3887 0d4f 06       		.byte	0x6
 3888 0d50 00       		.byte	0
 3889 0d51 1C       		.uleb128 0x1c
 3890 0d52 62000000 		.4byte	.LVL116
 3891 0d56 890C0000 		.4byte	0xc89
 3892 0d5a 1C       		.uleb128 0x1c
 3893 0d5b 68000000 		.4byte	.LVL117
 3894 0d5f 1A160000 		.4byte	0x161a
 3895 0d63 1C       		.uleb128 0x1c
 3896 0d64 6C000000 		.4byte	.LVL118
 3897 0d68 560C0000 		.4byte	0xc56
 3898 0d6c 00       		.byte	0
 3899 0d6d 18       		.uleb128 0x18
 3900 0d6e 5B020000 		.4byte	.LASF139
 3901 0d72 01       		.byte	0x1
 3902 0d73 3606     		.2byte	0x636
 3903 0d75 00000000 		.4byte	.LFB19
 3904 0d79 24000000 		.4byte	.LFE19-.LFB19
 3905 0d7d 01       		.uleb128 0x1
 3906 0d7e 9C       		.byte	0x9c
 3907 0d7f AD0D0000 		.4byte	0xdad
 3908 0d83 19       		.uleb128 0x19
 3909 0d84 400D0000 		.4byte	.LASF140
 3910 0d88 01       		.byte	0x1
 3911 0d89 3606     		.2byte	0x636
 3912 0d8b 83000000 		.4byte	0x83
 3913 0d8f DC040000 		.4byte	.LLST33
 3914 0d93 19       		.uleb128 0x19
 3915 0d94 32020000 		.4byte	.LASF141
 3916 0d98 01       		.byte	0x1
 3917 0d99 3606     		.2byte	0x636
 3918 0d9b 83000000 		.4byte	0x83
 3919 0d9f FD040000 		.4byte	.LLST34
 3920 0da3 1C       		.uleb128 0x1c
 3921 0da4 18000000 		.4byte	.LVL122
 3922 0da8 890C0000 		.4byte	0xc89
 3923 0dac 00       		.byte	0
 3924 0dad 18       		.uleb128 0x18
 3925 0dae D1080000 		.4byte	.LASF142
 3926 0db2 01       		.byte	0x1
ARM GAS  C:\Users\zack.li\AppData\Local\Temp\ccTyLy6m.s 			page 125


 3927 0db3 F906     		.2byte	0x6f9
 3928 0db5 00000000 		.4byte	.LFB22
 3929 0db9 70000000 		.4byte	.LFE22-.LFB22
 3930 0dbd 01       		.uleb128 0x1
 3931 0dbe 9C       		.byte	0x9c
 3932 0dbf 3E0E0000 		.4byte	0xe3e
 3933 0dc3 19       		.uleb128 0x19
 3934 0dc4 2F000000 		.4byte	.LASF134
 3935 0dc8 01       		.byte	0x1
 3936 0dc9 F906     		.2byte	0x6f9
 3937 0dcb 020D0000 		.4byte	0xd02
 3938 0dcf 1E050000 		.4byte	.LLST35
 3939 0dd3 29       		.uleb128 0x29
 3940 0dd4 28010000 		.4byte	.LASF104
 3941 0dd8 01       		.byte	0x1
 3942 0dd9 FB06     		.2byte	0x6fb
 3943 0ddb 6B000000 		.4byte	0x6b
 3944 0ddf 02       		.uleb128 0x2
 3945 0de0 91       		.byte	0x91
 3946 0de1 64       		.sleb128 -28
 3947 0de2 1A       		.uleb128 0x1a
 3948 0de3 6D010000 		.4byte	.LASF137
 3949 0de7 01       		.byte	0x1
 3950 0de8 FC06     		.2byte	0x6fc
 3951 0dea 83000000 		.4byte	0x83
 3952 0dee 4A050000 		.4byte	.LLST36
 3953 0df2 1A       		.uleb128 0x1a
 3954 0df3 D0010000 		.4byte	.LASF136
 3955 0df7 01       		.byte	0x1
 3956 0df8 FD06     		.2byte	0x6fd
 3957 0dfa 83000000 		.4byte	0x83
 3958 0dfe 5D050000 		.4byte	.LLST37
 3959 0e02 1A       		.uleb128 0x1a
 3960 0e03 490D0000 		.4byte	.LASF143
 3961 0e07 01       		.byte	0x1
 3962 0e08 FE06     		.2byte	0x6fe
 3963 0e0a 83000000 		.4byte	0x83
 3964 0e0e 70050000 		.4byte	.LLST38
 3965 0e12 1A       		.uleb128 0x1a
 3966 0e13 AC080000 		.4byte	.LASF144
 3967 0e17 01       		.byte	0x1
 3968 0e18 FF06     		.2byte	0x6ff
 3969 0e1a 83000000 		.4byte	0x83
 3970 0e1e A4050000 		.4byte	.LLST39
 3971 0e22 1C       		.uleb128 0x1c
 3972 0e23 10000000 		.4byte	.LVL125
 3973 0e27 AC150000 		.4byte	0x15ac
 3974 0e2b 1E       		.uleb128 0x1e
 3975 0e2c 68000000 		.4byte	.LVL142
 3976 0e30 B7150000 		.4byte	0x15b7
 3977 0e34 1F       		.uleb128 0x1f
 3978 0e35 01       		.uleb128 0x1
 3979 0e36 50       		.byte	0x50
 3980 0e37 04       		.uleb128 0x4
 3981 0e38 91       		.byte	0x91
 3982 0e39 64       		.sleb128 -28
 3983 0e3a 94       		.byte	0x94
ARM GAS  C:\Users\zack.li\AppData\Local\Temp\ccTyLy6m.s 			page 126


 3984 0e3b 01       		.byte	0x1
 3985 0e3c 00       		.byte	0
 3986 0e3d 00       		.byte	0
 3987 0e3e 2D       		.uleb128 0x2d
 3988 0e3f A9070000 		.4byte	0x7a9
 3989 0e43 00000000 		.4byte	.LFB9
 3990 0e47 20000000 		.4byte	.LFE9-.LFB9
 3991 0e4b 01       		.uleb128 0x1
 3992 0e4c 9C       		.byte	0x9c
 3993 0e4d 5B0E0000 		.4byte	0xe5b
 3994 0e51 1C       		.uleb128 0x1c
 3995 0e52 12000000 		.4byte	.LVL144
 3996 0e56 AD0D0000 		.4byte	0xdad
 3997 0e5a 00       		.byte	0
 3998 0e5b 18       		.uleb128 0x18
 3999 0e5c BA020000 		.4byte	.LASF145
 4000 0e60 01       		.byte	0x1
 4001 0e61 9B04     		.2byte	0x49b
 4002 0e63 00000000 		.4byte	.LFB14
 4003 0e67 58000000 		.4byte	.LFE14-.LFB14
 4004 0e6b 01       		.uleb128 0x1
 4005 0e6c 9C       		.byte	0x9c
 4006 0e6d CB0E0000 		.4byte	0xecb
 4007 0e71 19       		.uleb128 0x19
 4008 0e72 400D0000 		.4byte	.LASF140
 4009 0e76 01       		.byte	0x1
 4010 0e77 9B04     		.2byte	0x49b
 4011 0e79 83000000 		.4byte	0x83
 4012 0e7d EF050000 		.4byte	.LLST40
 4013 0e81 1A       		.uleb128 0x1a
 4014 0e82 3B020000 		.4byte	.LASF120
 4015 0e86 01       		.byte	0x1
 4016 0e87 9D04     		.2byte	0x49d
 4017 0e89 5C0A0000 		.4byte	0xa5c
 4018 0e8d 10060000 		.4byte	.LLST41
 4019 0e91 27       		.uleb128 0x27
 4020 0e92 1A000000 		.4byte	.LVL148
 4021 0e96 25160000 		.4byte	0x1625
 4022 0e9a A40E0000 		.4byte	0xea4
 4023 0e9e 1F       		.uleb128 0x1f
 4024 0e9f 01       		.uleb128 0x1
 4025 0ea0 50       		.byte	0x50
 4026 0ea1 01       		.uleb128 0x1
 4027 0ea2 31       		.byte	0x31
 4028 0ea3 00       		.byte	0
 4029 0ea4 1C       		.uleb128 0x1c
 4030 0ea5 1E000000 		.4byte	.LVL149
 4031 0ea9 A9070000 		.4byte	0x7a9
 4032 0ead 27       		.uleb128 0x27
 4033 0eae 40000000 		.4byte	.LVL150
 4034 0eb2 3A0B0000 		.4byte	0xb3a
 4035 0eb6 C10E0000 		.4byte	0xec1
 4036 0eba 1F       		.uleb128 0x1f
 4037 0ebb 01       		.uleb128 0x1
 4038 0ebc 50       		.byte	0x50
 4039 0ebd 02       		.uleb128 0x2
 4040 0ebe 76       		.byte	0x76
ARM GAS  C:\Users\zack.li\AppData\Local\Temp\ccTyLy6m.s 			page 127


 4041 0ebf 00       		.sleb128 0
 4042 0ec0 00       		.byte	0
 4043 0ec1 1C       		.uleb128 0x1c
 4044 0ec2 44000000 		.4byte	.LVL151
 4045 0ec6 C20A0000 		.4byte	0xac2
 4046 0eca 00       		.byte	0
 4047 0ecb 18       		.uleb128 0x18
 4048 0ecc 5F030000 		.4byte	.LASF146
 4049 0ed0 01       		.byte	0x1
 4050 0ed1 F104     		.2byte	0x4f1
 4051 0ed3 00000000 		.4byte	.LFB15
 4052 0ed7 64000000 		.4byte	.LFE15-.LFB15
 4053 0edb 01       		.uleb128 0x1
 4054 0edc 9C       		.byte	0x9c
 4055 0edd 4D0F0000 		.4byte	0xf4d
 4056 0ee1 19       		.uleb128 0x19
 4057 0ee2 400D0000 		.4byte	.LASF140
 4058 0ee6 01       		.byte	0x1
 4059 0ee7 F104     		.2byte	0x4f1
 4060 0ee9 83000000 		.4byte	0x83
 4061 0eed 37060000 		.4byte	.LLST42
 4062 0ef1 19       		.uleb128 0x19
 4063 0ef2 32020000 		.4byte	.LASF141
 4064 0ef6 01       		.byte	0x1
 4065 0ef7 F104     		.2byte	0x4f1
 4066 0ef9 83000000 		.4byte	0x83
 4067 0efd 58060000 		.4byte	.LLST43
 4068 0f01 1A       		.uleb128 0x1a
 4069 0f02 3B020000 		.4byte	.LASF120
 4070 0f06 01       		.byte	0x1
 4071 0f07 F304     		.2byte	0x4f3
 4072 0f09 5C0A0000 		.4byte	0xa5c
 4073 0f0d 79060000 		.4byte	.LLST44
 4074 0f11 27       		.uleb128 0x27
 4075 0f12 26000000 		.4byte	.LVL157
 4076 0f16 5B0E0000 		.4byte	0xe5b
 4077 0f1a 260F0000 		.4byte	0xf26
 4078 0f1e 1F       		.uleb128 0x1f
 4079 0f1f 01       		.uleb128 0x1
 4080 0f20 50       		.byte	0x50
 4081 0f21 03       		.uleb128 0x3
 4082 0f22 F3       		.byte	0xf3
 4083 0f23 01       		.uleb128 0x1
 4084 0f24 50       		.byte	0x50
 4085 0f25 00       		.byte	0
 4086 0f26 27       		.uleb128 0x27
 4087 0f27 2C000000 		.4byte	.LVL158
 4088 0f2b D1090000 		.4byte	0x9d1
 4089 0f2f 3A0F0000 		.4byte	0xf3a
 4090 0f33 1F       		.uleb128 0x1f
 4091 0f34 01       		.uleb128 0x1
 4092 0f35 50       		.byte	0x50
 4093 0f36 02       		.uleb128 0x2
 4094 0f37 76       		.byte	0x76
 4095 0f38 00       		.sleb128 0
 4096 0f39 00       		.byte	0
 4097 0f3a 1C       		.uleb128 0x1c
ARM GAS  C:\Users\zack.li\AppData\Local\Temp\ccTyLy6m.s 			page 128


 4098 0f3b 3C000000 		.4byte	.LVL159
 4099 0f3f 890C0000 		.4byte	0xc89
 4100 0f43 1C       		.uleb128 0x1c
 4101 0f44 48000000 		.4byte	.LVL160
 4102 0f48 1A160000 		.4byte	0x161a
 4103 0f4c 00       		.byte	0
 4104 0f4d 18       		.uleb128 0x18
 4105 0f4e 92040000 		.4byte	.LASF147
 4106 0f52 01       		.byte	0x1
 4107 0f53 7C06     		.2byte	0x67c
 4108 0f55 00000000 		.4byte	.LFB20
 4109 0f59 24000000 		.4byte	.LFE20-.LFB20
 4110 0f5d 01       		.uleb128 0x1
 4111 0f5e 9C       		.byte	0x9c
 4112 0f5f 8D0F0000 		.4byte	0xf8d
 4113 0f63 19       		.uleb128 0x19
 4114 0f64 400D0000 		.4byte	.LASF140
 4115 0f68 01       		.byte	0x1
 4116 0f69 7C06     		.2byte	0x67c
 4117 0f6b 83000000 		.4byte	0x83
 4118 0f6f 8C060000 		.4byte	.LLST45
 4119 0f73 19       		.uleb128 0x19
 4120 0f74 32020000 		.4byte	.LASF141
 4121 0f78 01       		.byte	0x1
 4122 0f79 7C06     		.2byte	0x67c
 4123 0f7b 83000000 		.4byte	0x83
 4124 0f7f AD060000 		.4byte	.LLST46
 4125 0f83 1C       		.uleb128 0x1c
 4126 0f84 18000000 		.4byte	.LVL165
 4127 0f88 AD0D0000 		.4byte	0xdad
 4128 0f8c 00       		.byte	0
 4129 0f8d 2E       		.uleb128 0x2e
 4130 0f8e C90A0000 		.4byte	.LASF168
 4131 0f92 01       		.byte	0x1
 4132 0f93 8007     		.2byte	0x780
 4133 0f95 83000000 		.4byte	0x83
 4134 0f99 01       		.byte	0x1
 4135 0f9a 17100000 		.4byte	0x1017
 4136 0f9e 14       		.uleb128 0x14
 4137 0f9f 57060000 		.4byte	.LASF148
 4138 0fa3 01       		.byte	0x1
 4139 0fa4 8007     		.2byte	0x780
 4140 0fa6 17100000 		.4byte	0x1017
 4141 0faa 1B       		.uleb128 0x1b
 4142 0fab E8000000 		.4byte	.LASF149
 4143 0faf 01       		.byte	0x1
 4144 0fb0 8207     		.2byte	0x782
 4145 0fb2 83000000 		.4byte	0x83
 4146 0fb6 1B       		.uleb128 0x1b
 4147 0fb7 1E020000 		.4byte	.LASF150
 4148 0fbb 01       		.byte	0x1
 4149 0fbc 8307     		.2byte	0x783
 4150 0fbe 83000000 		.4byte	0x83
 4151 0fc2 1B       		.uleb128 0x1b
 4152 0fc3 B1040000 		.4byte	.LASF151
 4153 0fc7 01       		.byte	0x1
 4154 0fc8 8407     		.2byte	0x784
ARM GAS  C:\Users\zack.li\AppData\Local\Temp\ccTyLy6m.s 			page 129


 4155 0fca 83000000 		.4byte	0x83
 4156 0fce 1B       		.uleb128 0x1b
 4157 0fcf BC050000 		.4byte	.LASF58
 4158 0fd3 01       		.byte	0x1
 4159 0fd4 8507     		.2byte	0x785
 4160 0fd6 83000000 		.4byte	0x83
 4161 0fda 1B       		.uleb128 0x1b
 4162 0fdb 1B070000 		.4byte	.LASF152
 4163 0fdf 01       		.byte	0x1
 4164 0fe0 8607     		.2byte	0x786
 4165 0fe2 83000000 		.4byte	0x83
 4166 0fe6 1B       		.uleb128 0x1b
 4167 0fe7 B9040000 		.4byte	.LASF153
 4168 0feb 01       		.byte	0x1
 4169 0fec 8707     		.2byte	0x787
 4170 0fee 83000000 		.4byte	0x83
 4171 0ff2 1B       		.uleb128 0x1b
 4172 0ff3 E1030000 		.4byte	.LASF154
 4173 0ff7 01       		.byte	0x1
 4174 0ff8 8907     		.2byte	0x789
 4175 0ffa 22100000 		.4byte	0x1022
 4176 0ffe 1B       		.uleb128 0x1b
 4177 0fff DD010000 		.4byte	.LASF155
 4178 1003 01       		.byte	0x1
 4179 1004 8B07     		.2byte	0x78b
 4180 1006 83000000 		.4byte	0x83
 4181 100a 1B       		.uleb128 0x1b
 4182 100b 6E050000 		.4byte	.LASF156
 4183 100f 01       		.byte	0x1
 4184 1010 8C07     		.2byte	0x78c
 4185 1012 94060000 		.4byte	0x694
 4186 1016 00       		.byte	0
 4187 1017 10       		.uleb128 0x10
 4188 1018 04       		.byte	0x4
 4189 1019 1D100000 		.4byte	0x101d
 4190 101d 1D       		.uleb128 0x1d
 4191 101e A0060000 		.4byte	0x6a0
 4192 1022 10       		.uleb128 0x10
 4193 1023 04       		.byte	0x4
 4194 1024 AD010000 		.4byte	0x1ad
 4195 1028 13       		.uleb128 0x13
 4196 1029 FD0C0000 		.4byte	.LASF157
 4197 102d 01       		.byte	0x1
 4198 102e 7E08     		.2byte	0x87e
 4199 1030 01       		.byte	0x1
 4200 1031 D2100000 		.4byte	0x10d2
 4201 1035 14       		.uleb128 0x14
 4202 1036 400D0000 		.4byte	.LASF140
 4203 103a 01       		.byte	0x1
 4204 103b 7E08     		.2byte	0x87e
 4205 103d 83000000 		.4byte	0x83
 4206 1041 14       		.uleb128 0x14
 4207 1042 F8030000 		.4byte	.LASF158
 4208 1046 01       		.byte	0x1
 4209 1047 7E08     		.2byte	0x87e
 4210 1049 83000000 		.4byte	0x83
 4211 104d 1B       		.uleb128 0x1b
ARM GAS  C:\Users\zack.li\AppData\Local\Temp\ccTyLy6m.s 			page 130


 4212 104e DD010000 		.4byte	.LASF155
 4213 1052 01       		.byte	0x1
 4214 1053 8008     		.2byte	0x880
 4215 1055 83000000 		.4byte	0x83
 4216 1059 1B       		.uleb128 0x1b
 4217 105a 1B070000 		.4byte	.LASF152
 4218 105e 01       		.byte	0x1
 4219 105f 8108     		.2byte	0x881
 4220 1061 83000000 		.4byte	0x83
 4221 1065 1B       		.uleb128 0x1b
 4222 1066 4E030000 		.4byte	.LASF159
 4223 106a 01       		.byte	0x1
 4224 106b 8208     		.2byte	0x882
 4225 106d 83000000 		.4byte	0x83
 4226 1071 1B       		.uleb128 0x1b
 4227 1072 6C090000 		.4byte	.LASF160
 4228 1076 01       		.byte	0x1
 4229 1077 8308     		.2byte	0x883
 4230 1079 83000000 		.4byte	0x83
 4231 107d 1B       		.uleb128 0x1b
 4232 107e AA020000 		.4byte	.LASF129
 4233 1082 01       		.byte	0x1
 4234 1083 8408     		.2byte	0x884
 4235 1085 83000000 		.4byte	0x83
 4236 1089 1B       		.uleb128 0x1b
 4237 108a 150D0000 		.4byte	.LASF161
 4238 108e 01       		.byte	0x1
 4239 108f 8608     		.2byte	0x886
 4240 1091 9A060000 		.4byte	0x69a
 4241 1095 1B       		.uleb128 0x1b
 4242 1096 A8070000 		.4byte	.LASF162
 4243 109a 01       		.byte	0x1
 4244 109b 8708     		.2byte	0x887
 4245 109d 9A060000 		.4byte	0x69a
 4246 10a1 1B       		.uleb128 0x1b
 4247 10a2 1E020000 		.4byte	.LASF150
 4248 10a6 01       		.byte	0x1
 4249 10a7 8908     		.2byte	0x889
 4250 10a9 96010000 		.4byte	0x196
 4251 10ad 1B       		.uleb128 0x1b
 4252 10ae 6E050000 		.4byte	.LASF156
 4253 10b2 01       		.byte	0x1
 4254 10b3 9008     		.2byte	0x890
 4255 10b5 94060000 		.4byte	0x694
 4256 10b9 1B       		.uleb128 0x1b
 4257 10ba 57060000 		.4byte	.LASF148
 4258 10be 01       		.byte	0x1
 4259 10bf 9108     		.2byte	0x891
 4260 10c1 17100000 		.4byte	0x1017
 4261 10c5 1B       		.uleb128 0x1b
 4262 10c6 E1030000 		.4byte	.LASF154
 4263 10ca 01       		.byte	0x1
 4264 10cb 9208     		.2byte	0x892
 4265 10cd 22100000 		.4byte	0x1022
 4266 10d1 00       		.byte	0
 4267 10d2 13       		.uleb128 0x13
 4268 10d3 E6010000 		.4byte	.LASF163
ARM GAS  C:\Users\zack.li\AppData\Local\Temp\ccTyLy6m.s 			page 131


 4269 10d7 01       		.byte	0x1
 4270 10d8 E207     		.2byte	0x7e2
 4271 10da 01       		.byte	0x1
 4272 10db 70110000 		.4byte	0x1170
 4273 10df 14       		.uleb128 0x14
 4274 10e0 57060000 		.4byte	.LASF148
 4275 10e4 01       		.byte	0x1
 4276 10e5 E207     		.2byte	0x7e2
 4277 10e7 17100000 		.4byte	0x1017
 4278 10eb 14       		.uleb128 0x14
 4279 10ec F8030000 		.4byte	.LASF158
 4280 10f0 01       		.byte	0x1
 4281 10f1 E207     		.2byte	0x7e2
 4282 10f3 83000000 		.4byte	0x83
 4283 10f7 1B       		.uleb128 0x1b
 4284 10f8 DD010000 		.4byte	.LASF155
 4285 10fc 01       		.byte	0x1
 4286 10fd E407     		.2byte	0x7e4
 4287 10ff 83000000 		.4byte	0x83
 4288 1103 1B       		.uleb128 0x1b
 4289 1104 1B070000 		.4byte	.LASF152
 4290 1108 01       		.byte	0x1
 4291 1109 E507     		.2byte	0x7e5
 4292 110b 83000000 		.4byte	0x83
 4293 110f 1B       		.uleb128 0x1b
 4294 1110 1E020000 		.4byte	.LASF150
 4295 1114 01       		.byte	0x1
 4296 1115 E607     		.2byte	0x7e6
 4297 1117 83000000 		.4byte	0x83
 4298 111b 1B       		.uleb128 0x1b
 4299 111c B1040000 		.4byte	.LASF151
 4300 1120 01       		.byte	0x1
 4301 1121 E707     		.2byte	0x7e7
 4302 1123 83000000 		.4byte	0x83
 4303 1127 1B       		.uleb128 0x1b
 4304 1128 66040000 		.4byte	.LASF164
 4305 112c 01       		.byte	0x1
 4306 112d E807     		.2byte	0x7e8
 4307 112f 83000000 		.4byte	0x83
 4308 1133 1B       		.uleb128 0x1b
 4309 1134 B3070000 		.4byte	.LASF165
 4310 1138 01       		.byte	0x1
 4311 1139 E907     		.2byte	0x7e9
 4312 113b 83000000 		.4byte	0x83
 4313 113f 1B       		.uleb128 0x1b
 4314 1140 39040000 		.4byte	.LASF166
 4315 1144 01       		.byte	0x1
 4316 1145 EA07     		.2byte	0x7ea
 4317 1147 83000000 		.4byte	0x83
 4318 114b 1B       		.uleb128 0x1b
 4319 114c BA000000 		.4byte	.LASF167
 4320 1150 01       		.byte	0x1
 4321 1151 EB07     		.2byte	0x7eb
 4322 1153 83000000 		.4byte	0x83
 4323 1157 1B       		.uleb128 0x1b
 4324 1158 E1030000 		.4byte	.LASF154
 4325 115c 01       		.byte	0x1
ARM GAS  C:\Users\zack.li\AppData\Local\Temp\ccTyLy6m.s 			page 132


 4326 115d ED07     		.2byte	0x7ed
 4327 115f 22100000 		.4byte	0x1022
 4328 1163 1B       		.uleb128 0x1b
 4329 1164 6E050000 		.4byte	.LASF156
 4330 1168 01       		.byte	0x1
 4331 1169 EE07     		.2byte	0x7ee
 4332 116b 94060000 		.4byte	0x694
 4333 116f 00       		.byte	0
 4334 1170 2E       		.uleb128 0x2e
 4335 1171 E2060000 		.4byte	.LASF169
 4336 1175 01       		.byte	0x1
 4337 1176 3B07     		.2byte	0x73b
 4338 1178 A4000000 		.4byte	0xa4
 4339 117c 01       		.byte	0x1
 4340 117d 06120000 		.4byte	0x1206
 4341 1181 14       		.uleb128 0x14
 4342 1182 400D0000 		.4byte	.LASF140
 4343 1186 01       		.byte	0x1
 4344 1187 3B07     		.2byte	0x73b
 4345 1189 83000000 		.4byte	0x83
 4346 118d 14       		.uleb128 0x14
 4347 118e F8030000 		.4byte	.LASF158
 4348 1192 01       		.byte	0x1
 4349 1193 3B07     		.2byte	0x73b
 4350 1195 83000000 		.4byte	0x83
 4351 1199 1B       		.uleb128 0x1b
 4352 119a CC000000 		.4byte	.LASF170
 4353 119e 01       		.byte	0x1
 4354 119f 3D07     		.2byte	0x73d
 4355 11a1 A4000000 		.4byte	0xa4
 4356 11a5 1B       		.uleb128 0x1b
 4357 11a6 A5030000 		.4byte	.LASF171
 4358 11aa 01       		.byte	0x1
 4359 11ab 3E07     		.2byte	0x73e
 4360 11ad 83000000 		.4byte	0x83
 4361 11b1 1B       		.uleb128 0x1b
 4362 11b2 DD010000 		.4byte	.LASF155
 4363 11b6 01       		.byte	0x1
 4364 11b7 3F07     		.2byte	0x73f
 4365 11b9 83000000 		.4byte	0x83
 4366 11bd 1B       		.uleb128 0x1b
 4367 11be 1B070000 		.4byte	.LASF152
 4368 11c2 01       		.byte	0x1
 4369 11c3 4007     		.2byte	0x740
 4370 11c5 83000000 		.4byte	0x83
 4371 11c9 1B       		.uleb128 0x1b
 4372 11ca 4C060000 		.4byte	.LASF172
 4373 11ce 01       		.byte	0x1
 4374 11cf 4107     		.2byte	0x741
 4375 11d1 83000000 		.4byte	0x83
 4376 11d5 1B       		.uleb128 0x1b
 4377 11d6 9D070000 		.4byte	.LASF173
 4378 11da 01       		.byte	0x1
 4379 11db 4207     		.2byte	0x742
 4380 11dd 83000000 		.4byte	0x83
 4381 11e1 1B       		.uleb128 0x1b
 4382 11e2 57060000 		.4byte	.LASF148
ARM GAS  C:\Users\zack.li\AppData\Local\Temp\ccTyLy6m.s 			page 133


 4383 11e6 01       		.byte	0x1
 4384 11e7 4407     		.2byte	0x744
 4385 11e9 17100000 		.4byte	0x1017
 4386 11ed 1B       		.uleb128 0x1b
 4387 11ee E1030000 		.4byte	.LASF154
 4388 11f2 01       		.byte	0x1
 4389 11f3 4507     		.2byte	0x745
 4390 11f5 22100000 		.4byte	0x1022
 4391 11f9 1B       		.uleb128 0x1b
 4392 11fa 6E050000 		.4byte	.LASF156
 4393 11fe 01       		.byte	0x1
 4394 11ff 4607     		.2byte	0x746
 4395 1201 94060000 		.4byte	0x694
 4396 1205 00       		.byte	0
 4397 1206 28       		.uleb128 0x28
 4398 1207 A1090000 		.4byte	.LASF175
 4399 120b 01       		.byte	0x1
 4400 120c 7009     		.2byte	0x970
 4401 120e A4000000 		.4byte	0xa4
 4402 1212 00000000 		.4byte	.LFB27
 4403 1216 7C020000 		.4byte	.LFE27-.LFB27
 4404 121a 01       		.uleb128 0x1
 4405 121b 9C       		.byte	0x9c
 4406 121c EB140000 		.4byte	0x14eb
 4407 1220 19       		.uleb128 0x19
 4408 1221 400D0000 		.4byte	.LASF140
 4409 1225 01       		.byte	0x1
 4410 1226 7009     		.2byte	0x970
 4411 1228 83000000 		.4byte	0x83
 4412 122c CE060000 		.4byte	.LLST47
 4413 1230 19       		.uleb128 0x19
 4414 1231 F8030000 		.4byte	.LASF158
 4415 1235 01       		.byte	0x1
 4416 1236 7009     		.2byte	0x970
 4417 1238 83000000 		.4byte	0x83
 4418 123c ED060000 		.4byte	.LLST48
 4419 1240 2F       		.uleb128 0x2f
 4420 1241 CC000000 		.4byte	.LASF170
 4421 1245 01       		.byte	0x1
 4422 1246 7209     		.2byte	0x972
 4423 1248 A4000000 		.4byte	0xa4
 4424 124c 00       		.byte	0
 4425 124d 1A       		.uleb128 0x1a
 4426 124e AA020000 		.4byte	.LASF129
 4427 1252 01       		.byte	0x1
 4428 1253 7309     		.2byte	0x973
 4429 1255 83000000 		.4byte	0x83
 4430 1259 0C070000 		.4byte	.LLST49
 4431 125d 1B       		.uleb128 0x1b
 4432 125e 4B0C0000 		.4byte	.LASF176
 4433 1262 01       		.byte	0x1
 4434 1263 7609     		.2byte	0x976
 4435 1265 83000000 		.4byte	0x83
 4436 1269 1B       		.uleb128 0x1b
 4437 126a 57060000 		.4byte	.LASF148
 4438 126e 01       		.byte	0x1
 4439 126f 7909     		.2byte	0x979
ARM GAS  C:\Users\zack.li\AppData\Local\Temp\ccTyLy6m.s 			page 134


 4440 1271 17100000 		.4byte	0x1017
 4441 1275 30       		.uleb128 0x30
 4442 1276 28100000 		.4byte	0x1028
 4443 127a 1C000000 		.4byte	.LBB38
 4444 127e 00000000 		.4byte	.Ldebug_ranges0+0
 4445 1282 01       		.byte	0x1
 4446 1283 8C09     		.2byte	0x98c
 4447 1285 5E130000 		.4byte	0x135e
 4448 1289 2B       		.uleb128 0x2b
 4449 128a 41100000 		.4byte	0x1041
 4450 128e 2F070000 		.4byte	.LLST50
 4451 1292 2B       		.uleb128 0x2b
 4452 1293 35100000 		.4byte	0x1035
 4453 1297 4F070000 		.4byte	.LLST51
 4454 129b 31       		.uleb128 0x31
 4455 129c 00000000 		.4byte	.Ldebug_ranges0+0
 4456 12a0 2C       		.uleb128 0x2c
 4457 12a1 4D100000 		.4byte	0x104d
 4458 12a5 6F070000 		.4byte	.LLST52
 4459 12a9 2C       		.uleb128 0x2c
 4460 12aa 59100000 		.4byte	0x1059
 4461 12ae B1070000 		.4byte	.LLST53
 4462 12b2 2C       		.uleb128 0x2c
 4463 12b3 65100000 		.4byte	0x1065
 4464 12b7 1D080000 		.4byte	.LLST54
 4465 12bb 2C       		.uleb128 0x2c
 4466 12bc 71100000 		.4byte	0x1071
 4467 12c0 48080000 		.4byte	.LLST55
 4468 12c4 2C       		.uleb128 0x2c
 4469 12c5 7D100000 		.4byte	0x107d
 4470 12c9 73080000 		.4byte	.LLST56
 4471 12cd 2C       		.uleb128 0x2c
 4472 12ce 89100000 		.4byte	0x1089
 4473 12d2 CB080000 		.4byte	.LLST57
 4474 12d6 2C       		.uleb128 0x2c
 4475 12d7 95100000 		.4byte	0x1095
 4476 12db ED080000 		.4byte	.LLST58
 4477 12df 2C       		.uleb128 0x2c
 4478 12e0 A1100000 		.4byte	0x10a1
 4479 12e4 05090000 		.4byte	.LLST59
 4480 12e8 2C       		.uleb128 0x2c
 4481 12e9 AD100000 		.4byte	0x10ad
 4482 12ed 5B090000 		.4byte	.LLST60
 4483 12f1 26       		.uleb128 0x26
 4484 12f2 B9100000 		.4byte	0x10b9
 4485 12f6 2C       		.uleb128 0x2c
 4486 12f7 C5100000 		.4byte	0x10c5
 4487 12fb 90090000 		.4byte	.LLST61
 4488 12ff 27       		.uleb128 0x27
 4489 1300 74000000 		.4byte	.LVL175
 4490 1304 CB0E0000 		.4byte	0xecb
 4491 1308 1B130000 		.4byte	0x131b
 4492 130c 1F       		.uleb128 0x1f
 4493 130d 01       		.uleb128 0x1
 4494 130e 50       		.byte	0x50
 4495 130f 03       		.uleb128 0x3
 4496 1310 91       		.byte	0x91
ARM GAS  C:\Users\zack.li\AppData\Local\Temp\ccTyLy6m.s 			page 135


 4497 1311 50       		.sleb128 -48
 4498 1312 06       		.byte	0x6
 4499 1313 1F       		.uleb128 0x1f
 4500 1314 01       		.uleb128 0x1
 4501 1315 51       		.byte	0x51
 4502 1316 03       		.uleb128 0x3
 4503 1317 91       		.byte	0x91
 4504 1318 4C       		.sleb128 -52
 4505 1319 06       		.byte	0x6
 4506 131a 00       		.byte	0
 4507 131b 27       		.uleb128 0x27
 4508 131c 7A000000 		.4byte	.LVL176
 4509 1320 CD150000 		.4byte	0x15cd
 4510 1324 2E130000 		.4byte	0x132e
 4511 1328 1F       		.uleb128 0x1f
 4512 1329 01       		.uleb128 0x1
 4513 132a 50       		.byte	0x50
 4514 132b 01       		.uleb128 0x1
 4515 132c 31       		.byte	0x31
 4516 132d 00       		.byte	0
 4517 132e 1C       		.uleb128 0x1c
 4518 132f 7E000000 		.4byte	.LVL177
 4519 1333 560C0000 		.4byte	0xc56
 4520 1337 27       		.uleb128 0x27
 4521 1338 26010000 		.4byte	.LVL202
 4522 133c CB0E0000 		.4byte	0xecb
 4523 1340 53130000 		.4byte	0x1353
 4524 1344 1F       		.uleb128 0x1f
 4525 1345 01       		.uleb128 0x1
 4526 1346 50       		.byte	0x50
 4527 1347 03       		.uleb128 0x3
 4528 1348 91       		.byte	0x91
 4529 1349 50       		.sleb128 -48
 4530 134a 06       		.byte	0x6
 4531 134b 1F       		.uleb128 0x1f
 4532 134c 01       		.uleb128 0x1
 4533 134d 51       		.byte	0x51
 4534 134e 03       		.uleb128 0x3
 4535 134f 91       		.byte	0x91
 4536 1350 4C       		.sleb128 -52
 4537 1351 06       		.byte	0x6
 4538 1352 00       		.byte	0
 4539 1353 1C       		.uleb128 0x1c
 4540 1354 2A010000 		.4byte	.LVL203
 4541 1358 560C0000 		.4byte	0xc56
 4542 135c 00       		.byte	0
 4543 135d 00       		.byte	0
 4544 135e 30       		.uleb128 0x30
 4545 135f 8D0F0000 		.4byte	0xf8d
 4546 1363 C4000000 		.4byte	.LBB44
 4547 1367 28000000 		.4byte	.Ldebug_ranges0+0x28
 4548 136b 01       		.byte	0x1
 4549 136c 8D09     		.2byte	0x98d
 4550 136e C7130000 		.4byte	0x13c7
 4551 1372 24       		.uleb128 0x24
 4552 1373 9E0F0000 		.4byte	0xf9e
 4553 1377 31       		.uleb128 0x31
ARM GAS  C:\Users\zack.li\AppData\Local\Temp\ccTyLy6m.s 			page 136


 4554 1378 28000000 		.4byte	.Ldebug_ranges0+0x28
 4555 137c 26       		.uleb128 0x26
 4556 137d AA0F0000 		.4byte	0xfaa
 4557 1381 2C       		.uleb128 0x2c
 4558 1382 B60F0000 		.4byte	0xfb6
 4559 1386 AE090000 		.4byte	.LLST62
 4560 138a 2C       		.uleb128 0x2c
 4561 138b C20F0000 		.4byte	0xfc2
 4562 138f C2090000 		.4byte	.LLST63
 4563 1393 2C       		.uleb128 0x2c
 4564 1394 CE0F0000 		.4byte	0xfce
 4565 1398 E2090000 		.4byte	.LLST64
 4566 139c 2C       		.uleb128 0x2c
 4567 139d DA0F0000 		.4byte	0xfda
 4568 13a1 F6090000 		.4byte	.LLST65
 4569 13a5 2C       		.uleb128 0x2c
 4570 13a6 E60F0000 		.4byte	0xfe6
 4571 13aa 230A0000 		.4byte	.LLST66
 4572 13ae 2C       		.uleb128 0x2c
 4573 13af F20F0000 		.4byte	0xff2
 4574 13b3 430A0000 		.4byte	.LLST67
 4575 13b7 26       		.uleb128 0x26
 4576 13b8 FE0F0000 		.4byte	0xffe
 4577 13bc 2C       		.uleb128 0x2c
 4578 13bd 0A100000 		.4byte	0x100a
 4579 13c1 560A0000 		.4byte	.LLST68
 4580 13c5 00       		.byte	0
 4581 13c6 00       		.byte	0
 4582 13c7 23       		.uleb128 0x23
 4583 13c8 D2100000 		.4byte	0x10d2
 4584 13cc 4E010000 		.4byte	.LBB50
 4585 13d0 98000000 		.4byte	.LBE50-.LBB50
 4586 13d4 01       		.byte	0x1
 4587 13d5 9309     		.2byte	0x993
 4588 13d7 4E140000 		.4byte	0x144e
 4589 13db 2B       		.uleb128 0x2b
 4590 13dc EB100000 		.4byte	0x10eb
 4591 13e0 800A0000 		.4byte	.LLST69
 4592 13e4 24       		.uleb128 0x24
 4593 13e5 DF100000 		.4byte	0x10df
 4594 13e9 25       		.uleb128 0x25
 4595 13ea 4E010000 		.4byte	.LBB51
 4596 13ee 98000000 		.4byte	.LBE51-.LBB51
 4597 13f2 2C       		.uleb128 0x2c
 4598 13f3 F7100000 		.4byte	0x10f7
 4599 13f7 940A0000 		.4byte	.LLST70
 4600 13fb 2C       		.uleb128 0x2c
 4601 13fc 03110000 		.4byte	0x1103
 4602 1400 CA0A0000 		.4byte	.LLST71
 4603 1404 2C       		.uleb128 0x2c
 4604 1405 0F110000 		.4byte	0x110f
 4605 1409 DE0A0000 		.4byte	.LLST72
 4606 140d 2C       		.uleb128 0x2c
 4607 140e 1B110000 		.4byte	0x111b
 4608 1412 F10A0000 		.4byte	.LLST73
 4609 1416 2C       		.uleb128 0x2c
 4610 1417 27110000 		.4byte	0x1127
ARM GAS  C:\Users\zack.li\AppData\Local\Temp\ccTyLy6m.s 			page 137


 4611 141b 250B0000 		.4byte	.LLST74
 4612 141f 2C       		.uleb128 0x2c
 4613 1420 33110000 		.4byte	0x1133
 4614 1424 380B0000 		.4byte	.LLST75
 4615 1428 2C       		.uleb128 0x2c
 4616 1429 3F110000 		.4byte	0x113f
 4617 142d 570B0000 		.4byte	.LLST76
 4618 1431 2C       		.uleb128 0x2c
 4619 1432 4B110000 		.4byte	0x114b
 4620 1436 AC0B0000 		.4byte	.LLST77
 4621 143a 2C       		.uleb128 0x2c
 4622 143b 57110000 		.4byte	0x1157
 4623 143f BF0B0000 		.4byte	.LLST78
 4624 1443 2C       		.uleb128 0x2c
 4625 1444 63110000 		.4byte	0x1163
 4626 1448 D20B0000 		.4byte	.LLST79
 4627 144c 00       		.byte	0
 4628 144d 00       		.byte	0
 4629 144e 23       		.uleb128 0x23
 4630 144f 70110000 		.4byte	0x1170
 4631 1453 10020000 		.4byte	.LBB52
 4632 1457 52000000 		.4byte	.LBE52-.LBB52
 4633 145b 01       		.byte	0x1
 4634 145c A709     		.2byte	0x9a7
 4635 145e CC140000 		.4byte	0x14cc
 4636 1462 2B       		.uleb128 0x2b
 4637 1463 8D110000 		.4byte	0x118d
 4638 1467 FC0B0000 		.4byte	.LLST80
 4639 146b 2B       		.uleb128 0x2b
 4640 146c 81110000 		.4byte	0x1181
 4641 1470 100C0000 		.4byte	.LLST81
 4642 1474 25       		.uleb128 0x25
 4643 1475 10020000 		.4byte	.LBB53
 4644 1479 52000000 		.4byte	.LBE53-.LBB53
 4645 147d 2C       		.uleb128 0x2c
 4646 147e 99110000 		.4byte	0x1199
 4647 1482 240C0000 		.4byte	.LLST82
 4648 1486 2C       		.uleb128 0x2c
 4649 1487 A5110000 		.4byte	0x11a5
 4650 148b 430C0000 		.4byte	.LLST83
 4651 148f 2C       		.uleb128 0x2c
 4652 1490 B1110000 		.4byte	0x11b1
 4653 1494 880C0000 		.4byte	.LLST84
 4654 1498 2C       		.uleb128 0x2c
 4655 1499 BD110000 		.4byte	0x11bd
 4656 149d 9C0C0000 		.4byte	.LLST85
 4657 14a1 2C       		.uleb128 0x2c
 4658 14a2 C9110000 		.4byte	0x11c9
 4659 14a6 B00C0000 		.4byte	.LLST86
 4660 14aa 2C       		.uleb128 0x2c
 4661 14ab D5110000 		.4byte	0x11d5
 4662 14af 060D0000 		.4byte	.LLST87
 4663 14b3 26       		.uleb128 0x26
 4664 14b4 E1110000 		.4byte	0x11e1
 4665 14b8 2C       		.uleb128 0x2c
 4666 14b9 ED110000 		.4byte	0x11ed
 4667 14bd 3B0D0000 		.4byte	.LLST88
ARM GAS  C:\Users\zack.li\AppData\Local\Temp\ccTyLy6m.s 			page 138


 4668 14c1 2C       		.uleb128 0x2c
 4669 14c2 F9110000 		.4byte	0x11f9
 4670 14c6 4E0D0000 		.4byte	.LLST89
 4671 14ca 00       		.byte	0
 4672 14cb 00       		.byte	0
 4673 14cc 27       		.uleb128 0x27
 4674 14cd EE010000 		.4byte	.LVL238
 4675 14d1 5B0E0000 		.4byte	0xe5b
 4676 14d5 E1140000 		.4byte	0x14e1
 4677 14d9 1F       		.uleb128 0x1f
 4678 14da 01       		.uleb128 0x1
 4679 14db 50       		.byte	0x50
 4680 14dc 03       		.uleb128 0x3
 4681 14dd 91       		.byte	0x91
 4682 14de 50       		.sleb128 -48
 4683 14df 06       		.byte	0x6
 4684 14e0 00       		.byte	0
 4685 14e1 1C       		.uleb128 0x1c
 4686 14e2 F2010000 		.4byte	.LVL239
 4687 14e6 0D0D0000 		.4byte	0xd0d
 4688 14ea 00       		.byte	0
 4689 14eb 32       		.uleb128 0x32
 4690 14ec 7B010000 		.4byte	.LASF177
 4691 14f0 01       		.byte	0x1
 4692 14f1 7B       		.byte	0x7b
 4693 14f2 6B000000 		.4byte	0x6b
 4694 14f6 05       		.uleb128 0x5
 4695 14f7 03       		.byte	0x3
 4696 14f8 00000000 		.4byte	CapSense_eleCsdDisconnectFlag
 4697 14fc 33       		.uleb128 0x33
 4698 14fd 9C060000 		.4byte	.LASF178
 4699 1501 04       		.byte	0x4
 4700 1502 0205     		.2byte	0x502
 4701 1504 6F050000 		.4byte	0x56f
 4702 1508 33       		.uleb128 0x33
 4703 1509 C5090000 		.4byte	.LASF179
 4704 150d 04       		.byte	0x4
 4705 150e 0305     		.2byte	0x503
 4706 1510 14150000 		.4byte	0x1514
 4707 1514 1D       		.uleb128 0x1d
 4708 1515 D3060000 		.4byte	0x6d3
 4709 1519 0A       		.uleb128 0xa
 4710 151a 75080000 		.4byte	0x875
 4711 151e 29150000 		.4byte	0x1529
 4712 1522 0B       		.uleb128 0xb
 4713 1523 A6010000 		.4byte	0x1a6
 4714 1527 00       		.byte	0
 4715 1528 00       		.byte	0
 4716 1529 33       		.uleb128 0x33
 4717 152a 5E000000 		.4byte	.LASF180
 4718 152e 04       		.byte	0x4
 4719 152f 0B05     		.2byte	0x50b
 4720 1531 35150000 		.4byte	0x1535
 4721 1535 1D       		.uleb128 0x1d
 4722 1536 19150000 		.4byte	0x1519
 4723 153a 34       		.uleb128 0x34
 4724 153b 80000000 		.4byte	.LASF181
ARM GAS  C:\Users\zack.li\AppData\Local\Temp\ccTyLy6m.s 			page 139


 4725 153f 05       		.byte	0x5
 4726 1540 B1       		.byte	0xb1
 4727 1541 B0000000 		.4byte	0xb0
 4728 1545 34       		.uleb128 0x34
 4729 1546 10030000 		.4byte	.LASF182
 4730 154a 05       		.byte	0x5
 4731 154b B2       		.byte	0xb2
 4732 154c B0000000 		.4byte	0xb0
 4733 1550 34       		.uleb128 0x34
 4734 1551 6D0C0000 		.4byte	.LASF183
 4735 1555 05       		.byte	0x5
 4736 1556 B5       		.byte	0xb5
 4737 1557 94060000 		.4byte	0x694
 4738 155b 34       		.uleb128 0x34
 4739 155c 8F0C0000 		.4byte	.LASF184
 4740 1560 05       		.byte	0x5
 4741 1561 BC       		.byte	0xbc
 4742 1562 66150000 		.4byte	0x1566
 4743 1566 1D       		.uleb128 0x1d
 4744 1567 6B000000 		.4byte	0x6b
 4745 156b 34       		.uleb128 0x34
 4746 156c 51070000 		.4byte	.LASF185
 4747 1570 05       		.byte	0x5
 4748 1571 CA       		.byte	0xca
 4749 1572 020D0000 		.4byte	0xd02
 4750 1576 0A       		.uleb128 0xa
 4751 1577 86150000 		.4byte	0x1586
 4752 157b 86150000 		.4byte	0x1586
 4753 157f 0B       		.uleb128 0xb
 4754 1580 A6010000 		.4byte	0x1a6
 4755 1584 05       		.byte	0x5
 4756 1585 00       		.byte	0
 4757 1586 1D       		.uleb128 0x1d
 4758 1587 78070000 		.4byte	0x778
 4759 158b 34       		.uleb128 0x34
 4760 158c 570D0000 		.4byte	.LASF186
 4761 1590 05       		.byte	0x5
 4762 1591 F5       		.byte	0xf5
 4763 1592 96150000 		.4byte	0x1596
 4764 1596 1D       		.uleb128 0x1d
 4765 1597 76150000 		.4byte	0x1576
 4766 159b 35       		.uleb128 0x35
 4767 159c BB060000 		.4byte	.LASF187
 4768 15a0 01       		.byte	0x1
 4769 15a1 74       		.byte	0x74
 4770 15a2 83000000 		.4byte	0x83
 4771 15a6 05       		.uleb128 0x5
 4772 15a7 03       		.byte	0x3
 4773 15a8 00000000 		.4byte	CapSense_configCsd
 4774 15ac 36       		.uleb128 0x36
 4775 15ad 560C0000 		.4byte	.LASF188
 4776 15b1 560C0000 		.4byte	.LASF188
 4777 15b5 06       		.byte	0x6
 4778 15b6 E5       		.byte	0xe5
 4779 15b7 36       		.uleb128 0x36
 4780 15b8 E2040000 		.4byte	.LASF189
 4781 15bc E2040000 		.4byte	.LASF189
ARM GAS  C:\Users\zack.li\AppData\Local\Temp\ccTyLy6m.s 			page 140


 4782 15c0 06       		.byte	0x6
 4783 15c1 E6       		.byte	0xe6
 4784 15c2 36       		.uleb128 0x36
 4785 15c3 10090000 		.4byte	.LASF190
 4786 15c7 10090000 		.4byte	.LASF190
 4787 15cb 05       		.byte	0x5
 4788 15cc 84       		.byte	0x84
 4789 15cd 36       		.uleb128 0x36
 4790 15ce F8040000 		.4byte	.LASF191
 4791 15d2 F8040000 		.4byte	.LASF191
 4792 15d6 05       		.byte	0x5
 4793 15d7 A8       		.byte	0xa8
 4794 15d8 36       		.uleb128 0x36
 4795 15d9 85060000 		.4byte	.LASF192
 4796 15dd 85060000 		.4byte	.LASF192
 4797 15e1 05       		.byte	0x5
 4798 15e2 A9       		.byte	0xa9
 4799 15e3 36       		.uleb128 0x36
 4800 15e4 AF010000 		.4byte	.LASF193
 4801 15e8 AF010000 		.4byte	.LASF193
 4802 15ec 05       		.byte	0x5
 4803 15ed 7F       		.byte	0x7f
 4804 15ee 36       		.uleb128 0x36
 4805 15ef CB040000 		.4byte	.LASF194
 4806 15f3 CB040000 		.4byte	.LASF194
 4807 15f7 06       		.byte	0x6
 4808 15f8 C8       		.byte	0xc8
 4809 15f9 36       		.uleb128 0x36
 4810 15fa 380C0000 		.4byte	.LASF195
 4811 15fe 380C0000 		.4byte	.LASF195
 4812 1602 06       		.byte	0x6
 4813 1603 C3       		.byte	0xc3
 4814 1604 36       		.uleb128 0x36
 4815 1605 99010000 		.4byte	.LASF196
 4816 1609 99010000 		.4byte	.LASF196
 4817 160d 06       		.byte	0x6
 4818 160e C5       		.byte	0xc5
 4819 160f 36       		.uleb128 0x36
 4820 1610 D2020000 		.4byte	.LASF197
 4821 1614 D2020000 		.4byte	.LASF197
 4822 1618 06       		.byte	0x6
 4823 1619 DA       		.byte	0xda
 4824 161a 36       		.uleb128 0x36
 4825 161b E4020000 		.4byte	.LASF198
 4826 161f E4020000 		.4byte	.LASF198
 4827 1623 07       		.byte	0x7
 4828 1624 18       		.byte	0x18
 4829 1625 36       		.uleb128 0x36
 4830 1626 05040000 		.4byte	.LASF199
 4831 162a 05040000 		.4byte	.LASF199
 4832 162e 05       		.byte	0x5
 4833 162f 85       		.byte	0x85
 4834 1630 00       		.byte	0
 4835              		.section	.debug_abbrev,"",%progbits
 4836              	.Ldebug_abbrev0:
 4837 0000 01       		.uleb128 0x1
 4838 0001 11       		.uleb128 0x11
ARM GAS  C:\Users\zack.li\AppData\Local\Temp\ccTyLy6m.s 			page 141


 4839 0002 01       		.byte	0x1
 4840 0003 25       		.uleb128 0x25
 4841 0004 0E       		.uleb128 0xe
 4842 0005 13       		.uleb128 0x13
 4843 0006 0B       		.uleb128 0xb
 4844 0007 03       		.uleb128 0x3
 4845 0008 0E       		.uleb128 0xe
 4846 0009 1B       		.uleb128 0x1b
 4847 000a 0E       		.uleb128 0xe
 4848 000b 55       		.uleb128 0x55
 4849 000c 17       		.uleb128 0x17
 4850 000d 11       		.uleb128 0x11
 4851 000e 01       		.uleb128 0x1
 4852 000f 10       		.uleb128 0x10
 4853 0010 17       		.uleb128 0x17
 4854 0011 00       		.byte	0
 4855 0012 00       		.byte	0
 4856 0013 02       		.uleb128 0x2
 4857 0014 24       		.uleb128 0x24
 4858 0015 00       		.byte	0
 4859 0016 0B       		.uleb128 0xb
 4860 0017 0B       		.uleb128 0xb
 4861 0018 3E       		.uleb128 0x3e
 4862 0019 0B       		.uleb128 0xb
 4863 001a 03       		.uleb128 0x3
 4864 001b 0E       		.uleb128 0xe
 4865 001c 00       		.byte	0
 4866 001d 00       		.byte	0
 4867 001e 03       		.uleb128 0x3
 4868 001f 24       		.uleb128 0x24
 4869 0020 00       		.byte	0
 4870 0021 0B       		.uleb128 0xb
 4871 0022 0B       		.uleb128 0xb
 4872 0023 3E       		.uleb128 0x3e
 4873 0024 0B       		.uleb128 0xb
 4874 0025 03       		.uleb128 0x3
 4875 0026 08       		.uleb128 0x8
 4876 0027 00       		.byte	0
 4877 0028 00       		.byte	0
 4878 0029 04       		.uleb128 0x4
 4879 002a 16       		.uleb128 0x16
 4880 002b 00       		.byte	0
 4881 002c 03       		.uleb128 0x3
 4882 002d 0E       		.uleb128 0xe
 4883 002e 3A       		.uleb128 0x3a
 4884 002f 0B       		.uleb128 0xb
 4885 0030 3B       		.uleb128 0x3b
 4886 0031 05       		.uleb128 0x5
 4887 0032 49       		.uleb128 0x49
 4888 0033 13       		.uleb128 0x13
 4889 0034 00       		.byte	0
 4890 0035 00       		.byte	0
 4891 0036 05       		.uleb128 0x5
 4892 0037 35       		.uleb128 0x35
 4893 0038 00       		.byte	0
 4894 0039 49       		.uleb128 0x49
 4895 003a 13       		.uleb128 0x13
ARM GAS  C:\Users\zack.li\AppData\Local\Temp\ccTyLy6m.s 			page 142


 4896 003b 00       		.byte	0
 4897 003c 00       		.byte	0
 4898 003d 06       		.uleb128 0x6
 4899 003e 04       		.uleb128 0x4
 4900 003f 01       		.byte	0x1
 4901 0040 0B       		.uleb128 0xb
 4902 0041 0B       		.uleb128 0xb
 4903 0042 49       		.uleb128 0x49
 4904 0043 13       		.uleb128 0x13
 4905 0044 3A       		.uleb128 0x3a
 4906 0045 0B       		.uleb128 0xb
 4907 0046 3B       		.uleb128 0x3b
 4908 0047 0B       		.uleb128 0xb
 4909 0048 01       		.uleb128 0x1
 4910 0049 13       		.uleb128 0x13
 4911 004a 00       		.byte	0
 4912 004b 00       		.byte	0
 4913 004c 07       		.uleb128 0x7
 4914 004d 28       		.uleb128 0x28
 4915 004e 00       		.byte	0
 4916 004f 03       		.uleb128 0x3
 4917 0050 0E       		.uleb128 0xe
 4918 0051 1C       		.uleb128 0x1c
 4919 0052 0B       		.uleb128 0xb
 4920 0053 00       		.byte	0
 4921 0054 00       		.byte	0
 4922 0055 08       		.uleb128 0x8
 4923 0056 13       		.uleb128 0x13
 4924 0057 01       		.byte	0x1
 4925 0058 0B       		.uleb128 0xb
 4926 0059 0B       		.uleb128 0xb
 4927 005a 3A       		.uleb128 0x3a
 4928 005b 0B       		.uleb128 0xb
 4929 005c 3B       		.uleb128 0x3b
 4930 005d 0B       		.uleb128 0xb
 4931 005e 01       		.uleb128 0x1
 4932 005f 13       		.uleb128 0x13
 4933 0060 00       		.byte	0
 4934 0061 00       		.byte	0
 4935 0062 09       		.uleb128 0x9
 4936 0063 0D       		.uleb128 0xd
 4937 0064 00       		.byte	0
 4938 0065 03       		.uleb128 0x3
 4939 0066 0E       		.uleb128 0xe
 4940 0067 3A       		.uleb128 0x3a
 4941 0068 0B       		.uleb128 0xb
 4942 0069 3B       		.uleb128 0x3b
 4943 006a 0B       		.uleb128 0xb
 4944 006b 49       		.uleb128 0x49
 4945 006c 13       		.uleb128 0x13
 4946 006d 38       		.uleb128 0x38
 4947 006e 0B       		.uleb128 0xb
 4948 006f 00       		.byte	0
 4949 0070 00       		.byte	0
 4950 0071 0A       		.uleb128 0xa
 4951 0072 01       		.uleb128 0x1
 4952 0073 01       		.byte	0x1
ARM GAS  C:\Users\zack.li\AppData\Local\Temp\ccTyLy6m.s 			page 143


 4953 0074 49       		.uleb128 0x49
 4954 0075 13       		.uleb128 0x13
 4955 0076 01       		.uleb128 0x1
 4956 0077 13       		.uleb128 0x13
 4957 0078 00       		.byte	0
 4958 0079 00       		.byte	0
 4959 007a 0B       		.uleb128 0xb
 4960 007b 21       		.uleb128 0x21
 4961 007c 00       		.byte	0
 4962 007d 49       		.uleb128 0x49
 4963 007e 13       		.uleb128 0x13
 4964 007f 2F       		.uleb128 0x2f
 4965 0080 0B       		.uleb128 0xb
 4966 0081 00       		.byte	0
 4967 0082 00       		.byte	0
 4968 0083 0C       		.uleb128 0xc
 4969 0084 16       		.uleb128 0x16
 4970 0085 00       		.byte	0
 4971 0086 03       		.uleb128 0x3
 4972 0087 0E       		.uleb128 0xe
 4973 0088 3A       		.uleb128 0x3a
 4974 0089 0B       		.uleb128 0xb
 4975 008a 3B       		.uleb128 0x3b
 4976 008b 0B       		.uleb128 0xb
 4977 008c 49       		.uleb128 0x49
 4978 008d 13       		.uleb128 0x13
 4979 008e 00       		.byte	0
 4980 008f 00       		.byte	0
 4981 0090 0D       		.uleb128 0xd
 4982 0091 0D       		.uleb128 0xd
 4983 0092 00       		.byte	0
 4984 0093 03       		.uleb128 0x3
 4985 0094 0E       		.uleb128 0xe
 4986 0095 3A       		.uleb128 0x3a
 4987 0096 0B       		.uleb128 0xb
 4988 0097 3B       		.uleb128 0x3b
 4989 0098 05       		.uleb128 0x5
 4990 0099 49       		.uleb128 0x49
 4991 009a 13       		.uleb128 0x13
 4992 009b 38       		.uleb128 0x38
 4993 009c 0B       		.uleb128 0xb
 4994 009d 00       		.byte	0
 4995 009e 00       		.byte	0
 4996 009f 0E       		.uleb128 0xe
 4997 00a0 13       		.uleb128 0x13
 4998 00a1 01       		.byte	0x1
 4999 00a2 0B       		.uleb128 0xb
 5000 00a3 0B       		.uleb128 0xb
 5001 00a4 3A       		.uleb128 0x3a
 5002 00a5 0B       		.uleb128 0xb
 5003 00a6 3B       		.uleb128 0x3b
 5004 00a7 05       		.uleb128 0x5
 5005 00a8 01       		.uleb128 0x1
 5006 00a9 13       		.uleb128 0x13
 5007 00aa 00       		.byte	0
 5008 00ab 00       		.byte	0
 5009 00ac 0F       		.uleb128 0xf
ARM GAS  C:\Users\zack.li\AppData\Local\Temp\ccTyLy6m.s 			page 144


 5010 00ad 0D       		.uleb128 0xd
 5011 00ae 00       		.byte	0
 5012 00af 03       		.uleb128 0x3
 5013 00b0 08       		.uleb128 0x8
 5014 00b1 3A       		.uleb128 0x3a
 5015 00b2 0B       		.uleb128 0xb
 5016 00b3 3B       		.uleb128 0x3b
 5017 00b4 05       		.uleb128 0x5
 5018 00b5 49       		.uleb128 0x49
 5019 00b6 13       		.uleb128 0x13
 5020 00b7 38       		.uleb128 0x38
 5021 00b8 0B       		.uleb128 0xb
 5022 00b9 00       		.byte	0
 5023 00ba 00       		.byte	0
 5024 00bb 10       		.uleb128 0x10
 5025 00bc 0F       		.uleb128 0xf
 5026 00bd 00       		.byte	0
 5027 00be 0B       		.uleb128 0xb
 5028 00bf 0B       		.uleb128 0xb
 5029 00c0 49       		.uleb128 0x49
 5030 00c1 13       		.uleb128 0x13
 5031 00c2 00       		.byte	0
 5032 00c3 00       		.byte	0
 5033 00c4 11       		.uleb128 0x11
 5034 00c5 26       		.uleb128 0x26
 5035 00c6 00       		.byte	0
 5036 00c7 00       		.byte	0
 5037 00c8 00       		.byte	0
 5038 00c9 12       		.uleb128 0x12
 5039 00ca 0F       		.uleb128 0xf
 5040 00cb 00       		.byte	0
 5041 00cc 0B       		.uleb128 0xb
 5042 00cd 0B       		.uleb128 0xb
 5043 00ce 00       		.byte	0
 5044 00cf 00       		.byte	0
 5045 00d0 13       		.uleb128 0x13
 5046 00d1 2E       		.uleb128 0x2e
 5047 00d2 01       		.byte	0x1
 5048 00d3 03       		.uleb128 0x3
 5049 00d4 0E       		.uleb128 0xe
 5050 00d5 3A       		.uleb128 0x3a
 5051 00d6 0B       		.uleb128 0xb
 5052 00d7 3B       		.uleb128 0x3b
 5053 00d8 05       		.uleb128 0x5
 5054 00d9 27       		.uleb128 0x27
 5055 00da 19       		.uleb128 0x19
 5056 00db 20       		.uleb128 0x20
 5057 00dc 0B       		.uleb128 0xb
 5058 00dd 01       		.uleb128 0x1
 5059 00de 13       		.uleb128 0x13
 5060 00df 00       		.byte	0
 5061 00e0 00       		.byte	0
 5062 00e1 14       		.uleb128 0x14
 5063 00e2 05       		.uleb128 0x5
 5064 00e3 00       		.byte	0
 5065 00e4 03       		.uleb128 0x3
 5066 00e5 0E       		.uleb128 0xe
ARM GAS  C:\Users\zack.li\AppData\Local\Temp\ccTyLy6m.s 			page 145


 5067 00e6 3A       		.uleb128 0x3a
 5068 00e7 0B       		.uleb128 0xb
 5069 00e8 3B       		.uleb128 0x3b
 5070 00e9 05       		.uleb128 0x5
 5071 00ea 49       		.uleb128 0x49
 5072 00eb 13       		.uleb128 0x13
 5073 00ec 00       		.byte	0
 5074 00ed 00       		.byte	0
 5075 00ee 15       		.uleb128 0x15
 5076 00ef 2E       		.uleb128 0x2e
 5077 00f0 00       		.byte	0
 5078 00f1 3F       		.uleb128 0x3f
 5079 00f2 19       		.uleb128 0x19
 5080 00f3 03       		.uleb128 0x3
 5081 00f4 0E       		.uleb128 0xe
 5082 00f5 3A       		.uleb128 0x3a
 5083 00f6 0B       		.uleb128 0xb
 5084 00f7 3B       		.uleb128 0x3b
 5085 00f8 05       		.uleb128 0x5
 5086 00f9 27       		.uleb128 0x27
 5087 00fa 19       		.uleb128 0x19
 5088 00fb 20       		.uleb128 0x20
 5089 00fc 0B       		.uleb128 0xb
 5090 00fd 00       		.byte	0
 5091 00fe 00       		.byte	0
 5092 00ff 16       		.uleb128 0x16
 5093 0100 2E       		.uleb128 0x2e
 5094 0101 01       		.byte	0x1
 5095 0102 03       		.uleb128 0x3
 5096 0103 0E       		.uleb128 0xe
 5097 0104 3A       		.uleb128 0x3a
 5098 0105 0B       		.uleb128 0xb
 5099 0106 3B       		.uleb128 0x3b
 5100 0107 0B       		.uleb128 0xb
 5101 0108 27       		.uleb128 0x27
 5102 0109 19       		.uleb128 0x19
 5103 010a 20       		.uleb128 0x20
 5104 010b 0B       		.uleb128 0xb
 5105 010c 01       		.uleb128 0x1
 5106 010d 13       		.uleb128 0x13
 5107 010e 00       		.byte	0
 5108 010f 00       		.byte	0
 5109 0110 17       		.uleb128 0x17
 5110 0111 05       		.uleb128 0x5
 5111 0112 00       		.byte	0
 5112 0113 03       		.uleb128 0x3
 5113 0114 0E       		.uleb128 0xe
 5114 0115 3A       		.uleb128 0x3a
 5115 0116 0B       		.uleb128 0xb
 5116 0117 3B       		.uleb128 0x3b
 5117 0118 0B       		.uleb128 0xb
 5118 0119 49       		.uleb128 0x49
 5119 011a 13       		.uleb128 0x13
 5120 011b 00       		.byte	0
 5121 011c 00       		.byte	0
 5122 011d 18       		.uleb128 0x18
 5123 011e 2E       		.uleb128 0x2e
ARM GAS  C:\Users\zack.li\AppData\Local\Temp\ccTyLy6m.s 			page 146


 5124 011f 01       		.byte	0x1
 5125 0120 3F       		.uleb128 0x3f
 5126 0121 19       		.uleb128 0x19
 5127 0122 03       		.uleb128 0x3
 5128 0123 0E       		.uleb128 0xe
 5129 0124 3A       		.uleb128 0x3a
 5130 0125 0B       		.uleb128 0xb
 5131 0126 3B       		.uleb128 0x3b
 5132 0127 05       		.uleb128 0x5
 5133 0128 27       		.uleb128 0x27
 5134 0129 19       		.uleb128 0x19
 5135 012a 11       		.uleb128 0x11
 5136 012b 01       		.uleb128 0x1
 5137 012c 12       		.uleb128 0x12
 5138 012d 06       		.uleb128 0x6
 5139 012e 40       		.uleb128 0x40
 5140 012f 18       		.uleb128 0x18
 5141 0130 9742     		.uleb128 0x2117
 5142 0132 19       		.uleb128 0x19
 5143 0133 01       		.uleb128 0x1
 5144 0134 13       		.uleb128 0x13
 5145 0135 00       		.byte	0
 5146 0136 00       		.byte	0
 5147 0137 19       		.uleb128 0x19
 5148 0138 05       		.uleb128 0x5
 5149 0139 00       		.byte	0
 5150 013a 03       		.uleb128 0x3
 5151 013b 0E       		.uleb128 0xe
 5152 013c 3A       		.uleb128 0x3a
 5153 013d 0B       		.uleb128 0xb
 5154 013e 3B       		.uleb128 0x3b
 5155 013f 05       		.uleb128 0x5
 5156 0140 49       		.uleb128 0x49
 5157 0141 13       		.uleb128 0x13
 5158 0142 02       		.uleb128 0x2
 5159 0143 17       		.uleb128 0x17
 5160 0144 00       		.byte	0
 5161 0145 00       		.byte	0
 5162 0146 1A       		.uleb128 0x1a
 5163 0147 34       		.uleb128 0x34
 5164 0148 00       		.byte	0
 5165 0149 03       		.uleb128 0x3
 5166 014a 0E       		.uleb128 0xe
 5167 014b 3A       		.uleb128 0x3a
 5168 014c 0B       		.uleb128 0xb
 5169 014d 3B       		.uleb128 0x3b
 5170 014e 05       		.uleb128 0x5
 5171 014f 49       		.uleb128 0x49
 5172 0150 13       		.uleb128 0x13
 5173 0151 02       		.uleb128 0x2
 5174 0152 17       		.uleb128 0x17
 5175 0153 00       		.byte	0
 5176 0154 00       		.byte	0
 5177 0155 1B       		.uleb128 0x1b
 5178 0156 34       		.uleb128 0x34
 5179 0157 00       		.byte	0
 5180 0158 03       		.uleb128 0x3
ARM GAS  C:\Users\zack.li\AppData\Local\Temp\ccTyLy6m.s 			page 147


 5181 0159 0E       		.uleb128 0xe
 5182 015a 3A       		.uleb128 0x3a
 5183 015b 0B       		.uleb128 0xb
 5184 015c 3B       		.uleb128 0x3b
 5185 015d 05       		.uleb128 0x5
 5186 015e 49       		.uleb128 0x49
 5187 015f 13       		.uleb128 0x13
 5188 0160 00       		.byte	0
 5189 0161 00       		.byte	0
 5190 0162 1C       		.uleb128 0x1c
 5191 0163 898201   		.uleb128 0x4109
 5192 0166 00       		.byte	0
 5193 0167 11       		.uleb128 0x11
 5194 0168 01       		.uleb128 0x1
 5195 0169 31       		.uleb128 0x31
 5196 016a 13       		.uleb128 0x13
 5197 016b 00       		.byte	0
 5198 016c 00       		.byte	0
 5199 016d 1D       		.uleb128 0x1d
 5200 016e 26       		.uleb128 0x26
 5201 016f 00       		.byte	0
 5202 0170 49       		.uleb128 0x49
 5203 0171 13       		.uleb128 0x13
 5204 0172 00       		.byte	0
 5205 0173 00       		.byte	0
 5206 0174 1E       		.uleb128 0x1e
 5207 0175 898201   		.uleb128 0x4109
 5208 0178 01       		.byte	0x1
 5209 0179 11       		.uleb128 0x11
 5210 017a 01       		.uleb128 0x1
 5211 017b 31       		.uleb128 0x31
 5212 017c 13       		.uleb128 0x13
 5213 017d 00       		.byte	0
 5214 017e 00       		.byte	0
 5215 017f 1F       		.uleb128 0x1f
 5216 0180 8A8201   		.uleb128 0x410a
 5217 0183 00       		.byte	0
 5218 0184 02       		.uleb128 0x2
 5219 0185 18       		.uleb128 0x18
 5220 0186 9142     		.uleb128 0x2111
 5221 0188 18       		.uleb128 0x18
 5222 0189 00       		.byte	0
 5223 018a 00       		.byte	0
 5224 018b 20       		.uleb128 0x20
 5225 018c 2E       		.uleb128 0x2e
 5226 018d 00       		.byte	0
 5227 018e 03       		.uleb128 0x3
 5228 018f 0E       		.uleb128 0xe
 5229 0190 3A       		.uleb128 0x3a
 5230 0191 0B       		.uleb128 0xb
 5231 0192 3B       		.uleb128 0x3b
 5232 0193 05       		.uleb128 0x5
 5233 0194 27       		.uleb128 0x27
 5234 0195 19       		.uleb128 0x19
 5235 0196 20       		.uleb128 0x20
 5236 0197 0B       		.uleb128 0xb
 5237 0198 00       		.byte	0
ARM GAS  C:\Users\zack.li\AppData\Local\Temp\ccTyLy6m.s 			page 148


 5238 0199 00       		.byte	0
 5239 019a 21       		.uleb128 0x21
 5240 019b 2E       		.uleb128 0x2e
 5241 019c 01       		.byte	0x1
 5242 019d 3F       		.uleb128 0x3f
 5243 019e 19       		.uleb128 0x19
 5244 019f 03       		.uleb128 0x3
 5245 01a0 0E       		.uleb128 0xe
 5246 01a1 3A       		.uleb128 0x3a
 5247 01a2 0B       		.uleb128 0xb
 5248 01a3 3B       		.uleb128 0x3b
 5249 01a4 05       		.uleb128 0x5
 5250 01a5 27       		.uleb128 0x27
 5251 01a6 19       		.uleb128 0x19
 5252 01a7 11       		.uleb128 0x11
 5253 01a8 01       		.uleb128 0x1
 5254 01a9 12       		.uleb128 0x12
 5255 01aa 06       		.uleb128 0x6
 5256 01ab 40       		.uleb128 0x40
 5257 01ac 18       		.uleb128 0x18
 5258 01ad 9642     		.uleb128 0x2116
 5259 01af 19       		.uleb128 0x19
 5260 01b0 01       		.uleb128 0x1
 5261 01b1 13       		.uleb128 0x13
 5262 01b2 00       		.byte	0
 5263 01b3 00       		.byte	0
 5264 01b4 22       		.uleb128 0x22
 5265 01b5 1D       		.uleb128 0x1d
 5266 01b6 00       		.byte	0
 5267 01b7 31       		.uleb128 0x31
 5268 01b8 13       		.uleb128 0x13
 5269 01b9 11       		.uleb128 0x11
 5270 01ba 01       		.uleb128 0x1
 5271 01bb 12       		.uleb128 0x12
 5272 01bc 06       		.uleb128 0x6
 5273 01bd 58       		.uleb128 0x58
 5274 01be 0B       		.uleb128 0xb
 5275 01bf 59       		.uleb128 0x59
 5276 01c0 05       		.uleb128 0x5
 5277 01c1 00       		.byte	0
 5278 01c2 00       		.byte	0
 5279 01c3 23       		.uleb128 0x23
 5280 01c4 1D       		.uleb128 0x1d
 5281 01c5 01       		.byte	0x1
 5282 01c6 31       		.uleb128 0x31
 5283 01c7 13       		.uleb128 0x13
 5284 01c8 11       		.uleb128 0x11
 5285 01c9 01       		.uleb128 0x1
 5286 01ca 12       		.uleb128 0x12
 5287 01cb 06       		.uleb128 0x6
 5288 01cc 58       		.uleb128 0x58
 5289 01cd 0B       		.uleb128 0xb
 5290 01ce 59       		.uleb128 0x59
 5291 01cf 05       		.uleb128 0x5
 5292 01d0 01       		.uleb128 0x1
 5293 01d1 13       		.uleb128 0x13
 5294 01d2 00       		.byte	0
ARM GAS  C:\Users\zack.li\AppData\Local\Temp\ccTyLy6m.s 			page 149


 5295 01d3 00       		.byte	0
 5296 01d4 24       		.uleb128 0x24
 5297 01d5 05       		.uleb128 0x5
 5298 01d6 00       		.byte	0
 5299 01d7 31       		.uleb128 0x31
 5300 01d8 13       		.uleb128 0x13
 5301 01d9 00       		.byte	0
 5302 01da 00       		.byte	0
 5303 01db 25       		.uleb128 0x25
 5304 01dc 0B       		.uleb128 0xb
 5305 01dd 01       		.byte	0x1
 5306 01de 11       		.uleb128 0x11
 5307 01df 01       		.uleb128 0x1
 5308 01e0 12       		.uleb128 0x12
 5309 01e1 06       		.uleb128 0x6
 5310 01e2 00       		.byte	0
 5311 01e3 00       		.byte	0
 5312 01e4 26       		.uleb128 0x26
 5313 01e5 34       		.uleb128 0x34
 5314 01e6 00       		.byte	0
 5315 01e7 31       		.uleb128 0x31
 5316 01e8 13       		.uleb128 0x13
 5317 01e9 00       		.byte	0
 5318 01ea 00       		.byte	0
 5319 01eb 27       		.uleb128 0x27
 5320 01ec 898201   		.uleb128 0x4109
 5321 01ef 01       		.byte	0x1
 5322 01f0 11       		.uleb128 0x11
 5323 01f1 01       		.uleb128 0x1
 5324 01f2 31       		.uleb128 0x31
 5325 01f3 13       		.uleb128 0x13
 5326 01f4 01       		.uleb128 0x1
 5327 01f5 13       		.uleb128 0x13
 5328 01f6 00       		.byte	0
 5329 01f7 00       		.byte	0
 5330 01f8 28       		.uleb128 0x28
 5331 01f9 2E       		.uleb128 0x2e
 5332 01fa 01       		.byte	0x1
 5333 01fb 3F       		.uleb128 0x3f
 5334 01fc 19       		.uleb128 0x19
 5335 01fd 03       		.uleb128 0x3
 5336 01fe 0E       		.uleb128 0xe
 5337 01ff 3A       		.uleb128 0x3a
 5338 0200 0B       		.uleb128 0xb
 5339 0201 3B       		.uleb128 0x3b
 5340 0202 05       		.uleb128 0x5
 5341 0203 27       		.uleb128 0x27
 5342 0204 19       		.uleb128 0x19
 5343 0205 49       		.uleb128 0x49
 5344 0206 13       		.uleb128 0x13
 5345 0207 11       		.uleb128 0x11
 5346 0208 01       		.uleb128 0x1
 5347 0209 12       		.uleb128 0x12
 5348 020a 06       		.uleb128 0x6
 5349 020b 40       		.uleb128 0x40
 5350 020c 18       		.uleb128 0x18
 5351 020d 9642     		.uleb128 0x2116
ARM GAS  C:\Users\zack.li\AppData\Local\Temp\ccTyLy6m.s 			page 150


 5352 020f 19       		.uleb128 0x19
 5353 0210 01       		.uleb128 0x1
 5354 0211 13       		.uleb128 0x13
 5355 0212 00       		.byte	0
 5356 0213 00       		.byte	0
 5357 0214 29       		.uleb128 0x29
 5358 0215 34       		.uleb128 0x34
 5359 0216 00       		.byte	0
 5360 0217 03       		.uleb128 0x3
 5361 0218 0E       		.uleb128 0xe
 5362 0219 3A       		.uleb128 0x3a
 5363 021a 0B       		.uleb128 0xb
 5364 021b 3B       		.uleb128 0x3b
 5365 021c 05       		.uleb128 0x5
 5366 021d 49       		.uleb128 0x49
 5367 021e 13       		.uleb128 0x13
 5368 021f 02       		.uleb128 0x2
 5369 0220 18       		.uleb128 0x18
 5370 0221 00       		.byte	0
 5371 0222 00       		.byte	0
 5372 0223 2A       		.uleb128 0x2a
 5373 0224 1D       		.uleb128 0x1d
 5374 0225 01       		.byte	0x1
 5375 0226 31       		.uleb128 0x31
 5376 0227 13       		.uleb128 0x13
 5377 0228 11       		.uleb128 0x11
 5378 0229 01       		.uleb128 0x1
 5379 022a 12       		.uleb128 0x12
 5380 022b 06       		.uleb128 0x6
 5381 022c 58       		.uleb128 0x58
 5382 022d 0B       		.uleb128 0xb
 5383 022e 59       		.uleb128 0x59
 5384 022f 05       		.uleb128 0x5
 5385 0230 00       		.byte	0
 5386 0231 00       		.byte	0
 5387 0232 2B       		.uleb128 0x2b
 5388 0233 05       		.uleb128 0x5
 5389 0234 00       		.byte	0
 5390 0235 31       		.uleb128 0x31
 5391 0236 13       		.uleb128 0x13
 5392 0237 02       		.uleb128 0x2
 5393 0238 17       		.uleb128 0x17
 5394 0239 00       		.byte	0
 5395 023a 00       		.byte	0
 5396 023b 2C       		.uleb128 0x2c
 5397 023c 34       		.uleb128 0x34
 5398 023d 00       		.byte	0
 5399 023e 31       		.uleb128 0x31
 5400 023f 13       		.uleb128 0x13
 5401 0240 02       		.uleb128 0x2
 5402 0241 17       		.uleb128 0x17
 5403 0242 00       		.byte	0
 5404 0243 00       		.byte	0
 5405 0244 2D       		.uleb128 0x2d
 5406 0245 2E       		.uleb128 0x2e
 5407 0246 01       		.byte	0x1
 5408 0247 31       		.uleb128 0x31
ARM GAS  C:\Users\zack.li\AppData\Local\Temp\ccTyLy6m.s 			page 151


 5409 0248 13       		.uleb128 0x13
 5410 0249 11       		.uleb128 0x11
 5411 024a 01       		.uleb128 0x1
 5412 024b 12       		.uleb128 0x12
 5413 024c 06       		.uleb128 0x6
 5414 024d 40       		.uleb128 0x40
 5415 024e 18       		.uleb128 0x18
 5416 024f 9742     		.uleb128 0x2117
 5417 0251 19       		.uleb128 0x19
 5418 0252 01       		.uleb128 0x1
 5419 0253 13       		.uleb128 0x13
 5420 0254 00       		.byte	0
 5421 0255 00       		.byte	0
 5422 0256 2E       		.uleb128 0x2e
 5423 0257 2E       		.uleb128 0x2e
 5424 0258 01       		.byte	0x1
 5425 0259 03       		.uleb128 0x3
 5426 025a 0E       		.uleb128 0xe
 5427 025b 3A       		.uleb128 0x3a
 5428 025c 0B       		.uleb128 0xb
 5429 025d 3B       		.uleb128 0x3b
 5430 025e 05       		.uleb128 0x5
 5431 025f 27       		.uleb128 0x27
 5432 0260 19       		.uleb128 0x19
 5433 0261 49       		.uleb128 0x49
 5434 0262 13       		.uleb128 0x13
 5435 0263 20       		.uleb128 0x20
 5436 0264 0B       		.uleb128 0xb
 5437 0265 01       		.uleb128 0x1
 5438 0266 13       		.uleb128 0x13
 5439 0267 00       		.byte	0
 5440 0268 00       		.byte	0
 5441 0269 2F       		.uleb128 0x2f
 5442 026a 34       		.uleb128 0x34
 5443 026b 00       		.byte	0
 5444 026c 03       		.uleb128 0x3
 5445 026d 0E       		.uleb128 0xe
 5446 026e 3A       		.uleb128 0x3a
 5447 026f 0B       		.uleb128 0xb
 5448 0270 3B       		.uleb128 0x3b
 5449 0271 05       		.uleb128 0x5
 5450 0272 49       		.uleb128 0x49
 5451 0273 13       		.uleb128 0x13
 5452 0274 1C       		.uleb128 0x1c
 5453 0275 0B       		.uleb128 0xb
 5454 0276 00       		.byte	0
 5455 0277 00       		.byte	0
 5456 0278 30       		.uleb128 0x30
 5457 0279 1D       		.uleb128 0x1d
 5458 027a 01       		.byte	0x1
 5459 027b 31       		.uleb128 0x31
 5460 027c 13       		.uleb128 0x13
 5461 027d 52       		.uleb128 0x52
 5462 027e 01       		.uleb128 0x1
 5463 027f 55       		.uleb128 0x55
 5464 0280 17       		.uleb128 0x17
 5465 0281 58       		.uleb128 0x58
ARM GAS  C:\Users\zack.li\AppData\Local\Temp\ccTyLy6m.s 			page 152


 5466 0282 0B       		.uleb128 0xb
 5467 0283 59       		.uleb128 0x59
 5468 0284 05       		.uleb128 0x5
 5469 0285 01       		.uleb128 0x1
 5470 0286 13       		.uleb128 0x13
 5471 0287 00       		.byte	0
 5472 0288 00       		.byte	0
 5473 0289 31       		.uleb128 0x31
 5474 028a 0B       		.uleb128 0xb
 5475 028b 01       		.byte	0x1
 5476 028c 55       		.uleb128 0x55
 5477 028d 17       		.uleb128 0x17
 5478 028e 00       		.byte	0
 5479 028f 00       		.byte	0
 5480 0290 32       		.uleb128 0x32
 5481 0291 34       		.uleb128 0x34
 5482 0292 00       		.byte	0
 5483 0293 03       		.uleb128 0x3
 5484 0294 0E       		.uleb128 0xe
 5485 0295 3A       		.uleb128 0x3a
 5486 0296 0B       		.uleb128 0xb
 5487 0297 3B       		.uleb128 0x3b
 5488 0298 0B       		.uleb128 0xb
 5489 0299 49       		.uleb128 0x49
 5490 029a 13       		.uleb128 0x13
 5491 029b 02       		.uleb128 0x2
 5492 029c 18       		.uleb128 0x18
 5493 029d 00       		.byte	0
 5494 029e 00       		.byte	0
 5495 029f 33       		.uleb128 0x33
 5496 02a0 34       		.uleb128 0x34
 5497 02a1 00       		.byte	0
 5498 02a2 03       		.uleb128 0x3
 5499 02a3 0E       		.uleb128 0xe
 5500 02a4 3A       		.uleb128 0x3a
 5501 02a5 0B       		.uleb128 0xb
 5502 02a6 3B       		.uleb128 0x3b
 5503 02a7 05       		.uleb128 0x5
 5504 02a8 49       		.uleb128 0x49
 5505 02a9 13       		.uleb128 0x13
 5506 02aa 3F       		.uleb128 0x3f
 5507 02ab 19       		.uleb128 0x19
 5508 02ac 3C       		.uleb128 0x3c
 5509 02ad 19       		.uleb128 0x19
 5510 02ae 00       		.byte	0
 5511 02af 00       		.byte	0
 5512 02b0 34       		.uleb128 0x34
 5513 02b1 34       		.uleb128 0x34
 5514 02b2 00       		.byte	0
 5515 02b3 03       		.uleb128 0x3
 5516 02b4 0E       		.uleb128 0xe
 5517 02b5 3A       		.uleb128 0x3a
 5518 02b6 0B       		.uleb128 0xb
 5519 02b7 3B       		.uleb128 0x3b
 5520 02b8 0B       		.uleb128 0xb
 5521 02b9 49       		.uleb128 0x49
 5522 02ba 13       		.uleb128 0x13
ARM GAS  C:\Users\zack.li\AppData\Local\Temp\ccTyLy6m.s 			page 153


 5523 02bb 3F       		.uleb128 0x3f
 5524 02bc 19       		.uleb128 0x19
 5525 02bd 3C       		.uleb128 0x3c
 5526 02be 19       		.uleb128 0x19
 5527 02bf 00       		.byte	0
 5528 02c0 00       		.byte	0
 5529 02c1 35       		.uleb128 0x35
 5530 02c2 34       		.uleb128 0x34
 5531 02c3 00       		.byte	0
 5532 02c4 03       		.uleb128 0x3
 5533 02c5 0E       		.uleb128 0xe
 5534 02c6 3A       		.uleb128 0x3a
 5535 02c7 0B       		.uleb128 0xb
 5536 02c8 3B       		.uleb128 0x3b
 5537 02c9 0B       		.uleb128 0xb
 5538 02ca 49       		.uleb128 0x49
 5539 02cb 13       		.uleb128 0x13
 5540 02cc 3F       		.uleb128 0x3f
 5541 02cd 19       		.uleb128 0x19
 5542 02ce 02       		.uleb128 0x2
 5543 02cf 18       		.uleb128 0x18
 5544 02d0 00       		.byte	0
 5545 02d1 00       		.byte	0
 5546 02d2 36       		.uleb128 0x36
 5547 02d3 2E       		.uleb128 0x2e
 5548 02d4 00       		.byte	0
 5549 02d5 3F       		.uleb128 0x3f
 5550 02d6 19       		.uleb128 0x19
 5551 02d7 3C       		.uleb128 0x3c
 5552 02d8 19       		.uleb128 0x19
 5553 02d9 6E       		.uleb128 0x6e
 5554 02da 0E       		.uleb128 0xe
 5555 02db 03       		.uleb128 0x3
 5556 02dc 0E       		.uleb128 0xe
 5557 02dd 3A       		.uleb128 0x3a
 5558 02de 0B       		.uleb128 0xb
 5559 02df 3B       		.uleb128 0x3b
 5560 02e0 0B       		.uleb128 0xb
 5561 02e1 00       		.byte	0
 5562 02e2 00       		.byte	0
 5563 02e3 00       		.byte	0
 5564              		.section	.debug_loc,"",%progbits
 5565              	.Ldebug_loc0:
 5566              	.LLST0:
 5567 0000 00000000 		.4byte	.LVL0
 5568 0004 1B000000 		.4byte	.LVL4-1
 5569 0008 0100     		.2byte	0x1
 5570 000a 50       		.byte	0x50
 5571 000b 1B000000 		.4byte	.LVL4-1
 5572 000f 68000000 		.4byte	.LFE4
 5573 0013 0400     		.2byte	0x4
 5574 0015 F3       		.byte	0xf3
 5575 0016 01       		.uleb128 0x1
 5576 0017 50       		.byte	0x50
 5577 0018 9F       		.byte	0x9f
 5578 0019 00000000 		.4byte	0
 5579 001d 00000000 		.4byte	0
ARM GAS  C:\Users\zack.li\AppData\Local\Temp\ccTyLy6m.s 			page 154


 5580              	.LLST1:
 5581 0021 1C000000 		.4byte	.LVL4
 5582 0025 61000000 		.4byte	.LVL20-1
 5583 0029 0100     		.2byte	0x1
 5584 002b 50       		.byte	0x50
 5585 002c 00000000 		.4byte	0
 5586 0030 00000000 		.4byte	0
 5587              	.LLST2:
 5588 0034 18000000 		.4byte	.LVL3
 5589 0038 62000000 		.4byte	.LVL20
 5590 003c 0200     		.2byte	0x2
 5591 003e 30       		.byte	0x30
 5592 003f 9F       		.byte	0x9f
 5593 0040 62000000 		.4byte	.LVL20
 5594 0044 68000000 		.4byte	.LFE4
 5595 0048 0200     		.2byte	0x2
 5596 004a 31       		.byte	0x31
 5597 004b 9F       		.byte	0x9f
 5598 004c 00000000 		.4byte	0
 5599 0050 00000000 		.4byte	0
 5600              	.LLST3:
 5601 0054 0A000000 		.4byte	.LVL1
 5602 0058 0E000000 		.4byte	.LVL2
 5603 005c 0200     		.2byte	0x2
 5604 005e 30       		.byte	0x30
 5605 005f 9F       		.byte	0x9f
 5606 0060 18000000 		.4byte	.LVL3
 5607 0064 42000000 		.4byte	.LVL10
 5608 0068 0100     		.2byte	0x1
 5609 006a 55       		.byte	0x55
 5610 006b 00000000 		.4byte	0
 5611 006f 00000000 		.4byte	0
 5612              	.LLST4:
 5613 0073 0A000000 		.4byte	.LVL1
 5614 0077 0E000000 		.4byte	.LVL2
 5615 007b 0200     		.2byte	0x2
 5616 007d 35       		.byte	0x35
 5617 007e 9F       		.byte	0x9f
 5618 007f 18000000 		.4byte	.LVL3
 5619 0083 4C000000 		.4byte	.LVL13
 5620 0087 0100     		.2byte	0x1
 5621 0089 54       		.byte	0x54
 5622 008a 00000000 		.4byte	0
 5623 008e 00000000 		.4byte	0
 5624              	.LLST5:
 5625 0092 36000000 		.4byte	.LVL7
 5626 0096 38000000 		.4byte	.LVL8
 5627 009a 0100     		.2byte	0x1
 5628 009c 51       		.byte	0x51
 5629 009d 38000000 		.4byte	.LVL8
 5630 00a1 3E000000 		.4byte	.LVL9
 5631 00a5 0200     		.2byte	0x2
 5632 00a7 91       		.byte	0x91
 5633 00a8 64       		.sleb128 -28
 5634 00a9 3E000000 		.4byte	.LVL9
 5635 00ad 4A000000 		.4byte	.LVL12
 5636 00b1 0100     		.2byte	0x1
ARM GAS  C:\Users\zack.li\AppData\Local\Temp\ccTyLy6m.s 			page 155


 5637 00b3 51       		.byte	0x51
 5638 00b4 4A000000 		.4byte	.LVL12
 5639 00b8 50000000 		.4byte	.LVL15
 5640 00bc 0200     		.2byte	0x2
 5641 00be 75       		.byte	0x75
 5642 00bf 00       		.sleb128 0
 5643 00c0 5A000000 		.4byte	.LVL17
 5644 00c4 61000000 		.4byte	.LVL20-1
 5645 00c8 0100     		.2byte	0x1
 5646 00ca 52       		.byte	0x52
 5647 00cb 00000000 		.4byte	0
 5648 00cf 00000000 		.4byte	0
 5649              	.LLST6:
 5650 00d3 26000000 		.4byte	.LVL5
 5651 00d7 4E000000 		.4byte	.LVL14
 5652 00db 0100     		.2byte	0x1
 5653 00dd 52       		.byte	0x52
 5654 00de 4E000000 		.4byte	.LVL14
 5655 00e2 54000000 		.4byte	.LVL16
 5656 00e6 0100     		.2byte	0x1
 5657 00e8 54       		.byte	0x54
 5658 00e9 54000000 		.4byte	.LVL16
 5659 00ed 5E000000 		.4byte	.LVL19
 5660 00f1 0200     		.2byte	0x2
 5661 00f3 76       		.byte	0x76
 5662 00f4 00       		.sleb128 0
 5663 00f5 00000000 		.4byte	0
 5664 00f9 00000000 		.4byte	0
 5665              	.LLST7:
 5666 00fd 32000000 		.4byte	.LVL26
 5667 0101 3C000000 		.4byte	.LVL28
 5668 0105 0100     		.2byte	0x1
 5669 0107 53       		.byte	0x53
 5670 0108 3C000000 		.4byte	.LVL28
 5671 010c 40000000 		.4byte	.LVL29
 5672 0110 0200     		.2byte	0x2
 5673 0112 75       		.byte	0x75
 5674 0113 00       		.sleb128 0
 5675 0114 78000000 		.4byte	.LVL32
 5676 0118 80000000 		.4byte	.LVL34
 5677 011c 0100     		.2byte	0x1
 5678 011e 53       		.byte	0x53
 5679 011f 80000000 		.4byte	.LVL34
 5680 0123 84000000 		.4byte	.LVL35
 5681 0127 0200     		.2byte	0x2
 5682 0129 72       		.byte	0x72
 5683 012a 00       		.sleb128 0
 5684 012b 8E000000 		.4byte	.LVL36
 5685 012f 98000000 		.4byte	.LVL38
 5686 0133 0100     		.2byte	0x1
 5687 0135 53       		.byte	0x53
 5688 0136 98000000 		.4byte	.LVL38
 5689 013a 9E000000 		.4byte	.LVL39
 5690 013e 0200     		.2byte	0x2
 5691 0140 75       		.byte	0x75
 5692 0141 00       		.sleb128 0
 5693 0142 00000000 		.4byte	0
ARM GAS  C:\Users\zack.li\AppData\Local\Temp\ccTyLy6m.s 			page 156


 5694 0146 00000000 		.4byte	0
 5695              	.LLST8:
 5696 014a 00000000 		.4byte	.LVL43
 5697 014e 0F000000 		.4byte	.LVL45-1
 5698 0152 0100     		.2byte	0x1
 5699 0154 50       		.byte	0x50
 5700 0155 0F000000 		.4byte	.LVL45-1
 5701 0159 1C000000 		.4byte	.LVL47
 5702 015d 0100     		.2byte	0x1
 5703 015f 57       		.byte	0x57
 5704 0160 1C000000 		.4byte	.LVL47
 5705 0164 60000000 		.4byte	.LFE10
 5706 0168 0400     		.2byte	0x4
 5707 016a F3       		.byte	0xf3
 5708 016b 01       		.uleb128 0x1
 5709 016c 50       		.byte	0x50
 5710 016d 9F       		.byte	0x9f
 5711 016e 00000000 		.4byte	0
 5712 0172 00000000 		.4byte	0
 5713              	.LLST9:
 5714 0176 10000000 		.4byte	.LVL45
 5715 017a 29000000 		.4byte	.LVL51-1
 5716 017e 0100     		.2byte	0x1
 5717 0180 50       		.byte	0x50
 5718 0181 2E000000 		.4byte	.LVL52
 5719 0185 45000000 		.4byte	.LVL60-1
 5720 0189 0100     		.2byte	0x1
 5721 018b 50       		.byte	0x50
 5722 018c 00000000 		.4byte	0
 5723 0190 00000000 		.4byte	0
 5724              	.LLST10:
 5725 0194 0C000000 		.4byte	.LVL44
 5726 0198 38000000 		.4byte	.LVL55
 5727 019c 0100     		.2byte	0x1
 5728 019e 54       		.byte	0x54
 5729 019f 00000000 		.4byte	0
 5730 01a3 00000000 		.4byte	0
 5731              	.LLST11:
 5732 01a7 18000000 		.4byte	.LVL46
 5733 01ab 20000000 		.4byte	.LVL48
 5734 01af 0900     		.2byte	0x9
 5735 01b1 73       		.byte	0x73
 5736 01b2 00       		.sleb128 0
 5737 01b3 11       		.byte	0x11
 5738 01b4 80FFFF61 		.sleb128 -62914688
 5739 01b8 1A       		.byte	0x1a
 5740 01b9 9F       		.byte	0x9f
 5741 01ba 20000000 		.4byte	.LVL48
 5742 01be 22000000 		.4byte	.LVL49
 5743 01c2 0100     		.2byte	0x1
 5744 01c4 53       		.byte	0x53
 5745 01c5 24000000 		.4byte	.LVL50
 5746 01c9 29000000 		.4byte	.LVL51-1
 5747 01cd 0100     		.2byte	0x1
 5748 01cf 53       		.byte	0x53
 5749 01d0 00000000 		.4byte	0
 5750 01d4 00000000 		.4byte	0
ARM GAS  C:\Users\zack.li\AppData\Local\Temp\ccTyLy6m.s 			page 157


 5751              	.LLST12:
 5752 01d8 32000000 		.4byte	.LVL53
 5753 01dc 34000000 		.4byte	.LVL54
 5754 01e0 0900     		.2byte	0x9
 5755 01e2 72       		.byte	0x72
 5756 01e3 00       		.sleb128 0
 5757 01e4 11       		.byte	0x11
 5758 01e5 80FFFF61 		.sleb128 -62914688
 5759 01e9 1A       		.byte	0x1a
 5760 01ea 9F       		.byte	0x9f
 5761 01eb 34000000 		.4byte	.LVL54
 5762 01ef 38000000 		.4byte	.LVL55
 5763 01f3 0100     		.2byte	0x1
 5764 01f5 56       		.byte	0x56
 5765 01f6 38000000 		.4byte	.LVL55
 5766 01fa 3A000000 		.4byte	.LVL56
 5767 01fe 1100     		.2byte	0x11
 5768 0200 72       		.byte	0x72
 5769 0201 00       		.sleb128 0
 5770 0202 06       		.byte	0x6
 5771 0203 75       		.byte	0x75
 5772 0204 00       		.sleb128 0
 5773 0205 22       		.byte	0x22
 5774 0206 23       		.byte	0x23
 5775 0207 09       		.uleb128 0x9
 5776 0208 94       		.byte	0x94
 5777 0209 01       		.byte	0x1
 5778 020a 08       		.byte	0x8
 5779 020b FF       		.byte	0xff
 5780 020c 1A       		.byte	0x1a
 5781 020d 76       		.byte	0x76
 5782 020e 00       		.sleb128 0
 5783 020f 21       		.byte	0x21
 5784 0210 9F       		.byte	0x9f
 5785 0211 3A000000 		.4byte	.LVL56
 5786 0215 3C000000 		.4byte	.LVL57
 5787 0219 1000     		.2byte	0x10
 5788 021b 72       		.byte	0x72
 5789 021c 00       		.sleb128 0
 5790 021d 75       		.byte	0x75
 5791 021e 00       		.sleb128 0
 5792 021f 22       		.byte	0x22
 5793 0220 23       		.byte	0x23
 5794 0221 09       		.uleb128 0x9
 5795 0222 94       		.byte	0x94
 5796 0223 01       		.byte	0x1
 5797 0224 08       		.byte	0x8
 5798 0225 FF       		.byte	0xff
 5799 0226 1A       		.byte	0x1a
 5800 0227 76       		.byte	0x76
 5801 0228 00       		.sleb128 0
 5802 0229 21       		.byte	0x21
 5803 022a 9F       		.byte	0x9f
 5804 022b 3C000000 		.4byte	.LVL57
 5805 022f 3E000000 		.4byte	.LVL58
 5806 0233 0B00     		.2byte	0xb
 5807 0235 75       		.byte	0x75
ARM GAS  C:\Users\zack.li\AppData\Local\Temp\ccTyLy6m.s 			page 158


 5808 0236 09       		.sleb128 9
 5809 0237 94       		.byte	0x94
 5810 0238 01       		.byte	0x1
 5811 0239 08       		.byte	0x8
 5812 023a FF       		.byte	0xff
 5813 023b 1A       		.byte	0x1a
 5814 023c 76       		.byte	0x76
 5815 023d 00       		.sleb128 0
 5816 023e 21       		.byte	0x21
 5817 023f 9F       		.byte	0x9f
 5818 0240 40000000 		.4byte	.LVL59
 5819 0244 46000000 		.4byte	.LVL61
 5820 0248 0100     		.2byte	0x1
 5821 024a 54       		.byte	0x54
 5822 024b 00000000 		.4byte	0
 5823 024f 00000000 		.4byte	0
 5824              	.LLST13:
 5825 0253 00000000 		.4byte	.LVL62
 5826 0257 0C000000 		.4byte	.LVL63
 5827 025b 0100     		.2byte	0x1
 5828 025d 50       		.byte	0x50
 5829 025e 0C000000 		.4byte	.LVL63
 5830 0262 2E000000 		.4byte	.LVL71
 5831 0266 0100     		.2byte	0x1
 5832 0268 55       		.byte	0x55
 5833 0269 2E000000 		.4byte	.LVL71
 5834 026d 30000000 		.4byte	.LFE11
 5835 0271 0400     		.2byte	0x4
 5836 0273 F3       		.byte	0xf3
 5837 0274 01       		.uleb128 0x1
 5838 0275 50       		.byte	0x50
 5839 0276 9F       		.byte	0x9f
 5840 0277 00000000 		.4byte	0
 5841 027b 00000000 		.4byte	0
 5842              	.LLST14:
 5843 027f 00000000 		.4byte	.LVL62
 5844 0283 18000000 		.4byte	.LVL65
 5845 0287 0100     		.2byte	0x1
 5846 0289 51       		.byte	0x51
 5847 028a 18000000 		.4byte	.LVL65
 5848 028e 30000000 		.4byte	.LFE11
 5849 0292 0400     		.2byte	0x4
 5850 0294 F3       		.byte	0xf3
 5851 0295 01       		.uleb128 0x1
 5852 0296 51       		.byte	0x51
 5853 0297 9F       		.byte	0x9f
 5854 0298 00000000 		.4byte	0
 5855 029c 00000000 		.4byte	0
 5856              	.LLST15:
 5857 02a0 00000000 		.4byte	.LVL62
 5858 02a4 1B000000 		.4byte	.LVL66-1
 5859 02a8 0100     		.2byte	0x1
 5860 02aa 52       		.byte	0x52
 5861 02ab 1B000000 		.4byte	.LVL66-1
 5862 02af 1E000000 		.4byte	.LVL67
 5863 02b3 0100     		.2byte	0x1
 5864 02b5 54       		.byte	0x54
ARM GAS  C:\Users\zack.li\AppData\Local\Temp\ccTyLy6m.s 			page 159


 5865 02b6 1E000000 		.4byte	.LVL67
 5866 02ba 2E000000 		.4byte	.LVL70
 5867 02be 0300     		.2byte	0x3
 5868 02c0 74       		.byte	0x74
 5869 02c1 05       		.sleb128 5
 5870 02c2 9F       		.byte	0x9f
 5871 02c3 2E000000 		.4byte	.LVL70
 5872 02c7 30000000 		.4byte	.LFE11
 5873 02cb 0400     		.2byte	0x4
 5874 02cd F3       		.byte	0xf3
 5875 02ce 01       		.uleb128 0x1
 5876 02cf 52       		.byte	0x52
 5877 02d0 9F       		.byte	0x9f
 5878 02d1 00000000 		.4byte	0
 5879 02d5 00000000 		.4byte	0
 5880              	.LLST16:
 5881 02d9 0C000000 		.4byte	.LVL63
 5882 02dd 1B000000 		.4byte	.LVL66-1
 5883 02e1 0100     		.2byte	0x1
 5884 02e3 50       		.byte	0x50
 5885 02e4 1C000000 		.4byte	.LVL66
 5886 02e8 2E000000 		.4byte	.LVL69
 5887 02ec 0100     		.2byte	0x1
 5888 02ee 50       		.byte	0x50
 5889 02ef 00000000 		.4byte	0
 5890 02f3 00000000 		.4byte	0
 5891              	.LLST17:
 5892 02f7 10000000 		.4byte	.LVL73
 5893 02fb 30000000 		.4byte	.LVL81
 5894 02ff 0100     		.2byte	0x1
 5895 0301 53       		.byte	0x53
 5896 0302 30000000 		.4byte	.LVL81
 5897 0306 32000000 		.4byte	.LVL82
 5898 030a 0300     		.2byte	0x3
 5899 030c 73       		.byte	0x73
 5900 030d 01       		.sleb128 1
 5901 030e 9F       		.byte	0x9f
 5902 030f 00000000 		.4byte	0
 5903 0313 00000000 		.4byte	0
 5904              	.LLST18:
 5905 0317 12000000 		.4byte	.LVL74
 5906 031b 16000000 		.4byte	.LVL76
 5907 031f 0100     		.2byte	0x1
 5908 0321 52       		.byte	0x52
 5909 0322 16000000 		.4byte	.LVL76
 5910 0326 22000000 		.4byte	.LVL78
 5911 032a 0300     		.2byte	0x3
 5912 032c 72       		.byte	0x72
 5913 032d 05       		.sleb128 5
 5914 032e 9F       		.byte	0x9f
 5915 032f 00000000 		.4byte	0
 5916 0333 00000000 		.4byte	0
 5917              	.LLST19:
 5918 0337 0E000000 		.4byte	.LVL72
 5919 033b 12000000 		.4byte	.LVL74
 5920 033f 0100     		.2byte	0x1
 5921 0341 52       		.byte	0x52
ARM GAS  C:\Users\zack.li\AppData\Local\Temp\ccTyLy6m.s 			page 160


 5922 0342 00000000 		.4byte	0
 5923 0346 00000000 		.4byte	0
 5924              	.LLST20:
 5925 034a 2C000000 		.4byte	.LVL80
 5926 034e 30000000 		.4byte	.LVL81
 5927 0352 0100     		.2byte	0x1
 5928 0354 53       		.byte	0x53
 5929 0355 30000000 		.4byte	.LVL81
 5930 0359 32000000 		.4byte	.LVL82
 5931 035d 0300     		.2byte	0x3
 5932 035f 73       		.byte	0x73
 5933 0360 01       		.sleb128 1
 5934 0361 9F       		.byte	0x9f
 5935 0362 00000000 		.4byte	0
 5936 0366 00000000 		.4byte	0
 5937              	.LLST21:
 5938 036a 2C000000 		.4byte	.LVL80
 5939 036e 34000000 		.4byte	.LVL83
 5940 0372 0100     		.2byte	0x1
 5941 0374 51       		.byte	0x51
 5942 0375 00000000 		.4byte	0
 5943 0379 00000000 		.4byte	0
 5944              	.LLST22:
 5945 037d 00000000 		.4byte	.LVL84
 5946 0381 08000000 		.4byte	.LVL85
 5947 0385 0100     		.2byte	0x1
 5948 0387 50       		.byte	0x50
 5949 0388 08000000 		.4byte	.LVL85
 5950 038c 18000000 		.4byte	.LFE13
 5951 0390 0400     		.2byte	0x4
 5952 0392 F3       		.byte	0xf3
 5953 0393 01       		.uleb128 0x1
 5954 0394 50       		.byte	0x50
 5955 0395 9F       		.byte	0x9f
 5956 0396 00000000 		.4byte	0
 5957 039a 00000000 		.4byte	0
 5958              	.LLST23:
 5959 039e 0C000000 		.4byte	.LVL86
 5960 03a2 10000000 		.4byte	.LVL87
 5961 03a6 0100     		.2byte	0x1
 5962 03a8 50       		.byte	0x50
 5963 03a9 00000000 		.4byte	0
 5964 03ad 00000000 		.4byte	0
 5965              	.LLST24:
 5966 03b1 00000000 		.4byte	.LVL84
 5967 03b5 08000000 		.4byte	.LVL85
 5968 03b9 0900     		.2byte	0x9
 5969 03bb 70       		.byte	0x70
 5970 03bc 0C       		.sleb128 12
 5971 03bd 94       		.byte	0x94
 5972 03be 02       		.byte	0x2
 5973 03bf 0A       		.byte	0xa
 5974 03c0 FFFF     		.2byte	0xffff
 5975 03c2 1A       		.byte	0x1a
 5976 03c3 9F       		.byte	0x9f
 5977 03c4 08000000 		.4byte	.LVL85
 5978 03c8 0B000000 		.4byte	.LVL86-1
ARM GAS  C:\Users\zack.li\AppData\Local\Temp\ccTyLy6m.s 			page 161


 5979 03cc 0C00     		.2byte	0xc
 5980 03ce F3       		.byte	0xf3
 5981 03cf 01       		.uleb128 0x1
 5982 03d0 50       		.byte	0x50
 5983 03d1 23       		.byte	0x23
 5984 03d2 0C       		.uleb128 0xc
 5985 03d3 94       		.byte	0x94
 5986 03d4 02       		.byte	0x2
 5987 03d5 0A       		.byte	0xa
 5988 03d6 FFFF     		.2byte	0xffff
 5989 03d8 1A       		.byte	0x1a
 5990 03d9 9F       		.byte	0x9f
 5991 03da 00000000 		.4byte	0
 5992 03de 00000000 		.4byte	0
 5993              	.LLST25:
 5994 03e2 4A000000 		.4byte	.LVL89
 5995 03e6 62000000 		.4byte	.LVL90
 5996 03ea 0300     		.2byte	0x3
 5997 03ec 08       		.byte	0x8
 5998 03ed F0       		.byte	0xf0
 5999 03ee 9F       		.byte	0x9f
 6000 03ef 62000000 		.4byte	.LVL90
 6001 03f3 76000000 		.4byte	.LVL92
 6002 03f7 0100     		.2byte	0x1
 6003 03f9 53       		.byte	0x53
 6004 03fa 00000000 		.4byte	0
 6005 03fe 00000000 		.4byte	0
 6006              	.LLST26:
 6007 0402 C4000000 		.4byte	.LVL95
 6008 0406 C6000000 		.4byte	.LVL96
 6009 040a 0300     		.2byte	0x3
 6010 040c 08       		.byte	0x8
 6011 040d F0       		.byte	0xf0
 6012 040e 9F       		.byte	0x9f
 6013 040f C6000000 		.4byte	.LVL96
 6014 0413 CE000000 		.4byte	.LVL97
 6015 0417 0300     		.2byte	0x3
 6016 0419 73       		.byte	0x73
 6017 041a 7F       		.sleb128 -1
 6018 041b 9F       		.byte	0x9f
 6019 041c CE000000 		.4byte	.LVL97
 6020 0420 D2000000 		.4byte	.LVL98
 6021 0424 0100     		.2byte	0x1
 6022 0426 53       		.byte	0x53
 6023 0427 00000000 		.4byte	0
 6024 042b 00000000 		.4byte	0
 6025              	.LLST27:
 6026 042f 00000000 		.4byte	.LVL101
 6027 0433 0B000000 		.4byte	.LVL103-1
 6028 0437 0100     		.2byte	0x1
 6029 0439 50       		.byte	0x50
 6030 043a 0B000000 		.4byte	.LVL103-1
 6031 043e 22000000 		.4byte	.LVL107
 6032 0442 0100     		.2byte	0x1
 6033 0444 54       		.byte	0x54
 6034 0445 22000000 		.4byte	.LVL107
 6035 0449 32000000 		.4byte	.LFE21
ARM GAS  C:\Users\zack.li\AppData\Local\Temp\ccTyLy6m.s 			page 162


 6036 044d 0400     		.2byte	0x4
 6037 044f F3       		.byte	0xf3
 6038 0450 01       		.uleb128 0x1
 6039 0451 50       		.byte	0x50
 6040 0452 9F       		.byte	0x9f
 6041 0453 00000000 		.4byte	0
 6042 0457 00000000 		.4byte	0
 6043              	.LLST28:
 6044 045b 16000000 		.4byte	.LVL104
 6045 045f 1A000000 		.4byte	.LVL105
 6046 0463 0100     		.2byte	0x1
 6047 0465 53       		.byte	0x53
 6048 0466 1C000000 		.4byte	.LVL106
 6049 046a 24000000 		.4byte	.LVL108
 6050 046e 0100     		.2byte	0x1
 6051 0470 52       		.byte	0x52
 6052 0471 24000000 		.4byte	.LVL108
 6053 0475 2F000000 		.4byte	.LVL109-1
 6054 0479 0100     		.2byte	0x1
 6055 047b 53       		.byte	0x53
 6056 047c 00000000 		.4byte	0
 6057 0480 00000000 		.4byte	0
 6058              	.LLST29:
 6059 0484 0C000000 		.4byte	.LVL103
 6060 0488 2F000000 		.4byte	.LVL109-1
 6061 048c 0100     		.2byte	0x1
 6062 048e 50       		.byte	0x50
 6063 048f 00000000 		.4byte	0
 6064 0493 00000000 		.4byte	0
 6065              	.LLST30:
 6066 0497 08000000 		.4byte	.LVL102
 6067 049b 30000000 		.4byte	.LVL110
 6068 049f 0100     		.2byte	0x1
 6069 04a1 55       		.byte	0x55
 6070 04a2 00000000 		.4byte	0
 6071 04a6 00000000 		.4byte	0
 6072              	.LLST31:
 6073 04aa 08000000 		.4byte	.LVL102
 6074 04ae 30000000 		.4byte	.LVL111
 6075 04b2 0100     		.2byte	0x1
 6076 04b4 57       		.byte	0x57
 6077 04b5 00000000 		.4byte	0
 6078 04b9 00000000 		.4byte	0
 6079              	.LLST32:
 6080 04bd 1A000000 		.4byte	.LVL112
 6081 04c1 1E000000 		.4byte	.LVL113
 6082 04c5 0100     		.2byte	0x1
 6083 04c7 53       		.byte	0x53
 6084 04c8 1E000000 		.4byte	.LVL113
 6085 04cc 8C000000 		.4byte	.LFE18
 6086 04d0 0200     		.2byte	0x2
 6087 04d2 91       		.byte	0x91
 6088 04d3 64       		.sleb128 -28
 6089 04d4 00000000 		.4byte	0
 6090 04d8 00000000 		.4byte	0
 6091              	.LLST33:
 6092 04dc 00000000 		.4byte	.LVL119
ARM GAS  C:\Users\zack.li\AppData\Local\Temp\ccTyLy6m.s 			page 163


 6093 04e0 0E000000 		.4byte	.LVL121
 6094 04e4 0100     		.2byte	0x1
 6095 04e6 50       		.byte	0x50
 6096 04e7 0E000000 		.4byte	.LVL121
 6097 04eb 24000000 		.4byte	.LFE19
 6098 04ef 0400     		.2byte	0x4
 6099 04f1 F3       		.byte	0xf3
 6100 04f2 01       		.uleb128 0x1
 6101 04f3 50       		.byte	0x50
 6102 04f4 9F       		.byte	0x9f
 6103 04f5 00000000 		.4byte	0
 6104 04f9 00000000 		.4byte	0
 6105              	.LLST34:
 6106 04fd 00000000 		.4byte	.LVL119
 6107 0501 0A000000 		.4byte	.LVL120
 6108 0505 0100     		.2byte	0x1
 6109 0507 51       		.byte	0x51
 6110 0508 0A000000 		.4byte	.LVL120
 6111 050c 24000000 		.4byte	.LFE19
 6112 0510 0400     		.2byte	0x4
 6113 0512 F3       		.byte	0xf3
 6114 0513 01       		.uleb128 0x1
 6115 0514 51       		.byte	0x51
 6116 0515 9F       		.byte	0x9f
 6117 0516 00000000 		.4byte	0
 6118 051a 00000000 		.4byte	0
 6119              	.LLST35:
 6120 051e 00000000 		.4byte	.LVL123
 6121 0522 0F000000 		.4byte	.LVL125-1
 6122 0526 0100     		.2byte	0x1
 6123 0528 50       		.byte	0x50
 6124 0529 0F000000 		.4byte	.LVL125-1
 6125 052d 5A000000 		.4byte	.LVL141
 6126 0531 0100     		.2byte	0x1
 6127 0533 54       		.byte	0x54
 6128 0534 5A000000 		.4byte	.LVL141
 6129 0538 70000000 		.4byte	.LFE22
 6130 053c 0400     		.2byte	0x4
 6131 053e F3       		.byte	0xf3
 6132 053f 01       		.uleb128 0x1
 6133 0540 50       		.byte	0x50
 6134 0541 9F       		.byte	0x9f
 6135 0542 00000000 		.4byte	0
 6136 0546 00000000 		.4byte	0
 6137              	.LLST36:
 6138 054a 0A000000 		.4byte	.LVL124
 6139 054e 68000000 		.4byte	.LVL143
 6140 0552 0100     		.2byte	0x1
 6141 0554 56       		.byte	0x56
 6142 0555 00000000 		.4byte	0
 6143 0559 00000000 		.4byte	0
 6144              	.LLST37:
 6145 055d 0A000000 		.4byte	.LVL124
 6146 0561 4C000000 		.4byte	.LVL138
 6147 0565 0100     		.2byte	0x1
 6148 0567 55       		.byte	0x55
 6149 0568 00000000 		.4byte	0
ARM GAS  C:\Users\zack.li\AppData\Local\Temp\ccTyLy6m.s 			page 164


 6150 056c 00000000 		.4byte	0
 6151              	.LLST38:
 6152 0570 16000000 		.4byte	.LVL127
 6153 0574 18000000 		.4byte	.LVL128
 6154 0578 0100     		.2byte	0x1
 6155 057a 53       		.byte	0x53
 6156 057b 1C000000 		.4byte	.LVL129
 6157 057f 42000000 		.4byte	.LVL135
 6158 0583 0100     		.2byte	0x1
 6159 0585 51       		.byte	0x51
 6160 0586 42000000 		.4byte	.LVL135
 6161 058a 46000000 		.4byte	.LVL137
 6162 058e 0100     		.2byte	0x1
 6163 0590 53       		.byte	0x53
 6164 0591 46000000 		.4byte	.LVL137
 6165 0595 54000000 		.4byte	.LVL140
 6166 0599 0100     		.2byte	0x1
 6167 059b 51       		.byte	0x51
 6168 059c 00000000 		.4byte	0
 6169 05a0 00000000 		.4byte	0
 6170              	.LLST39:
 6171 05a4 20000000 		.4byte	.LVL130
 6172 05a8 22000000 		.4byte	.LVL131
 6173 05ac 0100     		.2byte	0x1
 6174 05ae 53       		.byte	0x53
 6175 05af 22000000 		.4byte	.LVL131
 6176 05b3 2C000000 		.4byte	.LVL132
 6177 05b7 0100     		.2byte	0x1
 6178 05b9 5C       		.byte	0x5c
 6179 05ba 2C000000 		.4byte	.LVL132
 6180 05be 2E000000 		.4byte	.LVL133
 6181 05c2 0100     		.2byte	0x1
 6182 05c4 50       		.byte	0x50
 6183 05c5 2E000000 		.4byte	.LVL133
 6184 05c9 3E000000 		.4byte	.LVL134
 6185 05cd 0100     		.2byte	0x1
 6186 05cf 53       		.byte	0x53
 6187 05d0 3E000000 		.4byte	.LVL134
 6188 05d4 44000000 		.4byte	.LVL136
 6189 05d8 0200     		.2byte	0x2
 6190 05da 77       		.byte	0x77
 6191 05db 00       		.sleb128 0
 6192 05dc 46000000 		.4byte	.LVL137
 6193 05e0 54000000 		.4byte	.LVL140
 6194 05e4 0100     		.2byte	0x1
 6195 05e6 53       		.byte	0x53
 6196 05e7 00000000 		.4byte	0
 6197 05eb 00000000 		.4byte	0
 6198              	.LLST40:
 6199 05ef 00000000 		.4byte	.LVL145
 6200 05f3 0E000000 		.4byte	.LVL146
 6201 05f7 0100     		.2byte	0x1
 6202 05f9 50       		.byte	0x50
 6203 05fa 0E000000 		.4byte	.LVL146
 6204 05fe 58000000 		.4byte	.LFE14
 6205 0602 0400     		.2byte	0x4
 6206 0604 F3       		.byte	0xf3
ARM GAS  C:\Users\zack.li\AppData\Local\Temp\ccTyLy6m.s 			page 165


 6207 0605 01       		.uleb128 0x1
 6208 0606 50       		.byte	0x50
 6209 0607 9F       		.byte	0x9f
 6210 0608 00000000 		.4byte	0
 6211 060c 00000000 		.4byte	0
 6212              	.LLST41:
 6213 0610 16000000 		.4byte	.LVL147
 6214 0614 44000000 		.4byte	.LVL152
 6215 0618 0100     		.2byte	0x1
 6216 061a 56       		.byte	0x56
 6217 061b 44000000 		.4byte	.LVL152
 6218 061f 44000000 		.4byte	.LVL153
 6219 0623 0A00     		.2byte	0xa
 6220 0625 F3       		.byte	0xf3
 6221 0626 01       		.uleb128 0x1
 6222 0627 50       		.byte	0x50
 6223 0628 4C       		.byte	0x4c
 6224 0629 1E       		.byte	0x1e
 6225 062a 77       		.byte	0x77
 6226 062b 00       		.sleb128 0
 6227 062c 22       		.byte	0x22
 6228 062d 23       		.byte	0x23
 6229 062e 04       		.uleb128 0x4
 6230 062f 00000000 		.4byte	0
 6231 0633 00000000 		.4byte	0
 6232              	.LLST42:
 6233 0637 00000000 		.4byte	.LVL154
 6234 063b 25000000 		.4byte	.LVL157-1
 6235 063f 0100     		.2byte	0x1
 6236 0641 50       		.byte	0x50
 6237 0642 25000000 		.4byte	.LVL157-1
 6238 0646 64000000 		.4byte	.LFE15
 6239 064a 0400     		.2byte	0x4
 6240 064c F3       		.byte	0xf3
 6241 064d 01       		.uleb128 0x1
 6242 064e 50       		.byte	0x50
 6243 064f 9F       		.byte	0x9f
 6244 0650 00000000 		.4byte	0
 6245 0654 00000000 		.4byte	0
 6246              	.LLST43:
 6247 0658 00000000 		.4byte	.LVL154
 6248 065c 12000000 		.4byte	.LVL155
 6249 0660 0100     		.2byte	0x1
 6250 0662 51       		.byte	0x51
 6251 0663 12000000 		.4byte	.LVL155
 6252 0667 64000000 		.4byte	.LFE15
 6253 066b 0400     		.2byte	0x4
 6254 066d F3       		.byte	0xf3
 6255 066e 01       		.uleb128 0x1
 6256 066f 51       		.byte	0x51
 6257 0670 9F       		.byte	0x9f
 6258 0671 00000000 		.4byte	0
 6259 0675 00000000 		.4byte	0
 6260              	.LLST44:
 6261 0679 18000000 		.4byte	.LVL156
 6262 067d 48000000 		.4byte	.LVL161
 6263 0681 0100     		.2byte	0x1
ARM GAS  C:\Users\zack.li\AppData\Local\Temp\ccTyLy6m.s 			page 166


 6264 0683 56       		.byte	0x56
 6265 0684 00000000 		.4byte	0
 6266 0688 00000000 		.4byte	0
 6267              	.LLST45:
 6268 068c 00000000 		.4byte	.LVL162
 6269 0690 0E000000 		.4byte	.LVL164
 6270 0694 0100     		.2byte	0x1
 6271 0696 50       		.byte	0x50
 6272 0697 0E000000 		.4byte	.LVL164
 6273 069b 24000000 		.4byte	.LFE20
 6274 069f 0400     		.2byte	0x4
 6275 06a1 F3       		.byte	0xf3
 6276 06a2 01       		.uleb128 0x1
 6277 06a3 50       		.byte	0x50
 6278 06a4 9F       		.byte	0x9f
 6279 06a5 00000000 		.4byte	0
 6280 06a9 00000000 		.4byte	0
 6281              	.LLST46:
 6282 06ad 00000000 		.4byte	.LVL162
 6283 06b1 0A000000 		.4byte	.LVL163
 6284 06b5 0100     		.2byte	0x1
 6285 06b7 51       		.byte	0x51
 6286 06b8 0A000000 		.4byte	.LVL163
 6287 06bc 24000000 		.4byte	.LFE20
 6288 06c0 0400     		.2byte	0x4
 6289 06c2 F3       		.byte	0xf3
 6290 06c3 01       		.uleb128 0x1
 6291 06c4 51       		.byte	0x51
 6292 06c5 9F       		.byte	0x9f
 6293 06c6 00000000 		.4byte	0
 6294 06ca 00000000 		.4byte	0
 6295              	.LLST47:
 6296 06ce 00000000 		.4byte	.LVL166
 6297 06d2 26000000 		.4byte	.LVL168
 6298 06d6 0100     		.2byte	0x1
 6299 06d8 50       		.byte	0x50
 6300 06d9 26000000 		.4byte	.LVL168
 6301 06dd 7C020000 		.4byte	.LFE27
 6302 06e1 0200     		.2byte	0x2
 6303 06e3 91       		.byte	0x91
 6304 06e4 50       		.sleb128 -48
 6305 06e5 00000000 		.4byte	0
 6306 06e9 00000000 		.4byte	0
 6307              	.LLST48:
 6308 06ed 00000000 		.4byte	.LVL166
 6309 06f1 1C000000 		.4byte	.LVL167
 6310 06f5 0100     		.2byte	0x1
 6311 06f7 51       		.byte	0x51
 6312 06f8 1C000000 		.4byte	.LVL167
 6313 06fc 7C020000 		.4byte	.LFE27
 6314 0700 0200     		.2byte	0x2
 6315 0702 91       		.byte	0x91
 6316 0703 54       		.sleb128 -44
 6317 0704 00000000 		.4byte	0
 6318 0708 00000000 		.4byte	0
 6319              	.LLST49:
 6320 070c F2010000 		.4byte	.LVL239
ARM GAS  C:\Users\zack.li\AppData\Local\Temp\ccTyLy6m.s 			page 167


 6321 0710 F6010000 		.4byte	.LVL240
 6322 0714 0600     		.2byte	0x6
 6323 0716 0C       		.byte	0xc
 6324 0717 00366E01 		.4byte	0x16e3600
 6325 071b 9F       		.byte	0x9f
 6326 071c F6010000 		.4byte	.LVL240
 6327 0720 28020000 		.4byte	.LVL246
 6328 0724 0100     		.2byte	0x1
 6329 0726 51       		.byte	0x51
 6330 0727 00000000 		.4byte	0
 6331 072b 00000000 		.4byte	0
 6332              	.LLST50:
 6333 072f 26000000 		.4byte	.LVL168
 6334 0733 C8000000 		.4byte	.LVL184
 6335 0737 0200     		.2byte	0x2
 6336 0739 91       		.byte	0x91
 6337 073a 54       		.sleb128 -44
 6338 073b 1C010000 		.4byte	.LVL200
 6339 073f 4E010000 		.4byte	.LVL210
 6340 0743 0200     		.2byte	0x2
 6341 0745 91       		.byte	0x91
 6342 0746 54       		.sleb128 -44
 6343 0747 00000000 		.4byte	0
 6344 074b 00000000 		.4byte	0
 6345              	.LLST51:
 6346 074f 26000000 		.4byte	.LVL168
 6347 0753 C8000000 		.4byte	.LVL184
 6348 0757 0200     		.2byte	0x2
 6349 0759 91       		.byte	0x91
 6350 075a 50       		.sleb128 -48
 6351 075b 1C010000 		.4byte	.LVL200
 6352 075f 4E010000 		.4byte	.LVL210
 6353 0763 0200     		.2byte	0x2
 6354 0765 91       		.byte	0x91
 6355 0766 50       		.sleb128 -48
 6356 0767 00000000 		.4byte	0
 6357 076b 00000000 		.4byte	0
 6358              	.LLST52:
 6359 076f 40000000 		.4byte	.LVL170
 6360 0773 4A000000 		.4byte	.LVL171
 6361 0777 0200     		.2byte	0x2
 6362 0779 30       		.byte	0x30
 6363 077a 9F       		.byte	0x9f
 6364 077b 4A000000 		.4byte	.LVL171
 6365 077f C4000000 		.4byte	.LVL183
 6366 0783 0200     		.2byte	0x2
 6367 0785 91       		.byte	0x91
 6368 0786 4C       		.sleb128 -52
 6369 0787 C4000000 		.4byte	.LVL183
 6370 078b C8000000 		.4byte	.LVL184
 6371 078f 0100     		.2byte	0x1
 6372 0791 52       		.byte	0x52
 6373 0792 1C010000 		.4byte	.LVL200
 6374 0796 4C010000 		.4byte	.LVL209
 6375 079a 0200     		.2byte	0x2
 6376 079c 91       		.byte	0x91
 6377 079d 4C       		.sleb128 -52
ARM GAS  C:\Users\zack.li\AppData\Local\Temp\ccTyLy6m.s 			page 168


 6378 079e 4C010000 		.4byte	.LVL209
 6379 07a2 4E010000 		.4byte	.LVL210
 6380 07a6 0100     		.2byte	0x1
 6381 07a8 53       		.byte	0x53
 6382 07a9 00000000 		.4byte	0
 6383 07ad 00000000 		.4byte	0
 6384              	.LLST53:
 6385 07b1 26000000 		.4byte	.LVL168
 6386 07b5 66000000 		.4byte	.LVL172
 6387 07b9 0300     		.2byte	0x3
 6388 07bb 09       		.byte	0x9
 6389 07bc FF       		.byte	0xff
 6390 07bd 9F       		.byte	0x9f
 6391 07be 66000000 		.4byte	.LVL172
 6392 07c2 6A000000 		.4byte	.LVL173
 6393 07c6 0200     		.2byte	0x2
 6394 07c8 30       		.byte	0x30
 6395 07c9 9F       		.byte	0x9f
 6396 07ca 6A000000 		.4byte	.LVL173
 6397 07ce 6C000000 		.4byte	.LVL174
 6398 07d2 0300     		.2byte	0x3
 6399 07d4 09       		.byte	0x9
 6400 07d5 FF       		.byte	0xff
 6401 07d6 9F       		.byte	0x9f
 6402 07d7 90000000 		.4byte	.LVL180
 6403 07db 9E000000 		.4byte	.LVL181
 6404 07df 0200     		.2byte	0x2
 6405 07e1 30       		.byte	0x30
 6406 07e2 9F       		.byte	0x9f
 6407 07e3 9E000000 		.4byte	.LVL181
 6408 07e7 A2000000 		.4byte	.LVL182
 6409 07eb 0300     		.2byte	0x3
 6410 07ed 09       		.byte	0x9
 6411 07ee FF       		.byte	0xff
 6412 07ef 9F       		.byte	0x9f
 6413 07f0 A2000000 		.4byte	.LVL182
 6414 07f4 C8000000 		.4byte	.LVL184
 6415 07f8 0200     		.2byte	0x2
 6416 07fa 30       		.byte	0x30
 6417 07fb 9F       		.byte	0x9f
 6418 07fc 1C010000 		.4byte	.LVL200
 6419 0800 22010000 		.4byte	.LVL201
 6420 0804 0200     		.2byte	0x2
 6421 0806 30       		.byte	0x30
 6422 0807 9F       		.byte	0x9f
 6423 0808 22010000 		.4byte	.LVL201
 6424 080c 4E010000 		.4byte	.LVL210
 6425 0810 0300     		.2byte	0x3
 6426 0812 09       		.byte	0x9
 6427 0813 FF       		.byte	0xff
 6428 0814 9F       		.byte	0x9f
 6429 0815 00000000 		.4byte	0
 6430 0819 00000000 		.4byte	0
 6431              	.LLST54:
 6432 081d 66000000 		.4byte	.LVL172
 6433 0821 6C000000 		.4byte	.LVL174
 6434 0825 0300     		.2byte	0x3
ARM GAS  C:\Users\zack.li\AppData\Local\Temp\ccTyLy6m.s 			page 169


 6435 0827 08       		.byte	0x8
 6436 0828 40       		.byte	0x40
 6437 0829 9F       		.byte	0x9f
 6438 082a 6C000000 		.4byte	.LVL174
 6439 082e C4000000 		.4byte	.LVL183
 6440 0832 0100     		.2byte	0x1
 6441 0834 56       		.byte	0x56
 6442 0835 1C010000 		.4byte	.LVL200
 6443 0839 4E010000 		.4byte	.LVL210
 6444 083d 0100     		.2byte	0x1
 6445 083f 56       		.byte	0x56
 6446 0840 00000000 		.4byte	0
 6447 0844 00000000 		.4byte	0
 6448              	.LLST55:
 6449 0848 40000000 		.4byte	.LVL170
 6450 084c 4A000000 		.4byte	.LVL171
 6451 0850 0100     		.2byte	0x1
 6452 0852 50       		.byte	0x50
 6453 0853 4A000000 		.4byte	.LVL171
 6454 0857 C8000000 		.4byte	.LVL184
 6455 085b 0200     		.2byte	0x2
 6456 085d 91       		.byte	0x91
 6457 085e 60       		.sleb128 -32
 6458 085f 1C010000 		.4byte	.LVL200
 6459 0863 4E010000 		.4byte	.LVL210
 6460 0867 0200     		.2byte	0x2
 6461 0869 91       		.byte	0x91
 6462 086a 60       		.sleb128 -32
 6463 086b 00000000 		.4byte	0
 6464 086f 00000000 		.4byte	0
 6465              	.LLST56:
 6466 0873 7E000000 		.4byte	.LVL177
 6467 0877 82000000 		.4byte	.LVL178
 6468 087b 0600     		.2byte	0x6
 6469 087d 0C       		.byte	0xc
 6470 087e 00A60E00 		.4byte	0xea600
 6471 0882 9F       		.byte	0x9f
 6472 0883 82000000 		.4byte	.LVL178
 6473 0887 8C000000 		.4byte	.LVL179
 6474 088b 0300     		.2byte	0x3
 6475 088d 73       		.byte	0x73
 6476 088e 7F       		.sleb128 -1
 6477 088f 9F       		.byte	0x9f
 6478 0890 8C000000 		.4byte	.LVL179
 6479 0894 90000000 		.4byte	.LVL180
 6480 0898 0100     		.2byte	0x1
 6481 089a 53       		.byte	0x53
 6482 089b 2A010000 		.4byte	.LVL203
 6483 089f 30010000 		.4byte	.LVL204
 6484 08a3 0600     		.2byte	0x6
 6485 08a5 0C       		.byte	0xc
 6486 08a6 00A60E00 		.4byte	0xea600
 6487 08aa 9F       		.byte	0x9f
 6488 08ab 30010000 		.4byte	.LVL204
 6489 08af 38010000 		.4byte	.LVL205
 6490 08b3 0300     		.2byte	0x3
 6491 08b5 73       		.byte	0x73
ARM GAS  C:\Users\zack.li\AppData\Local\Temp\ccTyLy6m.s 			page 170


 6492 08b6 7F       		.sleb128 -1
 6493 08b7 9F       		.byte	0x9f
 6494 08b8 38010000 		.4byte	.LVL205
 6495 08bc 3C010000 		.4byte	.LVL206
 6496 08c0 0100     		.2byte	0x1
 6497 08c2 53       		.byte	0x53
 6498 08c3 00000000 		.4byte	0
 6499 08c7 00000000 		.4byte	0
 6500              	.LLST57:
 6501 08cb 26000000 		.4byte	.LVL168
 6502 08cf C8000000 		.4byte	.LVL184
 6503 08d3 0300     		.2byte	0x3
 6504 08d5 77       		.byte	0x77
 6505 08d6 09       		.sleb128 9
 6506 08d7 9F       		.byte	0x9f
 6507 08d8 1C010000 		.4byte	.LVL200
 6508 08dc 4E010000 		.4byte	.LVL210
 6509 08e0 0300     		.2byte	0x3
 6510 08e2 77       		.byte	0x77
 6511 08e3 09       		.sleb128 9
 6512 08e4 9F       		.byte	0x9f
 6513 08e5 00000000 		.4byte	0
 6514 08e9 00000000 		.4byte	0
 6515              	.LLST58:
 6516 08ed 26000000 		.4byte	.LVL168
 6517 08f1 62020000 		.4byte	.LVL258
 6518 08f5 0600     		.2byte	0x6
 6519 08f7 F2       		.byte	0xf2
 6520 08f8 DF120000 		.4byte	.Ldebug_info0+4831
 6521 08fc 00       		.sleb128 0
 6522 08fd 00000000 		.4byte	0
 6523 0901 00000000 		.4byte	0
 6524              	.LLST59:
 6525 0905 26000000 		.4byte	.LVL168
 6526 0909 4A000000 		.4byte	.LVL171
 6527 090d 0400     		.2byte	0x4
 6528 090f 30       		.byte	0x30
 6529 0910 9F       		.byte	0x9f
 6530 0911 93       		.byte	0x93
 6531 0912 01       		.uleb128 0x1
 6532 0913 44010000 		.4byte	.LVL207
 6533 0917 46010000 		.4byte	.LVL208
 6534 091b 1600     		.2byte	0x16
 6535 091d 75       		.byte	0x75
 6536 091e 00       		.sleb128 0
 6537 091f 12       		.byte	0x12
 6538 0920 08       		.byte	0x8
 6539 0921 FF       		.byte	0xff
 6540 0922 1A       		.byte	0x1a
 6541 0923 73       		.byte	0x73
 6542 0924 00       		.sleb128 0
 6543 0925 16       		.byte	0x16
 6544 0926 14       		.byte	0x14
 6545 0927 08       		.byte	0x8
 6546 0928 FF       		.byte	0xff
 6547 0929 1A       		.byte	0x1a
 6548 092a 2B       		.byte	0x2b
ARM GAS  C:\Users\zack.li\AppData\Local\Temp\ccTyLy6m.s 			page 171


 6549 092b 28       		.byte	0x28
 6550 092c 0100     		.2byte	0x1
 6551 092e 16       		.byte	0x16
 6552 092f 13       		.byte	0x13
 6553 0930 9F       		.byte	0x9f
 6554 0931 93       		.byte	0x93
 6555 0932 01       		.uleb128 0x1
 6556 0933 46010000 		.4byte	.LVL208
 6557 0937 4E010000 		.4byte	.LVL210
 6558 093b 1600     		.2byte	0x16
 6559 093d 75       		.byte	0x75
 6560 093e 00       		.sleb128 0
 6561 093f 12       		.byte	0x12
 6562 0940 08       		.byte	0x8
 6563 0941 FF       		.byte	0xff
 6564 0942 1A       		.byte	0x1a
 6565 0943 74       		.byte	0x74
 6566 0944 00       		.sleb128 0
 6567 0945 16       		.byte	0x16
 6568 0946 14       		.byte	0x14
 6569 0947 08       		.byte	0x8
 6570 0948 FF       		.byte	0xff
 6571 0949 1A       		.byte	0x1a
 6572 094a 2B       		.byte	0x2b
 6573 094b 28       		.byte	0x28
 6574 094c 0100     		.2byte	0x1
 6575 094e 16       		.byte	0x16
 6576 094f 13       		.byte	0x13
 6577 0950 9F       		.byte	0x9f
 6578 0951 93       		.byte	0x93
 6579 0952 01       		.uleb128 0x1
 6580 0953 00000000 		.4byte	0
 6581 0957 00000000 		.4byte	0
 6582              	.LLST60:
 6583 095b 66000000 		.4byte	.LVL172
 6584 095f C4000000 		.4byte	.LVL183
 6585 0963 0100     		.2byte	0x1
 6586 0965 55       		.byte	0x55
 6587 0966 1C010000 		.4byte	.LVL200
 6588 096a 22010000 		.4byte	.LVL201
 6589 096e 0100     		.2byte	0x1
 6590 0970 55       		.byte	0x55
 6591 0971 22010000 		.4byte	.LVL201
 6592 0975 4C010000 		.4byte	.LVL209
 6593 0979 0D00     		.2byte	0xd
 6594 097b 91       		.byte	0x91
 6595 097c 4C       		.sleb128 -52
 6596 097d 06       		.byte	0x6
 6597 097e 3A       		.byte	0x3a
 6598 097f 1E       		.byte	0x1e
 6599 0980 91       		.byte	0x91
 6600 0981 5C       		.sleb128 -36
 6601 0982 06       		.byte	0x6
 6602 0983 23       		.byte	0x23
 6603 0984 08       		.uleb128 0x8
 6604 0985 06       		.byte	0x6
 6605 0986 22       		.byte	0x22
ARM GAS  C:\Users\zack.li\AppData\Local\Temp\ccTyLy6m.s 			page 172


 6606 0987 9F       		.byte	0x9f
 6607 0988 00000000 		.4byte	0
 6608 098c 00000000 		.4byte	0
 6609              	.LLST61:
 6610 0990 26000000 		.4byte	.LVL168
 6611 0994 C8000000 		.4byte	.LVL184
 6612 0998 0100     		.2byte	0x1
 6613 099a 57       		.byte	0x57
 6614 099b 1C010000 		.4byte	.LVL200
 6615 099f 4E010000 		.4byte	.LVL210
 6616 09a3 0100     		.2byte	0x1
 6617 09a5 57       		.byte	0x57
 6618 09a6 00000000 		.4byte	0
 6619 09aa 00000000 		.4byte	0
 6620              	.LLST62:
 6621 09ae CC000000 		.4byte	.LVL186
 6622 09b2 D0000000 		.4byte	.LVL187
 6623 09b6 0200     		.2byte	0x2
 6624 09b8 30       		.byte	0x30
 6625 09b9 9F       		.byte	0x9f
 6626 09ba 00000000 		.4byte	0
 6627 09be 00000000 		.4byte	0
 6628              	.LLST63:
 6629 09c2 CC000000 		.4byte	.LVL186
 6630 09c6 E4000000 		.4byte	.LVL189
 6631 09ca 0300     		.2byte	0x3
 6632 09cc 08       		.byte	0x8
 6633 09cd 7F       		.byte	0x7f
 6634 09ce 9F       		.byte	0x9f
 6635 09cf E4000000 		.4byte	.LVL189
 6636 09d3 02010000 		.4byte	.LVL195
 6637 09d7 0100     		.2byte	0x1
 6638 09d9 53       		.byte	0x53
 6639 09da 00000000 		.4byte	0
 6640 09de 00000000 		.4byte	0
 6641              	.LLST64:
 6642 09e2 C8000000 		.4byte	.LVL184
 6643 09e6 1A010000 		.4byte	.LVL199
 6644 09ea 0200     		.2byte	0x2
 6645 09ec 30       		.byte	0x30
 6646 09ed 9F       		.byte	0x9f
 6647 09ee 00000000 		.4byte	0
 6648 09f2 00000000 		.4byte	0
 6649              	.LLST65:
 6650 09f6 CC000000 		.4byte	.LVL186
 6651 09fa E4000000 		.4byte	.LVL189
 6652 09fe 0200     		.2byte	0x2
 6653 0a00 30       		.byte	0x30
 6654 0a01 9F       		.byte	0x9f
 6655 0a02 EA000000 		.4byte	.LVL190
 6656 0a06 F2000000 		.4byte	.LVL191
 6657 0a0a 0200     		.2byte	0x2
 6658 0a0c 30       		.byte	0x30
 6659 0a0d 9F       		.byte	0x9f
 6660 0a0e F2000000 		.4byte	.LVL191
 6661 0a12 F6000000 		.4byte	.LVL193
 6662 0a16 0300     		.2byte	0x3
ARM GAS  C:\Users\zack.li\AppData\Local\Temp\ccTyLy6m.s 			page 173


 6663 0a18 09       		.byte	0x9
 6664 0a19 FF       		.byte	0xff
 6665 0a1a 9F       		.byte	0x9f
 6666 0a1b 00000000 		.4byte	0
 6667 0a1f 00000000 		.4byte	0
 6668              	.LLST66:
 6669 0a23 CC000000 		.4byte	.LVL186
 6670 0a27 04010000 		.4byte	.LVL196
 6671 0a2b 0100     		.2byte	0x1
 6672 0a2d 55       		.byte	0x55
 6673 0a2e 04010000 		.4byte	.LVL196
 6674 0a32 1A010000 		.4byte	.LVL199
 6675 0a36 0300     		.2byte	0x3
 6676 0a38 75       		.byte	0x75
 6677 0a39 01       		.sleb128 1
 6678 0a3a 9F       		.byte	0x9f
 6679 0a3b 00000000 		.4byte	0
 6680 0a3f 00000000 		.4byte	0
 6681              	.LLST67:
 6682 0a43 C8000000 		.4byte	.LVL184
 6683 0a47 1A010000 		.4byte	.LVL199
 6684 0a4b 0100     		.2byte	0x1
 6685 0a4d 57       		.byte	0x57
 6686 0a4e 00000000 		.4byte	0
 6687 0a52 00000000 		.4byte	0
 6688              	.LLST68:
 6689 0a56 CA000000 		.4byte	.LVL185
 6690 0a5a D2000000 		.4byte	.LVL188
 6691 0a5e 0100     		.2byte	0x1
 6692 0a60 53       		.byte	0x53
 6693 0a61 D2000000 		.4byte	.LVL188
 6694 0a65 E4000000 		.4byte	.LVL189
 6695 0a69 0200     		.2byte	0x2
 6696 0a6b 91       		.byte	0x91
 6697 0a6c 4C       		.sleb128 -52
 6698 0a6d E4000000 		.4byte	.LVL189
 6699 0a71 06010000 		.4byte	.LVL197
 6700 0a75 0100     		.2byte	0x1
 6701 0a77 52       		.byte	0x52
 6702 0a78 00000000 		.4byte	0
 6703 0a7c 00000000 		.4byte	0
 6704              	.LLST69:
 6705 0a80 4E010000 		.4byte	.LVL210
 6706 0a84 E6010000 		.4byte	.LVL237
 6707 0a88 0200     		.2byte	0x2
 6708 0a8a 91       		.byte	0x91
 6709 0a8b 54       		.sleb128 -44
 6710 0a8c 00000000 		.4byte	0
 6711 0a90 00000000 		.4byte	0
 6712              	.LLST70:
 6713 0a94 54010000 		.4byte	.LVL211
 6714 0a98 66010000 		.4byte	.LVL212
 6715 0a9c 0200     		.2byte	0x2
 6716 0a9e 30       		.byte	0x30
 6717 0a9f 9F       		.byte	0x9f
 6718 0aa0 66010000 		.4byte	.LVL212
 6719 0aa4 82010000 		.4byte	.LVL219
ARM GAS  C:\Users\zack.li\AppData\Local\Temp\ccTyLy6m.s 			page 174


 6720 0aa8 0100     		.2byte	0x1
 6721 0aaa 52       		.byte	0x52
 6722 0aab B0010000 		.4byte	.LVL228
 6723 0aaf B2010000 		.4byte	.LVL229
 6724 0ab3 0200     		.2byte	0x2
 6725 0ab5 30       		.byte	0x30
 6726 0ab6 9F       		.byte	0x9f
 6727 0ab7 B2010000 		.4byte	.LVL229
 6728 0abb E6010000 		.4byte	.LVL237
 6729 0abf 0100     		.2byte	0x1
 6730 0ac1 55       		.byte	0x55
 6731 0ac2 00000000 		.4byte	0
 6732 0ac6 00000000 		.4byte	0
 6733              	.LLST71:
 6734 0aca 4E010000 		.4byte	.LVL210
 6735 0ace E6010000 		.4byte	.LVL237
 6736 0ad2 0200     		.2byte	0x2
 6737 0ad4 30       		.byte	0x30
 6738 0ad5 9F       		.byte	0x9f
 6739 0ad6 00000000 		.4byte	0
 6740 0ada 00000000 		.4byte	0
 6741              	.LLST72:
 6742 0ade 4E010000 		.4byte	.LVL210
 6743 0ae2 AA010000 		.4byte	.LVL227
 6744 0ae6 0100     		.2byte	0x1
 6745 0ae8 54       		.byte	0x54
 6746 0ae9 00000000 		.4byte	0
 6747 0aed 00000000 		.4byte	0
 6748              	.LLST73:
 6749 0af1 4E010000 		.4byte	.LVL210
 6750 0af5 66010000 		.4byte	.LVL212
 6751 0af9 0100     		.2byte	0x1
 6752 0afb 54       		.byte	0x54
 6753 0afc 66010000 		.4byte	.LVL212
 6754 0b00 78010000 		.4byte	.LVL215
 6755 0b04 0100     		.2byte	0x1
 6756 0b06 55       		.byte	0x55
 6757 0b07 78010000 		.4byte	.LVL215
 6758 0b0b 7E010000 		.4byte	.LVL217
 6759 0b0f 0100     		.2byte	0x1
 6760 0b11 51       		.byte	0x51
 6761 0b12 7E010000 		.4byte	.LVL217
 6762 0b16 A6010000 		.4byte	.LVL226
 6763 0b1a 0100     		.2byte	0x1
 6764 0b1c 55       		.byte	0x55
 6765 0b1d 00000000 		.4byte	0
 6766 0b21 00000000 		.4byte	0
 6767              	.LLST74:
 6768 0b25 54010000 		.4byte	.LVL211
 6769 0b29 8E010000 		.4byte	.LVL222
 6770 0b2d 0100     		.2byte	0x1
 6771 0b2f 50       		.byte	0x50
 6772 0b30 00000000 		.4byte	0
 6773 0b34 00000000 		.4byte	0
 6774              	.LLST75:
 6775 0b38 4E010000 		.4byte	.LVL210
 6776 0b3c 91010000 		.4byte	.LVL223-1
ARM GAS  C:\Users\zack.li\AppData\Local\Temp\ccTyLy6m.s 			page 175


 6777 0b40 0D00     		.2byte	0xd
 6778 0b42 31       		.byte	0x31
 6779 0b43 77       		.byte	0x77
 6780 0b44 00       		.sleb128 0
 6781 0b45 94       		.byte	0x94
 6782 0b46 02       		.byte	0x2
 6783 0b47 0A       		.byte	0xa
 6784 0b48 FFFF     		.2byte	0xffff
 6785 0b4a 1A       		.byte	0x1a
 6786 0b4b 24       		.byte	0x24
 6787 0b4c 31       		.byte	0x31
 6788 0b4d 1C       		.byte	0x1c
 6789 0b4e 9F       		.byte	0x9f
 6790 0b4f 00000000 		.4byte	0
 6791 0b53 00000000 		.4byte	0
 6792              	.LLST76:
 6793 0b57 88010000 		.4byte	.LVL220
 6794 0b5b 8A010000 		.4byte	.LVL221
 6795 0b5f 1100     		.2byte	0x11
 6796 0b61 70       		.byte	0x70
 6797 0b62 00       		.sleb128 0
 6798 0b63 08       		.byte	0x8
 6799 0b64 64       		.byte	0x64
 6800 0b65 1E       		.byte	0x1e
 6801 0b66 F7       		.byte	0xf7
 6802 0b67 25       		.uleb128 0x25
 6803 0b68 73       		.byte	0x73
 6804 0b69 00       		.sleb128 0
 6805 0b6a F7       		.byte	0xf7
 6806 0b6b 25       		.uleb128 0x25
 6807 0b6c 1B       		.byte	0x1b
 6808 0b6d F7       		.byte	0xf7
 6809 0b6e 00       		.uleb128 0
 6810 0b6f 23       		.byte	0x23
 6811 0b70 64       		.uleb128 0x64
 6812 0b71 9F       		.byte	0x9f
 6813 0b72 8A010000 		.4byte	.LVL221
 6814 0b76 8E010000 		.4byte	.LVL222
 6815 0b7a 1200     		.2byte	0x12
 6816 0b7c 70       		.byte	0x70
 6817 0b7d 00       		.sleb128 0
 6818 0b7e 08       		.byte	0x8
 6819 0b7f 64       		.byte	0x64
 6820 0b80 1E       		.byte	0x1e
 6821 0b81 F7       		.byte	0xf7
 6822 0b82 25       		.uleb128 0x25
 6823 0b83 91       		.byte	0x91
 6824 0b84 5C       		.sleb128 -36
 6825 0b85 06       		.byte	0x6
 6826 0b86 F7       		.byte	0xf7
 6827 0b87 25       		.uleb128 0x25
 6828 0b88 1B       		.byte	0x1b
 6829 0b89 F7       		.byte	0xf7
 6830 0b8a 00       		.uleb128 0
 6831 0b8b 23       		.byte	0x23
 6832 0b8c 64       		.uleb128 0x64
 6833 0b8d 9F       		.byte	0x9f
ARM GAS  C:\Users\zack.li\AppData\Local\Temp\ccTyLy6m.s 			page 176


 6834 0b8e CA010000 		.4byte	.LVL231
 6835 0b92 D4010000 		.4byte	.LVL232
 6836 0b96 0100     		.2byte	0x1
 6837 0b98 50       		.byte	0x50
 6838 0b99 E0010000 		.4byte	.LVL236
 6839 0b9d E6010000 		.4byte	.LVL237
 6840 0ba1 0100     		.2byte	0x1
 6841 0ba3 50       		.byte	0x50
 6842 0ba4 00000000 		.4byte	0
 6843 0ba8 00000000 		.4byte	0
 6844              	.LLST77:
 6845 0bac 9C010000 		.4byte	.LVL224
 6846 0bb0 B2010000 		.4byte	.LVL229
 6847 0bb4 0100     		.2byte	0x1
 6848 0bb6 50       		.byte	0x50
 6849 0bb7 00000000 		.4byte	0
 6850 0bbb 00000000 		.4byte	0
 6851              	.LLST78:
 6852 0bbf 4E010000 		.4byte	.LVL210
 6853 0bc3 E6010000 		.4byte	.LVL237
 6854 0bc7 0100     		.2byte	0x1
 6855 0bc9 57       		.byte	0x57
 6856 0bca 00000000 		.4byte	0
 6857 0bce 00000000 		.4byte	0
 6858              	.LLST79:
 6859 0bd2 4E010000 		.4byte	.LVL210
 6860 0bd6 66010000 		.4byte	.LVL212
 6861 0bda 0200     		.2byte	0x2
 6862 0bdc 91       		.byte	0x91
 6863 0bdd 4C       		.sleb128 -52
 6864 0bde 66010000 		.4byte	.LVL212
 6865 0be2 80010000 		.4byte	.LVL218
 6866 0be6 0100     		.2byte	0x1
 6867 0be8 53       		.byte	0x53
 6868 0be9 B0010000 		.4byte	.LVL228
 6869 0bed E6010000 		.4byte	.LVL237
 6870 0bf1 0100     		.2byte	0x1
 6871 0bf3 54       		.byte	0x54
 6872 0bf4 00000000 		.4byte	0
 6873 0bf8 00000000 		.4byte	0
 6874              	.LLST80:
 6875 0bfc 10020000 		.4byte	.LVL242
 6876 0c00 62020000 		.4byte	.LVL258
 6877 0c04 0200     		.2byte	0x2
 6878 0c06 91       		.byte	0x91
 6879 0c07 54       		.sleb128 -44
 6880 0c08 00000000 		.4byte	0
 6881 0c0c 00000000 		.4byte	0
 6882              	.LLST81:
 6883 0c10 10020000 		.4byte	.LVL242
 6884 0c14 62020000 		.4byte	.LVL258
 6885 0c18 0200     		.2byte	0x2
 6886 0c1a 91       		.byte	0x91
 6887 0c1b 50       		.sleb128 -48
 6888 0c1c 00000000 		.4byte	0
 6889 0c20 00000000 		.4byte	0
 6890              	.LLST82:
ARM GAS  C:\Users\zack.li\AppData\Local\Temp\ccTyLy6m.s 			page 177


 6891 0c24 10020000 		.4byte	.LVL242
 6892 0c28 44020000 		.4byte	.LVL252
 6893 0c2c 0200     		.2byte	0x2
 6894 0c2e 30       		.byte	0x30
 6895 0c2f 9F       		.byte	0x9f
 6896 0c30 44020000 		.4byte	.LVL252
 6897 0c34 62020000 		.4byte	.LVL258
 6898 0c38 0100     		.2byte	0x1
 6899 0c3a 52       		.byte	0x52
 6900 0c3b 00000000 		.4byte	0
 6901 0c3f 00000000 		.4byte	0
 6902              	.LLST83:
 6903 0c43 1C020000 		.4byte	.LVL243
 6904 0c47 44020000 		.4byte	.LVL252
 6905 0c4b 0100     		.2byte	0x1
 6906 0c4d 54       		.byte	0x54
 6907 0c4e 50020000 		.4byte	.LVL254
 6908 0c52 5C020000 		.4byte	.LVL256
 6909 0c56 0100     		.2byte	0x1
 6910 0c58 53       		.byte	0x53
 6911 0c59 5C020000 		.4byte	.LVL256
 6912 0c5d 60020000 		.4byte	.LVL257
 6913 0c61 0A00     		.2byte	0xa
 6914 0c63 91       		.byte	0x91
 6915 0c64 4C       		.sleb128 -52
 6916 0c65 06       		.byte	0x6
 6917 0c66 94       		.byte	0x94
 6918 0c67 02       		.byte	0x2
 6919 0c68 0A       		.byte	0xa
 6920 0c69 FFFF     		.2byte	0xffff
 6921 0c6b 1A       		.byte	0x1a
 6922 0c6c 9F       		.byte	0x9f
 6923 0c6d 60020000 		.4byte	.LVL257
 6924 0c71 62020000 		.4byte	.LVL258
 6925 0c75 0900     		.2byte	0x9
 6926 0c77 71       		.byte	0x71
 6927 0c78 00       		.sleb128 0
 6928 0c79 94       		.byte	0x94
 6929 0c7a 02       		.byte	0x2
 6930 0c7b 0A       		.byte	0xa
 6931 0c7c FFFF     		.2byte	0xffff
 6932 0c7e 1A       		.byte	0x1a
 6933 0c7f 9F       		.byte	0x9f
 6934 0c80 00000000 		.4byte	0
 6935 0c84 00000000 		.4byte	0
 6936              	.LLST84:
 6937 0c88 42020000 		.4byte	.LVL251
 6938 0c8c 44020000 		.4byte	.LVL252
 6939 0c90 0200     		.2byte	0x2
 6940 0c92 30       		.byte	0x30
 6941 0c93 9F       		.byte	0x9f
 6942 0c94 00000000 		.4byte	0
 6943 0c98 00000000 		.4byte	0
 6944              	.LLST85:
 6945 0c9c 4C020000 		.4byte	.LVL253
 6946 0ca0 62020000 		.4byte	.LVL258
 6947 0ca4 0200     		.2byte	0x2
ARM GAS  C:\Users\zack.li\AppData\Local\Temp\ccTyLy6m.s 			page 178


 6948 0ca6 30       		.byte	0x30
 6949 0ca7 9F       		.byte	0x9f
 6950 0ca8 00000000 		.4byte	0
 6951 0cac 00000000 		.4byte	0
 6952              	.LLST86:
 6953 0cb0 32020000 		.4byte	.LVL248
 6954 0cb4 38020000 		.4byte	.LVL249
 6955 0cb8 1600     		.2byte	0x16
 6956 0cba 75       		.byte	0x75
 6957 0cbb 00       		.sleb128 0
 6958 0cbc 12       		.byte	0x12
 6959 0cbd 40       		.byte	0x40
 6960 0cbe 4B       		.byte	0x4b
 6961 0cbf 24       		.byte	0x24
 6962 0cc0 22       		.byte	0x22
 6963 0cc1 08       		.byte	0x8
 6964 0cc2 64       		.byte	0x64
 6965 0cc3 16       		.byte	0x16
 6966 0cc4 14       		.byte	0x14
 6967 0cc5 40       		.byte	0x40
 6968 0cc6 4B       		.byte	0x4b
 6969 0cc7 24       		.byte	0x24
 6970 0cc8 22       		.byte	0x22
 6971 0cc9 2D       		.byte	0x2d
 6972 0cca 28       		.byte	0x28
 6973 0ccb 0100     		.2byte	0x1
 6974 0ccd 16       		.byte	0x16
 6975 0cce 13       		.byte	0x13
 6976 0ccf 9F       		.byte	0x9f
 6977 0cd0 38020000 		.4byte	.LVL249
 6978 0cd4 42020000 		.4byte	.LVL251
 6979 0cd8 1900     		.2byte	0x19
 6980 0cda 91       		.byte	0x91
 6981 0cdb 54       		.sleb128 -44
 6982 0cdc 06       		.byte	0x6
 6983 0cdd 23       		.byte	0x23
 6984 0cde 0A       		.uleb128 0xa
 6985 0cdf 12       		.byte	0x12
 6986 0ce0 40       		.byte	0x40
 6987 0ce1 4B       		.byte	0x4b
 6988 0ce2 24       		.byte	0x24
 6989 0ce3 22       		.byte	0x22
 6990 0ce4 08       		.byte	0x8
 6991 0ce5 64       		.byte	0x64
 6992 0ce6 16       		.byte	0x16
 6993 0ce7 14       		.byte	0x14
 6994 0ce8 40       		.byte	0x40
 6995 0ce9 4B       		.byte	0x4b
 6996 0cea 24       		.byte	0x24
 6997 0ceb 22       		.byte	0x22
 6998 0cec 2D       		.byte	0x2d
 6999 0ced 28       		.byte	0x28
 7000 0cee 0100     		.2byte	0x1
 7001 0cf0 16       		.byte	0x16
 7002 0cf1 13       		.byte	0x13
 7003 0cf2 9F       		.byte	0x9f
 7004 0cf3 42020000 		.4byte	.LVL251
ARM GAS  C:\Users\zack.li\AppData\Local\Temp\ccTyLy6m.s 			page 179


 7005 0cf7 62020000 		.4byte	.LVL258
 7006 0cfb 0100     		.2byte	0x1
 7007 0cfd 50       		.byte	0x50
 7008 0cfe 00000000 		.4byte	0
 7009 0d02 00000000 		.4byte	0
 7010              	.LLST87:
 7011 0d06 1C020000 		.4byte	.LVL243
 7012 0d0a 24020000 		.4byte	.LVL244
 7013 0d0e 0200     		.2byte	0x2
 7014 0d10 30       		.byte	0x30
 7015 0d11 9F       		.byte	0x9f
 7016 0d12 24020000 		.4byte	.LVL244
 7017 0d16 26020000 		.4byte	.LVL245
 7018 0d1a 0100     		.2byte	0x1
 7019 0d1c 50       		.byte	0x50
 7020 0d1d 32020000 		.4byte	.LVL248
 7021 0d21 3A020000 		.4byte	.LVL250
 7022 0d25 0100     		.2byte	0x1
 7023 0d27 50       		.byte	0x50
 7024 0d28 3A020000 		.4byte	.LVL250
 7025 0d2c 62020000 		.4byte	.LVL258
 7026 0d30 0100     		.2byte	0x1
 7027 0d32 56       		.byte	0x56
 7028 0d33 00000000 		.4byte	0
 7029 0d37 00000000 		.4byte	0
 7030              	.LLST88:
 7031 0d3b 10020000 		.4byte	.LVL242
 7032 0d3f 62020000 		.4byte	.LVL258
 7033 0d43 0100     		.2byte	0x1
 7034 0d45 57       		.byte	0x57
 7035 0d46 00000000 		.4byte	0
 7036 0d4a 00000000 		.4byte	0
 7037              	.LLST89:
 7038 0d4e 10020000 		.4byte	.LVL242
 7039 0d52 60020000 		.4byte	.LVL257
 7040 0d56 0200     		.2byte	0x2
 7041 0d58 91       		.byte	0x91
 7042 0d59 4C       		.sleb128 -52
 7043 0d5a 60020000 		.4byte	.LVL257
 7044 0d5e 62020000 		.4byte	.LVL258
 7045 0d62 0100     		.2byte	0x1
 7046 0d64 53       		.byte	0x53
 7047 0d65 00000000 		.4byte	0
 7048 0d69 00000000 		.4byte	0
 7049              		.section	.debug_aranges,"",%progbits
 7050 0000 AC000000 		.4byte	0xac
 7051 0004 0200     		.2byte	0x2
 7052 0006 00000000 		.4byte	.Ldebug_info0
 7053 000a 04       		.byte	0x4
 7054 000b 00       		.byte	0
 7055 000c 0000     		.2byte	0
 7056 000e 0000     		.2byte	0
 7057 0010 00000000 		.4byte	.LFB4
 7058 0014 68000000 		.4byte	.LFE4-.LFB4
 7059 0018 00000000 		.4byte	.LFB2
 7060 001c 0A000000 		.4byte	.LFE2-.LFB2
 7061 0020 00000000 		.4byte	.LFB3
ARM GAS  C:\Users\zack.li\AppData\Local\Temp\ccTyLy6m.s 			page 180


 7062 0024 0A000000 		.4byte	.LFE3-.LFB3
 7063 0028 00000000 		.4byte	.LFB8
 7064 002c 94010000 		.4byte	.LFE8-.LFB8
 7065 0030 00000000 		.4byte	.LFB10
 7066 0034 60000000 		.4byte	.LFE10-.LFB10
 7067 0038 00000000 		.4byte	.LFB11
 7068 003c 30000000 		.4byte	.LFE11-.LFB11
 7069 0040 00000000 		.4byte	.LFB12
 7070 0044 44000000 		.4byte	.LFE12-.LFB12
 7071 0048 00000000 		.4byte	.LFB13
 7072 004c 18000000 		.4byte	.LFE13-.LFB13
 7073 0050 00000000 		.4byte	.LFB16
 7074 0054 10010000 		.4byte	.LFE16-.LFB16
 7075 0058 00000000 		.4byte	.LFB17
 7076 005c 20000000 		.4byte	.LFE17-.LFB17
 7077 0060 00000000 		.4byte	.LFB21
 7078 0064 32000000 		.4byte	.LFE21-.LFB21
 7079 0068 00000000 		.4byte	.LFB18
 7080 006c 8C000000 		.4byte	.LFE18-.LFB18
 7081 0070 00000000 		.4byte	.LFB19
 7082 0074 24000000 		.4byte	.LFE19-.LFB19
 7083 0078 00000000 		.4byte	.LFB22
 7084 007c 70000000 		.4byte	.LFE22-.LFB22
 7085 0080 00000000 		.4byte	.LFB9
 7086 0084 20000000 		.4byte	.LFE9-.LFB9
 7087 0088 00000000 		.4byte	.LFB14
 7088 008c 58000000 		.4byte	.LFE14-.LFB14
 7089 0090 00000000 		.4byte	.LFB15
 7090 0094 64000000 		.4byte	.LFE15-.LFB15
 7091 0098 00000000 		.4byte	.LFB20
 7092 009c 24000000 		.4byte	.LFE20-.LFB20
 7093 00a0 00000000 		.4byte	.LFB27
 7094 00a4 7C020000 		.4byte	.LFE27-.LFB27
 7095 00a8 00000000 		.4byte	0
 7096 00ac 00000000 		.4byte	0
 7097              		.section	.debug_ranges,"",%progbits
 7098              	.Ldebug_ranges0:
 7099 0000 1C000000 		.4byte	.LBB38
 7100 0004 1E000000 		.4byte	.LBE38
 7101 0008 26000000 		.4byte	.LBB43
 7102 000c C4000000 		.4byte	.LBE43
 7103 0010 C6000000 		.4byte	.LBB47
 7104 0014 C8000000 		.4byte	.LBE47
 7105 0018 1C010000 		.4byte	.LBB49
 7106 001c 4E010000 		.4byte	.LBE49
 7107 0020 00000000 		.4byte	0
 7108 0024 00000000 		.4byte	0
 7109 0028 C4000000 		.4byte	.LBB44
 7110 002c C6000000 		.4byte	.LBE44
 7111 0030 C8000000 		.4byte	.LBB48
 7112 0034 1C010000 		.4byte	.LBE48
 7113 0038 00000000 		.4byte	0
 7114 003c 00000000 		.4byte	0
 7115 0040 00000000 		.4byte	.LFB4
 7116 0044 68000000 		.4byte	.LFE4
 7117 0048 00000000 		.4byte	.LFB2
 7118 004c 0A000000 		.4byte	.LFE2
ARM GAS  C:\Users\zack.li\AppData\Local\Temp\ccTyLy6m.s 			page 181


 7119 0050 00000000 		.4byte	.LFB3
 7120 0054 0A000000 		.4byte	.LFE3
 7121 0058 00000000 		.4byte	.LFB8
 7122 005c 94010000 		.4byte	.LFE8
 7123 0060 00000000 		.4byte	.LFB10
 7124 0064 60000000 		.4byte	.LFE10
 7125 0068 00000000 		.4byte	.LFB11
 7126 006c 30000000 		.4byte	.LFE11
 7127 0070 00000000 		.4byte	.LFB12
 7128 0074 44000000 		.4byte	.LFE12
 7129 0078 00000000 		.4byte	.LFB13
 7130 007c 18000000 		.4byte	.LFE13
 7131 0080 00000000 		.4byte	.LFB16
 7132 0084 10010000 		.4byte	.LFE16
 7133 0088 00000000 		.4byte	.LFB17
 7134 008c 20000000 		.4byte	.LFE17
 7135 0090 00000000 		.4byte	.LFB21
 7136 0094 32000000 		.4byte	.LFE21
 7137 0098 00000000 		.4byte	.LFB18
 7138 009c 8C000000 		.4byte	.LFE18
 7139 00a0 00000000 		.4byte	.LFB19
 7140 00a4 24000000 		.4byte	.LFE19
 7141 00a8 00000000 		.4byte	.LFB22
 7142 00ac 70000000 		.4byte	.LFE22
 7143 00b0 00000000 		.4byte	.LFB9
 7144 00b4 20000000 		.4byte	.LFE9
 7145 00b8 00000000 		.4byte	.LFB14
 7146 00bc 58000000 		.4byte	.LFE14
 7147 00c0 00000000 		.4byte	.LFB15
 7148 00c4 64000000 		.4byte	.LFE15
 7149 00c8 00000000 		.4byte	.LFB20
 7150 00cc 24000000 		.4byte	.LFE20
 7151 00d0 00000000 		.4byte	.LFB27
 7152 00d4 7C020000 		.4byte	.LFE27
 7153 00d8 00000000 		.4byte	0
 7154 00dc 00000000 		.4byte	0
 7155              		.section	.debug_line,"",%progbits
 7156              	.Ldebug_line0:
 7157 0000 0F050000 		.section	.debug_str,"MS",%progbits,1
 7157      0200BA00 
 7157      00000201 
 7157      FB0E0D00 
 7157      01010101 
 7158              	.LASF102:
 7159 0000 43617053 		.ascii	"CapSense_SsSetShieldDelay\000"
 7159      656E7365 
 7159      5F537353 
 7159      65745368 
 7159      69656C64 
 7160              	.LASF123:
 7161 001a 69646163 		.ascii	"idacBRegValue\000"
 7161      42526567 
 7161      56616C75 
 7161      6500
 7162              	.LASF40:
 7163 0028 766F6C5F 		.ascii	"vol_up\000"
 7163      757000
ARM GAS  C:\Users\zack.li\AppData\Local\Temp\ccTyLy6m.s 			page 182


 7164              	.LASF134:
 7165 002f 736E7341 		.ascii	"snsAddrPtr\000"
 7165      64647250 
 7165      747200
 7166              	.LASF127:
 7167 003a 43617053 		.ascii	"CapSense_SsCSDCalculateScanDuration\000"
 7167      656E7365 
 7167      5F537343 
 7167      53444361 
 7167      6C63756C 
 7168              	.LASF180:
 7169 005e 43617053 		.ascii	"CapSense_shieldIoList\000"
 7169      656E7365 
 7169      5F736869 
 7169      656C6449 
 7169      6F4C6973 
 7170              	.LASF38:
 7171 0074 70726F78 		.ascii	"proxTouchTh\000"
 7171      546F7563 
 7171      68546800 
 7172              	.LASF181:
 7173 0080 43617053 		.ascii	"CapSense_widgetIndex\000"
 7173      656E7365 
 7173      5F776964 
 7173      67657449 
 7173      6E646578 
 7174              	.LASF66:
 7175 0095 736E7254 		.ascii	"snrTestWidgetId\000"
 7175      65737457 
 7175      69646765 
 7175      74496400 
 7176              	.LASF19:
 7177 00a5 43617053 		.ascii	"CapSense_UNDEFINED_E\000"
 7177      656E7365 
 7177      5F554E44 
 7177      4546494E 
 7177      45445F45 
 7178              	.LASF167:
 7179 00ba 694D6F64 		.ascii	"iMod\000"
 7179      00
 7180              	.LASF0:
 7181 00bf 756E7369 		.ascii	"unsigned int\000"
 7181      676E6564 
 7181      20696E74 
 7181      00
 7182              	.LASF170:
 7183 00cc 63616C69 		.ascii	"calibrateStatus\000"
 7183      62726174 
 7183      65537461 
 7183      74757300 
 7184              	.LASF57:
 7185 00dc 7363616E 		.ascii	"scanCounter\000"
 7185      436F756E 
 7185      74657200 
 7186              	.LASF149:
 7187 00e8 72617469 		.ascii	"ratio\000"
 7187      6F00
ARM GAS  C:\Users\zack.li\AppData\Local\Temp\ccTyLy6m.s 			page 183


 7188              	.LASF55:
 7189 00ee 6877436C 		.ascii	"hwClock\000"
 7189      6F636B00 
 7190              	.LASF70:
 7191 00f6 7363616E 		.ascii	"scanCsdISC\000"
 7191      43736449 
 7191      534300
 7192              	.LASF110:
 7193 0101 43617053 		.ascii	"CapSense_SsCSDSetShieldElectrodesState\000"
 7193      656E7365 
 7193      5F537343 
 7193      53445365 
 7193      74536869 
 7194              	.LASF104:
 7195 0128 696E7465 		.ascii	"interruptState\000"
 7195      72727570 
 7195      74537461 
 7195      746500
 7196              	.LASF20:
 7197 0137 43617053 		.ascii	"CapSense_SENSE_METHOD_CSD_E\000"
 7197      656E7365 
 7197      5F53454E 
 7197      53455F4D 
 7197      4554484F 
 7198              	.LASF204:
 7199 0153 43617053 		.ascii	"CapSense_SsCSDConfigIDACs\000"
 7199      656E7365 
 7199      5F537343 
 7199      5344436F 
 7199      6E666967 
 7200              	.LASF137:
 7201 016d 70696E48 		.ascii	"pinHSIOMShift\000"
 7201      53494F4D 
 7201      53686966 
 7201      7400
 7202              	.LASF177:
 7203 017b 43617053 		.ascii	"CapSense_eleCsdDisconnectFlag\000"
 7203      656E7365 
 7203      5F656C65 
 7203      43736444 
 7203      6973636F 
 7204              	.LASF196:
 7205 0199 4379496E 		.ascii	"CyIntDisable\000"
 7205      74446973 
 7205      61626C65 
 7205      00
 7206              	.LASF41:
 7207 01a6 766F6C5F 		.ascii	"vol_down\000"
 7207      646F776E 
 7207      00
 7208              	.LASF193:
 7209 01af 43617053 		.ascii	"CapSense_SsSetModClkClockDivider\000"
 7209      656E7365 
 7209      5F537353 
 7209      65744D6F 
 7209      64436C6B 
 7210              	.LASF136:
ARM GAS  C:\Users\zack.li\AppData\Local\Temp\ccTyLy6m.s 			page 184


 7211 01d0 70696E4D 		.ascii	"pinModeShift\000"
 7211      6F646553 
 7211      68696674 
 7211      00
 7212              	.LASF155:
 7213 01dd 736E7349 		.ascii	"snsIndex\000"
 7213      6E646578 
 7213      00
 7214              	.LASF163:
 7215 01e6 43617053 		.ascii	"CapSense_SsCSDNormalizeIdac\000"
 7215      656E7365 
 7215      5F537343 
 7215      53444E6F 
 7215      726D616C 
 7216              	.LASF45:
 7217 0202 43617053 		.ascii	"CapSense_RAM_WD_LIST_STRUCT\000"
 7217      656E7365 
 7217      5F52414D 
 7217      5F57445F 
 7217      4C495354 
 7218              	.LASF150:
 7219 021e 6D617849 		.ascii	"maxIdac\000"
 7219      64616300 
 7220              	.LASF114:
 7221 0226 73686965 		.ascii	"shieldIoPtr\000"
 7221      6C64496F 
 7221      50747200 
 7222              	.LASF141:
 7223 0232 73656E73 		.ascii	"sensorId\000"
 7223      6F724964 
 7223      00
 7224              	.LASF120:
 7225 023b 70747257 		.ascii	"ptrWdgt\000"
 7225      64677400 
 7226              	.LASF32:
 7227 0243 69646163 		.ascii	"idacGainIndex\000"
 7227      4761696E 
 7227      496E6465 
 7227      7800
 7228              	.LASF105:
 7229 0251 6C6F6F70 		.ascii	"loopIndex\000"
 7229      496E6465 
 7229      7800
 7230              	.LASF139:
 7231 025b 43617053 		.ascii	"CapSense_SsCSDConnectSensorExt\000"
 7231      656E7365 
 7231      5F537343 
 7231      5344436F 
 7231      6E6E6563 
 7232              	.LASF12:
 7233 027a 666C6F61 		.ascii	"float\000"
 7233      7400
 7234              	.LASF128:
 7235 0280 43617053 		.ascii	"CapSense_SsCSDTriggerScan\000"
 7235      656E7365 
 7235      5F537343 
 7235      53445472 
ARM GAS  C:\Users\zack.li\AppData\Local\Temp\ccTyLy6m.s 			page 185


 7235      69676765 
 7236              	.LASF81:
 7237 029a 73686966 		.ascii	"shift\000"
 7237      7400
 7238              	.LASF124:
 7239 02a0 736E7343 		.ascii	"snsClkSrc\000"
 7239      6C6B5372 
 7239      6300
 7240              	.LASF129:
 7241 02aa 77617463 		.ascii	"watchdogCounter\000"
 7241      68646F67 
 7241      436F756E 
 7241      74657200 
 7242              	.LASF145:
 7243 02ba 43617053 		.ascii	"CapSense_CSDSetupWidget\000"
 7243      656E7365 
 7243      5F435344 
 7243      53657475 
 7243      70576964 
 7244              	.LASF197:
 7245 02d2 43794465 		.ascii	"CyDelayUs\000"
 7245      6C617955 
 7245      7300
 7246              	.LASF65:
 7247 02dc 736E734C 		.ascii	"snsList\000"
 7247      69737400 
 7248              	.LASF198:
 7249 02e4 43617053 		.ascii	"CapSense_ISR_StartEx\000"
 7249      656E7365 
 7249      5F495352 
 7249      5F537461 
 7249      72744578 
 7250              	.LASF8:
 7251 02f9 6C6F6E67 		.ascii	"long long unsigned int\000"
 7251      206C6F6E 
 7251      6720756E 
 7251      7369676E 
 7251      65642069 
 7252              	.LASF182:
 7253 0310 43617053 		.ascii	"CapSense_sensorIndex\000"
 7253      656E7365 
 7253      5F73656E 
 7253      736F7249 
 7253      6E646578 
 7254              	.LASF82:
 7255 0325 43617053 		.ascii	"CapSense_FLASH_IO_STRUCT\000"
 7255      656E7365 
 7255      5F464C41 
 7255      53485F49 
 7255      4F5F5354 
 7256              	.LASF67:
 7257 033e 736E7254 		.ascii	"snrTestSensorId\000"
 7257      65737453 
 7257      656E736F 
 7257      72496400 
 7258              	.LASF159:
 7259 034e 63616C4D 		.ascii	"calMask\000"
ARM GAS  C:\Users\zack.li\AppData\Local\Temp\ccTyLy6m.s 			page 186


 7259      61736B00 
 7260              	.LASF90:
 7261 0356 77646774 		.ascii	"wdgtType\000"
 7261      54797065 
 7261      00
 7262              	.LASF146:
 7263 035f 43617053 		.ascii	"CapSense_CSDSetupWidgetExt\000"
 7263      656E7365 
 7263      5F435344 
 7263      53657475 
 7263      70576964 
 7264              	.LASF130:
 7265 037a 43617053 		.ascii	"CapSense_SsCSDCmodPrecharge\000"
 7265      656E7365 
 7265      5F537343 
 7265      5344436D 
 7265      6F645072 
 7266              	.LASF107:
 7267 0396 6E657750 		.ascii	"newPinHsiomVal\000"
 7267      696E4873 
 7267      696F6D56 
 7267      616C00
 7268              	.LASF171:
 7269 03a5 72617763 		.ascii	"rawcount\000"
 7269      6F756E74 
 7269      00
 7270              	.LASF135:
 7271 03ae 6E657752 		.ascii	"newRegisterValue\000"
 7271      65676973 
 7271      74657256 
 7271      616C7565 
 7271      00
 7272              	.LASF63:
 7273 03bf 6D6F6443 		.ascii	"modCsdClk\000"
 7273      7364436C 
 7273      6B00
 7274              	.LASF51:
 7275 03c9 43617053 		.ascii	"CapSense_RAM_SNS_STRUCT\000"
 7275      656E7365 
 7275      5F52414D 
 7275      5F534E53 
 7275      5F535452 
 7276              	.LASF154:
 7277 03e1 70747252 		.ascii	"ptrRamWidget\000"
 7277      616D5769 
 7277      64676574 
 7277      00
 7278              	.LASF43:
 7279 03ee 666F726D 		.ascii	"formation\000"
 7279      6174696F 
 7279      6E00
 7280              	.LASF158:
 7281 03f8 74617267 		.ascii	"target\000"
 7281      657400
 7282              	.LASF75:
 7283 03ff 64725074 		.ascii	"drPtr\000"
 7283      7200
ARM GAS  C:\Users\zack.li\AppData\Local\Temp\ccTyLy6m.s 			page 187


 7284              	.LASF199:
 7285 0405 43617053 		.ascii	"CapSense_SsSwitchSensingMode\000"
 7285      656E7365 
 7285      5F537353 
 7285      77697463 
 7285      6853656E 
 7286              	.LASF106:
 7287 0422 6E657750 		.ascii	"newPinPcVal\000"
 7287      696E5063 
 7287      56616C00 
 7288              	.LASF28:
 7289 042e 68797374 		.ascii	"hysteresis\000"
 7289      65726573 
 7289      697300
 7290              	.LASF166:
 7291 0439 7261774C 		.ascii	"rawLevel\000"
 7291      6576656C 
 7291      00
 7292              	.LASF92:
 7293 0442 43617053 		.ascii	"CapSense_FLASH_WD_STRUCT\000"
 7293      656E7365 
 7293      5F464C41 
 7293      53485F57 
 7293      445F5354 
 7294              	.LASF30:
 7295 045b 6C6F7742 		.ascii	"lowBslnRst\000"
 7295      736C6E52 
 7295      737400
 7296              	.LASF164:
 7297 0466 6D696E52 		.ascii	"minRaw\000"
 7297      617700
 7298              	.LASF118:
 7299 046d 43617053 		.ascii	"CapSense_SsCSDSetUpIdacs\000"
 7299      656E7365 
 7299      5F537343 
 7299      53445365 
 7299      74557049 
 7300              	.LASF89:
 7301 0486 746F7461 		.ascii	"totalNumSns\000"
 7301      6C4E756D 
 7301      536E7300 
 7302              	.LASF147:
 7303 0492 43617053 		.ascii	"CapSense_SsCSDDisconnectSnsExt\000"
 7303      656E7365 
 7303      5F537343 
 7303      53444469 
 7303      73636F6E 
 7304              	.LASF151:
 7305 04b1 6D696E49 		.ascii	"minIdac\000"
 7305      64616300 
 7306              	.LASF153:
 7307 04b9 6761696E 		.ascii	"gainIndex\000"
 7307      496E6465 
 7307      7800
 7308              	.LASF26:
 7309 04c3 6E6F6973 		.ascii	"noiseTh\000"
 7309      65546800 
ARM GAS  C:\Users\zack.li\AppData\Local\Temp\ccTyLy6m.s 			page 188


 7310              	.LASF194:
 7311 04cb 4379496E 		.ascii	"CyIntClearPending\000"
 7311      74436C65 
 7311      61725065 
 7311      6E64696E 
 7311      6700
 7312              	.LASF14:
 7313 04dd 63686172 		.ascii	"char\000"
 7313      00
 7314              	.LASF189:
 7315 04e2 43794578 		.ascii	"CyExitCriticalSection\000"
 7315      69744372 
 7315      69746963 
 7315      616C5365 
 7315      6374696F 
 7316              	.LASF191:
 7317 04f8 43617053 		.ascii	"CapSense_DischargeExtCapacitors\000"
 7317      656E7365 
 7317      5F446973 
 7317      63686172 
 7317      67654578 
 7318              	.LASF174:
 7319 0518 43617053 		.ascii	"CapSense_SsCSDGetNumberOfConversions\000"
 7319      656E7365 
 7319      5F537343 
 7319      53444765 
 7319      744E756D 
 7320              	.LASF108:
 7321 053d 746D7050 		.ascii	"tmpPcDrRegValue\000"
 7321      63447252 
 7321      65675661 
 7321      6C756500 
 7322              	.LASF79:
 7323 054d 6873696F 		.ascii	"hsiomShift\000"
 7323      6D536869 
 7323      667400
 7324              	.LASF10:
 7325 0558 75696E74 		.ascii	"uint16\000"
 7325      313600
 7326              	.LASF125:
 7327 055f 636F6E76 		.ascii	"conversionsNum\000"
 7327      65727369 
 7327      6F6E734E 
 7327      756D00
 7328              	.LASF156:
 7329 056e 70747252 		.ascii	"ptrRamSensor\000"
 7329      616D5365 
 7329      6E736F72 
 7329      00
 7330              	.LASF87:
 7331 057b 70747232 		.ascii	"ptr2DebounceArr\000"
 7331      4465626F 
 7331      756E6365 
 7331      41727200 
 7332              	.LASF112:
 7333 058b 43617053 		.ascii	"CapSense_SsCSDDisableShieldElectrodes\000"
 7333      656E7365 
ARM GAS  C:\Users\zack.li\AppData\Local\Temp\ccTyLy6m.s 			page 189


 7333      5F537343 
 7333      53444469 
 7333      7361626C 
 7334              	.LASF24:
 7335 05b1 7265736F 		.ascii	"resolution\000"
 7335      6C757469 
 7335      6F6E00
 7336              	.LASF58:
 7337 05bc 73746174 		.ascii	"status\000"
 7337      757300
 7338              	.LASF18:
 7339 05c3 43617053 		.ascii	"CapSense_LOW_BSLN_RST_TYPE\000"
 7339      656E7365 
 7339      5F4C4F57 
 7339      5F42534C 
 7339      4E5F5253 
 7340              	.LASF50:
 7341 05de 69646163 		.ascii	"idacComp\000"
 7341      436F6D70 
 7341      00
 7342              	.LASF74:
 7343 05e7 70635074 		.ascii	"pcPtr\000"
 7343      7200
 7344              	.LASF7:
 7345 05ed 6C6F6E67 		.ascii	"long long int\000"
 7345      206C6F6E 
 7345      6720696E 
 7345      7400
 7346              	.LASF91:
 7347 05fb 6E756D43 		.ascii	"numCols\000"
 7347      6F6C7300 
 7348              	.LASF111:
 7349 0603 43617053 		.ascii	"CapSense_SsCSDEnableShieldElectrodes\000"
 7349      656E7365 
 7349      5F537343 
 7349      5344456E 
 7349      61626C65 
 7350              	.LASF116:
 7351 0628 43617053 		.ascii	"CapSense_SsCSDInitialize\000"
 7351      656E7365 
 7351      5F537343 
 7351      5344496E 
 7351      69746961 
 7352              	.LASF29:
 7353 0641 6F6E4465 		.ascii	"onDebounce\000"
 7353      626F756E 
 7353      636500
 7354              	.LASF172:
 7355 064c 75707065 		.ascii	"upperLimit\000"
 7355      724C696D 
 7355      697400
 7356              	.LASF148:
 7357 0657 70747246 		.ascii	"ptrFlashWidget\000"
 7357      6C617368 
 7357      57696467 
 7357      657400
 7358              	.LASF64:
ARM GAS  C:\Users\zack.li\AppData\Local\Temp\ccTyLy6m.s 			page 190


 7359 0666 77646774 		.ascii	"wdgtList\000"
 7359      4C697374 
 7359      00
 7360              	.LASF94:
 7361 066f 43617053 		.ascii	"CapSense_FLASH_STRUCT\000"
 7361      656E7365 
 7361      5F464C41 
 7361      53485F53 
 7361      54525543 
 7362              	.LASF192:
 7363 0685 43617053 		.ascii	"CapSense_WriteBitsSafe\000"
 7363      656E7365 
 7363      5F577269 
 7363      74654269 
 7363      74735361 
 7364              	.LASF178:
 7365 069c 43617053 		.ascii	"CapSense_dsRam\000"
 7365      656E7365 
 7365      5F647352 
 7365      616D00
 7366              	.LASF69:
 7367 06ab 736E7254 		.ascii	"snrTestRawCount\000"
 7367      65737452 
 7367      6177436F 
 7367      756E7400 
 7368              	.LASF187:
 7369 06bb 43617053 		.ascii	"CapSense_configCsd\000"
 7369      656E7365 
 7369      5F636F6E 
 7369      66696743 
 7369      736400
 7370              	.LASF27:
 7371 06ce 6E4E6F69 		.ascii	"nNoiseTh\000"
 7371      73655468 
 7371      00
 7372              	.LASF62:
 7373 06d7 63736430 		.ascii	"csd0Config\000"
 7373      436F6E66 
 7373      696700
 7374              	.LASF169:
 7375 06e2 43617053 		.ascii	"CapSense_SsCSDCalibrateCheck\000"
 7375      656E7365 
 7375      5F537343 
 7375      53444361 
 7375      6C696272 
 7376              	.LASF36:
 7377 06ff 43617053 		.ascii	"CapSense_RAM_WD_BASE_STRUCT\000"
 7377      656E7365 
 7377      5F52414D 
 7377      5F57445F 
 7377      42415345 
 7378              	.LASF152:
 7379 071b 66726571 		.ascii	"freqChannel\000"
 7379      4368616E 
 7379      6E656C00 
 7380              	.LASF73:
 7381 0727 6873696F 		.ascii	"hsiomPtr\000"
ARM GAS  C:\Users\zack.li\AppData\Local\Temp\ccTyLy6m.s 			page 191


 7381      6D507472 
 7381      00
 7382              	.LASF11:
 7383 0730 75696E74 		.ascii	"uint32\000"
 7383      333200
 7384              	.LASF86:
 7385 0737 70747232 		.ascii	"ptr2FltrHistory\000"
 7385      466C7472 
 7385      48697374 
 7385      6F727900 
 7386              	.LASF98:
 7387 0747 6761696E 		.ascii	"gainValue\000"
 7387      56616C75 
 7387      6500
 7388              	.LASF185:
 7389 0751 43617053 		.ascii	"CapSense_curSnsIOPtr\000"
 7389      656E7365 
 7389      5F637572 
 7389      536E7349 
 7389      4F507472 
 7390              	.LASF78:
 7391 0766 6D61736B 		.ascii	"mask\000"
 7391      00
 7392              	.LASF202:
 7393 076b 443A5C5F 		.ascii	"D:\\_Project\\_MD\\cypress_button\\EZIIC_button.cyd"
 7393      50726F6A 
 7393      6563745C 
 7393      5F4D445C 
 7393      63797072 
 7394 079a 736E00   		.ascii	"sn\000"
 7395              	.LASF173:
 7396 079d 6C6F7765 		.ascii	"lowerLimit\000"
 7396      724C696D 
 7396      697400
 7397              	.LASF162:
 7398 07a8 7074724D 		.ascii	"ptrMaxIdac\000"
 7398      61784964 
 7398      616300
 7399              	.LASF165:
 7400 07b3 6D617852 		.ascii	"maxRawLevel\000"
 7400      61774C65 
 7400      76656C00 
 7401              	.LASF115:
 7402 07bf 73616D70 		.ascii	"sampleClkFreqHz\000"
 7402      6C65436C 
 7402      6B467265 
 7402      71487A00 
 7403              	.LASF201:
 7404 07cf 47656E65 		.ascii	"Generated_Source\\PSoC4\\CapSense_SensingCSD_LL.c\000"
 7404      72617465 
 7404      645F536F 
 7404      75726365 
 7404      5C50536F 
 7405              	.LASF23:
 7406 07ff 43617053 		.ascii	"CapSense_SENSE_METHOD_ISX_E\000"
 7406      656E7365 
 7406      5F53454E 
ARM GAS  C:\Users\zack.li\AppData\Local\Temp\ccTyLy6m.s 			page 192


 7406      53455F4D 
 7406      4554484F 
 7407              	.LASF96:
 7408 081b 6C6F6E67 		.ascii	"long double\000"
 7408      20646F75 
 7408      626C6500 
 7409              	.LASF126:
 7410 0827 43617053 		.ascii	"CapSense_SsCSDConfigClock\000"
 7410      656E7365 
 7410      5F537343 
 7410      5344436F 
 7410      6E666967 
 7411              	.LASF16:
 7412 0841 72656733 		.ascii	"reg32\000"
 7412      3200
 7413              	.LASF68:
 7414 0847 736E7254 		.ascii	"snrTestScanCounter\000"
 7414      65737453 
 7414      63616E43 
 7414      6F756E74 
 7414      657200
 7415              	.LASF53:
 7416 085a 636F6E66 		.ascii	"configId\000"
 7416      69674964 
 7416      00
 7417              	.LASF85:
 7418 0863 70747232 		.ascii	"ptr2SnsRam\000"
 7418      536E7352 
 7418      616D00
 7419              	.LASF61:
 7420 086e 736E7353 		.ascii	"snsStatus\000"
 7420      74617475 
 7420      7300
 7421              	.LASF34:
 7422 0878 736E7343 		.ascii	"snsClkSource\000"
 7422      6C6B536F 
 7422      75726365 
 7422      00
 7423              	.LASF203:
 7424 0885 43617053 		.ascii	"CapSense_SsCSDElectrodeCheck\000"
 7424      656E7365 
 7424      5F537343 
 7424      5344456C 
 7424      65637472 
 7425              	.LASF3:
 7426 08a2 73686F72 		.ascii	"short int\000"
 7426      7420696E 
 7426      7400
 7427              	.LASF144:
 7428 08ac 6E657748 		.ascii	"newHsiomRegValue\000"
 7428      73696F6D 
 7428      52656756 
 7428      616C7565 
 7428      00
 7429              	.LASF72:
 7430 08bd 43617053 		.ascii	"CapSense_RAM_STRUCT\000"
 7430      656E7365 
ARM GAS  C:\Users\zack.li\AppData\Local\Temp\ccTyLy6m.s 			page 193


 7430      5F52414D 
 7430      5F535452 
 7430      55435400 
 7431              	.LASF142:
 7432 08d1 43617053 		.ascii	"CapSense_CSDDisconnectSns\000"
 7432      656E7365 
 7432      5F435344 
 7432      44697363 
 7432      6F6E6E65 
 7433              	.LASF101:
 7434 08eb 43617053 		.ascii	"CapSense_SsCSDSetModeSnsClockDivider\000"
 7434      656E7365 
 7434      5F537343 
 7434      53445365 
 7434      744D6F64 
 7435              	.LASF190:
 7436 0910 43617053 		.ascii	"CapSense_SsSetAllIOsState\000"
 7436      656E7365 
 7436      5F537353 
 7436      6574416C 
 7436      6C494F73 
 7437              	.LASF5:
 7438 092a 6C6F6E67 		.ascii	"long int\000"
 7438      20696E74 
 7438      00
 7439              	.LASF103:
 7440 0933 64656C61 		.ascii	"delay\000"
 7440      7900
 7441              	.LASF59:
 7442 0939 77646774 		.ascii	"wdgtEnable\000"
 7442      456E6162 
 7442      6C6500
 7443              	.LASF48:
 7444 0944 64696666 		.ascii	"diff\000"
 7444      00
 7445              	.LASF131:
 7446 0949 43617053 		.ascii	"CapSense_SsCSDStartSample\000"
 7446      656E7365 
 7446      5F537343 
 7446      53445374 
 7446      61727453 
 7447              	.LASF56:
 7448 0963 74756E65 		.ascii	"tunerCmd\000"
 7448      72436D64 
 7448      00
 7449              	.LASF160:
 7450 096c 74656D70 		.ascii	"temp\000"
 7450      00
 7451              	.LASF21:
 7452 0971 43617053 		.ascii	"CapSense_SENSE_METHOD_CSX_E\000"
 7452      656E7365 
 7452      5F53454E 
 7452      53455F4D 
 7452      4554484F 
 7453              	.LASF76:
 7454 098d 70735074 		.ascii	"psPtr\000"
 7454      7200
ARM GAS  C:\Users\zack.li\AppData\Local\Temp\ccTyLy6m.s 			page 194


 7455              	.LASF122:
 7456 0993 69646163 		.ascii	"idacARegValue\000"
 7456      41526567 
 7456      56616C75 
 7456      6500
 7457              	.LASF175:
 7458 09a1 43617053 		.ascii	"CapSense_CSDCalibrateWidget\000"
 7458      656E7365 
 7458      5F435344 
 7458      43616C69 
 7458      62726174 
 7459              	.LASF97:
 7460 09bd 6761696E 		.ascii	"gainReg\000"
 7460      52656700 
 7461              	.LASF179:
 7462 09c5 43617053 		.ascii	"CapSense_dsFlash\000"
 7462      656E7365 
 7462      5F647346 
 7462      6C617368 
 7462      00
 7463              	.LASF132:
 7464 09d6 43617053 		.ascii	"CapSense_CSDScanExt\000"
 7464      656E7365 
 7464      5F435344 
 7464      5363616E 
 7464      45787400 
 7465              	.LASF60:
 7466 09ea 77646774 		.ascii	"wdgtStatus\000"
 7466      53746174 
 7466      757300
 7467              	.LASF133:
 7468 09f5 43617053 		.ascii	"CapSense_CSDConnectSns\000"
 7468      656E7365 
 7468      5F435344 
 7468      436F6E6E 
 7468      65637453 
 7469              	.LASF200:
 7470 0a0c 474E5520 		.ascii	"GNU C11 5.4.1 20160609 (release) [ARM/embedded-5-br"
 7470      43313120 
 7470      352E342E 
 7470      31203230 
 7470      31363036 
 7471 0a3f 616E6368 		.ascii	"anch revision 237715] -mcpu=cortex-m0plus -mthumb -"
 7471      20726576 
 7471      6973696F 
 7471      6E203233 
 7471      37373135 
 7472 0a72 67202D4F 		.ascii	"g -Os -ffunction-sections -ffat-lto-objects\000"
 7472      73202D66 
 7472      66756E63 
 7472      74696F6E 
 7472      2D736563 
 7473              	.LASF35:
 7474 0a9e 73697A65 		.ascii	"sizetype\000"
 7474      74797065 
 7474      00
 7475              	.LASF80:
ARM GAS  C:\Users\zack.li\AppData\Local\Temp\ccTyLy6m.s 			page 195


 7476 0aa7 64725368 		.ascii	"drShift\000"
 7476      69667400 
 7477              	.LASF6:
 7478 0aaf 6C6F6E67 		.ascii	"long unsigned int\000"
 7478      20756E73 
 7478      69676E65 
 7478      6420696E 
 7478      7400
 7479              	.LASF31:
 7480 0ac1 69646163 		.ascii	"idacMod\000"
 7480      4D6F6400 
 7481              	.LASF168:
 7482 0ac9 43617053 		.ascii	"CapSense_SsCSDSwitchIdacGain\000"
 7482      656E7365 
 7482      5F537343 
 7482      53445377 
 7482      69746368 
 7483              	.LASF44:
 7484 0ae6 70726F78 		.ascii	"prox\000"
 7484      00
 7485              	.LASF25:
 7486 0aeb 66696E67 		.ascii	"fingerTh\000"
 7486      65725468 
 7486      00
 7487              	.LASF47:
 7488 0af4 62736C6E 		.ascii	"bslnExt\000"
 7488      45787400 
 7489              	.LASF99:
 7490 0afc 43617053 		.ascii	"CapSense_IDAC_GAIN_TABLE_STRUCT\000"
 7490      656E7365 
 7490      5F494441 
 7490      435F4741 
 7490      494E5F54 
 7491              	.LASF37:
 7492 0b1c 43617053 		.ascii	"CapSense_RAM_WD_BUTTON_STRUCT\000"
 7492      656E7365 
 7492      5F52414D 
 7492      5F57445F 
 7492      42555454 
 7493              	.LASF15:
 7494 0b3a 63797374 		.ascii	"cystatus\000"
 7494      61747573 
 7494      00
 7495              	.LASF39:
 7496 0b43 43617053 		.ascii	"CapSense_RAM_WD_PROXIMITY_STRUCT\000"
 7496      656E7365 
 7496      5F52414D 
 7496      5F57445F 
 7496      50524F58 
 7497              	.LASF113:
 7498 0b64 43617053 		.ascii	"CapSense_SsCSDSetFilterDelay\000"
 7498      656E7365 
 7498      5F537343 
 7498      53445365 
 7498      7446696C 
 7499              	.LASF2:
 7500 0b81 756E7369 		.ascii	"unsigned char\000"
ARM GAS  C:\Users\zack.li\AppData\Local\Temp\ccTyLy6m.s 			page 196


 7500      676E6564 
 7500      20636861 
 7500      7200
 7501              	.LASF109:
 7502 0b8f 746D7048 		.ascii	"tmpHsiomRegValue\000"
 7502      73696F6D 
 7502      52656756 
 7502      616C7565 
 7502      00
 7503              	.LASF88:
 7504 0ba0 73746174 		.ascii	"staticConfig\000"
 7504      6963436F 
 7504      6E666967 
 7504      00
 7505              	.LASF71:
 7506 0bad 7363616E 		.ascii	"scanCurrentISC\000"
 7506      43757272 
 7506      656E7449 
 7506      534300
 7507              	.LASF84:
 7508 0bbc 70747232 		.ascii	"ptr2WdgtRam\000"
 7508      57646774 
 7508      52616D00 
 7509              	.LASF17:
 7510 0bc8 43617053 		.ascii	"CapSense_THRESHOLD_TYPE\000"
 7510      656E7365 
 7510      5F544852 
 7510      4553484F 
 7510      4C445F54 
 7511              	.LASF95:
 7512 0be0 43617053 		.ascii	"CapSense_SHIELD_IO_STRUCT\000"
 7512      656E7365 
 7512      5F534849 
 7512      454C445F 
 7512      494F5F53 
 7513              	.LASF138:
 7514 0bfa 43617053 		.ascii	"CapSense_CSDScan\000"
 7514      656E7365 
 7514      5F435344 
 7514      5363616E 
 7514      00
 7515              	.LASF22:
 7516 0c0b 43617053 		.ascii	"CapSense_SENSE_METHOD_BIST_E\000"
 7516      656E7365 
 7516      5F53454E 
 7516      53455F4D 
 7516      4554484F 
 7517              	.LASF119:
 7518 0c28 73746174 		.ascii	"state\000"
 7518      6500
 7519              	.LASF77:
 7520 0c2e 6873696F 		.ascii	"hsiomMask\000"
 7520      6D4D6173 
 7520      6B00
 7521              	.LASF195:
 7522 0c38 4379496E 		.ascii	"CyIntEnable\000"
 7522      74456E61 
ARM GAS  C:\Users\zack.li\AppData\Local\Temp\ccTyLy6m.s 			page 197


 7522      626C6500 
 7523              	.LASF33:
 7524 0c44 736E7343 		.ascii	"snsClk\000"
 7524      6C6B00
 7525              	.LASF176:
 7526 0c4b 6761696E 		.ascii	"gainSwitch\000"
 7526      53776974 
 7526      636800
 7527              	.LASF188:
 7528 0c56 4379456E 		.ascii	"CyEnterCriticalSection\000"
 7528      74657243 
 7528      72697469 
 7528      63616C53 
 7528      65637469 
 7529              	.LASF183:
 7530 0c6d 43617053 		.ascii	"CapSense_curRamSnsPtr\000"
 7530      656E7365 
 7530      5F637572 
 7530      52616D53 
 7530      6E735074 
 7531              	.LASF1:
 7532 0c83 7369676E 		.ascii	"signed char\000"
 7532      65642063 
 7532      68617200 
 7533              	.LASF184:
 7534 0c8f 43617053 		.ascii	"CapSense_scanFreqIndex\000"
 7534      656E7365 
 7534      5F736361 
 7534      6E467265 
 7534      71496E64 
 7535              	.LASF46:
 7536 0ca6 62736C6E 		.ascii	"bsln\000"
 7536      00
 7537              	.LASF4:
 7538 0cab 73686F72 		.ascii	"short unsigned int\000"
 7538      7420756E 
 7538      7369676E 
 7538      65642069 
 7538      6E7400
 7539              	.LASF42:
 7540 0cbe 706C6179 		.ascii	"play_pause\000"
 7540      5F706175 
 7540      736500
 7541              	.LASF83:
 7542 0cc9 70747232 		.ascii	"ptr2SnsFlash\000"
 7542      536E7346 
 7542      6C617368 
 7542      00
 7543              	.LASF117:
 7544 0cd6 6E657752 		.ascii	"newRegValue\000"
 7544      65675661 
 7544      6C756500 
 7545              	.LASF9:
 7546 0ce2 75696E74 		.ascii	"uint8\000"
 7546      3800
 7547              	.LASF13:
 7548 0ce8 646F7562 		.ascii	"double\000"
ARM GAS  C:\Users\zack.li\AppData\Local\Temp\ccTyLy6m.s 			page 198


 7548      6C6500
 7549              	.LASF49:
 7550 0cef 6E656742 		.ascii	"negBslnRstCnt\000"
 7550      736C6E52 
 7550      7374436E 
 7550      7400
 7551              	.LASF157:
 7552 0cfd 43617053 		.ascii	"CapSense_SsCSDCalibrate\000"
 7552      656E7365 
 7552      5F537343 
 7552      53444361 
 7552      6C696272 
 7553              	.LASF161:
 7554 0d15 70747249 		.ascii	"ptrIdacMod\000"
 7554      6461634D 
 7554      6F6400
 7555              	.LASF100:
 7556 0d20 736E7343 		.ascii	"snsClkDivider\000"
 7556      6C6B4469 
 7556      76696465 
 7556      7200
 7557              	.LASF121:
 7558 0d2e 69646163 		.ascii	"idacGain\000"
 7558      4761696E 
 7558      00
 7559              	.LASF54:
 7560 0d37 64657669 		.ascii	"deviceId\000"
 7560      63654964 
 7560      00
 7561              	.LASF140:
 7562 0d40 77696467 		.ascii	"widgetId\000"
 7562      65744964 
 7562      00
 7563              	.LASF143:
 7564 0d49 6E657750 		.ascii	"newPcRegValue\000"
 7564      63526567 
 7564      56616C75 
 7564      6500
 7565              	.LASF186:
 7566 0d57 43617053 		.ascii	"CapSense_idacGainTable\000"
 7566      656E7365 
 7566      5F696461 
 7566      63476169 
 7566      6E546162 
 7567              	.LASF52:
 7568 0d6e 43617053 		.ascii	"CapSense_RAM_SNS_LIST_STRUCT\000"
 7568      656E7365 
 7568      5F52414D 
 7568      5F534E53 
 7568      5F4C4953 
 7569              	.LASF93:
 7570 0d8b 77646774 		.ascii	"wdgtArray\000"
 7570      41727261 
 7570      7900
 7571              		.ident	"GCC: (GNU Tools for ARM Embedded Processors) 5.4.1 20160609 (release) [ARM/embedded-5-bran
