ARM GAS  C:\Users\zack.li\AppData\Local\Temp\ccZi1DuV.s 			page 1


   1              		.syntax unified
   2              		.cpu cortex-m0plus
   3              		.fpu softvfp
   4              		.eabi_attribute 20, 1
   5              		.eabi_attribute 21, 1
   6              		.eabi_attribute 23, 3
   7              		.eabi_attribute 24, 1
   8              		.eabi_attribute 25, 1
   9              		.eabi_attribute 26, 1
  10              		.eabi_attribute 30, 4
  11              		.eabi_attribute 34, 0
  12              		.eabi_attribute 18, 4
  13              		.thumb
  14              		.syntax unified
  15              		.file	"CapSense_Filter.c"
  16              		.text
  17              	.Ltext0:
  18              		.cfi_sections	.debug_frame
  19              		.section	.text.CapSense_FtInitializeBaselineChannel,"ax",%progbits
  20              		.align	1
  21              		.global	CapSense_FtInitializeBaselineChannel
  22              		.code	16
  23              		.thumb_func
  24              		.type	CapSense_FtInitializeBaselineChannel, %function
  25              	CapSense_FtInitializeBaselineChannel:
  26              	.LFB10:
  27              		.file 1 "Generated_Source\\PSoC4\\CapSense_Filter.c"
   1:Generated_Source\PSoC4/CapSense_Filter.c **** /***************************************************************************//**
   2:Generated_Source\PSoC4/CapSense_Filter.c **** * \file CapSense_Filter.c
   3:Generated_Source\PSoC4/CapSense_Filter.c **** * \version 7.0
   4:Generated_Source\PSoC4/CapSense_Filter.c **** *
   5:Generated_Source\PSoC4/CapSense_Filter.c **** * \brief
   6:Generated_Source\PSoC4/CapSense_Filter.c **** *   This file contains the implementation source code to implement all
   7:Generated_Source\PSoC4/CapSense_Filter.c **** *   firmware filters.
   8:Generated_Source\PSoC4/CapSense_Filter.c **** *
   9:Generated_Source\PSoC4/CapSense_Filter.c **** * \see CapSense v7.0 Datasheet
  10:Generated_Source\PSoC4/CapSense_Filter.c **** *
  11:Generated_Source\PSoC4/CapSense_Filter.c **** *//*****************************************************************************
  12:Generated_Source\PSoC4/CapSense_Filter.c **** * Copyright (2016-2019), Cypress Semiconductor Corporation.
  13:Generated_Source\PSoC4/CapSense_Filter.c **** ********************************************************************************
  14:Generated_Source\PSoC4/CapSense_Filter.c **** * This software is owned by Cypress Semiconductor Corporation (Cypress) and is
  15:Generated_Source\PSoC4/CapSense_Filter.c **** * protected by and subject to worldwide patent protection (United States and
  16:Generated_Source\PSoC4/CapSense_Filter.c **** * foreign), United States copyright laws and international treaty provisions.
  17:Generated_Source\PSoC4/CapSense_Filter.c **** * Cypress hereby grants to licensee a personal, non-exclusive, non-transferable
  18:Generated_Source\PSoC4/CapSense_Filter.c **** * license to copy, use, modify, create derivative works of, and compile the
  19:Generated_Source\PSoC4/CapSense_Filter.c **** * Cypress Source Code and derivative works for the sole purpose of creating
  20:Generated_Source\PSoC4/CapSense_Filter.c **** * custom software in support of licensee product to be used only in conjunction
  21:Generated_Source\PSoC4/CapSense_Filter.c **** * with a Cypress integrated circuit as specified in the applicable agreement.
  22:Generated_Source\PSoC4/CapSense_Filter.c **** * Any reproduction, modification, translation, compilation, or representation of
  23:Generated_Source\PSoC4/CapSense_Filter.c **** * this software except as specified above is prohibited without the express
  24:Generated_Source\PSoC4/CapSense_Filter.c **** * written permission of Cypress.
  25:Generated_Source\PSoC4/CapSense_Filter.c **** *
  26:Generated_Source\PSoC4/CapSense_Filter.c **** * Disclaimer: CYPRESS MAKES NO WARRANTY OF ANY KIND, EXPRESS OR IMPLIED, WITH
  27:Generated_Source\PSoC4/CapSense_Filter.c **** * REGARD TO THIS MATERIAL, INCLUDING, BUT NOT LIMITED TO, THE IMPLIED
  28:Generated_Source\PSoC4/CapSense_Filter.c **** * WARRANTIES OF MERCHANTABILITY AND FITNESS FOR A PARTICULAR PURPOSE.
  29:Generated_Source\PSoC4/CapSense_Filter.c **** * Cypress reserves the right to make changes without further notice to the
  30:Generated_Source\PSoC4/CapSense_Filter.c **** * materials described herein. Cypress does not assume any liability arising out
ARM GAS  C:\Users\zack.li\AppData\Local\Temp\ccZi1DuV.s 			page 2


  31:Generated_Source\PSoC4/CapSense_Filter.c **** * of the application or use of any product or circuit described herein. Cypress
  32:Generated_Source\PSoC4/CapSense_Filter.c **** * does not authorize its products for use as critical components in life-support
  33:Generated_Source\PSoC4/CapSense_Filter.c **** * systems where a malfunction or failure may reasonably be expected to result in
  34:Generated_Source\PSoC4/CapSense_Filter.c **** * significant injury to the user. The inclusion of Cypress' product in a life-
  35:Generated_Source\PSoC4/CapSense_Filter.c **** * support systems application implies that the manufacturer assumes all risk of
  36:Generated_Source\PSoC4/CapSense_Filter.c **** * such use and in doing so indemnifies Cypress against all charges. Use may be
  37:Generated_Source\PSoC4/CapSense_Filter.c **** * limited by and subject to the applicable Cypress software license agreement.
  38:Generated_Source\PSoC4/CapSense_Filter.c **** *******************************************************************************/
  39:Generated_Source\PSoC4/CapSense_Filter.c **** 
  40:Generated_Source\PSoC4/CapSense_Filter.c **** #include "CapSense_Filter.h"
  41:Generated_Source\PSoC4/CapSense_Filter.c **** #include "CapSense_Configuration.h"
  42:Generated_Source\PSoC4/CapSense_Filter.c **** 
  43:Generated_Source\PSoC4/CapSense_Filter.c **** #if (0 != (CapSense_CSD_AUTOTUNE & CapSense_CSD_SS_TH_EN))
  44:Generated_Source\PSoC4/CapSense_Filter.c ****     #include "CapSense_SmartSense_LL.h"
  45:Generated_Source\PSoC4/CapSense_Filter.c **** #endif /* (0 != (CapSense_CSD_AUTOTUNE & CapSense_CSD_SS_TH_EN)) */
  46:Generated_Source\PSoC4/CapSense_Filter.c **** 
  47:Generated_Source\PSoC4/CapSense_Filter.c **** #if (CapSense_ENABLE == CapSense_SELF_TEST_EN)
  48:Generated_Source\PSoC4/CapSense_Filter.c ****     #include "CapSense_SelfTest.h"
  49:Generated_Source\PSoC4/CapSense_Filter.c **** #endif
  50:Generated_Source\PSoC4/CapSense_Filter.c **** 
  51:Generated_Source\PSoC4/CapSense_Filter.c **** /*******************************************************************************
  52:Generated_Source\PSoC4/CapSense_Filter.c **** * Function Name: CapSense_FtInitialize
  53:Generated_Source\PSoC4/CapSense_Filter.c **** ****************************************************************************//**
  54:Generated_Source\PSoC4/CapSense_Filter.c **** *
  55:Generated_Source\PSoC4/CapSense_Filter.c **** * \brief
  56:Generated_Source\PSoC4/CapSense_Filter.c **** *  Initializes all the firmware filter history, except the baseline filter.
  57:Generated_Source\PSoC4/CapSense_Filter.c **** *
  58:Generated_Source\PSoC4/CapSense_Filter.c **** * \details
  59:Generated_Source\PSoC4/CapSense_Filter.c **** *  Initializes all the firmware filter history, except the baseline filter.
  60:Generated_Source\PSoC4/CapSense_Filter.c **** *
  61:Generated_Source\PSoC4/CapSense_Filter.c **** *******************************************************************************/
  62:Generated_Source\PSoC4/CapSense_Filter.c **** void CapSense_FtInitialize(void)
  63:Generated_Source\PSoC4/CapSense_Filter.c **** {
  64:Generated_Source\PSoC4/CapSense_Filter.c ****     #if ((CapSense_ENABLE == CapSense_RC_FILTER_EN) || \
  65:Generated_Source\PSoC4/CapSense_Filter.c ****          (0u != (CapSense_CSD_AUTOTUNE & CapSense_CSD_SS_TH_EN)))
  66:Generated_Source\PSoC4/CapSense_Filter.c ****         CapSense_InitializeAllFilters();
  67:Generated_Source\PSoC4/CapSense_Filter.c ****     #endif /* ((CapSense_ENABLE == CapSense_RC_FILTER_EN) || \
  68:Generated_Source\PSoC4/CapSense_Filter.c ****                (0u != (CapSense_CSD_AUTOTUNE & CapSense_CSD_SS_TH_EN))) */
  69:Generated_Source\PSoC4/CapSense_Filter.c **** }
  70:Generated_Source\PSoC4/CapSense_Filter.c **** 
  71:Generated_Source\PSoC4/CapSense_Filter.c **** 
  72:Generated_Source\PSoC4/CapSense_Filter.c **** /*******************************************************************************
  73:Generated_Source\PSoC4/CapSense_Filter.c **** * Function Name: CapSense_UpdateAllBaselines
  74:Generated_Source\PSoC4/CapSense_Filter.c **** ****************************************************************************//**
  75:Generated_Source\PSoC4/CapSense_Filter.c **** *
  76:Generated_Source\PSoC4/CapSense_Filter.c **** * \brief
  77:Generated_Source\PSoC4/CapSense_Filter.c **** *  Updates the baseline for all the sensors in all the widgets.
  78:Generated_Source\PSoC4/CapSense_Filter.c **** *
  79:Generated_Source\PSoC4/CapSense_Filter.c **** * \details
  80:Generated_Source\PSoC4/CapSense_Filter.c **** *  Updates the baseline for all the sensors in all the widgets. Baseline updating is a
  81:Generated_Source\PSoC4/CapSense_Filter.c **** *  part of data processing performed by the process functions. So, no need to
  82:Generated_Source\PSoC4/CapSense_Filter.c **** *  call this function except a specific process flow is implemented.
  83:Generated_Source\PSoC4/CapSense_Filter.c **** *
  84:Generated_Source\PSoC4/CapSense_Filter.c **** *  This function ignores the value of the wdgtEnable register. Multiple calling
  85:Generated_Source\PSoC4/CapSense_Filter.c **** *  of this function (or any other function with a baseline updating task)
  86:Generated_Source\PSoC4/CapSense_Filter.c **** *  without scanning leads to unexpected behavior.
  87:Generated_Source\PSoC4/CapSense_Filter.c **** *
ARM GAS  C:\Users\zack.li\AppData\Local\Temp\ccZi1DuV.s 			page 3


  88:Generated_Source\PSoC4/CapSense_Filter.c **** *  If the Self-test library is enabled, this function executes the baseline duplication
  89:Generated_Source\PSoC4/CapSense_Filter.c **** *  test. Refer to CapSense_CheckBaselineDuplication() for details.
  90:Generated_Source\PSoC4/CapSense_Filter.c **** *
  91:Generated_Source\PSoC4/CapSense_Filter.c **** * \return
  92:Generated_Source\PSoC4/CapSense_Filter.c **** *  Returns the status of the update baseline operation of all the widgets:
  93:Generated_Source\PSoC4/CapSense_Filter.c **** *  - CYRET_SUCCESS - The operation is successfully completed.
  94:Generated_Source\PSoC4/CapSense_Filter.c **** *  - CYRET_BAD_DATA - The baseline processing failed.
  95:Generated_Source\PSoC4/CapSense_Filter.c **** *
  96:Generated_Source\PSoC4/CapSense_Filter.c **** *******************************************************************************/
  97:Generated_Source\PSoC4/CapSense_Filter.c **** cystatus CapSense_UpdateAllBaselines(void)
  98:Generated_Source\PSoC4/CapSense_Filter.c **** {
  99:Generated_Source\PSoC4/CapSense_Filter.c ****     uint32 widgetId;
 100:Generated_Source\PSoC4/CapSense_Filter.c ****     cystatus bslnStatus = CYRET_SUCCESS;
 101:Generated_Source\PSoC4/CapSense_Filter.c **** 
 102:Generated_Source\PSoC4/CapSense_Filter.c ****     for(widgetId = CapSense_TOTAL_WIDGETS; widgetId-- > 0u;)
 103:Generated_Source\PSoC4/CapSense_Filter.c ****     {
 104:Generated_Source\PSoC4/CapSense_Filter.c ****         bslnStatus |= CapSense_UpdateWidgetBaseline(widgetId);
 105:Generated_Source\PSoC4/CapSense_Filter.c ****     }
 106:Generated_Source\PSoC4/CapSense_Filter.c **** 
 107:Generated_Source\PSoC4/CapSense_Filter.c ****     return(bslnStatus);
 108:Generated_Source\PSoC4/CapSense_Filter.c **** }
 109:Generated_Source\PSoC4/CapSense_Filter.c **** 
 110:Generated_Source\PSoC4/CapSense_Filter.c **** 
 111:Generated_Source\PSoC4/CapSense_Filter.c **** /*******************************************************************************
 112:Generated_Source\PSoC4/CapSense_Filter.c **** * Function Name: CapSense_UpdateWidgetBaseline
 113:Generated_Source\PSoC4/CapSense_Filter.c **** ****************************************************************************//**
 114:Generated_Source\PSoC4/CapSense_Filter.c **** *
 115:Generated_Source\PSoC4/CapSense_Filter.c **** * \brief
 116:Generated_Source\PSoC4/CapSense_Filter.c **** *  Updates the baselines for all the sensors in a widget specified by the input
 117:Generated_Source\PSoC4/CapSense_Filter.c **** *  parameter.
 118:Generated_Source\PSoC4/CapSense_Filter.c **** *
 119:Generated_Source\PSoC4/CapSense_Filter.c **** * \details
 120:Generated_Source\PSoC4/CapSense_Filter.c **** *  This function performs exactly the same tasks as
 121:Generated_Source\PSoC4/CapSense_Filter.c **** *  CapSense_UpdateAllBaselines() but only for a specified widget.
 122:Generated_Source\PSoC4/CapSense_Filter.c **** *
 123:Generated_Source\PSoC4/CapSense_Filter.c **** *  This function ignores the value of the wdgtEnable register. Multiple calling
 124:Generated_Source\PSoC4/CapSense_Filter.c **** *  of this function (or any other function with a baseline updating task)
 125:Generated_Source\PSoC4/CapSense_Filter.c **** *  without scanning leads to unexpected behavior.
 126:Generated_Source\PSoC4/CapSense_Filter.c **** *
 127:Generated_Source\PSoC4/CapSense_Filter.c **** *  If the Self-test library is enabled, this function executes the baseline duplication
 128:Generated_Source\PSoC4/CapSense_Filter.c **** *  test. Refer to CapSense_CheckBaselineDuplication() for details.
 129:Generated_Source\PSoC4/CapSense_Filter.c **** *
 130:Generated_Source\PSoC4/CapSense_Filter.c **** * \param widgetId
 131:Generated_Source\PSoC4/CapSense_Filter.c **** *  Specifies the ID number of the widget to update the baseline of all the sensors
 132:Generated_Source\PSoC4/CapSense_Filter.c **** *  in the widget.
 133:Generated_Source\PSoC4/CapSense_Filter.c **** *  A macro for the widget ID can be found in the
 134:Generated_Source\PSoC4/CapSense_Filter.c **** *  CapSense Configuration header file defined as
 135:Generated_Source\PSoC4/CapSense_Filter.c **** *  CapSense_<WidgetName>_WDGT_ID.
 136:Generated_Source\PSoC4/CapSense_Filter.c **** *
 137:Generated_Source\PSoC4/CapSense_Filter.c **** * \return
 138:Generated_Source\PSoC4/CapSense_Filter.c **** *  Returns the status of the specified widget update baseline operation:
 139:Generated_Source\PSoC4/CapSense_Filter.c **** *  - CYRET_SUCCESS - The operation is successfully completed.
 140:Generated_Source\PSoC4/CapSense_Filter.c **** *  - CYRET_BAD_DATA - The baseline processing is failed.
 141:Generated_Source\PSoC4/CapSense_Filter.c **** *
 142:Generated_Source\PSoC4/CapSense_Filter.c **** *******************************************************************************/
 143:Generated_Source\PSoC4/CapSense_Filter.c **** cystatus CapSense_UpdateWidgetBaseline(uint32 widgetId)
 144:Generated_Source\PSoC4/CapSense_Filter.c **** {
ARM GAS  C:\Users\zack.li\AppData\Local\Temp\ccZi1DuV.s 			page 4


 145:Generated_Source\PSoC4/CapSense_Filter.c ****     uint32 sensorId;
 146:Generated_Source\PSoC4/CapSense_Filter.c ****     uint32 sensorsNumber;
 147:Generated_Source\PSoC4/CapSense_Filter.c **** 
 148:Generated_Source\PSoC4/CapSense_Filter.c ****     CapSense_FLASH_WD_STRUCT const *ptrWidget = &CapSense_dsFlash.wdgtArray[widgetId];
 149:Generated_Source\PSoC4/CapSense_Filter.c ****     cystatus bslnStatus = CYRET_SUCCESS;
 150:Generated_Source\PSoC4/CapSense_Filter.c **** 
 151:Generated_Source\PSoC4/CapSense_Filter.c ****     /* Find total amount of sensors in specified widget */
 152:Generated_Source\PSoC4/CapSense_Filter.c ****     sensorsNumber = CapSense_GET_SNS_CNT_BY_PTR(ptrWidget);
 153:Generated_Source\PSoC4/CapSense_Filter.c **** 
 154:Generated_Source\PSoC4/CapSense_Filter.c ****     for(sensorId = sensorsNumber; sensorId-- > 0u;)
 155:Generated_Source\PSoC4/CapSense_Filter.c ****     {
 156:Generated_Source\PSoC4/CapSense_Filter.c ****         bslnStatus |= CapSense_UpdateSensorBaseline(widgetId, sensorId);
 157:Generated_Source\PSoC4/CapSense_Filter.c ****     }
 158:Generated_Source\PSoC4/CapSense_Filter.c **** 
 159:Generated_Source\PSoC4/CapSense_Filter.c ****     return(bslnStatus);
 160:Generated_Source\PSoC4/CapSense_Filter.c **** }
 161:Generated_Source\PSoC4/CapSense_Filter.c **** 
 162:Generated_Source\PSoC4/CapSense_Filter.c **** 
 163:Generated_Source\PSoC4/CapSense_Filter.c **** /*******************************************************************************
 164:Generated_Source\PSoC4/CapSense_Filter.c **** * Function Name: CapSense_UpdateSensorBaseline
 165:Generated_Source\PSoC4/CapSense_Filter.c **** ****************************************************************************//**
 166:Generated_Source\PSoC4/CapSense_Filter.c **** *
 167:Generated_Source\PSoC4/CapSense_Filter.c **** * \brief
 168:Generated_Source\PSoC4/CapSense_Filter.c **** *  Updates the baseline for a sensor in a widget specified by the input parameters.
 169:Generated_Source\PSoC4/CapSense_Filter.c **** *
 170:Generated_Source\PSoC4/CapSense_Filter.c **** * \details
 171:Generated_Source\PSoC4/CapSense_Filter.c **** *  This function performs exactly the same tasks as
 172:Generated_Source\PSoC4/CapSense_Filter.c **** *  CapSense_UpdateAllBaselines() and
 173:Generated_Source\PSoC4/CapSense_Filter.c **** *  CapSense_UpdateWidgetBaseline() but only for a specified sensor.
 174:Generated_Source\PSoC4/CapSense_Filter.c **** *
 175:Generated_Source\PSoC4/CapSense_Filter.c **** *  This function ignores the value of the wdgtEnable register. Multiple calling
 176:Generated_Source\PSoC4/CapSense_Filter.c **** *  of this function (or any other function with a baseline updating task)
 177:Generated_Source\PSoC4/CapSense_Filter.c **** *  without scanning leads to unexpected behavior.
 178:Generated_Source\PSoC4/CapSense_Filter.c **** *
 179:Generated_Source\PSoC4/CapSense_Filter.c **** *  If the Self-test library is enabled, this function executes the baseline duplication
 180:Generated_Source\PSoC4/CapSense_Filter.c **** *  test. Refer to CapSense_CheckBaselineDuplication() for details.
 181:Generated_Source\PSoC4/CapSense_Filter.c **** *
 182:Generated_Source\PSoC4/CapSense_Filter.c **** * \param widgetId
 183:Generated_Source\PSoC4/CapSense_Filter.c **** *  Specifies the ID number of the widget to update the baseline of the sensor
 184:Generated_Source\PSoC4/CapSense_Filter.c **** *  specified by the sensorId argument.
 185:Generated_Source\PSoC4/CapSense_Filter.c **** *  A macro for the widget ID can be found in the CapSense Configuration header
 186:Generated_Source\PSoC4/CapSense_Filter.c **** *  file defined as CapSense_<WidgetName>_WDGT_ID.
 187:Generated_Source\PSoC4/CapSense_Filter.c **** *
 188:Generated_Source\PSoC4/CapSense_Filter.c **** * \param sensorId
 189:Generated_Source\PSoC4/CapSense_Filter.c **** *  Specifies the ID number of the sensor within the widget to update its baseline.
 190:Generated_Source\PSoC4/CapSense_Filter.c **** *  A macro for the sensor ID within a specified widget can be found in the
 191:Generated_Source\PSoC4/CapSense_Filter.c **** *  CapSense Configuration header file defined as
 192:Generated_Source\PSoC4/CapSense_Filter.c **** *  CapSense_<WidgetName>_SNS<SensorNumber>_ID.
 193:Generated_Source\PSoC4/CapSense_Filter.c **** *
 194:Generated_Source\PSoC4/CapSense_Filter.c **** * \return
 195:Generated_Source\PSoC4/CapSense_Filter.c **** *  Returns the status of the specified sensor update baseline operation:
 196:Generated_Source\PSoC4/CapSense_Filter.c **** *  - CYRET_SUCCESS - The operation is successfully completed.
 197:Generated_Source\PSoC4/CapSense_Filter.c **** *  - CYRET_BAD_DATA - The baseline processing failed.
 198:Generated_Source\PSoC4/CapSense_Filter.c **** *
 199:Generated_Source\PSoC4/CapSense_Filter.c **** *******************************************************************************/
 200:Generated_Source\PSoC4/CapSense_Filter.c **** cystatus CapSense_UpdateSensorBaseline(uint32 widgetId, uint32 sensorId)
 201:Generated_Source\PSoC4/CapSense_Filter.c **** {
ARM GAS  C:\Users\zack.li\AppData\Local\Temp\ccZi1DuV.s 			page 5


 202:Generated_Source\PSoC4/CapSense_Filter.c ****     uint32 result = CYRET_SUCCESS;
 203:Generated_Source\PSoC4/CapSense_Filter.c **** 
 204:Generated_Source\PSoC4/CapSense_Filter.c ****     CapSense_RAM_SNS_STRUCT *ptrSensor = NULL;
 205:Generated_Source\PSoC4/CapSense_Filter.c ****     CapSense_FLASH_WD_STRUCT const *ptrWidget = &CapSense_dsFlash.wdgtArray[widgetId];
 206:Generated_Source\PSoC4/CapSense_Filter.c ****     CapSense_RAM_WD_BASE_STRUCT *ptrWidgetRam = (CapSense_RAM_WD_BASE_STRUCT *)ptrWidget->ptr2WdgtR
 207:Generated_Source\PSoC4/CapSense_Filter.c **** 
 208:Generated_Source\PSoC4/CapSense_Filter.c ****     /* Find pointer to specified sensor object */
 209:Generated_Source\PSoC4/CapSense_Filter.c ****     ptrSensor = ptrWidget->ptr2SnsRam;
 210:Generated_Source\PSoC4/CapSense_Filter.c ****     ptrSensor = &ptrSensor[sensorId];
 211:Generated_Source\PSoC4/CapSense_Filter.c ****     result = CapSense_FtUpdateBaseline(ptrWidgetRam, ptrSensor, (uint32)ptrWidget->wdgtType);
 212:Generated_Source\PSoC4/CapSense_Filter.c **** 
 213:Generated_Source\PSoC4/CapSense_Filter.c ****     #if (CapSense_ENABLE == CapSense_TST_BSLN_DUPLICATION_EN)
 214:Generated_Source\PSoC4/CapSense_Filter.c ****         if (CYRET_SUCCESS != result)
 215:Generated_Source\PSoC4/CapSense_Filter.c ****         {
 216:Generated_Source\PSoC4/CapSense_Filter.c ****             result = CYRET_BAD_DATA;
 217:Generated_Source\PSoC4/CapSense_Filter.c ****             CapSense_UpdateTestResultBaselineDuplication(widgetId, sensorId);
 218:Generated_Source\PSoC4/CapSense_Filter.c ****         }
 219:Generated_Source\PSoC4/CapSense_Filter.c ****     #endif /* (CapSense_ENABLE == CapSense_TST_BSLN_DUPLICATION_EN) */
 220:Generated_Source\PSoC4/CapSense_Filter.c **** 
 221:Generated_Source\PSoC4/CapSense_Filter.c ****     return result;
 222:Generated_Source\PSoC4/CapSense_Filter.c **** }
 223:Generated_Source\PSoC4/CapSense_Filter.c **** 
 224:Generated_Source\PSoC4/CapSense_Filter.c **** /*******************************************************************************
 225:Generated_Source\PSoC4/CapSense_Filter.c **** * Function Name: CapSense_FtUpdateBaseline
 226:Generated_Source\PSoC4/CapSense_Filter.c **** ****************************************************************************//**
 227:Generated_Source\PSoC4/CapSense_Filter.c **** *
 228:Generated_Source\PSoC4/CapSense_Filter.c **** * \brief
 229:Generated_Source\PSoC4/CapSense_Filter.c **** *  Updates the baseline for a sensor specified by an input parameter.
 230:Generated_Source\PSoC4/CapSense_Filter.c **** *
 231:Generated_Source\PSoC4/CapSense_Filter.c **** * \details
 232:Generated_Source\PSoC4/CapSense_Filter.c **** *  Check a matching of present baseline and its inverse duplication. If they
 233:Generated_Source\PSoC4/CapSense_Filter.c **** *  match then updates the baseline for a sensor specified by an input parameter.
 234:Generated_Source\PSoC4/CapSense_Filter.c **** *  If don't match the function return CapSense_TST_BSLN_DUPLICATION
 235:Generated_Source\PSoC4/CapSense_Filter.c **** *  result and don't update baseline.
 236:Generated_Source\PSoC4/CapSense_Filter.c **** *
 237:Generated_Source\PSoC4/CapSense_Filter.c **** * \param ptrWidgetRam
 238:Generated_Source\PSoC4/CapSense_Filter.c **** *  The pointer to the widget RAM structure where all the widget parameters
 239:Generated_Source\PSoC4/CapSense_Filter.c **** *  are stored.
 240:Generated_Source\PSoC4/CapSense_Filter.c **** *
 241:Generated_Source\PSoC4/CapSense_Filter.c **** * \param ptrSensor
 242:Generated_Source\PSoC4/CapSense_Filter.c **** *  The pointer to the sensor RAM structure where all the sensor parameters
 243:Generated_Source\PSoC4/CapSense_Filter.c **** *  are stored.
 244:Generated_Source\PSoC4/CapSense_Filter.c **** *
 245:Generated_Source\PSoC4/CapSense_Filter.c **** * \param wdType
 246:Generated_Source\PSoC4/CapSense_Filter.c **** *  Specifies the type of a widget.
 247:Generated_Source\PSoC4/CapSense_Filter.c **** *
 248:Generated_Source\PSoC4/CapSense_Filter.c **** * \return
 249:Generated_Source\PSoC4/CapSense_Filter.c **** *  Returns a status indicating whether the baseline has been updated:
 250:Generated_Source\PSoC4/CapSense_Filter.c **** *  - CYRET_SUCCESS if baseline updating was successful.
 251:Generated_Source\PSoC4/CapSense_Filter.c **** *  - CapSense_PROCESS_BASELINE_FAILED if present sensor's any channel
 252:Generated_Source\PSoC4/CapSense_Filter.c **** *    baseline and its inversion doesn't matched.
 253:Generated_Source\PSoC4/CapSense_Filter.c **** *
 254:Generated_Source\PSoC4/CapSense_Filter.c **** *******************************************************************************/
 255:Generated_Source\PSoC4/CapSense_Filter.c **** uint32 CapSense_FtUpdateBaseline(
 256:Generated_Source\PSoC4/CapSense_Filter.c ****                                 CapSense_RAM_WD_BASE_STRUCT *ptrWidgetRam,
 257:Generated_Source\PSoC4/CapSense_Filter.c ****                                 CapSense_RAM_SNS_STRUCT *ptrSensor,
 258:Generated_Source\PSoC4/CapSense_Filter.c ****                                 uint32 wdType)
ARM GAS  C:\Users\zack.li\AppData\Local\Temp\ccZi1DuV.s 			page 6


 259:Generated_Source\PSoC4/CapSense_Filter.c **** {
 260:Generated_Source\PSoC4/CapSense_Filter.c ****     uint32 sign;
 261:Generated_Source\PSoC4/CapSense_Filter.c ****     uint32 difference;
 262:Generated_Source\PSoC4/CapSense_Filter.c ****     uint32 freqChannel;
 263:Generated_Source\PSoC4/CapSense_Filter.c ****     uint32 baselineCoeff;
 264:Generated_Source\PSoC4/CapSense_Filter.c ****     uint32 result = CYRET_SUCCESS;
 265:Generated_Source\PSoC4/CapSense_Filter.c **** 
 266:Generated_Source\PSoC4/CapSense_Filter.c ****     #if (CapSense_TOTAL_WIDGETS)
 267:Generated_Source\PSoC4/CapSense_Filter.c ****         uint32 history;
 268:Generated_Source\PSoC4/CapSense_Filter.c ****     #endif /* (CapSense_TOTAL_WIDGETS) */
 269:Generated_Source\PSoC4/CapSense_Filter.c **** 
 270:Generated_Source\PSoC4/CapSense_Filter.c ****     /* Apply baseline to every channel in sensor */
 271:Generated_Source\PSoC4/CapSense_Filter.c ****     for(freqChannel = CapSense_NUM_SCAN_FREQS; freqChannel-- > 0u;)
 272:Generated_Source\PSoC4/CapSense_Filter.c ****     {
 273:Generated_Source\PSoC4/CapSense_Filter.c ****         #if (CapSense_ENABLE == CapSense_TST_BSLN_DUPLICATION_EN)
 274:Generated_Source\PSoC4/CapSense_Filter.c ****             if (ptrSensor->bslnInv[freqChannel] != ((uint16) ~(ptrSensor->bsln[freqChannel])))
 275:Generated_Source\PSoC4/CapSense_Filter.c ****             {
 276:Generated_Source\PSoC4/CapSense_Filter.c ****                 result = CapSense_PROCESS_BASELINE_FAILED;
 277:Generated_Source\PSoC4/CapSense_Filter.c ****             }
 278:Generated_Source\PSoC4/CapSense_Filter.c ****             else
 279:Generated_Source\PSoC4/CapSense_Filter.c ****             {
 280:Generated_Source\PSoC4/CapSense_Filter.c ****         #endif /* (CapSense_ENABLE == CapSense_TST_BSLN_DUPLICATION_EN) */
 281:Generated_Source\PSoC4/CapSense_Filter.c **** 
 282:Generated_Source\PSoC4/CapSense_Filter.c ****         /* Calculate signal value and its sign */
 283:Generated_Source\PSoC4/CapSense_Filter.c ****         if(ptrSensor->raw[freqChannel] >= ptrSensor->bsln[freqChannel])
 284:Generated_Source\PSoC4/CapSense_Filter.c ****         {
 285:Generated_Source\PSoC4/CapSense_Filter.c ****             difference = (uint32)ptrSensor->raw[freqChannel] - (uint32)ptrSensor->bsln[freqChannel]
 286:Generated_Source\PSoC4/CapSense_Filter.c ****             sign = 1u;
 287:Generated_Source\PSoC4/CapSense_Filter.c ****             ptrSensor->negBslnRstCnt[freqChannel] = 0u;
 288:Generated_Source\PSoC4/CapSense_Filter.c ****         }
 289:Generated_Source\PSoC4/CapSense_Filter.c ****         else
 290:Generated_Source\PSoC4/CapSense_Filter.c ****         {
 291:Generated_Source\PSoC4/CapSense_Filter.c ****             difference = (uint32)ptrSensor->bsln[freqChannel] - (uint32)ptrSensor->raw[freqChannel]
 292:Generated_Source\PSoC4/CapSense_Filter.c ****             sign = 0u;
 293:Generated_Source\PSoC4/CapSense_Filter.c ****         }
 294:Generated_Source\PSoC4/CapSense_Filter.c **** 
 295:Generated_Source\PSoC4/CapSense_Filter.c ****         /* Reset baseline if condition is met */
 296:Generated_Source\PSoC4/CapSense_Filter.c ****         if((sign == 0u) && (difference > (uint32) ptrWidgetRam->nNoiseTh))
 297:Generated_Source\PSoC4/CapSense_Filter.c ****         {
 298:Generated_Source\PSoC4/CapSense_Filter.c ****             if(ptrSensor->negBslnRstCnt[freqChannel] >= ptrWidgetRam->lowBslnRst)
 299:Generated_Source\PSoC4/CapSense_Filter.c ****             {
 300:Generated_Source\PSoC4/CapSense_Filter.c ****                 CapSense_FtInitializeBaselineChannel(ptrSensor, wdType, freqChannel);
 301:Generated_Source\PSoC4/CapSense_Filter.c ****             }
 302:Generated_Source\PSoC4/CapSense_Filter.c ****             else
 303:Generated_Source\PSoC4/CapSense_Filter.c ****             {
 304:Generated_Source\PSoC4/CapSense_Filter.c ****                 ptrSensor->negBslnRstCnt[freqChannel]++;
 305:Generated_Source\PSoC4/CapSense_Filter.c ****             }
 306:Generated_Source\PSoC4/CapSense_Filter.c ****         }
 307:Generated_Source\PSoC4/CapSense_Filter.c ****         else
 308:Generated_Source\PSoC4/CapSense_Filter.c ****         {
 309:Generated_Source\PSoC4/CapSense_Filter.c ****             #if (!CapSense_SENSOR_AUTO_RESET_EN)
 310:Generated_Source\PSoC4/CapSense_Filter.c ****                 /* Update baseline only if signal is in range between noiseThreshold and negativeno
 311:Generated_Source\PSoC4/CapSense_Filter.c ****                 if ((difference <= (uint32)ptrWidgetRam->noiseTh) ||
 312:Generated_Source\PSoC4/CapSense_Filter.c ****                     ((difference <= (uint32) ptrWidgetRam->nNoiseTh) && (sign == 0u)))
 313:Generated_Source\PSoC4/CapSense_Filter.c ****                 {
 314:Generated_Source\PSoC4/CapSense_Filter.c ****             #endif /* (CapSense_CSD_AUTO_RESET == CapSense_CSD_AUTO_RESET_DISABLE) */
 315:Generated_Source\PSoC4/CapSense_Filter.c **** 
ARM GAS  C:\Users\zack.li\AppData\Local\Temp\ccZi1DuV.s 			page 7


 316:Generated_Source\PSoC4/CapSense_Filter.c ****             #if (CapSense_BASELINE_TYPE == CapSense_IIR_BASELINE)
 317:Generated_Source\PSoC4/CapSense_Filter.c ****                 /* Calculate baseline value */
 318:Generated_Source\PSoC4/CapSense_Filter.c ****                 if ((CapSense_WD_TYPE_ENUM)wdType != CapSense_WD_PROXIMITY_E)
 319:Generated_Source\PSoC4/CapSense_Filter.c ****                 {
 320:Generated_Source\PSoC4/CapSense_Filter.c ****                     #if (CapSense_REGULAR_SENSOR_EN)
 321:Generated_Source\PSoC4/CapSense_Filter.c ****                         #if (CapSense_REGULAR_IIR_BL_TYPE == CapSense_IIR_FILTER_PERFORMANCE)
 322:Generated_Source\PSoC4/CapSense_Filter.c ****                             history = (uint32) ptrSensor->bsln[freqChannel] << 8u;
 323:Generated_Source\PSoC4/CapSense_Filter.c ****                             history |= ptrSensor->bslnExt[freqChannel];
 324:Generated_Source\PSoC4/CapSense_Filter.c ****                         #else
 325:Generated_Source\PSoC4/CapSense_Filter.c ****                             history = ptrSensor->bsln[freqChannel];
 326:Generated_Source\PSoC4/CapSense_Filter.c ****                         #endif /* (CapSense_REGULAR_IIR_BL_TYPE == CapSense_IIR_FILTER_PERFORMANCE)
 327:Generated_Source\PSoC4/CapSense_Filter.c **** 
 328:Generated_Source\PSoC4/CapSense_Filter.c ****                         #if (CapSense_ENABLE == CapSense_WD_BSLN_COEFF_EN)
 329:Generated_Source\PSoC4/CapSense_Filter.c ****                             baselineCoeff = ptrWidgetRam->bslnCoeff;
 330:Generated_Source\PSoC4/CapSense_Filter.c ****                         #else /* (CapSense_ENABLE == CapSense_WD_BSLN_COEFF_EN) */
 331:Generated_Source\PSoC4/CapSense_Filter.c ****                             baselineCoeff = CapSense_REGULAR_IIR_BL_N;
 332:Generated_Source\PSoC4/CapSense_Filter.c ****                         #endif /* (CapSense_ENABLE == CapSense_WD_BSLN_COEFF_EN) */
 333:Generated_Source\PSoC4/CapSense_Filter.c **** 
 334:Generated_Source\PSoC4/CapSense_Filter.c ****                         history =  CapSense_FtIIR1stOrder(
 335:Generated_Source\PSoC4/CapSense_Filter.c ****                                         (uint32)ptrSensor->raw[freqChannel],
 336:Generated_Source\PSoC4/CapSense_Filter.c ****                                         history, baselineCoeff,
 337:Generated_Source\PSoC4/CapSense_Filter.c ****                                         CapSense_REGULAR_IIR_BL_SHIFT);
 338:Generated_Source\PSoC4/CapSense_Filter.c **** 
 339:Generated_Source\PSoC4/CapSense_Filter.c ****                         #if (CapSense_REGULAR_IIR_BL_TYPE == CapSense_IIR_FILTER_PERFORMANCE)
 340:Generated_Source\PSoC4/CapSense_Filter.c ****                             ptrSensor->bsln[freqChannel] = LO16(history >> 8u);
 341:Generated_Source\PSoC4/CapSense_Filter.c ****                             ptrSensor->bslnExt[freqChannel] = LO8(history);
 342:Generated_Source\PSoC4/CapSense_Filter.c ****                         #else
 343:Generated_Source\PSoC4/CapSense_Filter.c ****                             ptrSensor->bsln[freqChannel] = LO16(history);
 344:Generated_Source\PSoC4/CapSense_Filter.c ****                         #endif /* (CapSense_REGULAR_IIR_BL_TYPE == CapSense_IIR_FILTER_PERFORMANCE)
 345:Generated_Source\PSoC4/CapSense_Filter.c ****                     #endif /* (CapSense_REGULAR_SENSOR_EN) */
 346:Generated_Source\PSoC4/CapSense_Filter.c ****                 }
 347:Generated_Source\PSoC4/CapSense_Filter.c ****                 else
 348:Generated_Source\PSoC4/CapSense_Filter.c ****                 {
 349:Generated_Source\PSoC4/CapSense_Filter.c ****                     #if (CapSense_PROXIMITY_SENSOR_EN)
 350:Generated_Source\PSoC4/CapSense_Filter.c ****                         #if (CapSense_PROX_IIR_BL_TYPE == CapSense_IIR_FILTER_PERFORMANCE)
 351:Generated_Source\PSoC4/CapSense_Filter.c ****                             history = (uint32) ptrSensor->bsln[freqChannel] << 8u;
 352:Generated_Source\PSoC4/CapSense_Filter.c ****                             history |= ptrSensor->bslnExt[freqChannel];
 353:Generated_Source\PSoC4/CapSense_Filter.c ****                         #else
 354:Generated_Source\PSoC4/CapSense_Filter.c ****                             history = (uint32) ptrSensor->bsln[freqChannel];
 355:Generated_Source\PSoC4/CapSense_Filter.c ****                         #endif /* (CapSense_PROX_IIR_BL_TYPE == CapSense_IIR_FILTER_PERFORMANCE) */
 356:Generated_Source\PSoC4/CapSense_Filter.c **** 
 357:Generated_Source\PSoC4/CapSense_Filter.c ****                         #if (CapSense_ENABLE == CapSense_WD_BSLN_COEFF_EN)
 358:Generated_Source\PSoC4/CapSense_Filter.c ****                             baselineCoeff = ptrWidgetRam->bslnCoeff;
 359:Generated_Source\PSoC4/CapSense_Filter.c ****                         #else /* (CapSense_ENABLE == CapSense_WD_BSLN_COEFF_EN) */
 360:Generated_Source\PSoC4/CapSense_Filter.c ****                             baselineCoeff = CapSense_PROX_IIR_BL_N;
 361:Generated_Source\PSoC4/CapSense_Filter.c ****                         #endif /* (CapSense_ENABLE == CapSense_WD_BSLN_COEFF_EN) */
 362:Generated_Source\PSoC4/CapSense_Filter.c **** 
 363:Generated_Source\PSoC4/CapSense_Filter.c ****                         history = CapSense_FtIIR1stOrder(
 364:Generated_Source\PSoC4/CapSense_Filter.c ****                                         (uint32)ptrSensor->raw[freqChannel],
 365:Generated_Source\PSoC4/CapSense_Filter.c ****                                         history, baselineCoeff,
 366:Generated_Source\PSoC4/CapSense_Filter.c ****                                         CapSense_PROX_IIR_BL_SHIFT);
 367:Generated_Source\PSoC4/CapSense_Filter.c **** 
 368:Generated_Source\PSoC4/CapSense_Filter.c ****                         #if (CapSense_PROX_IIR_BL_TYPE == CapSense_IIR_FILTER_PERFORMANCE)
 369:Generated_Source\PSoC4/CapSense_Filter.c ****                             ptrSensor->bsln[freqChannel] = LO16(history >> 8u);
 370:Generated_Source\PSoC4/CapSense_Filter.c ****                             ptrSensor->bslnExt[freqChannel] = LO8(history);
 371:Generated_Source\PSoC4/CapSense_Filter.c ****                         #else
 372:Generated_Source\PSoC4/CapSense_Filter.c ****                             ptrSensor->bsln[freqChannel] = LO16(history);
ARM GAS  C:\Users\zack.li\AppData\Local\Temp\ccZi1DuV.s 			page 8


 373:Generated_Source\PSoC4/CapSense_Filter.c ****                         #endif /* (CapSense_PROX_IIR_BL_TYPE == CapSense_IIR_FILTER_PERFORMANCE) */
 374:Generated_Source\PSoC4/CapSense_Filter.c ****                     #endif /* (CapSense_PROX_SENSOR_EN) */
 375:Generated_Source\PSoC4/CapSense_Filter.c ****                 }
 376:Generated_Source\PSoC4/CapSense_Filter.c ****             #else /* (CapSense_CSD_BASELINE_TYPE == CapSense_IIR_BASELINE) */
 377:Generated_Source\PSoC4/CapSense_Filter.c **** 
 378:Generated_Source\PSoC4/CapSense_Filter.c ****                 /******************************************************************
 379:Generated_Source\PSoC4/CapSense_Filter.c ****                 * This is the place where the bucket algorithm should be implemented.
 380:Generated_Source\PSoC4/CapSense_Filter.c ****                 * The bucket method will be implemented in future Component version.
 381:Generated_Source\PSoC4/CapSense_Filter.c ****                 *******************************************************************/
 382:Generated_Source\PSoC4/CapSense_Filter.c **** 
 383:Generated_Source\PSoC4/CapSense_Filter.c ****             #endif /* (CapSense_CSD_BASELINE_TYPE == CapSense_IIR_BASELINE) */
 384:Generated_Source\PSoC4/CapSense_Filter.c **** 
 385:Generated_Source\PSoC4/CapSense_Filter.c ****             #if (!CapSense_SENSOR_AUTO_RESET_EN)
 386:Generated_Source\PSoC4/CapSense_Filter.c ****                 }
 387:Generated_Source\PSoC4/CapSense_Filter.c ****             #endif /* (!CapSense_SENSOR_AUTO_RESET_EN) */
 388:Generated_Source\PSoC4/CapSense_Filter.c ****         }
 389:Generated_Source\PSoC4/CapSense_Filter.c **** 
 390:Generated_Source\PSoC4/CapSense_Filter.c ****         #if (CapSense_ENABLE == CapSense_TST_BSLN_DUPLICATION_EN)
 391:Generated_Source\PSoC4/CapSense_Filter.c ****             /* Update baseline inversion of every channel in sensor */
 392:Generated_Source\PSoC4/CapSense_Filter.c ****             ptrSensor->bslnInv[freqChannel] = ~(ptrSensor->bsln[freqChannel]);
 393:Generated_Source\PSoC4/CapSense_Filter.c ****             }
 394:Generated_Source\PSoC4/CapSense_Filter.c ****         #endif /* (CapSense_ENABLE == CapSense_TST_BSLN_DUPLICATION_EN) */
 395:Generated_Source\PSoC4/CapSense_Filter.c **** 
 396:Generated_Source\PSoC4/CapSense_Filter.c ****     }
 397:Generated_Source\PSoC4/CapSense_Filter.c ****     return result;
 398:Generated_Source\PSoC4/CapSense_Filter.c **** }
 399:Generated_Source\PSoC4/CapSense_Filter.c **** 
 400:Generated_Source\PSoC4/CapSense_Filter.c **** 
 401:Generated_Source\PSoC4/CapSense_Filter.c **** /*******************************************************************************
 402:Generated_Source\PSoC4/CapSense_Filter.c **** * Function Name: CapSense_InitializeAllBaselines
 403:Generated_Source\PSoC4/CapSense_Filter.c **** ****************************************************************************//**
 404:Generated_Source\PSoC4/CapSense_Filter.c **** *
 405:Generated_Source\PSoC4/CapSense_Filter.c **** * \brief
 406:Generated_Source\PSoC4/CapSense_Filter.c **** *  Initializes (or re-initializes) the baselines of all the sensors of all the widgets.
 407:Generated_Source\PSoC4/CapSense_Filter.c **** *
 408:Generated_Source\PSoC4/CapSense_Filter.c **** * \details
 409:Generated_Source\PSoC4/CapSense_Filter.c **** *  Initializes the baseline for all the sensors of all the widgets. Also, this function
 410:Generated_Source\PSoC4/CapSense_Filter.c **** *  can be used to re-initialize baselines. CapSense_Start() calls this
 411:Generated_Source\PSoC4/CapSense_Filter.c **** *  API as part of CapSense operation initialization.
 412:Generated_Source\PSoC4/CapSense_Filter.c **** *
 413:Generated_Source\PSoC4/CapSense_Filter.c **** *  If any raw count filter is enabled, make sure the raw count filter history is
 414:Generated_Source\PSoC4/CapSense_Filter.c **** *  initialized as well using one of these functions:
 415:Generated_Source\PSoC4/CapSense_Filter.c **** *  - CapSense_InitializeAllFilters().
 416:Generated_Source\PSoC4/CapSense_Filter.c **** *  - CapSense_InitializeWidgetFilter().
 417:Generated_Source\PSoC4/CapSense_Filter.c **** *
 418:Generated_Source\PSoC4/CapSense_Filter.c **** *******************************************************************************/
 419:Generated_Source\PSoC4/CapSense_Filter.c **** void CapSense_InitializeAllBaselines(void)
 420:Generated_Source\PSoC4/CapSense_Filter.c **** {
 421:Generated_Source\PSoC4/CapSense_Filter.c ****     uint32 widgetId;
 422:Generated_Source\PSoC4/CapSense_Filter.c **** 
 423:Generated_Source\PSoC4/CapSense_Filter.c ****     for(widgetId = CapSense_TOTAL_WIDGETS; widgetId-- > 0u;)
 424:Generated_Source\PSoC4/CapSense_Filter.c ****     {
 425:Generated_Source\PSoC4/CapSense_Filter.c ****         CapSense_InitializeWidgetBaseline(widgetId);
 426:Generated_Source\PSoC4/CapSense_Filter.c ****     }
 427:Generated_Source\PSoC4/CapSense_Filter.c **** }
 428:Generated_Source\PSoC4/CapSense_Filter.c **** 
 429:Generated_Source\PSoC4/CapSense_Filter.c **** 
ARM GAS  C:\Users\zack.li\AppData\Local\Temp\ccZi1DuV.s 			page 9


 430:Generated_Source\PSoC4/CapSense_Filter.c **** /*******************************************************************************
 431:Generated_Source\PSoC4/CapSense_Filter.c **** * Function Name: CapSense_InitializeWidgetBaseline
 432:Generated_Source\PSoC4/CapSense_Filter.c **** ****************************************************************************//**
 433:Generated_Source\PSoC4/CapSense_Filter.c **** *
 434:Generated_Source\PSoC4/CapSense_Filter.c **** * \brief
 435:Generated_Source\PSoC4/CapSense_Filter.c **** *  Initializes (or re-initializes) the baselines of all the sensors in a widget
 436:Generated_Source\PSoC4/CapSense_Filter.c **** *  specified by the input parameter.
 437:Generated_Source\PSoC4/CapSense_Filter.c **** *
 438:Generated_Source\PSoC4/CapSense_Filter.c **** * \details
 439:Generated_Source\PSoC4/CapSense_Filter.c **** *  Initializes (or re-initializes) the baseline for all the sensors of the
 440:Generated_Source\PSoC4/CapSense_Filter.c **** *  specified widget.
 441:Generated_Source\PSoC4/CapSense_Filter.c **** *
 442:Generated_Source\PSoC4/CapSense_Filter.c **** *  If any raw count filter is enabled, make sure the raw count filter history is
 443:Generated_Source\PSoC4/CapSense_Filter.c **** *  initialized as well using one of these functions:
 444:Generated_Source\PSoC4/CapSense_Filter.c **** *  - CapSense_InitializeAllFilters().
 445:Generated_Source\PSoC4/CapSense_Filter.c **** *  - CapSense_InitializeWidgetFilter().
 446:Generated_Source\PSoC4/CapSense_Filter.c **** *
 447:Generated_Source\PSoC4/CapSense_Filter.c **** * \param widgetId
 448:Generated_Source\PSoC4/CapSense_Filter.c **** *  Specifies the ID number of a widget to initialize the baseline of all the sensors
 449:Generated_Source\PSoC4/CapSense_Filter.c **** *  in the widget.
 450:Generated_Source\PSoC4/CapSense_Filter.c **** *  A macro for the widget ID can be found in the
 451:Generated_Source\PSoC4/CapSense_Filter.c **** *  CapSense Configuration header file defined as
 452:Generated_Source\PSoC4/CapSense_Filter.c **** *  CapSense_<WidgetName>_WDGT_ID.
 453:Generated_Source\PSoC4/CapSense_Filter.c **** *
 454:Generated_Source\PSoC4/CapSense_Filter.c **** *******************************************************************************/
 455:Generated_Source\PSoC4/CapSense_Filter.c **** void CapSense_InitializeWidgetBaseline(uint32 widgetId)
 456:Generated_Source\PSoC4/CapSense_Filter.c **** {
 457:Generated_Source\PSoC4/CapSense_Filter.c ****     uint32 sensorId;
 458:Generated_Source\PSoC4/CapSense_Filter.c ****     uint32 sensorsNumber;
 459:Generated_Source\PSoC4/CapSense_Filter.c **** 
 460:Generated_Source\PSoC4/CapSense_Filter.c ****     CapSense_FLASH_WD_STRUCT const *ptrWidget = &CapSense_dsFlash.wdgtArray[widgetId];
 461:Generated_Source\PSoC4/CapSense_Filter.c **** 
 462:Generated_Source\PSoC4/CapSense_Filter.c ****     /* Find total amount of sensors in specified widget */
 463:Generated_Source\PSoC4/CapSense_Filter.c ****     sensorsNumber = CapSense_GET_SNS_CNT_BY_PTR(ptrWidget);
 464:Generated_Source\PSoC4/CapSense_Filter.c **** 
 465:Generated_Source\PSoC4/CapSense_Filter.c ****     for(sensorId = sensorsNumber; sensorId-- > 0u;)
 466:Generated_Source\PSoC4/CapSense_Filter.c ****     {
 467:Generated_Source\PSoC4/CapSense_Filter.c ****         CapSense_InitializeSensorBaseline(widgetId, sensorId);
 468:Generated_Source\PSoC4/CapSense_Filter.c ****     }
 469:Generated_Source\PSoC4/CapSense_Filter.c **** }
 470:Generated_Source\PSoC4/CapSense_Filter.c **** 
 471:Generated_Source\PSoC4/CapSense_Filter.c **** 
 472:Generated_Source\PSoC4/CapSense_Filter.c **** /*******************************************************************************
 473:Generated_Source\PSoC4/CapSense_Filter.c **** * Function Name: CapSense_InitializeSensorBaseline
 474:Generated_Source\PSoC4/CapSense_Filter.c **** ****************************************************************************//**
 475:Generated_Source\PSoC4/CapSense_Filter.c **** *
 476:Generated_Source\PSoC4/CapSense_Filter.c **** * \brief
 477:Generated_Source\PSoC4/CapSense_Filter.c **** *  Initializes (or re-initializes) the baseline of a sensor in a widget specified
 478:Generated_Source\PSoC4/CapSense_Filter.c **** *  by the input parameters.
 479:Generated_Source\PSoC4/CapSense_Filter.c **** *
 480:Generated_Source\PSoC4/CapSense_Filter.c **** * \details
 481:Generated_Source\PSoC4/CapSense_Filter.c **** *  Initializes (or re-initializes) the baseline for a specified sensor within
 482:Generated_Source\PSoC4/CapSense_Filter.c **** *  a specified widget.
 483:Generated_Source\PSoC4/CapSense_Filter.c **** *
 484:Generated_Source\PSoC4/CapSense_Filter.c **** * \param widgetId
 485:Generated_Source\PSoC4/CapSense_Filter.c **** *  Specifies the ID number of a widget to initialize the baseline of the sensor
 486:Generated_Source\PSoC4/CapSense_Filter.c **** *  in the widget.
ARM GAS  C:\Users\zack.li\AppData\Local\Temp\ccZi1DuV.s 			page 10


 487:Generated_Source\PSoC4/CapSense_Filter.c **** *  A macro for the widget ID can be found in the
 488:Generated_Source\PSoC4/CapSense_Filter.c **** *  CapSense Configuration header file defined as
 489:Generated_Source\PSoC4/CapSense_Filter.c **** *  CapSense_<WidgetName>_WDGT_ID.
 490:Generated_Source\PSoC4/CapSense_Filter.c **** *
 491:Generated_Source\PSoC4/CapSense_Filter.c **** * \param sensorId
 492:Generated_Source\PSoC4/CapSense_Filter.c **** *  Specifies the ID number of the sensor within the widget to initialize its
 493:Generated_Source\PSoC4/CapSense_Filter.c **** *  baseline.
 494:Generated_Source\PSoC4/CapSense_Filter.c **** *  A macro for the sensor ID within a specified widget can be found in the
 495:Generated_Source\PSoC4/CapSense_Filter.c **** *  CapSense Configuration header file defined as
 496:Generated_Source\PSoC4/CapSense_Filter.c **** *  CapSense_<WidgetName>_SNS<SensorNumber>_ID.
 497:Generated_Source\PSoC4/CapSense_Filter.c **** *
 498:Generated_Source\PSoC4/CapSense_Filter.c **** *******************************************************************************/
 499:Generated_Source\PSoC4/CapSense_Filter.c **** void CapSense_InitializeSensorBaseline(uint32 widgetId, uint32 sensorId)
 500:Generated_Source\PSoC4/CapSense_Filter.c **** {
 501:Generated_Source\PSoC4/CapSense_Filter.c ****     CapSense_RAM_SNS_STRUCT *ptrSensor = NULL;
 502:Generated_Source\PSoC4/CapSense_Filter.c ****     CapSense_FLASH_WD_STRUCT const *ptrWidget = NULL;
 503:Generated_Source\PSoC4/CapSense_Filter.c ****     ptrWidget = &CapSense_dsFlash.wdgtArray[widgetId];
 504:Generated_Source\PSoC4/CapSense_Filter.c **** 
 505:Generated_Source\PSoC4/CapSense_Filter.c ****     /* Find pointer to specified sensor object */
 506:Generated_Source\PSoC4/CapSense_Filter.c ****     ptrSensor = ptrWidget->ptr2SnsRam;
 507:Generated_Source\PSoC4/CapSense_Filter.c ****     ptrSensor = &ptrSensor[sensorId];
 508:Generated_Source\PSoC4/CapSense_Filter.c **** 
 509:Generated_Source\PSoC4/CapSense_Filter.c ****     CapSense_FtInitializeBaseline(ptrSensor, (uint32)ptrWidget->wdgtType);
 510:Generated_Source\PSoC4/CapSense_Filter.c **** }
 511:Generated_Source\PSoC4/CapSense_Filter.c **** 
 512:Generated_Source\PSoC4/CapSense_Filter.c **** 
 513:Generated_Source\PSoC4/CapSense_Filter.c **** /*******************************************************************************
 514:Generated_Source\PSoC4/CapSense_Filter.c **** * Function Name: CapSense_FtInitializeBaseline
 515:Generated_Source\PSoC4/CapSense_Filter.c **** ****************************************************************************//**
 516:Generated_Source\PSoC4/CapSense_Filter.c **** *
 517:Generated_Source\PSoC4/CapSense_Filter.c **** * \brief
 518:Generated_Source\PSoC4/CapSense_Filter.c **** *  Initializes the baseline history for a sensor indicated by an input
 519:Generated_Source\PSoC4/CapSense_Filter.c **** *  parameter.
 520:Generated_Source\PSoC4/CapSense_Filter.c **** *
 521:Generated_Source\PSoC4/CapSense_Filter.c **** * \details
 522:Generated_Source\PSoC4/CapSense_Filter.c **** *  Initializes the baseline history for a sensor indicated by an input
 523:Generated_Source\PSoC4/CapSense_Filter.c **** *  parameter.
 524:Generated_Source\PSoC4/CapSense_Filter.c **** *
 525:Generated_Source\PSoC4/CapSense_Filter.c **** * \param *ptrSensor
 526:Generated_Source\PSoC4/CapSense_Filter.c **** *  The pointer to the sensor RAM object.
 527:Generated_Source\PSoC4/CapSense_Filter.c **** *
 528:Generated_Source\PSoC4/CapSense_Filter.c **** * \param wdType
 529:Generated_Source\PSoC4/CapSense_Filter.c **** *  Specifies the type of a widget.
 530:Generated_Source\PSoC4/CapSense_Filter.c **** *
 531:Generated_Source\PSoC4/CapSense_Filter.c **** *******************************************************************************/
 532:Generated_Source\PSoC4/CapSense_Filter.c **** void CapSense_FtInitializeBaseline(CapSense_RAM_SNS_STRUCT *ptrSensor, uint32 wdType)
 533:Generated_Source\PSoC4/CapSense_Filter.c **** {
 534:Generated_Source\PSoC4/CapSense_Filter.c ****     uint32 freqChannel;
 535:Generated_Source\PSoC4/CapSense_Filter.c **** 
 536:Generated_Source\PSoC4/CapSense_Filter.c ****     /* Apply baseline initialization to every channel in sensor */
 537:Generated_Source\PSoC4/CapSense_Filter.c ****     for(freqChannel = CapSense_NUM_SCAN_FREQS; freqChannel-- > 0u;)
 538:Generated_Source\PSoC4/CapSense_Filter.c ****     {
 539:Generated_Source\PSoC4/CapSense_Filter.c ****         CapSense_FtInitializeBaselineChannel(ptrSensor, wdType, freqChannel);
 540:Generated_Source\PSoC4/CapSense_Filter.c ****     }
 541:Generated_Source\PSoC4/CapSense_Filter.c **** }
 542:Generated_Source\PSoC4/CapSense_Filter.c **** 
 543:Generated_Source\PSoC4/CapSense_Filter.c **** 
ARM GAS  C:\Users\zack.li\AppData\Local\Temp\ccZi1DuV.s 			page 11


 544:Generated_Source\PSoC4/CapSense_Filter.c **** /*******************************************************************************
 545:Generated_Source\PSoC4/CapSense_Filter.c **** * Function Name: CapSense_FtInitializeBaselineChannel
 546:Generated_Source\PSoC4/CapSense_Filter.c **** ****************************************************************************//**
 547:Generated_Source\PSoC4/CapSense_Filter.c **** *
 548:Generated_Source\PSoC4/CapSense_Filter.c **** * \brief
 549:Generated_Source\PSoC4/CapSense_Filter.c **** *  Initializes the baseline history for a sensor indicated by an input
 550:Generated_Source\PSoC4/CapSense_Filter.c **** *  parameter.
 551:Generated_Source\PSoC4/CapSense_Filter.c **** *
 552:Generated_Source\PSoC4/CapSense_Filter.c **** * \details
 553:Generated_Source\PSoC4/CapSense_Filter.c **** *  Initializes the baseline history for a sensor indicated by an input
 554:Generated_Source\PSoC4/CapSense_Filter.c **** *  parameter.
 555:Generated_Source\PSoC4/CapSense_Filter.c **** *
 556:Generated_Source\PSoC4/CapSense_Filter.c **** * \param *ptrSensor
 557:Generated_Source\PSoC4/CapSense_Filter.c **** *  The pointer to the sensor RAM object.
 558:Generated_Source\PSoC4/CapSense_Filter.c **** *
 559:Generated_Source\PSoC4/CapSense_Filter.c **** * \param wdType
 560:Generated_Source\PSoC4/CapSense_Filter.c **** *  Specifies the type of a widget.
 561:Generated_Source\PSoC4/CapSense_Filter.c **** *
 562:Generated_Source\PSoC4/CapSense_Filter.c **** * \param channel
 563:Generated_Source\PSoC4/CapSense_Filter.c **** *  Specifies the number of the channel to be initialized.
 564:Generated_Source\PSoC4/CapSense_Filter.c **** *
 565:Generated_Source\PSoC4/CapSense_Filter.c **** *******************************************************************************/
 566:Generated_Source\PSoC4/CapSense_Filter.c **** void CapSense_FtInitializeBaselineChannel(CapSense_RAM_SNS_STRUCT *ptrSensor, uint32 wdType, uint32
 567:Generated_Source\PSoC4/CapSense_Filter.c **** {
  28              		.loc 1 567 0
  29              		.cfi_startproc
  30              		@ args = 0, pretend = 0, frame = 0
  31              		@ frame_needed = 0, uses_anonymous_args = 0
  32              		@ link register save eliminated.
  33              	.LVL0:
 568:Generated_Source\PSoC4/CapSense_Filter.c ****     #if (CapSense_BASELINE_TYPE == CapSense_IIR_BASELINE)
 569:Generated_Source\PSoC4/CapSense_Filter.c ****         if ((CapSense_WD_TYPE_ENUM)wdType != CapSense_WD_PROXIMITY_E)
 570:Generated_Source\PSoC4/CapSense_Filter.c ****         {
 571:Generated_Source\PSoC4/CapSense_Filter.c ****             #if (CapSense_REGULAR_SENSOR_EN)
 572:Generated_Source\PSoC4/CapSense_Filter.c ****                 #if (CapSense_REGULAR_IIR_BL_TYPE == CapSense_IIR_FILTER_PERFORMANCE)
 573:Generated_Source\PSoC4/CapSense_Filter.c ****                     ptrSensor->bslnExt[channel] = 0u;
  34              		.loc 1 573 0
  35 0000 0021     		movs	r1, #0
  36              	.LVL1:
  37 0002 8318     		adds	r3, r0, r2
  38 0004 5200     		lsls	r2, r2, #1
  39              	.LVL2:
  40 0006 1971     		strb	r1, [r3, #4]
  41 0008 8018     		adds	r0, r0, r2
  42              	.LVL3:
 574:Generated_Source\PSoC4/CapSense_Filter.c ****                 #endif /* (CapSense_REGULAR_IIR_BL_TYPE == CapSense_IIR_FILTER_PERFORMANCE) */
 575:Generated_Source\PSoC4/CapSense_Filter.c ****             #endif /* (CapSense_REGULAR_SENSOR_EN) */
 576:Generated_Source\PSoC4/CapSense_Filter.c ****         }
 577:Generated_Source\PSoC4/CapSense_Filter.c ****         else
 578:Generated_Source\PSoC4/CapSense_Filter.c ****         {
 579:Generated_Source\PSoC4/CapSense_Filter.c ****             #if (CapSense_PROXIMITY_SENSOR_EN)
 580:Generated_Source\PSoC4/CapSense_Filter.c ****                 #if (CapSense_PROX_IIR_BL_TYPE == CapSense_IIR_FILTER_PERFORMANCE)
 581:Generated_Source\PSoC4/CapSense_Filter.c ****                     ptrSensor->bslnExt[channel] = 0u;
 582:Generated_Source\PSoC4/CapSense_Filter.c ****                 #endif /* (CapSense_PROX_IIR_BL_TYPE == CapSense_IIR_FILTER_PERFORMANCE) */
 583:Generated_Source\PSoC4/CapSense_Filter.c ****             #endif /* (CapSense_PROX_SENSOR_EN) */
 584:Generated_Source\PSoC4/CapSense_Filter.c ****         }
 585:Generated_Source\PSoC4/CapSense_Filter.c ****     #else
ARM GAS  C:\Users\zack.li\AppData\Local\Temp\ccZi1DuV.s 			page 12


 586:Generated_Source\PSoC4/CapSense_Filter.c ****         /* CapSense_BASELINE_TYPE == CapSense_BUCKET_BASELINE */
 587:Generated_Source\PSoC4/CapSense_Filter.c ****         ptrSensor->bslnExt[channel] = 0u;
 588:Generated_Source\PSoC4/CapSense_Filter.c ****     #endif /* (CapSense_BASELINE_TYPE == CapSense_IIR_BASELINE) */
 589:Generated_Source\PSoC4/CapSense_Filter.c **** 
 590:Generated_Source\PSoC4/CapSense_Filter.c ****     ptrSensor->bsln[channel] = ptrSensor->raw[channel];
  43              		.loc 1 590 0
  44 000a 0288     		ldrh	r2, [r0]
 591:Generated_Source\PSoC4/CapSense_Filter.c **** 
 592:Generated_Source\PSoC4/CapSense_Filter.c ****     #if (CapSense_ENABLE == CapSense_TST_BSLN_DUPLICATION_EN)
 593:Generated_Source\PSoC4/CapSense_Filter.c ****     /* Update baseline inversion of the channel in sensor */
 594:Generated_Source\PSoC4/CapSense_Filter.c ****         ptrSensor->bslnInv[channel] = ~(ptrSensor->bsln[channel]);
 595:Generated_Source\PSoC4/CapSense_Filter.c ****     #endif /* (CapSense_ENABLE == CapSense_TST_BSLN_DUPLICATION_EN) */
 596:Generated_Source\PSoC4/CapSense_Filter.c **** 
 597:Generated_Source\PSoC4/CapSense_Filter.c ****     ptrSensor->negBslnRstCnt[channel] = 0u;
 598:Generated_Source\PSoC4/CapSense_Filter.c **** }
  45              		.loc 1 598 0
  46              		@ sp needed
 590:Generated_Source\PSoC4/CapSense_Filter.c **** 
  47              		.loc 1 590 0
  48 000c 4280     		strh	r2, [r0, #2]
 597:Generated_Source\PSoC4/CapSense_Filter.c **** }
  49              		.loc 1 597 0
  50 000e 1972     		strb	r1, [r3, #8]
  51              		.loc 1 598 0
  52 0010 7047     		bx	lr
  53              		.cfi_endproc
  54              	.LFE10:
  55              		.size	CapSense_FtInitializeBaselineChannel, .-CapSense_FtInitializeBaselineChannel
  56              		.section	.text.CapSense_FtInitializeBaseline,"ax",%progbits
  57              		.align	1
  58              		.global	CapSense_FtInitializeBaseline
  59              		.code	16
  60              		.thumb_func
  61              		.type	CapSense_FtInitializeBaseline, %function
  62              	CapSense_FtInitializeBaseline:
  63              	.LFB9:
 533:Generated_Source\PSoC4/CapSense_Filter.c ****     uint32 freqChannel;
  64              		.loc 1 533 0
  65              		.cfi_startproc
  66              		@ args = 0, pretend = 0, frame = 0
  67              		@ frame_needed = 0, uses_anonymous_args = 0
  68              	.LVL4:
  69 0000 10B5     		push	{r4, lr}
  70              		.cfi_def_cfa_offset 8
  71              		.cfi_offset 4, -8
  72              		.cfi_offset 14, -4
 539:Generated_Source\PSoC4/CapSense_Filter.c ****     }
  73              		.loc 1 539 0
  74 0002 0022     		movs	r2, #0
  75 0004 FFF7FEFF 		bl	CapSense_FtInitializeBaselineChannel
  76              	.LVL5:
 541:Generated_Source\PSoC4/CapSense_Filter.c **** 
  77              		.loc 1 541 0
  78              		@ sp needed
  79 0008 10BD     		pop	{r4, pc}
  80              		.cfi_endproc
  81              	.LFE9:
ARM GAS  C:\Users\zack.li\AppData\Local\Temp\ccZi1DuV.s 			page 13


  82              		.size	CapSense_FtInitializeBaseline, .-CapSense_FtInitializeBaseline
  83              		.section	.text.CapSense_InitializeSensorBaseline,"ax",%progbits
  84              		.align	1
  85              		.global	CapSense_InitializeSensorBaseline
  86              		.code	16
  87              		.thumb_func
  88              		.type	CapSense_InitializeSensorBaseline, %function
  89              	CapSense_InitializeSensorBaseline:
  90              	.LFB8:
 500:Generated_Source\PSoC4/CapSense_Filter.c ****     CapSense_RAM_SNS_STRUCT *ptrSensor = NULL;
  91              		.loc 1 500 0
  92              		.cfi_startproc
  93              		@ args = 0, pretend = 0, frame = 0
  94              		@ frame_needed = 0, uses_anonymous_args = 0
  95              	.LVL6:
 506:Generated_Source\PSoC4/CapSense_Filter.c ****     ptrSensor = &ptrSensor[sensorId];
  96              		.loc 1 506 0
  97 0000 1C23     		movs	r3, #28
  98 0002 5843     		muls	r0, r3
  99              	.LVL7:
 100 0004 054B     		ldr	r3, .L4
 500:Generated_Source\PSoC4/CapSense_Filter.c ****     CapSense_RAM_SNS_STRUCT *ptrSensor = NULL;
 101              		.loc 1 500 0
 102 0006 10B5     		push	{r4, lr}
 103              		.cfi_def_cfa_offset 8
 104              		.cfi_offset 4, -8
 105              		.cfi_offset 14, -4
 506:Generated_Source\PSoC4/CapSense_Filter.c ****     ptrSensor = &ptrSensor[sensorId];
 106              		.loc 1 506 0
 107 0008 1B18     		adds	r3, r3, r0
 108              	.LVL8:
 109 000a 9C68     		ldr	r4, [r3, #8]
 110              	.LVL9:
 509:Generated_Source\PSoC4/CapSense_Filter.c **** }
 111              		.loc 1 509 0
 112 000c 9A7E     		ldrb	r2, [r3, #26]
 113 000e 0A23     		movs	r3, #10
 114              	.LVL10:
 115 0010 4B43     		muls	r3, r1
 116 0012 1100     		movs	r1, r2
 117              	.LVL11:
 118 0014 E018     		adds	r0, r4, r3
 119              	.LVL12:
 120 0016 FFF7FEFF 		bl	CapSense_FtInitializeBaseline
 121              	.LVL13:
 510:Generated_Source\PSoC4/CapSense_Filter.c **** 
 122              		.loc 1 510 0
 123              		@ sp needed
 124              	.LVL14:
 125 001a 10BD     		pop	{r4, pc}
 126              	.L5:
 127              		.align	2
 128              	.L4:
 129 001c 00000000 		.word	CapSense_dsFlash
 130              		.cfi_endproc
 131              	.LFE8:
 132              		.size	CapSense_InitializeSensorBaseline, .-CapSense_InitializeSensorBaseline
ARM GAS  C:\Users\zack.li\AppData\Local\Temp\ccZi1DuV.s 			page 14


 133              		.section	.text.CapSense_InitializeWidgetBaseline,"ax",%progbits
 134              		.align	1
 135              		.global	CapSense_InitializeWidgetBaseline
 136              		.code	16
 137              		.thumb_func
 138              		.type	CapSense_InitializeWidgetBaseline, %function
 139              	CapSense_InitializeWidgetBaseline:
 140              	.LFB7:
 456:Generated_Source\PSoC4/CapSense_Filter.c ****     uint32 sensorId;
 141              		.loc 1 456 0
 142              		.cfi_startproc
 143              		@ args = 0, pretend = 0, frame = 0
 144              		@ frame_needed = 0, uses_anonymous_args = 0
 145              	.LVL15:
 463:Generated_Source\PSoC4/CapSense_Filter.c **** 
 146              		.loc 1 463 0
 147 0000 1C23     		movs	r3, #28
 456:Generated_Source\PSoC4/CapSense_Filter.c ****     uint32 sensorId;
 148              		.loc 1 456 0
 149 0002 70B5     		push	{r4, r5, r6, lr}
 150              		.cfi_def_cfa_offset 16
 151              		.cfi_offset 4, -16
 152              		.cfi_offset 5, -12
 153              		.cfi_offset 6, -8
 154              		.cfi_offset 14, -4
 456:Generated_Source\PSoC4/CapSense_Filter.c ****     uint32 sensorId;
 155              		.loc 1 456 0
 156 0004 0400     		movs	r4, r0
 463:Generated_Source\PSoC4/CapSense_Filter.c **** 
 157              		.loc 1 463 0
 158 0006 4343     		muls	r3, r0
 159 0008 064A     		ldr	r2, .L11
 160 000a D318     		adds	r3, r2, r3
 161              	.LVL16:
 162 000c 1B8B     		ldrh	r3, [r3, #24]
 163              	.LVL17:
 164              	.L7:
 465:Generated_Source\PSoC4/CapSense_Filter.c ****     {
 165              		.loc 1 465 0 discriminator 1
 166 000e 5D1E     		subs	r5, r3, #1
 167              	.LVL18:
 168 0010 002B     		cmp	r3, #0
 169 0012 05D0     		beq	.L10
 467:Generated_Source\PSoC4/CapSense_Filter.c ****     }
 170              		.loc 1 467 0
 171 0014 2900     		movs	r1, r5
 172 0016 2000     		movs	r0, r4
 173 0018 FFF7FEFF 		bl	CapSense_InitializeSensorBaseline
 174              	.LVL19:
 175 001c 2B00     		movs	r3, r5
 176 001e F6E7     		b	.L7
 177              	.L10:
 469:Generated_Source\PSoC4/CapSense_Filter.c **** 
 178              		.loc 1 469 0
 179              		@ sp needed
 180              	.LVL20:
 181              	.LVL21:
ARM GAS  C:\Users\zack.li\AppData\Local\Temp\ccZi1DuV.s 			page 15


 182 0020 70BD     		pop	{r4, r5, r6, pc}
 183              	.L12:
 184 0022 C046     		.align	2
 185              	.L11:
 186 0024 00000000 		.word	CapSense_dsFlash
 187              		.cfi_endproc
 188              	.LFE7:
 189              		.size	CapSense_InitializeWidgetBaseline, .-CapSense_InitializeWidgetBaseline
 190              		.section	.text.CapSense_InitializeAllBaselines,"ax",%progbits
 191              		.align	1
 192              		.global	CapSense_InitializeAllBaselines
 193              		.code	16
 194              		.thumb_func
 195              		.type	CapSense_InitializeAllBaselines, %function
 196              	CapSense_InitializeAllBaselines:
 197              	.LFB6:
 420:Generated_Source\PSoC4/CapSense_Filter.c ****     uint32 widgetId;
 198              		.loc 1 420 0
 199              		.cfi_startproc
 200              		@ args = 0, pretend = 0, frame = 0
 201              		@ frame_needed = 0, uses_anonymous_args = 0
 202              	.LVL22:
 203 0000 10B5     		push	{r4, lr}
 204              		.cfi_def_cfa_offset 8
 205              		.cfi_offset 4, -8
 206              		.cfi_offset 14, -4
 423:Generated_Source\PSoC4/CapSense_Filter.c ****     {
 207              		.loc 1 423 0
 208 0002 0524     		movs	r4, #5
 209              	.LVL23:
 210              	.L14:
 423:Generated_Source\PSoC4/CapSense_Filter.c ****     {
 211              		.loc 1 423 0 is_stmt 0 discriminator 1
 212 0004 013C     		subs	r4, r4, #1
 213 0006 03D3     		bcc	.L16
 214              	.LVL24:
 425:Generated_Source\PSoC4/CapSense_Filter.c ****     }
 215              		.loc 1 425 0 is_stmt 1
 216 0008 2000     		movs	r0, r4
 217 000a FFF7FEFF 		bl	CapSense_InitializeWidgetBaseline
 218              	.LVL25:
 219 000e F9E7     		b	.L14
 220              	.L16:
 427:Generated_Source\PSoC4/CapSense_Filter.c **** 
 221              		.loc 1 427 0
 222              		@ sp needed
 223              	.LVL26:
 224 0010 10BD     		pop	{r4, pc}
 225              		.cfi_endproc
 226              	.LFE6:
 227              		.size	CapSense_InitializeAllBaselines, .-CapSense_InitializeAllBaselines
 228              		.section	.text.CapSense_FtUpdateBaseline,"ax",%progbits
 229              		.align	1
 230              		.global	CapSense_FtUpdateBaseline
 231              		.code	16
 232              		.thumb_func
 233              		.type	CapSense_FtUpdateBaseline, %function
ARM GAS  C:\Users\zack.li\AppData\Local\Temp\ccZi1DuV.s 			page 16


 234              	CapSense_FtUpdateBaseline:
 235              	.LFB5:
 259:Generated_Source\PSoC4/CapSense_Filter.c ****     uint32 sign;
 236              		.loc 1 259 0
 237              		.cfi_startproc
 238              		@ args = 0, pretend = 0, frame = 0
 239              		@ frame_needed = 0, uses_anonymous_args = 0
 240              	.LVL27:
 241 0000 F8B5     		push	{r3, r4, r5, r6, r7, lr}
 242              		.cfi_def_cfa_offset 24
 243              		.cfi_offset 3, -24
 244              		.cfi_offset 4, -20
 245              		.cfi_offset 5, -16
 246              		.cfi_offset 6, -12
 247              		.cfi_offset 7, -8
 248              		.cfi_offset 14, -4
 259:Generated_Source\PSoC4/CapSense_Filter.c ****     uint32 sign;
 249              		.loc 1 259 0
 250 0002 0500     		movs	r5, r0
 251 0004 0800     		movs	r0, r1
 252              	.LVL28:
 283:Generated_Source\PSoC4/CapSense_Filter.c ****         {
 253              		.loc 1 283 0
 254 0006 0488     		ldrh	r4, [r0]
 255 0008 4388     		ldrh	r3, [r0, #2]
 259:Generated_Source\PSoC4/CapSense_Filter.c ****     uint32 sign;
 256              		.loc 1 259 0
 257 000a 1100     		movs	r1, r2
 258              	.LVL29:
 283:Generated_Source\PSoC4/CapSense_Filter.c ****         {
 259              		.loc 1 283 0
 260 000c 9C42     		cmp	r4, r3
 261 000e 05D2     		bcs	.L18
 296:Generated_Source\PSoC4/CapSense_Filter.c ****         {
 262              		.loc 1 296 0
 263 0010 6E79     		ldrb	r6, [r5, #5]
 291:Generated_Source\PSoC4/CapSense_Filter.c ****             sign = 0u;
 264              		.loc 1 291 0
 265 0012 1A1B     		subs	r2, r3, r4
 266              	.LVL30:
 296:Generated_Source\PSoC4/CapSense_Filter.c ****         {
 267              		.loc 1 296 0
 268 0014 B242     		cmp	r2, r6
 269 0016 1AD8     		bhi	.L19
 292:Generated_Source\PSoC4/CapSense_Filter.c ****         }
 270              		.loc 1 292 0
 271 0018 0026     		movs	r6, #0
 272 001a 03E0     		b	.L20
 273              	.LVL31:
 274              	.L18:
 287:Generated_Source\PSoC4/CapSense_Filter.c ****         }
 275              		.loc 1 287 0
 276 001c 0026     		movs	r6, #0
 285:Generated_Source\PSoC4/CapSense_Filter.c ****             sign = 1u;
 277              		.loc 1 285 0
 278 001e E21A     		subs	r2, r4, r3
 279              	.LVL32:
ARM GAS  C:\Users\zack.li\AppData\Local\Temp\ccZi1DuV.s 			page 17


 287:Generated_Source\PSoC4/CapSense_Filter.c ****         }
 280              		.loc 1 287 0
 281 0020 0672     		strb	r6, [r0, #8]
 286:Generated_Source\PSoC4/CapSense_Filter.c ****             ptrSensor->negBslnRstCnt[freqChannel] = 0u;
 282              		.loc 1 286 0
 283 0022 0136     		adds	r6, r6, #1
 284              	.LVL33:
 285              	.L20:
 311:Generated_Source\PSoC4/CapSense_Filter.c ****                     ((difference <= (uint32) ptrWidgetRam->nNoiseTh) && (sign == 0u)))
 286              		.loc 1 311 0
 287 0024 2F79     		ldrb	r7, [r5, #4]
 288 0026 BA42     		cmp	r2, r7
 289 0028 0BD8     		bhi	.L21
 290              	.LVL34:
 291              	.L24:
 318:Generated_Source\PSoC4/CapSense_Filter.c ****                 {
 292              		.loc 1 318 0
 293 002a FF25     		movs	r5, #255
 294 002c 0279     		ldrb	r2, [r0, #4]
 295              	.LVL35:
 296 002e 1B02     		lsls	r3, r3, #8
 297              	.LBB14:
 298              	.LBB15:
 599:Generated_Source\PSoC4/CapSense_Filter.c **** 
 600:Generated_Source\PSoC4/CapSense_Filter.c **** #if ((CapSense_ENABLE == CapSense_RC_FILTER_EN) || \
 601:Generated_Source\PSoC4/CapSense_Filter.c ****      (0u != (CapSense_CSD_AUTOTUNE & CapSense_CSD_SS_TH_EN)))
 602:Generated_Source\PSoC4/CapSense_Filter.c **** /*******************************************************************************
 603:Generated_Source\PSoC4/CapSense_Filter.c **** * Function Name: CapSense_InitializeAllFilters
 604:Generated_Source\PSoC4/CapSense_Filter.c **** ****************************************************************************//**
 605:Generated_Source\PSoC4/CapSense_Filter.c **** *
 606:Generated_Source\PSoC4/CapSense_Filter.c **** * \brief
 607:Generated_Source\PSoC4/CapSense_Filter.c **** *  Initializes (or re-initializes) the raw count filter history of all the
 608:Generated_Source\PSoC4/CapSense_Filter.c **** *  sensors of all the widgets.
 609:Generated_Source\PSoC4/CapSense_Filter.c **** *
 610:Generated_Source\PSoC4/CapSense_Filter.c **** * \details
 611:Generated_Source\PSoC4/CapSense_Filter.c **** *  Initializes the raw count filter history for all the sensors of all the
 612:Generated_Source\PSoC4/CapSense_Filter.c **** *  widgets. Also, this function can be used to re-initialize baselines.
 613:Generated_Source\PSoC4/CapSense_Filter.c **** *  CapSense_Start() calls this API as part of CapSense
 614:Generated_Source\PSoC4/CapSense_Filter.c **** *  operation initialization.
 615:Generated_Source\PSoC4/CapSense_Filter.c **** *
 616:Generated_Source\PSoC4/CapSense_Filter.c **** *******************************************************************************/
 617:Generated_Source\PSoC4/CapSense_Filter.c **** void CapSense_InitializeAllFilters(void)
 618:Generated_Source\PSoC4/CapSense_Filter.c **** {
 619:Generated_Source\PSoC4/CapSense_Filter.c ****     uint32 widgetId;
 620:Generated_Source\PSoC4/CapSense_Filter.c **** 
 621:Generated_Source\PSoC4/CapSense_Filter.c ****     for(widgetId = CapSense_TOTAL_WIDGETS; widgetId-- > 0u;)
 622:Generated_Source\PSoC4/CapSense_Filter.c ****     {
 623:Generated_Source\PSoC4/CapSense_Filter.c ****         CapSense_InitializeWidgetFilter(widgetId);
 624:Generated_Source\PSoC4/CapSense_Filter.c ****     }
 625:Generated_Source\PSoC4/CapSense_Filter.c **** }
 626:Generated_Source\PSoC4/CapSense_Filter.c **** 
 627:Generated_Source\PSoC4/CapSense_Filter.c **** /*******************************************************************************
 628:Generated_Source\PSoC4/CapSense_Filter.c **** * Function Name: CapSense_InitializeWidgetFilter
 629:Generated_Source\PSoC4/CapSense_Filter.c **** ****************************************************************************//**
 630:Generated_Source\PSoC4/CapSense_Filter.c **** *
 631:Generated_Source\PSoC4/CapSense_Filter.c **** * \brief
 632:Generated_Source\PSoC4/CapSense_Filter.c **** *  Initializes (or re-initializes) the raw count filter history of all the sensors
ARM GAS  C:\Users\zack.li\AppData\Local\Temp\ccZi1DuV.s 			page 18


 633:Generated_Source\PSoC4/CapSense_Filter.c **** *  in a widget specified by the input parameter.
 634:Generated_Source\PSoC4/CapSense_Filter.c **** *
 635:Generated_Source\PSoC4/CapSense_Filter.c **** * \details
 636:Generated_Source\PSoC4/CapSense_Filter.c **** *  Initializes (or re-initializes) the raw count filter history of all the sensors
 637:Generated_Source\PSoC4/CapSense_Filter.c **** *  in a widget specified by the input parameter.
 638:Generated_Source\PSoC4/CapSense_Filter.c **** *
 639:Generated_Source\PSoC4/CapSense_Filter.c **** * \param widgetId
 640:Generated_Source\PSoC4/CapSense_Filter.c **** *  Specifies the ID number of a widget to initialize the filter history of all
 641:Generated_Source\PSoC4/CapSense_Filter.c **** *  the sensors in the widget.
 642:Generated_Source\PSoC4/CapSense_Filter.c **** *  A macro for the widget ID can be found in the
 643:Generated_Source\PSoC4/CapSense_Filter.c **** *  CapSense Configuration header file defined as
 644:Generated_Source\PSoC4/CapSense_Filter.c **** *  CapSense_<WidgetName>_WDGT_ID.
 645:Generated_Source\PSoC4/CapSense_Filter.c **** *
 646:Generated_Source\PSoC4/CapSense_Filter.c **** *******************************************************************************/
 647:Generated_Source\PSoC4/CapSense_Filter.c **** void CapSense_InitializeWidgetFilter(uint32 widgetId)
 648:Generated_Source\PSoC4/CapSense_Filter.c **** {
 649:Generated_Source\PSoC4/CapSense_Filter.c ****     uint32 sensorId;
 650:Generated_Source\PSoC4/CapSense_Filter.c ****     uint32 sensorsNumber;
 651:Generated_Source\PSoC4/CapSense_Filter.c **** 
 652:Generated_Source\PSoC4/CapSense_Filter.c ****     CapSense_FLASH_WD_STRUCT const *ptrWidget;
 653:Generated_Source\PSoC4/CapSense_Filter.c ****     CapSense_RAM_SNS_STRUCT *ptrSensor = NULL;
 654:Generated_Source\PSoC4/CapSense_Filter.c ****     #if (CapSense_ENABLE == CapSense_RC_FILTER_EN)
 655:Generated_Source\PSoC4/CapSense_Filter.c ****         CapSense_PTR_FILTER_VARIANT ptrFilterHistObj;
 656:Generated_Source\PSoC4/CapSense_Filter.c ****     #endif
 657:Generated_Source\PSoC4/CapSense_Filter.c **** 
 658:Generated_Source\PSoC4/CapSense_Filter.c ****     #if (0u != (CapSense_CSD_AUTOTUNE & CapSense_CSD_SS_TH_EN))
 659:Generated_Source\PSoC4/CapSense_Filter.c ****         CapSense_RAM_WD_BASE_STRUCT *ptrWidgetRam;
 660:Generated_Source\PSoC4/CapSense_Filter.c ****         SMARTSENSE_CSD_NOISE_ENVELOPE_STRUCT *ptrNoiseEnvelope = NULL;
 661:Generated_Source\PSoC4/CapSense_Filter.c ****     #endif /* (0u != (CapSense_CSD_AUTOTUNE & CapSense_CSD_SS_TH_EN)) */
 662:Generated_Source\PSoC4/CapSense_Filter.c **** 
 663:Generated_Source\PSoC4/CapSense_Filter.c ****     ptrWidget = &CapSense_dsFlash.wdgtArray[widgetId];
 664:Generated_Source\PSoC4/CapSense_Filter.c **** 
 665:Generated_Source\PSoC4/CapSense_Filter.c ****     #if (0u != (CapSense_CSD_AUTOTUNE & CapSense_CSD_SS_TH_EN))
 666:Generated_Source\PSoC4/CapSense_Filter.c ****         ptrWidgetRam = ptrWidget->ptr2WdgtRam;
 667:Generated_Source\PSoC4/CapSense_Filter.c ****     #endif /* (0u != (CapSense_CSD_AUTOTUNE & CapSense_CSD_SS_TH_EN)) */
 668:Generated_Source\PSoC4/CapSense_Filter.c **** 
 669:Generated_Source\PSoC4/CapSense_Filter.c ****     /* Find total amount of sensors in specified widget */
 670:Generated_Source\PSoC4/CapSense_Filter.c ****     sensorsNumber = CapSense_GET_SNS_CNT_BY_PTR(ptrWidget);
 671:Generated_Source\PSoC4/CapSense_Filter.c **** 
 672:Generated_Source\PSoC4/CapSense_Filter.c ****     for (sensorId = sensorsNumber; sensorId-- > 0u;)
 673:Generated_Source\PSoC4/CapSense_Filter.c ****     {
 674:Generated_Source\PSoC4/CapSense_Filter.c ****         /* Find pointer to specified sensor object */
 675:Generated_Source\PSoC4/CapSense_Filter.c ****         ptrSensor = ptrWidget->ptr2SnsRam;
 676:Generated_Source\PSoC4/CapSense_Filter.c ****         ptrSensor = &ptrSensor[sensorId];
 677:Generated_Source\PSoC4/CapSense_Filter.c **** 
 678:Generated_Source\PSoC4/CapSense_Filter.c ****         #if (CapSense_ENABLE == CapSense_RC_FILTER_EN)
 679:Generated_Source\PSoC4/CapSense_Filter.c ****             /* Find pointer to to specified filter sensor object */
 680:Generated_Source\PSoC4/CapSense_Filter.c ****             ptrFilterHistObj.ptr = ptrWidget->ptr2FltrHistory;
 681:Generated_Source\PSoC4/CapSense_Filter.c ****         #endif
 682:Generated_Source\PSoC4/CapSense_Filter.c **** 
 683:Generated_Source\PSoC4/CapSense_Filter.c ****         #if (0u != (CapSense_CSD_AUTOTUNE & CapSense_CSD_SS_TH_EN))
 684:Generated_Source\PSoC4/CapSense_Filter.c ****             /* Find pointer to specified noise envelope sensor object */
 685:Generated_Source\PSoC4/CapSense_Filter.c ****             ptrNoiseEnvelope = ptrWidget->ptr2NoiseEnvlp;
 686:Generated_Source\PSoC4/CapSense_Filter.c ****             ptrNoiseEnvelope = &ptrNoiseEnvelope[sensorId];
 687:Generated_Source\PSoC4/CapSense_Filter.c ****         #endif /* (0u != (CapSense_CSD_AUTOTUNE & CapSense_CSD_SS_TH_EN)) */
 688:Generated_Source\PSoC4/CapSense_Filter.c **** 
 689:Generated_Source\PSoC4/CapSense_Filter.c ****         if ((CapSense_WD_TYPE_ENUM)ptrWidget->wdgtType != CapSense_WD_PROXIMITY_E)
ARM GAS  C:\Users\zack.li\AppData\Local\Temp\ccZi1DuV.s 			page 19


 690:Generated_Source\PSoC4/CapSense_Filter.c ****         {
 691:Generated_Source\PSoC4/CapSense_Filter.c ****             #if (0u != CapSense_REGULAR_RC_ALP_FILTER_EN)
 692:Generated_Source\PSoC4/CapSense_Filter.c ****                 ptrFilterHistObj.ptrAlp = &ptrFilterHistObj.ptrAlp[sensorId];
 693:Generated_Source\PSoC4/CapSense_Filter.c ****             #elif (0u != CapSense_REGULAR_RC_FILTER_EN)
 694:Generated_Source\PSoC4/CapSense_Filter.c ****                 ptrFilterHistObj.ptrRegular = &ptrFilterHistObj.ptrRegular[sensorId];
 695:Generated_Source\PSoC4/CapSense_Filter.c ****             #endif
 696:Generated_Source\PSoC4/CapSense_Filter.c ****         }
 697:Generated_Source\PSoC4/CapSense_Filter.c ****         else
 698:Generated_Source\PSoC4/CapSense_Filter.c ****         {
 699:Generated_Source\PSoC4/CapSense_Filter.c ****             #if (0u != CapSense_PROX_RC_ALP_FILTER_EN)
 700:Generated_Source\PSoC4/CapSense_Filter.c ****                 ptrFilterHistObj.ptrAlp = &ptrFilterHistObj.ptrAlp[sensorId];
 701:Generated_Source\PSoC4/CapSense_Filter.c ****             #elif (0u != CapSense_PROX_RC_FILTER_EN)
 702:Generated_Source\PSoC4/CapSense_Filter.c ****                 ptrFilterHistObj.ptrProx = &ptrFilterHistObj.ptrProx[sensorId];
 703:Generated_Source\PSoC4/CapSense_Filter.c ****             #endif /* #if (0u != CapSense_PROX_RC_FILTER_EN) */
 704:Generated_Source\PSoC4/CapSense_Filter.c ****         }
 705:Generated_Source\PSoC4/CapSense_Filter.c **** 
 706:Generated_Source\PSoC4/CapSense_Filter.c ****         #if (CapSense_REGULAR_RC_IIR_FILTER_EN || CapSense_PROX_RC_IIR_FILTER_EN)
 707:Generated_Source\PSoC4/CapSense_Filter.c ****             CapSense_InitializeIIRInternal(ptrFilterHistObj, ptrSensor, (uint32)ptrWidget->wdgtType
 708:Generated_Source\PSoC4/CapSense_Filter.c ****         #endif /* (CapSense_REGULAR_RC_IIR_FILTER_EN || CapSense_PROX_RC_IIR_FILTER_EN) */
 709:Generated_Source\PSoC4/CapSense_Filter.c **** 
 710:Generated_Source\PSoC4/CapSense_Filter.c ****         #if (CapSense_REGULAR_RC_MEDIAN_FILTER_EN || CapSense_PROX_RC_MEDIAN_FILTER_EN)
 711:Generated_Source\PSoC4/CapSense_Filter.c ****             CapSense_InitializeMedianInternal(ptrFilterHistObj, ptrSensor, (uint32)ptrWidget->wdgtT
 712:Generated_Source\PSoC4/CapSense_Filter.c ****         #endif /* (CapSense_REGULAR_RC_MEDIAN_FILTER_EN || CapSense_PROX_RC_MEDIAN_FILTER_EN) */
 713:Generated_Source\PSoC4/CapSense_Filter.c **** 
 714:Generated_Source\PSoC4/CapSense_Filter.c ****         #if (CapSense_REGULAR_RC_AVERAGE_FILTER_EN || CapSense_PROX_RC_AVERAGE_FILTER_EN)
 715:Generated_Source\PSoC4/CapSense_Filter.c ****             CapSense_InitializeAverageInternal(ptrFilterHistObj, ptrSensor, (uint32)ptrWidget->wdgt
 716:Generated_Source\PSoC4/CapSense_Filter.c ****         #endif /* (CapSense_REGULAR_RC_AVERAGE_FILTER_EN || CapSense_PROX_RC_AVERAGE_FILTER_EN) */
 717:Generated_Source\PSoC4/CapSense_Filter.c **** 
 718:Generated_Source\PSoC4/CapSense_Filter.c ****         #if (CapSense_ALP_FILTER_EN)
 719:Generated_Source\PSoC4/CapSense_Filter.c ****             CapSense_InitializeALPInternal(ptrFilterHistObj, ptrSensor, (uint32)ptrWidget->wdgtType
 720:Generated_Source\PSoC4/CapSense_Filter.c ****         #endif
 721:Generated_Source\PSoC4/CapSense_Filter.c **** 
 722:Generated_Source\PSoC4/CapSense_Filter.c ****         #if (0u != (CapSense_CSD_AUTOTUNE & CapSense_CSD_SS_TH_EN))
 723:Generated_Source\PSoC4/CapSense_Filter.c ****             if (CapSense_SENSE_METHOD_CSD_E ==
 724:Generated_Source\PSoC4/CapSense_Filter.c ****                 CapSense_GET_SENSE_METHOD(&CapSense_dsFlash.wdgtArray[widgetId]))
 725:Generated_Source\PSoC4/CapSense_Filter.c ****             {
 726:Generated_Source\PSoC4/CapSense_Filter.c ****                 SmartSense_InitializeNoiseEnvelope(ptrSensor->raw[0u], ptrWidgetRam->sigPFC, ptrNoi
 727:Generated_Source\PSoC4/CapSense_Filter.c ****             }
 728:Generated_Source\PSoC4/CapSense_Filter.c ****         #endif /* (0u != (CapSense_CSD_AUTOTUNE & CapSense_CSD_SS_TH_EN)) */
 729:Generated_Source\PSoC4/CapSense_Filter.c ****     }
 730:Generated_Source\PSoC4/CapSense_Filter.c **** }
 731:Generated_Source\PSoC4/CapSense_Filter.c **** #endif /* ((CapSense_ENABLE == CapSense_RC_FILTER_EN) || \
 732:Generated_Source\PSoC4/CapSense_Filter.c ****            (0u != (CapSense_CSD_AUTOTUNE & CapSense_CSD_SS_TH_EN))) */
 733:Generated_Source\PSoC4/CapSense_Filter.c **** 
 734:Generated_Source\PSoC4/CapSense_Filter.c **** #if (CapSense_REGULAR_RC_IIR_FILTER_EN || CapSense_PROX_RC_IIR_FILTER_EN)
 735:Generated_Source\PSoC4/CapSense_Filter.c **** /*******************************************************************************
 736:Generated_Source\PSoC4/CapSense_Filter.c **** * Function Name: CapSense_InitializeIIR
 737:Generated_Source\PSoC4/CapSense_Filter.c **** ****************************************************************************//**
 738:Generated_Source\PSoC4/CapSense_Filter.c **** *
 739:Generated_Source\PSoC4/CapSense_Filter.c **** * \brief
 740:Generated_Source\PSoC4/CapSense_Filter.c **** *  Initialize the IIR filter history.
 741:Generated_Source\PSoC4/CapSense_Filter.c **** *
 742:Generated_Source\PSoC4/CapSense_Filter.c **** * \details
 743:Generated_Source\PSoC4/CapSense_Filter.c **** *  Initialize the IIR filter history.
 744:Generated_Source\PSoC4/CapSense_Filter.c **** *
 745:Generated_Source\PSoC4/CapSense_Filter.c **** * \param widgetId
 746:Generated_Source\PSoC4/CapSense_Filter.c **** *  Specifies the ID number of the widget.
ARM GAS  C:\Users\zack.li\AppData\Local\Temp\ccZi1DuV.s 			page 20


 747:Generated_Source\PSoC4/CapSense_Filter.c **** *
 748:Generated_Source\PSoC4/CapSense_Filter.c **** * \param sensorId
 749:Generated_Source\PSoC4/CapSense_Filter.c **** *  Specifies the ID number of the sensor in the widget.
 750:Generated_Source\PSoC4/CapSense_Filter.c **** *
 751:Generated_Source\PSoC4/CapSense_Filter.c **** *******************************************************************************/
 752:Generated_Source\PSoC4/CapSense_Filter.c **** void CapSense_InitializeIIR(uint32 widgetId, uint32 sensorId)
 753:Generated_Source\PSoC4/CapSense_Filter.c **** {
 754:Generated_Source\PSoC4/CapSense_Filter.c ****     CapSense_FLASH_WD_STRUCT const *ptrWidget = &CapSense_dsFlash.wdgtArray[widgetId];
 755:Generated_Source\PSoC4/CapSense_Filter.c ****     CapSense_RAM_SNS_STRUCT *ptrSensor = NULL;
 756:Generated_Source\PSoC4/CapSense_Filter.c ****     CapSense_PTR_FILTER_VARIANT ptrFilterHistObj;
 757:Generated_Source\PSoC4/CapSense_Filter.c **** 
 758:Generated_Source\PSoC4/CapSense_Filter.c ****     /* Find pointer to specified sensor object */
 759:Generated_Source\PSoC4/CapSense_Filter.c ****     ptrSensor = ptrWidget->ptr2SnsRam;
 760:Generated_Source\PSoC4/CapSense_Filter.c ****     ptrSensor = &ptrSensor[sensorId];
 761:Generated_Source\PSoC4/CapSense_Filter.c **** 
 762:Generated_Source\PSoC4/CapSense_Filter.c ****     /* Find pointer to specified filter sensor object */
 763:Generated_Source\PSoC4/CapSense_Filter.c ****     ptrFilterHistObj.ptr = ptrWidget->ptr2FltrHistory;
 764:Generated_Source\PSoC4/CapSense_Filter.c **** 
 765:Generated_Source\PSoC4/CapSense_Filter.c ****     if ((CapSense_WD_TYPE_ENUM)ptrWidget->wdgtType != CapSense_WD_PROXIMITY_E)
 766:Generated_Source\PSoC4/CapSense_Filter.c ****     {
 767:Generated_Source\PSoC4/CapSense_Filter.c ****         #if (CapSense_REGULAR_SENSOR_EN)
 768:Generated_Source\PSoC4/CapSense_Filter.c ****             ptrFilterHistObj.ptrRegular = &ptrFilterHistObj.ptrRegular[sensorId];
 769:Generated_Source\PSoC4/CapSense_Filter.c ****         #endif /* (CapSense_REGULAR_SENSOR_EN) */
 770:Generated_Source\PSoC4/CapSense_Filter.c ****     }
 771:Generated_Source\PSoC4/CapSense_Filter.c ****     else
 772:Generated_Source\PSoC4/CapSense_Filter.c ****     {
 773:Generated_Source\PSoC4/CapSense_Filter.c ****         #if (CapSense_PROXIMITY_SENSOR_EN)
 774:Generated_Source\PSoC4/CapSense_Filter.c ****             ptrFilterHistObj.ptrProx = &ptrFilterHistObj.ptrProx[sensorId];
 775:Generated_Source\PSoC4/CapSense_Filter.c ****         #endif /* (CapSense_PROXIMITY_SENSOR_EN) */
 776:Generated_Source\PSoC4/CapSense_Filter.c ****     }
 777:Generated_Source\PSoC4/CapSense_Filter.c **** 
 778:Generated_Source\PSoC4/CapSense_Filter.c ****     CapSense_InitializeIIRInternal(ptrFilterHistObj, ptrSensor, (uint32)ptrWidget->wdgtType);
 779:Generated_Source\PSoC4/CapSense_Filter.c **** }
 780:Generated_Source\PSoC4/CapSense_Filter.c **** 
 781:Generated_Source\PSoC4/CapSense_Filter.c **** 
 782:Generated_Source\PSoC4/CapSense_Filter.c **** /*******************************************************************************
 783:Generated_Source\PSoC4/CapSense_Filter.c **** * Function Name: CapSense_RunIIR
 784:Generated_Source\PSoC4/CapSense_Filter.c **** ****************************************************************************//**
 785:Generated_Source\PSoC4/CapSense_Filter.c **** *
 786:Generated_Source\PSoC4/CapSense_Filter.c **** * \brief
 787:Generated_Source\PSoC4/CapSense_Filter.c **** *  Executes the IIR filter algorithm on a sensor indicated by an input
 788:Generated_Source\PSoC4/CapSense_Filter.c **** *  parameter.
 789:Generated_Source\PSoC4/CapSense_Filter.c **** *
 790:Generated_Source\PSoC4/CapSense_Filter.c **** * \details
 791:Generated_Source\PSoC4/CapSense_Filter.c **** *  Executes the IIR filter algorithm on a sensor indicated by an input
 792:Generated_Source\PSoC4/CapSense_Filter.c **** *  parameter.
 793:Generated_Source\PSoC4/CapSense_Filter.c **** *
 794:Generated_Source\PSoC4/CapSense_Filter.c **** * \param widgetId
 795:Generated_Source\PSoC4/CapSense_Filter.c **** *  Specifies the ID number of the widget.
 796:Generated_Source\PSoC4/CapSense_Filter.c **** *
 797:Generated_Source\PSoC4/CapSense_Filter.c **** * \param sensorId
 798:Generated_Source\PSoC4/CapSense_Filter.c **** *  Specifies the ID number of the sensor in the widget.
 799:Generated_Source\PSoC4/CapSense_Filter.c **** *
 800:Generated_Source\PSoC4/CapSense_Filter.c **** *******************************************************************************/
 801:Generated_Source\PSoC4/CapSense_Filter.c **** void CapSense_RunIIR(uint32 widgetId, uint32 sensorId)
 802:Generated_Source\PSoC4/CapSense_Filter.c **** {
 803:Generated_Source\PSoC4/CapSense_Filter.c ****     CapSense_FLASH_WD_STRUCT const *ptrWidget = &CapSense_dsFlash.wdgtArray[widgetId];
ARM GAS  C:\Users\zack.li\AppData\Local\Temp\ccZi1DuV.s 			page 21


 804:Generated_Source\PSoC4/CapSense_Filter.c ****     CapSense_RAM_SNS_STRUCT *ptrSensor = NULL;
 805:Generated_Source\PSoC4/CapSense_Filter.c ****     CapSense_PTR_FILTER_VARIANT ptrFilterHistObj;
 806:Generated_Source\PSoC4/CapSense_Filter.c **** 
 807:Generated_Source\PSoC4/CapSense_Filter.c ****     /* Find pointer to specified sensor object */
 808:Generated_Source\PSoC4/CapSense_Filter.c ****     ptrSensor = ptrWidget->ptr2SnsRam;
 809:Generated_Source\PSoC4/CapSense_Filter.c ****     ptrSensor = &ptrSensor[sensorId];
 810:Generated_Source\PSoC4/CapSense_Filter.c **** 
 811:Generated_Source\PSoC4/CapSense_Filter.c ****     /* Find pointer to specified filter sensor object */
 812:Generated_Source\PSoC4/CapSense_Filter.c ****     ptrFilterHistObj.ptr = ptrWidget->ptr2FltrHistory;
 813:Generated_Source\PSoC4/CapSense_Filter.c **** 
 814:Generated_Source\PSoC4/CapSense_Filter.c ****     if ((CapSense_WD_TYPE_ENUM)ptrWidget->wdgtType != CapSense_WD_PROXIMITY_E)
 815:Generated_Source\PSoC4/CapSense_Filter.c ****     {
 816:Generated_Source\PSoC4/CapSense_Filter.c ****         #if (CapSense_REGULAR_SENSOR_EN)
 817:Generated_Source\PSoC4/CapSense_Filter.c ****             ptrFilterHistObj.ptrRegular = &ptrFilterHistObj.ptrRegular[sensorId];
 818:Generated_Source\PSoC4/CapSense_Filter.c ****         #endif /* (CapSense_REGULAR_SENSOR_EN) */
 819:Generated_Source\PSoC4/CapSense_Filter.c ****     }
 820:Generated_Source\PSoC4/CapSense_Filter.c ****     else
 821:Generated_Source\PSoC4/CapSense_Filter.c ****     {
 822:Generated_Source\PSoC4/CapSense_Filter.c ****         #if (CapSense_PROXIMITY_SENSOR_EN)
 823:Generated_Source\PSoC4/CapSense_Filter.c ****             ptrFilterHistObj.ptrProx = &ptrFilterHistObj.ptrProx[sensorId];
 824:Generated_Source\PSoC4/CapSense_Filter.c ****         #endif /* (CapSense_PROXIMITY_SENSOR_EN) */
 825:Generated_Source\PSoC4/CapSense_Filter.c ****     }
 826:Generated_Source\PSoC4/CapSense_Filter.c **** 
 827:Generated_Source\PSoC4/CapSense_Filter.c ****     CapSense_RunIIRInternal(ptrFilterHistObj, ptrSensor, (uint32)ptrWidget->wdgtType);
 828:Generated_Source\PSoC4/CapSense_Filter.c **** }
 829:Generated_Source\PSoC4/CapSense_Filter.c **** 
 830:Generated_Source\PSoC4/CapSense_Filter.c **** /*******************************************************************************
 831:Generated_Source\PSoC4/CapSense_Filter.c **** * Function Name: CapSense_InitializeIIRInternal
 832:Generated_Source\PSoC4/CapSense_Filter.c **** ****************************************************************************//**
 833:Generated_Source\PSoC4/CapSense_Filter.c **** *
 834:Generated_Source\PSoC4/CapSense_Filter.c **** * \brief
 835:Generated_Source\PSoC4/CapSense_Filter.c **** *  Initializes the IIR filter history.
 836:Generated_Source\PSoC4/CapSense_Filter.c **** *
 837:Generated_Source\PSoC4/CapSense_Filter.c **** * \details
 838:Generated_Source\PSoC4/CapSense_Filter.c **** *  Initializes the IIR filter history.
 839:Generated_Source\PSoC4/CapSense_Filter.c **** *
 840:Generated_Source\PSoC4/CapSense_Filter.c **** * \param ptrFilterHistObj
 841:Generated_Source\PSoC4/CapSense_Filter.c **** *  The pointer to the filter RAM object of the sensor.
 842:Generated_Source\PSoC4/CapSense_Filter.c **** *
 843:Generated_Source\PSoC4/CapSense_Filter.c **** * \param ptrSensorObj
 844:Generated_Source\PSoC4/CapSense_Filter.c **** *  The pointer to the sensor RAM object of the sensor.
 845:Generated_Source\PSoC4/CapSense_Filter.c **** *
 846:Generated_Source\PSoC4/CapSense_Filter.c **** * \param wdType
 847:Generated_Source\PSoC4/CapSense_Filter.c **** *  Specifies the type of a widget.
 848:Generated_Source\PSoC4/CapSense_Filter.c **** *
 849:Generated_Source\PSoC4/CapSense_Filter.c **** *******************************************************************************/
 850:Generated_Source\PSoC4/CapSense_Filter.c **** void CapSense_InitializeIIRInternal(CapSense_PTR_FILTER_VARIANT ptrFilterHistObj,
 851:Generated_Source\PSoC4/CapSense_Filter.c ****                                             CapSense_RAM_SNS_STRUCT *ptrSensorObj, uint32 wdType)
 852:Generated_Source\PSoC4/CapSense_Filter.c **** {
 853:Generated_Source\PSoC4/CapSense_Filter.c ****     uint32 freqChannel;
 854:Generated_Source\PSoC4/CapSense_Filter.c **** 
 855:Generated_Source\PSoC4/CapSense_Filter.c ****     for(freqChannel = CapSense_NUM_SCAN_FREQS; freqChannel-- > 0u;)
 856:Generated_Source\PSoC4/CapSense_Filter.c ****     {
 857:Generated_Source\PSoC4/CapSense_Filter.c ****         if ((CapSense_WD_TYPE_ENUM)wdType != CapSense_WD_PROXIMITY_E)
 858:Generated_Source\PSoC4/CapSense_Filter.c ****         {
 859:Generated_Source\PSoC4/CapSense_Filter.c ****             #if (CapSense_REGULAR_SENSOR_EN && CapSense_REGULAR_RC_IIR_FILTER_EN)
 860:Generated_Source\PSoC4/CapSense_Filter.c ****                 #if (CapSense_REGULAR_IIR_RC_TYPE == CapSense_IIR_FILTER_PERFORMANCE)
ARM GAS  C:\Users\zack.li\AppData\Local\Temp\ccZi1DuV.s 			page 22


 861:Generated_Source\PSoC4/CapSense_Filter.c ****                     ptrFilterHistObj.ptrRegular->regularChannel[freqChannel].iirHistory = ptrSensor
 862:Generated_Source\PSoC4/CapSense_Filter.c ****                     ptrFilterHistObj.ptrRegular->regularChannel[freqChannel].iirHistoryLow = 0u;
 863:Generated_Source\PSoC4/CapSense_Filter.c ****                 #else
 864:Generated_Source\PSoC4/CapSense_Filter.c ****                     ptrFilterHistObj.ptrRegular->regularChannel[freqChannel].iirHistory = ptrSensor
 865:Generated_Source\PSoC4/CapSense_Filter.c ****                 #endif /* (CapSense_REGULAR_IIR_RC_TYPE == CapSense_IIR_FILTER_PERFORMANCE) */
 866:Generated_Source\PSoC4/CapSense_Filter.c ****             #endif /* (CapSense_REGULAR_SENSOR_EN) */
 867:Generated_Source\PSoC4/CapSense_Filter.c ****         }
 868:Generated_Source\PSoC4/CapSense_Filter.c ****         else
 869:Generated_Source\PSoC4/CapSense_Filter.c ****         {
 870:Generated_Source\PSoC4/CapSense_Filter.c ****             #if (CapSense_PROXIMITY_SENSOR_EN && CapSense_PROX_RC_IIR_FILTER_EN)
 871:Generated_Source\PSoC4/CapSense_Filter.c ****                 #if (CapSense_PROX_IIR_RC_TYPE == CapSense_IIR_FILTER_PERFORMANCE)
 872:Generated_Source\PSoC4/CapSense_Filter.c ****                     ptrFilterHistObj.ptrProx->proxChannel[freqChannel].iirHistory = ptrSensorObj->r
 873:Generated_Source\PSoC4/CapSense_Filter.c ****                     ptrFilterHistObj.ptrProx->proxChannel[freqChannel].iirHistoryLow = 0u;
 874:Generated_Source\PSoC4/CapSense_Filter.c ****                 #else
 875:Generated_Source\PSoC4/CapSense_Filter.c ****                     ptrFilterHistObj.ptrProx->proxChannel[freqChannel].iirHistory = ptrSensorObj->r
 876:Generated_Source\PSoC4/CapSense_Filter.c ****                 #endif /* (CapSense_PROX_IIR_RC_TYPE == CapSense_IIR_FILTER_PERFORMANCE) */
 877:Generated_Source\PSoC4/CapSense_Filter.c ****             #endif /* (CapSense_PROX_SENSOR_EN) */
 878:Generated_Source\PSoC4/CapSense_Filter.c ****         }
 879:Generated_Source\PSoC4/CapSense_Filter.c ****     }
 880:Generated_Source\PSoC4/CapSense_Filter.c **** }
 881:Generated_Source\PSoC4/CapSense_Filter.c **** 
 882:Generated_Source\PSoC4/CapSense_Filter.c **** 
 883:Generated_Source\PSoC4/CapSense_Filter.c **** /*******************************************************************************
 884:Generated_Source\PSoC4/CapSense_Filter.c **** * Function Name: CapSense_RunIIRInternal
 885:Generated_Source\PSoC4/CapSense_Filter.c **** ****************************************************************************//**
 886:Generated_Source\PSoC4/CapSense_Filter.c **** *
 887:Generated_Source\PSoC4/CapSense_Filter.c **** * \brief
 888:Generated_Source\PSoC4/CapSense_Filter.c **** *  Run the IIR filter.
 889:Generated_Source\PSoC4/CapSense_Filter.c **** *
 890:Generated_Source\PSoC4/CapSense_Filter.c **** * \details
 891:Generated_Source\PSoC4/CapSense_Filter.c **** *  Run the IIR filter.
 892:Generated_Source\PSoC4/CapSense_Filter.c **** *
 893:Generated_Source\PSoC4/CapSense_Filter.c **** * \param ptrFilterHistObj
 894:Generated_Source\PSoC4/CapSense_Filter.c **** *  The pointer to the filter RAM object of the sensor.
 895:Generated_Source\PSoC4/CapSense_Filter.c **** *
 896:Generated_Source\PSoC4/CapSense_Filter.c **** * \param ptrSensorObj
 897:Generated_Source\PSoC4/CapSense_Filter.c **** *  The pointer to the sensor RAM object of the sensor.
 898:Generated_Source\PSoC4/CapSense_Filter.c **** *
 899:Generated_Source\PSoC4/CapSense_Filter.c **** * \param wdType
 900:Generated_Source\PSoC4/CapSense_Filter.c **** *  Specifies the type of a widget.
 901:Generated_Source\PSoC4/CapSense_Filter.c **** *
 902:Generated_Source\PSoC4/CapSense_Filter.c **** *******************************************************************************/
 903:Generated_Source\PSoC4/CapSense_Filter.c **** void CapSense_RunIIRInternal(CapSense_PTR_FILTER_VARIANT ptrFilterHistObj,
 904:Generated_Source\PSoC4/CapSense_Filter.c ****                                      CapSense_RAM_SNS_STRUCT *ptrSensorObj, uint32 wdType)
 905:Generated_Source\PSoC4/CapSense_Filter.c **** {
 906:Generated_Source\PSoC4/CapSense_Filter.c ****     uint32 freqChannel;
 907:Generated_Source\PSoC4/CapSense_Filter.c ****     uint32 temp;
 908:Generated_Source\PSoC4/CapSense_Filter.c **** 
 909:Generated_Source\PSoC4/CapSense_Filter.c ****     for(freqChannel = CapSense_NUM_SCAN_FREQS; freqChannel-- > 0u;)
 910:Generated_Source\PSoC4/CapSense_Filter.c ****     {
 911:Generated_Source\PSoC4/CapSense_Filter.c ****         if ((CapSense_WD_TYPE_ENUM)wdType != CapSense_WD_PROXIMITY_E)
 912:Generated_Source\PSoC4/CapSense_Filter.c ****         {
 913:Generated_Source\PSoC4/CapSense_Filter.c ****             #if (CapSense_REGULAR_SENSOR_EN && CapSense_REGULAR_RC_IIR_FILTER_EN)
 914:Generated_Source\PSoC4/CapSense_Filter.c ****                 #if (CapSense_REGULAR_IIR_RC_TYPE == CapSense_IIR_FILTER_PERFORMANCE)
 915:Generated_Source\PSoC4/CapSense_Filter.c ****                     temp = ((uint32)ptrFilterHistObj.ptrRegular->regularChannel[freqChannel].iirHis
 916:Generated_Source\PSoC4/CapSense_Filter.c ****                     temp |= ptrFilterHistObj.ptrRegular->regularChannel[freqChannel].iirHistoryLow;
 917:Generated_Source\PSoC4/CapSense_Filter.c ****                     temp = CapSense_FtIIR1stOrder((uint32)ptrSensorObj->raw[freqChannel],
ARM GAS  C:\Users\zack.li\AppData\Local\Temp\ccZi1DuV.s 			page 23


 918:Generated_Source\PSoC4/CapSense_Filter.c ****                                                         temp,
 919:Generated_Source\PSoC4/CapSense_Filter.c ****                                                         CapSense_REGULAR_IIR_RC_N,
 920:Generated_Source\PSoC4/CapSense_Filter.c ****                                                         CapSense_REGULAR_IIR_RC_SHIFT);
 921:Generated_Source\PSoC4/CapSense_Filter.c ****                     ptrFilterHistObj.ptrRegular->regularChannel[freqChannel].iirHistory = LO16(temp
 922:Generated_Source\PSoC4/CapSense_Filter.c ****                     ptrFilterHistObj.ptrRegular->regularChannel[freqChannel].iirHistoryLow = LO8(te
 923:Generated_Source\PSoC4/CapSense_Filter.c ****                     ptrSensorObj->raw[freqChannel] = LO16(temp >>CapSense_REGULAR_IIR_RC_SHIFT);
 924:Generated_Source\PSoC4/CapSense_Filter.c ****                 #else
 925:Generated_Source\PSoC4/CapSense_Filter.c ****                     temp =CapSense_FtIIR1stOrder((uint32)ptrSensorObj->raw[freqChannel],
 926:Generated_Source\PSoC4/CapSense_Filter.c ****                                                         (uint32)ptrFilterHistObj.ptrRegular->regula
 927:Generated_Source\PSoC4/CapSense_Filter.c ****                                                         CapSense_REGULAR_IIR_RC_N,
 928:Generated_Source\PSoC4/CapSense_Filter.c ****                                                         CapSense_REGULAR_IIR_RC_SHIFT);
 929:Generated_Source\PSoC4/CapSense_Filter.c ****                     ptrFilterHistObj.ptrRegular->regularChannel[freqChannel].iirHistory = LO16(temp
 930:Generated_Source\PSoC4/CapSense_Filter.c ****                     ptrSensorObj->raw[freqChannel] = LO16(temp >>CapSense_REGULAR_IIR_RC_SHIFT);
 931:Generated_Source\PSoC4/CapSense_Filter.c ****                 #endif /* (CapSense_REGULAR_IIR_RC_TYPE == CapSense_IIR_FILTER_PERFORMANCE) */
 932:Generated_Source\PSoC4/CapSense_Filter.c ****             #endif /* (CapSense_REGULAR_SENSOR_EN) */
 933:Generated_Source\PSoC4/CapSense_Filter.c ****         }
 934:Generated_Source\PSoC4/CapSense_Filter.c ****         else
 935:Generated_Source\PSoC4/CapSense_Filter.c ****         {
 936:Generated_Source\PSoC4/CapSense_Filter.c ****             #if (CapSense_PROXIMITY_SENSOR_EN && CapSense_PROX_RC_IIR_FILTER_EN)
 937:Generated_Source\PSoC4/CapSense_Filter.c ****                 #if (CapSense_PROX_IIR_RC_TYPE == CapSense_IIR_FILTER_PERFORMANCE)
 938:Generated_Source\PSoC4/CapSense_Filter.c ****                     temp =  ptrFilterHistObj.ptrProx->proxChannel[freqChannel].iirHistory << CapSen
 939:Generated_Source\PSoC4/CapSense_Filter.c ****                     temp |= ptrFilterHistObj.ptrProx->proxChannel[freqChannel].iirHistoryLow;
 940:Generated_Source\PSoC4/CapSense_Filter.c ****                     temp =CapSense_FtIIR1stOrder((uint32)ptrSensorObj->raw[freqChannel],
 941:Generated_Source\PSoC4/CapSense_Filter.c ****                                                         temp,
 942:Generated_Source\PSoC4/CapSense_Filter.c ****                                                         CapSense_PROX_IIR_RC_N,
 943:Generated_Source\PSoC4/CapSense_Filter.c ****                                                         CapSense_PROX_IIR_RC_SHIFT);
 944:Generated_Source\PSoC4/CapSense_Filter.c ****                     ptrFilterHistObj.ptrProx->proxChannel[freqChannel].iirHistory = LO16(temp >>Cap
 945:Generated_Source\PSoC4/CapSense_Filter.c ****                     ptrFilterHistObj.ptrProx->proxChannel[freqChannel].iirHistoryLow = LO8(temp);
 946:Generated_Source\PSoC4/CapSense_Filter.c ****                     ptrSensorObj->raw[freqChannel] = LO16(temp >>CapSense_PROX_IIR_RC_SHIFT);
 947:Generated_Source\PSoC4/CapSense_Filter.c ****                 #else
 948:Generated_Source\PSoC4/CapSense_Filter.c ****                     temp =CapSense_FtIIR1stOrder((uint32)ptrSensorObj->raw[freqChannel],
 949:Generated_Source\PSoC4/CapSense_Filter.c ****                                                         (uint32)ptrFilterHistObj.ptrProx->proxChann
 950:Generated_Source\PSoC4/CapSense_Filter.c ****                                                         CapSense_PROX_IIR_RC_N,
 951:Generated_Source\PSoC4/CapSense_Filter.c ****                                                         CapSense_PROX_IIR_RC_SHIFT);
 952:Generated_Source\PSoC4/CapSense_Filter.c ****                     ptrFilterHistObj.ptrProx->proxChannel[freqChannel].iirHistory = LO16(temp);
 953:Generated_Source\PSoC4/CapSense_Filter.c ****                     ptrSensorObj->raw[freqChannel] = LO16(temp >>CapSense_PROX_IIR_RC_SHIFT);
 954:Generated_Source\PSoC4/CapSense_Filter.c ****                 #endif /* (CapSense_PROX_IIR_RC_TYPE == CapSense_IIR_FILTER_PERFORMANCE) */
 955:Generated_Source\PSoC4/CapSense_Filter.c ****             #endif /* (CapSense_PROX_SENSOR_EN) */
 956:Generated_Source\PSoC4/CapSense_Filter.c ****         }
 957:Generated_Source\PSoC4/CapSense_Filter.c ****     }
 958:Generated_Source\PSoC4/CapSense_Filter.c **** }
 959:Generated_Source\PSoC4/CapSense_Filter.c **** #endif /* #if (CapSense_REGULAR_RC_IIR_FILTER_EN || CapSense_PROX_RC_IIR_FILTER_EN) */
 960:Generated_Source\PSoC4/CapSense_Filter.c **** 
 961:Generated_Source\PSoC4/CapSense_Filter.c **** 
 962:Generated_Source\PSoC4/CapSense_Filter.c **** #if (CapSense_REGULAR_RC_MEDIAN_FILTER_EN || CapSense_PROX_RC_MEDIAN_FILTER_EN)
 963:Generated_Source\PSoC4/CapSense_Filter.c **** 
 964:Generated_Source\PSoC4/CapSense_Filter.c **** /*******************************************************************************
 965:Generated_Source\PSoC4/CapSense_Filter.c **** * Function Name: CapSense_InitializeMedian
 966:Generated_Source\PSoC4/CapSense_Filter.c **** ****************************************************************************//**
 967:Generated_Source\PSoC4/CapSense_Filter.c **** *
 968:Generated_Source\PSoC4/CapSense_Filter.c **** * \brief
 969:Generated_Source\PSoC4/CapSense_Filter.c **** *  Initializes the Median filter history.
 970:Generated_Source\PSoC4/CapSense_Filter.c **** *
 971:Generated_Source\PSoC4/CapSense_Filter.c **** * \details
 972:Generated_Source\PSoC4/CapSense_Filter.c **** *  Initializes the Median filter history.
 973:Generated_Source\PSoC4/CapSense_Filter.c **** *
 974:Generated_Source\PSoC4/CapSense_Filter.c **** * \param widgetId
ARM GAS  C:\Users\zack.li\AppData\Local\Temp\ccZi1DuV.s 			page 24


 975:Generated_Source\PSoC4/CapSense_Filter.c **** *  Specifies the ID number of the widget.
 976:Generated_Source\PSoC4/CapSense_Filter.c **** *
 977:Generated_Source\PSoC4/CapSense_Filter.c **** * \param sensorId
 978:Generated_Source\PSoC4/CapSense_Filter.c **** *  Specifies the ID number of the sensor in the widget.
 979:Generated_Source\PSoC4/CapSense_Filter.c **** *
 980:Generated_Source\PSoC4/CapSense_Filter.c **** *******************************************************************************/
 981:Generated_Source\PSoC4/CapSense_Filter.c **** void CapSense_InitializeMedian(uint32 widgetId, uint32 sensorId)
 982:Generated_Source\PSoC4/CapSense_Filter.c **** {
 983:Generated_Source\PSoC4/CapSense_Filter.c ****     CapSense_FLASH_WD_STRUCT const *ptrWidget = &CapSense_dsFlash.wdgtArray[widgetId];
 984:Generated_Source\PSoC4/CapSense_Filter.c ****     CapSense_RAM_SNS_STRUCT *ptrSensor = NULL;
 985:Generated_Source\PSoC4/CapSense_Filter.c ****     CapSense_PTR_FILTER_VARIANT ptrFilterHistObj;
 986:Generated_Source\PSoC4/CapSense_Filter.c **** 
 987:Generated_Source\PSoC4/CapSense_Filter.c ****     /* Find pointer to specified sensor object */
 988:Generated_Source\PSoC4/CapSense_Filter.c ****     ptrSensor = ptrWidget->ptr2SnsRam;
 989:Generated_Source\PSoC4/CapSense_Filter.c ****     ptrSensor = &ptrSensor[sensorId];
 990:Generated_Source\PSoC4/CapSense_Filter.c **** 
 991:Generated_Source\PSoC4/CapSense_Filter.c ****     /* Find pointer to specified filter sensor object */
 992:Generated_Source\PSoC4/CapSense_Filter.c ****     ptrFilterHistObj.ptr = ptrWidget->ptr2FltrHistory;
 993:Generated_Source\PSoC4/CapSense_Filter.c **** 
 994:Generated_Source\PSoC4/CapSense_Filter.c ****     if ((CapSense_WD_TYPE_ENUM)ptrWidget->wdgtType != CapSense_WD_PROXIMITY_E)
 995:Generated_Source\PSoC4/CapSense_Filter.c ****     {
 996:Generated_Source\PSoC4/CapSense_Filter.c ****         #if (CapSense_REGULAR_SENSOR_EN)
 997:Generated_Source\PSoC4/CapSense_Filter.c ****             ptrFilterHistObj.ptrRegular = &ptrFilterHistObj.ptrRegular[sensorId];
 998:Generated_Source\PSoC4/CapSense_Filter.c ****         #endif /* (CapSense_REGULAR_SENSOR_EN) */
 999:Generated_Source\PSoC4/CapSense_Filter.c ****     }
1000:Generated_Source\PSoC4/CapSense_Filter.c ****     else
1001:Generated_Source\PSoC4/CapSense_Filter.c ****     {
1002:Generated_Source\PSoC4/CapSense_Filter.c ****         #if (CapSense_PROXIMITY_SENSOR_EN)
1003:Generated_Source\PSoC4/CapSense_Filter.c ****             ptrFilterHistObj.ptrProx = &ptrFilterHistObj.ptrProx[sensorId];
1004:Generated_Source\PSoC4/CapSense_Filter.c ****         #endif /* (CapSense_PROXIMITY_SENSOR_EN) */
1005:Generated_Source\PSoC4/CapSense_Filter.c ****     }
1006:Generated_Source\PSoC4/CapSense_Filter.c **** 
1007:Generated_Source\PSoC4/CapSense_Filter.c ****     CapSense_InitializeMedianInternal(ptrFilterHistObj, ptrSensor, (uint32)ptrWidget->wdgtType);
1008:Generated_Source\PSoC4/CapSense_Filter.c **** }
1009:Generated_Source\PSoC4/CapSense_Filter.c **** 
1010:Generated_Source\PSoC4/CapSense_Filter.c **** 
1011:Generated_Source\PSoC4/CapSense_Filter.c **** /*******************************************************************************
1012:Generated_Source\PSoC4/CapSense_Filter.c **** * Function Name: CapSense_RunMedian
1013:Generated_Source\PSoC4/CapSense_Filter.c **** ****************************************************************************//**
1014:Generated_Source\PSoC4/CapSense_Filter.c **** *
1015:Generated_Source\PSoC4/CapSense_Filter.c **** * \brief
1016:Generated_Source\PSoC4/CapSense_Filter.c **** *  Executes the Median filter algorithm on a sensor indicated by an input
1017:Generated_Source\PSoC4/CapSense_Filter.c **** *  parameter.
1018:Generated_Source\PSoC4/CapSense_Filter.c **** *
1019:Generated_Source\PSoC4/CapSense_Filter.c **** * \details
1020:Generated_Source\PSoC4/CapSense_Filter.c **** *  Executes the Median filter algorithm on a sensor indicated by an input
1021:Generated_Source\PSoC4/CapSense_Filter.c **** *  parameter.
1022:Generated_Source\PSoC4/CapSense_Filter.c **** *
1023:Generated_Source\PSoC4/CapSense_Filter.c **** * \param widgetId
1024:Generated_Source\PSoC4/CapSense_Filter.c **** *  Specifies the ID number of the widget.
1025:Generated_Source\PSoC4/CapSense_Filter.c **** *
1026:Generated_Source\PSoC4/CapSense_Filter.c **** * \param sensorId
1027:Generated_Source\PSoC4/CapSense_Filter.c **** *  Specifies the ID number of the sensor in the widget.
1028:Generated_Source\PSoC4/CapSense_Filter.c **** *
1029:Generated_Source\PSoC4/CapSense_Filter.c **** *******************************************************************************/
1030:Generated_Source\PSoC4/CapSense_Filter.c **** void CapSense_RunMedian(uint32 widgetId, uint32 sensorId)
1031:Generated_Source\PSoC4/CapSense_Filter.c **** {
ARM GAS  C:\Users\zack.li\AppData\Local\Temp\ccZi1DuV.s 			page 25


1032:Generated_Source\PSoC4/CapSense_Filter.c ****     CapSense_FLASH_WD_STRUCT const *ptrWidget = &CapSense_dsFlash.wdgtArray[widgetId];
1033:Generated_Source\PSoC4/CapSense_Filter.c ****     CapSense_RAM_SNS_STRUCT *ptrSensor = NULL;
1034:Generated_Source\PSoC4/CapSense_Filter.c ****     CapSense_PTR_FILTER_VARIANT ptrFilterHistObj;
1035:Generated_Source\PSoC4/CapSense_Filter.c **** 
1036:Generated_Source\PSoC4/CapSense_Filter.c ****     /* Find pointer to specified sensor object */
1037:Generated_Source\PSoC4/CapSense_Filter.c ****     ptrSensor = ptrWidget->ptr2SnsRam;
1038:Generated_Source\PSoC4/CapSense_Filter.c ****     ptrSensor = &ptrSensor[sensorId];
1039:Generated_Source\PSoC4/CapSense_Filter.c **** 
1040:Generated_Source\PSoC4/CapSense_Filter.c ****     /* Find pointer to specified filter sensor object */
1041:Generated_Source\PSoC4/CapSense_Filter.c ****     ptrFilterHistObj.ptr = ptrWidget->ptr2FltrHistory;
1042:Generated_Source\PSoC4/CapSense_Filter.c **** 
1043:Generated_Source\PSoC4/CapSense_Filter.c ****     if ((CapSense_WD_TYPE_ENUM)ptrWidget->wdgtType != CapSense_WD_PROXIMITY_E)
1044:Generated_Source\PSoC4/CapSense_Filter.c ****     {
1045:Generated_Source\PSoC4/CapSense_Filter.c ****         #if (CapSense_REGULAR_SENSOR_EN)
1046:Generated_Source\PSoC4/CapSense_Filter.c ****             ptrFilterHistObj.ptrRegular = &ptrFilterHistObj.ptrRegular[sensorId];
1047:Generated_Source\PSoC4/CapSense_Filter.c ****         #endif /* (CapSense_REGULAR_SENSOR_EN) */
1048:Generated_Source\PSoC4/CapSense_Filter.c ****     }
1049:Generated_Source\PSoC4/CapSense_Filter.c ****     else
1050:Generated_Source\PSoC4/CapSense_Filter.c ****     {
1051:Generated_Source\PSoC4/CapSense_Filter.c ****         #if (CapSense_PROXIMITY_SENSOR_EN)
1052:Generated_Source\PSoC4/CapSense_Filter.c ****             ptrFilterHistObj.ptrProx = &ptrFilterHistObj.ptrProx[sensorId];
1053:Generated_Source\PSoC4/CapSense_Filter.c ****         #endif /* (CapSense_PROXIMITY_SENSOR_EN) */
1054:Generated_Source\PSoC4/CapSense_Filter.c ****     }
1055:Generated_Source\PSoC4/CapSense_Filter.c **** 
1056:Generated_Source\PSoC4/CapSense_Filter.c ****     CapSense_RunMedianInternal(ptrFilterHistObj, ptrSensor, (uint32)ptrWidget->wdgtType);
1057:Generated_Source\PSoC4/CapSense_Filter.c **** }
1058:Generated_Source\PSoC4/CapSense_Filter.c **** 
1059:Generated_Source\PSoC4/CapSense_Filter.c **** 
1060:Generated_Source\PSoC4/CapSense_Filter.c **** /*******************************************************************************
1061:Generated_Source\PSoC4/CapSense_Filter.c **** * Function Name: CapSense_InitializeMedianInternal
1062:Generated_Source\PSoC4/CapSense_Filter.c **** ****************************************************************************//**
1063:Generated_Source\PSoC4/CapSense_Filter.c **** *
1064:Generated_Source\PSoC4/CapSense_Filter.c **** * \brief
1065:Generated_Source\PSoC4/CapSense_Filter.c **** *  Initializes the Median filter.
1066:Generated_Source\PSoC4/CapSense_Filter.c **** *
1067:Generated_Source\PSoC4/CapSense_Filter.c **** * \details
1068:Generated_Source\PSoC4/CapSense_Filter.c **** *  Initializes the Median filter.
1069:Generated_Source\PSoC4/CapSense_Filter.c **** *
1070:Generated_Source\PSoC4/CapSense_Filter.c **** * \param ptrFilterHistObj
1071:Generated_Source\PSoC4/CapSense_Filter.c **** *  The pointer to the filter RAM object of the sensor.
1072:Generated_Source\PSoC4/CapSense_Filter.c **** *
1073:Generated_Source\PSoC4/CapSense_Filter.c **** * \param ptrSensorObj
1074:Generated_Source\PSoC4/CapSense_Filter.c **** *  The pointer to the sensor RAM object of the sensor.
1075:Generated_Source\PSoC4/CapSense_Filter.c **** *
1076:Generated_Source\PSoC4/CapSense_Filter.c **** * \param wdType
1077:Generated_Source\PSoC4/CapSense_Filter.c **** *  Specifies the type of a widget.
1078:Generated_Source\PSoC4/CapSense_Filter.c **** *
1079:Generated_Source\PSoC4/CapSense_Filter.c **** *******************************************************************************/
1080:Generated_Source\PSoC4/CapSense_Filter.c **** void CapSense_InitializeMedianInternal(CapSense_PTR_FILTER_VARIANT ptrFilterHistObj,
1081:Generated_Source\PSoC4/CapSense_Filter.c ****                                                CapSense_RAM_SNS_STRUCT *ptrSensorObj, uint32 wdType
1082:Generated_Source\PSoC4/CapSense_Filter.c **** {
1083:Generated_Source\PSoC4/CapSense_Filter.c ****     uint32 freqChannel;
1084:Generated_Source\PSoC4/CapSense_Filter.c **** 
1085:Generated_Source\PSoC4/CapSense_Filter.c ****     for(freqChannel = CapSense_NUM_SCAN_FREQS; freqChannel-- > 0u;)
1086:Generated_Source\PSoC4/CapSense_Filter.c ****     {
1087:Generated_Source\PSoC4/CapSense_Filter.c ****         if ((CapSense_WD_TYPE_ENUM)wdType != CapSense_WD_PROXIMITY_E)
1088:Generated_Source\PSoC4/CapSense_Filter.c ****         {
ARM GAS  C:\Users\zack.li\AppData\Local\Temp\ccZi1DuV.s 			page 26


1089:Generated_Source\PSoC4/CapSense_Filter.c ****             #if (CapSense_REGULAR_SENSOR_EN && CapSense_REGULAR_RC_MEDIAN_FILTER_EN)
1090:Generated_Source\PSoC4/CapSense_Filter.c ****                 ptrFilterHistObj.ptrRegular->regularChannel[freqChannel].medHistory[0u] = ptrSensor
1091:Generated_Source\PSoC4/CapSense_Filter.c ****                 ptrFilterHistObj.ptrRegular->regularChannel[freqChannel].medHistory[1u] = ptrSensor
1092:Generated_Source\PSoC4/CapSense_Filter.c ****             #endif /* (CapSense_REGULAR_SENSOR_EN) */
1093:Generated_Source\PSoC4/CapSense_Filter.c ****         }
1094:Generated_Source\PSoC4/CapSense_Filter.c ****         else
1095:Generated_Source\PSoC4/CapSense_Filter.c ****         {
1096:Generated_Source\PSoC4/CapSense_Filter.c ****             #if (CapSense_PROXIMITY_SENSOR_EN && CapSense_PROX_RC_MEDIAN_FILTER_EN)
1097:Generated_Source\PSoC4/CapSense_Filter.c ****                 ptrFilterHistObj.ptrProx->proxChannel[freqChannel].medHistory[0u] = ptrSensorObj->r
1098:Generated_Source\PSoC4/CapSense_Filter.c ****                 ptrFilterHistObj.ptrProx->proxChannel[freqChannel].medHistory[1u] = ptrSensorObj->r
1099:Generated_Source\PSoC4/CapSense_Filter.c ****             #endif /* (CapSense_PROXIMITY_SENSOR_EN) */
1100:Generated_Source\PSoC4/CapSense_Filter.c ****         }
1101:Generated_Source\PSoC4/CapSense_Filter.c ****     }
1102:Generated_Source\PSoC4/CapSense_Filter.c **** }
1103:Generated_Source\PSoC4/CapSense_Filter.c **** 
1104:Generated_Source\PSoC4/CapSense_Filter.c **** 
1105:Generated_Source\PSoC4/CapSense_Filter.c **** /*******************************************************************************
1106:Generated_Source\PSoC4/CapSense_Filter.c **** * Function Name: CapSense_RunMedianInternal
1107:Generated_Source\PSoC4/CapSense_Filter.c **** ****************************************************************************//**
1108:Generated_Source\PSoC4/CapSense_Filter.c **** *
1109:Generated_Source\PSoC4/CapSense_Filter.c **** * \brief
1110:Generated_Source\PSoC4/CapSense_Filter.c **** *  Runs the Median filter.
1111:Generated_Source\PSoC4/CapSense_Filter.c **** *
1112:Generated_Source\PSoC4/CapSense_Filter.c **** * \details
1113:Generated_Source\PSoC4/CapSense_Filter.c **** *  Runs the Median filter.
1114:Generated_Source\PSoC4/CapSense_Filter.c **** *
1115:Generated_Source\PSoC4/CapSense_Filter.c **** * \param ptrFilterHistObj
1116:Generated_Source\PSoC4/CapSense_Filter.c **** *  The pointer to the filter RAM object of the sensor.
1117:Generated_Source\PSoC4/CapSense_Filter.c **** *
1118:Generated_Source\PSoC4/CapSense_Filter.c **** * \param ptrSensorObj
1119:Generated_Source\PSoC4/CapSense_Filter.c **** *  The pointer to the sensor RAM object of the sensor.
1120:Generated_Source\PSoC4/CapSense_Filter.c **** *
1121:Generated_Source\PSoC4/CapSense_Filter.c **** * \param wdType
1122:Generated_Source\PSoC4/CapSense_Filter.c **** *  Specifies the type of a widget.
1123:Generated_Source\PSoC4/CapSense_Filter.c **** *
1124:Generated_Source\PSoC4/CapSense_Filter.c **** *******************************************************************************/
1125:Generated_Source\PSoC4/CapSense_Filter.c **** void CapSense_RunMedianInternal(CapSense_PTR_FILTER_VARIANT ptrFilterHistObj,
1126:Generated_Source\PSoC4/CapSense_Filter.c ****                                         CapSense_RAM_SNS_STRUCT *ptrSensorObj, uint32 wdType)
1127:Generated_Source\PSoC4/CapSense_Filter.c **** {
1128:Generated_Source\PSoC4/CapSense_Filter.c ****     uint32 freqChannel;
1129:Generated_Source\PSoC4/CapSense_Filter.c **** 
1130:Generated_Source\PSoC4/CapSense_Filter.c ****     #if ((CapSense_REGULAR_SENSOR_EN && CapSense_REGULAR_RC_MEDIAN_FILTER_EN) || \
1131:Generated_Source\PSoC4/CapSense_Filter.c ****          (CapSense_PROXIMITY_SENSOR_EN && CapSense_PROX_RC_MEDIAN_FILTER_EN))
1132:Generated_Source\PSoC4/CapSense_Filter.c ****         uint32 temp;
1133:Generated_Source\PSoC4/CapSense_Filter.c ****     #endif
1134:Generated_Source\PSoC4/CapSense_Filter.c **** 
1135:Generated_Source\PSoC4/CapSense_Filter.c ****     for(freqChannel = CapSense_NUM_SCAN_FREQS; freqChannel-- > 0u;)
1136:Generated_Source\PSoC4/CapSense_Filter.c ****     {
1137:Generated_Source\PSoC4/CapSense_Filter.c ****         if ((CapSense_WD_TYPE_ENUM)wdType != CapSense_WD_PROXIMITY_E)
1138:Generated_Source\PSoC4/CapSense_Filter.c ****         {
1139:Generated_Source\PSoC4/CapSense_Filter.c ****             #if (CapSense_REGULAR_SENSOR_EN && CapSense_REGULAR_RC_MEDIAN_FILTER_EN)
1140:Generated_Source\PSoC4/CapSense_Filter.c ****                 temp = CapSense_FtMedian((uint32)ptrSensorObj->raw[freqChannel],\
1141:Generated_Source\PSoC4/CapSense_Filter.c ****                                                  (uint32)ptrFilterHistObj.ptrRegular->regularChanne
1142:Generated_Source\PSoC4/CapSense_Filter.c ****                                                  (uint32)ptrFilterHistObj.ptrRegular->regularChanne
1143:Generated_Source\PSoC4/CapSense_Filter.c ****                 ptrFilterHistObj.ptrRegular->regularChannel[freqChannel].medHistory[1u] = \
1144:Generated_Source\PSoC4/CapSense_Filter.c ****                 ptrFilterHistObj.ptrRegular->regularChannel[freqChannel].medHistory[0u];
1145:Generated_Source\PSoC4/CapSense_Filter.c ****                 ptrFilterHistObj.ptrRegular->regularChannel[freqChannel].medHistory[0u] = ptrSensor
ARM GAS  C:\Users\zack.li\AppData\Local\Temp\ccZi1DuV.s 			page 27


1146:Generated_Source\PSoC4/CapSense_Filter.c ****                 ptrSensorObj->raw[freqChannel] = LO16(temp);
1147:Generated_Source\PSoC4/CapSense_Filter.c ****             #endif /* (CapSense_REGULAR_SENSOR_EN) */
1148:Generated_Source\PSoC4/CapSense_Filter.c ****         }
1149:Generated_Source\PSoC4/CapSense_Filter.c ****         else
1150:Generated_Source\PSoC4/CapSense_Filter.c ****         {
1151:Generated_Source\PSoC4/CapSense_Filter.c ****             #if (CapSense_PROXIMITY_SENSOR_EN && CapSense_PROX_RC_MEDIAN_FILTER_EN)
1152:Generated_Source\PSoC4/CapSense_Filter.c ****                 temp = CapSense_FtMedian((uint32)ptrSensorObj->raw[freqChannel],\
1153:Generated_Source\PSoC4/CapSense_Filter.c ****                                                  (uint32)ptrFilterHistObj.ptrProx->proxChannel[freq
1154:Generated_Source\PSoC4/CapSense_Filter.c ****                                                  (uint32)ptrFilterHistObj.ptrProx->proxChannel[freq
1155:Generated_Source\PSoC4/CapSense_Filter.c ****                 ptrFilterHistObj.ptrProx->proxChannel[freqChannel].medHistory[1u] = \
1156:Generated_Source\PSoC4/CapSense_Filter.c ****                 ptrFilterHistObj.ptrProx->proxChannel[freqChannel].medHistory[0u];
1157:Generated_Source\PSoC4/CapSense_Filter.c ****                 ptrFilterHistObj.ptrProx->proxChannel[freqChannel].medHistory[0u] = ptrSensorObj->r
1158:Generated_Source\PSoC4/CapSense_Filter.c ****                 ptrSensorObj->raw[freqChannel] = LO16(temp);
1159:Generated_Source\PSoC4/CapSense_Filter.c ****             #endif /* (CapSense_PROXIMITY_SENSOR_EN) */
1160:Generated_Source\PSoC4/CapSense_Filter.c ****         }
1161:Generated_Source\PSoC4/CapSense_Filter.c ****     }
1162:Generated_Source\PSoC4/CapSense_Filter.c **** }
1163:Generated_Source\PSoC4/CapSense_Filter.c **** #endif /* (CapSense_REGULAR_RC_MEDIAN_FILTER_EN || CapSense_PROX_RC_MEDIAN_FILTER_EN) */
1164:Generated_Source\PSoC4/CapSense_Filter.c **** 
1165:Generated_Source\PSoC4/CapSense_Filter.c **** 
1166:Generated_Source\PSoC4/CapSense_Filter.c **** #if (CapSense_REGULAR_RC_AVERAGE_FILTER_EN || CapSense_PROX_RC_AVERAGE_FILTER_EN)
1167:Generated_Source\PSoC4/CapSense_Filter.c **** 
1168:Generated_Source\PSoC4/CapSense_Filter.c **** /*******************************************************************************
1169:Generated_Source\PSoC4/CapSense_Filter.c **** * Function Name: CapSense_InitializeAverage
1170:Generated_Source\PSoC4/CapSense_Filter.c **** ****************************************************************************//**
1171:Generated_Source\PSoC4/CapSense_Filter.c **** *
1172:Generated_Source\PSoC4/CapSense_Filter.c **** * \brief
1173:Generated_Source\PSoC4/CapSense_Filter.c **** *  Initializes the average filter history.
1174:Generated_Source\PSoC4/CapSense_Filter.c **** *
1175:Generated_Source\PSoC4/CapSense_Filter.c **** * \details
1176:Generated_Source\PSoC4/CapSense_Filter.c **** *  Initializes the average filter history.
1177:Generated_Source\PSoC4/CapSense_Filter.c **** *
1178:Generated_Source\PSoC4/CapSense_Filter.c **** * \param widgetId
1179:Generated_Source\PSoC4/CapSense_Filter.c **** *  Specifies the ID number of the widget.
1180:Generated_Source\PSoC4/CapSense_Filter.c **** *
1181:Generated_Source\PSoC4/CapSense_Filter.c **** * \param sensorId
1182:Generated_Source\PSoC4/CapSense_Filter.c **** *  Specifies the ID number of the sensor in the widget.
1183:Generated_Source\PSoC4/CapSense_Filter.c **** *
1184:Generated_Source\PSoC4/CapSense_Filter.c **** *******************************************************************************/
1185:Generated_Source\PSoC4/CapSense_Filter.c **** void CapSense_InitializeAverage(uint32 widgetId, uint32 sensorId)
1186:Generated_Source\PSoC4/CapSense_Filter.c **** {
1187:Generated_Source\PSoC4/CapSense_Filter.c ****     CapSense_FLASH_WD_STRUCT const *ptrWidget = &CapSense_dsFlash.wdgtArray[widgetId];
1188:Generated_Source\PSoC4/CapSense_Filter.c ****     CapSense_RAM_SNS_STRUCT *ptrSensor = NULL;
1189:Generated_Source\PSoC4/CapSense_Filter.c ****     CapSense_PTR_FILTER_VARIANT ptrFilterHistObj;
1190:Generated_Source\PSoC4/CapSense_Filter.c **** 
1191:Generated_Source\PSoC4/CapSense_Filter.c ****     /* Find pointer to specified sensor object */
1192:Generated_Source\PSoC4/CapSense_Filter.c ****     ptrSensor = ptrWidget->ptr2SnsRam;
1193:Generated_Source\PSoC4/CapSense_Filter.c ****     ptrSensor = &ptrSensor[sensorId];
1194:Generated_Source\PSoC4/CapSense_Filter.c **** 
1195:Generated_Source\PSoC4/CapSense_Filter.c ****     /* Find pointer to specified filter sensor object */
1196:Generated_Source\PSoC4/CapSense_Filter.c ****     ptrFilterHistObj.ptr = ptrWidget->ptr2FltrHistory;
1197:Generated_Source\PSoC4/CapSense_Filter.c **** 
1198:Generated_Source\PSoC4/CapSense_Filter.c ****     if ((CapSense_WD_TYPE_ENUM)ptrWidget->wdgtType != CapSense_WD_PROXIMITY_E)
1199:Generated_Source\PSoC4/CapSense_Filter.c ****     {
1200:Generated_Source\PSoC4/CapSense_Filter.c ****         #if (CapSense_REGULAR_SENSOR_EN)
1201:Generated_Source\PSoC4/CapSense_Filter.c ****             ptrFilterHistObj.ptrRegular = &ptrFilterHistObj.ptrRegular[sensorId];
1202:Generated_Source\PSoC4/CapSense_Filter.c ****         #endif /* (CapSense_REGULAR_SENSOR_EN) */
ARM GAS  C:\Users\zack.li\AppData\Local\Temp\ccZi1DuV.s 			page 28


1203:Generated_Source\PSoC4/CapSense_Filter.c ****     }
1204:Generated_Source\PSoC4/CapSense_Filter.c ****     else
1205:Generated_Source\PSoC4/CapSense_Filter.c ****     {
1206:Generated_Source\PSoC4/CapSense_Filter.c ****         #if (CapSense_PROXIMITY_SENSOR_EN)
1207:Generated_Source\PSoC4/CapSense_Filter.c ****             ptrFilterHistObj.ptrProx = &ptrFilterHistObj.ptrProx[sensorId];
1208:Generated_Source\PSoC4/CapSense_Filter.c ****         #endif /* (CapSense_PROXIMITY_SENSOR_EN) */
1209:Generated_Source\PSoC4/CapSense_Filter.c ****     }
1210:Generated_Source\PSoC4/CapSense_Filter.c **** 
1211:Generated_Source\PSoC4/CapSense_Filter.c ****     CapSense_InitializeAverageInternal(ptrFilterHistObj, ptrSensor, (uint32)ptrWidget->wdgtType);
1212:Generated_Source\PSoC4/CapSense_Filter.c **** }
1213:Generated_Source\PSoC4/CapSense_Filter.c **** 
1214:Generated_Source\PSoC4/CapSense_Filter.c **** 
1215:Generated_Source\PSoC4/CapSense_Filter.c **** /*******************************************************************************
1216:Generated_Source\PSoC4/CapSense_Filter.c **** * Function Name: CapSense_RunAverage
1217:Generated_Source\PSoC4/CapSense_Filter.c **** ****************************************************************************//**
1218:Generated_Source\PSoC4/CapSense_Filter.c **** *
1219:Generated_Source\PSoC4/CapSense_Filter.c **** * \brief
1220:Generated_Source\PSoC4/CapSense_Filter.c **** *  Executes the average filter algorithm on a sensor indicated by an input
1221:Generated_Source\PSoC4/CapSense_Filter.c **** *  parameter.
1222:Generated_Source\PSoC4/CapSense_Filter.c **** *
1223:Generated_Source\PSoC4/CapSense_Filter.c **** * \details
1224:Generated_Source\PSoC4/CapSense_Filter.c **** *  Executes the average filter algorithm on a sensor indicated by an input
1225:Generated_Source\PSoC4/CapSense_Filter.c **** *  parameter.
1226:Generated_Source\PSoC4/CapSense_Filter.c **** *
1227:Generated_Source\PSoC4/CapSense_Filter.c **** * \param widgetId
1228:Generated_Source\PSoC4/CapSense_Filter.c **** *  Specifies the ID number of the widget.
1229:Generated_Source\PSoC4/CapSense_Filter.c **** *
1230:Generated_Source\PSoC4/CapSense_Filter.c **** * \param sensorId
1231:Generated_Source\PSoC4/CapSense_Filter.c **** *  Specifies the ID number of the sensor in the widget.
1232:Generated_Source\PSoC4/CapSense_Filter.c **** *
1233:Generated_Source\PSoC4/CapSense_Filter.c **** *******************************************************************************/
1234:Generated_Source\PSoC4/CapSense_Filter.c **** void CapSense_RunAverage(uint32 widgetId, uint32 sensorId)
1235:Generated_Source\PSoC4/CapSense_Filter.c **** {
1236:Generated_Source\PSoC4/CapSense_Filter.c ****     CapSense_FLASH_WD_STRUCT const *ptrWidget = &CapSense_dsFlash.wdgtArray[widgetId];
1237:Generated_Source\PSoC4/CapSense_Filter.c ****     CapSense_RAM_SNS_STRUCT *ptrSensor = NULL;
1238:Generated_Source\PSoC4/CapSense_Filter.c ****     CapSense_PTR_FILTER_VARIANT ptrFilterHistObj;
1239:Generated_Source\PSoC4/CapSense_Filter.c **** 
1240:Generated_Source\PSoC4/CapSense_Filter.c ****     /* Find pointer to specified sensor object */
1241:Generated_Source\PSoC4/CapSense_Filter.c ****     ptrSensor = ptrWidget->ptr2SnsRam;
1242:Generated_Source\PSoC4/CapSense_Filter.c ****     ptrSensor = &ptrSensor[sensorId];
1243:Generated_Source\PSoC4/CapSense_Filter.c **** 
1244:Generated_Source\PSoC4/CapSense_Filter.c ****     /* Find pointer to specified filter sensor object */
1245:Generated_Source\PSoC4/CapSense_Filter.c ****     ptrFilterHistObj.ptr = ptrWidget->ptr2FltrHistory;
1246:Generated_Source\PSoC4/CapSense_Filter.c **** 
1247:Generated_Source\PSoC4/CapSense_Filter.c ****     if ((CapSense_WD_TYPE_ENUM)ptrWidget->wdgtType != CapSense_WD_PROXIMITY_E)
1248:Generated_Source\PSoC4/CapSense_Filter.c ****     {
1249:Generated_Source\PSoC4/CapSense_Filter.c ****         #if (CapSense_REGULAR_SENSOR_EN)
1250:Generated_Source\PSoC4/CapSense_Filter.c ****             ptrFilterHistObj.ptrRegular = &ptrFilterHistObj.ptrRegular[sensorId];
1251:Generated_Source\PSoC4/CapSense_Filter.c ****         #endif /* (CapSense_REGULAR_SENSOR_EN) */
1252:Generated_Source\PSoC4/CapSense_Filter.c ****     }
1253:Generated_Source\PSoC4/CapSense_Filter.c ****     else
1254:Generated_Source\PSoC4/CapSense_Filter.c ****     {
1255:Generated_Source\PSoC4/CapSense_Filter.c ****         #if (CapSense_PROXIMITY_SENSOR_EN)
1256:Generated_Source\PSoC4/CapSense_Filter.c ****             ptrFilterHistObj.ptrProx = &ptrFilterHistObj.ptrProx[sensorId];
1257:Generated_Source\PSoC4/CapSense_Filter.c ****         #endif /* (CapSense_PROXIMITY_SENSOR_EN) */
1258:Generated_Source\PSoC4/CapSense_Filter.c ****     }
1259:Generated_Source\PSoC4/CapSense_Filter.c **** 
ARM GAS  C:\Users\zack.li\AppData\Local\Temp\ccZi1DuV.s 			page 29


1260:Generated_Source\PSoC4/CapSense_Filter.c ****     CapSense_RunAverageInternal(ptrFilterHistObj, ptrSensor, (uint32)ptrWidget->wdgtType);
1261:Generated_Source\PSoC4/CapSense_Filter.c **** }
1262:Generated_Source\PSoC4/CapSense_Filter.c **** 
1263:Generated_Source\PSoC4/CapSense_Filter.c **** 
1264:Generated_Source\PSoC4/CapSense_Filter.c **** /*******************************************************************************
1265:Generated_Source\PSoC4/CapSense_Filter.c **** * Function Name: CapSense_InitializeAverageInternal
1266:Generated_Source\PSoC4/CapSense_Filter.c **** ****************************************************************************//**
1267:Generated_Source\PSoC4/CapSense_Filter.c **** *
1268:Generated_Source\PSoC4/CapSense_Filter.c **** * \brief
1269:Generated_Source\PSoC4/CapSense_Filter.c **** *  Initializes the average filter.
1270:Generated_Source\PSoC4/CapSense_Filter.c **** *
1271:Generated_Source\PSoC4/CapSense_Filter.c **** * \details
1272:Generated_Source\PSoC4/CapSense_Filter.c **** *  Initializes the average filter.
1273:Generated_Source\PSoC4/CapSense_Filter.c **** *
1274:Generated_Source\PSoC4/CapSense_Filter.c **** * \param ptrFilterHistObj
1275:Generated_Source\PSoC4/CapSense_Filter.c **** *  The pointer to the filter RAM object of the sensor.
1276:Generated_Source\PSoC4/CapSense_Filter.c **** *
1277:Generated_Source\PSoC4/CapSense_Filter.c **** * \param ptrSensorObj
1278:Generated_Source\PSoC4/CapSense_Filter.c **** *  The pointer to the sensor RAM object of the sensor.
1279:Generated_Source\PSoC4/CapSense_Filter.c **** *
1280:Generated_Source\PSoC4/CapSense_Filter.c **** * \param wdType
1281:Generated_Source\PSoC4/CapSense_Filter.c **** *  Specifies the type of a widget.
1282:Generated_Source\PSoC4/CapSense_Filter.c **** *
1283:Generated_Source\PSoC4/CapSense_Filter.c **** *******************************************************************************/
1284:Generated_Source\PSoC4/CapSense_Filter.c **** void CapSense_InitializeAverageInternal(CapSense_PTR_FILTER_VARIANT ptrFilterHistObj,\
1285:Generated_Source\PSoC4/CapSense_Filter.c ****                                                   CapSense_RAM_SNS_STRUCT *ptrSensorObj, uint32 wdT
1286:Generated_Source\PSoC4/CapSense_Filter.c **** {
1287:Generated_Source\PSoC4/CapSense_Filter.c ****     uint32 freqChannel;
1288:Generated_Source\PSoC4/CapSense_Filter.c **** 
1289:Generated_Source\PSoC4/CapSense_Filter.c ****     for(freqChannel = CapSense_NUM_SCAN_FREQS; freqChannel-- > 0u;)
1290:Generated_Source\PSoC4/CapSense_Filter.c ****     {
1291:Generated_Source\PSoC4/CapSense_Filter.c ****         if ((CapSense_WD_TYPE_ENUM)wdType != CapSense_WD_PROXIMITY_E)
1292:Generated_Source\PSoC4/CapSense_Filter.c ****         {
1293:Generated_Source\PSoC4/CapSense_Filter.c ****             #if (CapSense_REGULAR_SENSOR_EN && CapSense_REGULAR_RC_AVERAGE_FILTER_EN)
1294:Generated_Source\PSoC4/CapSense_Filter.c ****                 ptrFilterHistObj.ptrRegular->regularChannel[freqChannel].avgHistory[0] = ptrSensorO
1295:Generated_Source\PSoC4/CapSense_Filter.c ****                 #if (CapSense_REGULAR_AVERAGE_LEN == CapSense_AVERAGE_FILTER_LEN_4)
1296:Generated_Source\PSoC4/CapSense_Filter.c ****                     ptrFilterHistObj.ptrRegular->regularChannel[freqChannel].avgHistory[1u] = ptrSe
1297:Generated_Source\PSoC4/CapSense_Filter.c ****                     ptrFilterHistObj.ptrRegular->regularChannel[freqChannel].avgHistory[2u] = ptrSe
1298:Generated_Source\PSoC4/CapSense_Filter.c ****                 #endif /* CapSense_REGULAR_AVERAGE_LEN == CapSense_AVERAGE_FILTER_LEN_4 */
1299:Generated_Source\PSoC4/CapSense_Filter.c ****             #endif /* (CapSense_REGULAR_SENSOR_EN) */
1300:Generated_Source\PSoC4/CapSense_Filter.c ****         }
1301:Generated_Source\PSoC4/CapSense_Filter.c ****         else
1302:Generated_Source\PSoC4/CapSense_Filter.c ****         {
1303:Generated_Source\PSoC4/CapSense_Filter.c ****             #if (CapSense_PROXIMITY_SENSOR_EN && CapSense_PROX_RC_AVERAGE_FILTER_EN)
1304:Generated_Source\PSoC4/CapSense_Filter.c ****                 ptrFilterHistObj.ptrProx->proxChannel[freqChannel].avgHistory[0] = ptrSensorObj->ra
1305:Generated_Source\PSoC4/CapSense_Filter.c ****                     #if (CapSense_PROX_AVERAGE_LEN == CapSense_AVERAGE_FILTER_LEN_4)
1306:Generated_Source\PSoC4/CapSense_Filter.c ****                         ptrFilterHistObj.ptrProx->proxChannel[freqChannel].avgHistory[1u] = ptrSens
1307:Generated_Source\PSoC4/CapSense_Filter.c ****                         ptrFilterHistObj.ptrProx->proxChannel[freqChannel].avgHistory[2u] = ptrSens
1308:Generated_Source\PSoC4/CapSense_Filter.c ****                     #endif /* CapSense_REGULAR_AVERAGE_LEN == CapSense_AVERAGE_FILTER_LEN_4 */
1309:Generated_Source\PSoC4/CapSense_Filter.c ****             #endif /* (CapSense_PROXIMITY_SENSOR_EN) */
1310:Generated_Source\PSoC4/CapSense_Filter.c ****         }
1311:Generated_Source\PSoC4/CapSense_Filter.c ****     }
1312:Generated_Source\PSoC4/CapSense_Filter.c **** }
1313:Generated_Source\PSoC4/CapSense_Filter.c **** 
1314:Generated_Source\PSoC4/CapSense_Filter.c **** 
1315:Generated_Source\PSoC4/CapSense_Filter.c **** /*******************************************************************************
1316:Generated_Source\PSoC4/CapSense_Filter.c **** * Function Name: CapSense_RunAverageInternal
ARM GAS  C:\Users\zack.li\AppData\Local\Temp\ccZi1DuV.s 			page 30


1317:Generated_Source\PSoC4/CapSense_Filter.c **** ****************************************************************************//**
1318:Generated_Source\PSoC4/CapSense_Filter.c **** *
1319:Generated_Source\PSoC4/CapSense_Filter.c **** * \brief
1320:Generated_Source\PSoC4/CapSense_Filter.c **** *  Runs the average filter.
1321:Generated_Source\PSoC4/CapSense_Filter.c **** *
1322:Generated_Source\PSoC4/CapSense_Filter.c **** * \details
1323:Generated_Source\PSoC4/CapSense_Filter.c **** *  Runs the average filter.
1324:Generated_Source\PSoC4/CapSense_Filter.c **** *
1325:Generated_Source\PSoC4/CapSense_Filter.c **** * \param ptrFilterHistObj
1326:Generated_Source\PSoC4/CapSense_Filter.c **** *  The pointer to the filter RAM object of the sensor.
1327:Generated_Source\PSoC4/CapSense_Filter.c **** *
1328:Generated_Source\PSoC4/CapSense_Filter.c **** * \param ptrSensorObj
1329:Generated_Source\PSoC4/CapSense_Filter.c **** *  The pointer to the sensor RAM object of the sensor.
1330:Generated_Source\PSoC4/CapSense_Filter.c **** *
1331:Generated_Source\PSoC4/CapSense_Filter.c **** * \param wdType
1332:Generated_Source\PSoC4/CapSense_Filter.c **** *  Specifies the type of a widget.
1333:Generated_Source\PSoC4/CapSense_Filter.c **** *
1334:Generated_Source\PSoC4/CapSense_Filter.c **** *******************************************************************************/
1335:Generated_Source\PSoC4/CapSense_Filter.c **** void CapSense_RunAverageInternal(CapSense_PTR_FILTER_VARIANT ptrFilterHistObj,\
1336:Generated_Source\PSoC4/CapSense_Filter.c ****                                            CapSense_RAM_SNS_STRUCT *ptrSensorObj, uint32 wdType)
1337:Generated_Source\PSoC4/CapSense_Filter.c **** {
1338:Generated_Source\PSoC4/CapSense_Filter.c ****     uint32 freqChannel;
1339:Generated_Source\PSoC4/CapSense_Filter.c ****     uint32 temp;
1340:Generated_Source\PSoC4/CapSense_Filter.c **** 
1341:Generated_Source\PSoC4/CapSense_Filter.c ****     for(freqChannel = CapSense_NUM_SCAN_FREQS; freqChannel-- > 0u;)
1342:Generated_Source\PSoC4/CapSense_Filter.c ****     {
1343:Generated_Source\PSoC4/CapSense_Filter.c ****         if ((CapSense_WD_TYPE_ENUM)wdType != CapSense_WD_PROXIMITY_E)
1344:Generated_Source\PSoC4/CapSense_Filter.c ****         {
1345:Generated_Source\PSoC4/CapSense_Filter.c ****             #if (CapSense_REGULAR_SENSOR_EN && CapSense_REGULAR_RC_AVERAGE_FILTER_EN)
1346:Generated_Source\PSoC4/CapSense_Filter.c ****                 #if (CapSense_REGULAR_AVERAGE_LEN == CapSense_AVERAGE_FILTER_LEN_2)
1347:Generated_Source\PSoC4/CapSense_Filter.c ****                     temp = ((uint32)ptrSensorObj->raw[freqChannel] +
1348:Generated_Source\PSoC4/CapSense_Filter.c ****                             (uint32)ptrFilterHistObj.ptrRegular->regularChannel[freqChannel].avgHis
1349:Generated_Source\PSoC4/CapSense_Filter.c ****                     ptrFilterHistObj.ptrRegular->regularChannel[freqChannel].avgHistory[0] = ptrSen
1350:Generated_Source\PSoC4/CapSense_Filter.c ****                     ptrSensorObj->raw[freqChannel] = LO16(temp);
1351:Generated_Source\PSoC4/CapSense_Filter.c ****                 #else
1352:Generated_Source\PSoC4/CapSense_Filter.c ****                     temp = ((uint32)ptrSensorObj->raw[freqChannel] +
1353:Generated_Source\PSoC4/CapSense_Filter.c ****                             (uint32)ptrFilterHistObj.ptrRegular->regularChannel[freqChannel].avgHis
1354:Generated_Source\PSoC4/CapSense_Filter.c ****                             (uint32)ptrFilterHistObj.ptrRegular->regularChannel[freqChannel].avgHis
1355:Generated_Source\PSoC4/CapSense_Filter.c ****                             (uint32)ptrFilterHistObj.ptrRegular->regularChannel[freqChannel].avgHis
1356:Generated_Source\PSoC4/CapSense_Filter.c **** 
1357:Generated_Source\PSoC4/CapSense_Filter.c ****                     ptrFilterHistObj.ptrRegular->regularChannel[freqChannel].avgHistory[2u] =
1358:Generated_Source\PSoC4/CapSense_Filter.c ****                     ptrFilterHistObj.ptrRegular->regularChannel[freqChannel].avgHistory[1u];
1359:Generated_Source\PSoC4/CapSense_Filter.c ****                     ptrFilterHistObj.ptrRegular->regularChannel[freqChannel].avgHistory[1u] =
1360:Generated_Source\PSoC4/CapSense_Filter.c ****                     ptrFilterHistObj.ptrRegular->regularChannel[freqChannel].avgHistory[0];
1361:Generated_Source\PSoC4/CapSense_Filter.c ****                     ptrFilterHistObj.ptrRegular->regularChannel[freqChannel].avgHistory[0] = ptrSen
1362:Generated_Source\PSoC4/CapSense_Filter.c ****                     ptrSensorObj->raw[freqChannel] = LO16(temp);
1363:Generated_Source\PSoC4/CapSense_Filter.c ****                 #endif /* CapSense_REGULAR_AVERAGE_LEN == CapSense_AVERAGE_FILTER_LEN_4 */
1364:Generated_Source\PSoC4/CapSense_Filter.c ****             #endif /* (CapSense_REGULAR_SENSOR_EN) */
1365:Generated_Source\PSoC4/CapSense_Filter.c ****         }
1366:Generated_Source\PSoC4/CapSense_Filter.c ****         else
1367:Generated_Source\PSoC4/CapSense_Filter.c ****         {
1368:Generated_Source\PSoC4/CapSense_Filter.c ****             #if (CapSense_PROXIMITY_SENSOR_EN && CapSense_PROX_RC_AVERAGE_FILTER_EN)
1369:Generated_Source\PSoC4/CapSense_Filter.c ****                 #if (CapSense_PROX_AVERAGE_LEN == CapSense_AVERAGE_FILTER_LEN_2)
1370:Generated_Source\PSoC4/CapSense_Filter.c ****                     temp = ((uint32)ptrSensorObj->raw[freqChannel] +
1371:Generated_Source\PSoC4/CapSense_Filter.c ****                             (uint32)ptrFilterHistObj.ptrProx->proxChannel[freqChannel].avgHistory[0
1372:Generated_Source\PSoC4/CapSense_Filter.c ****                     ptrFilterHistObj.ptrProx->proxChannel[freqChannel].avgHistory[0] = ptrSensorObj
1373:Generated_Source\PSoC4/CapSense_Filter.c ****                     ptrSensorObj->raw[freqChannel] = LO16(temp);
ARM GAS  C:\Users\zack.li\AppData\Local\Temp\ccZi1DuV.s 			page 31


1374:Generated_Source\PSoC4/CapSense_Filter.c ****                 #else
1375:Generated_Source\PSoC4/CapSense_Filter.c ****                     temp = ((uint32)ptrSensorObj->raw[freqChannel] +
1376:Generated_Source\PSoC4/CapSense_Filter.c ****                             (uint32)ptrFilterHistObj.ptrProx->proxChannel[freqChannel].avgHistory[0
1377:Generated_Source\PSoC4/CapSense_Filter.c ****                             (uint32)ptrFilterHistObj.ptrProx->proxChannel[freqChannel].avgHistory[1
1378:Generated_Source\PSoC4/CapSense_Filter.c ****                             (uint32)ptrFilterHistObj.ptrProx->proxChannel[freqChannel].avgHistory[2
1379:Generated_Source\PSoC4/CapSense_Filter.c **** 
1380:Generated_Source\PSoC4/CapSense_Filter.c ****                     ptrFilterHistObj.ptrProx->proxChannel[freqChannel].avgHistory[2u] =
1381:Generated_Source\PSoC4/CapSense_Filter.c ****                     ptrFilterHistObj.ptrProx->proxChannel[freqChannel].avgHistory[1u];
1382:Generated_Source\PSoC4/CapSense_Filter.c ****                     ptrFilterHistObj.ptrProx->proxChannel[freqChannel].avgHistory[1u] =
1383:Generated_Source\PSoC4/CapSense_Filter.c ****                     ptrFilterHistObj.ptrProx->proxChannel[freqChannel].avgHistory[0];
1384:Generated_Source\PSoC4/CapSense_Filter.c ****                     ptrFilterHistObj.ptrProx->proxChannel[freqChannel].avgHistory[0] = ptrSensorObj
1385:Generated_Source\PSoC4/CapSense_Filter.c ****                     ptrSensorObj->raw[freqChannel] = LO16(temp);
1386:Generated_Source\PSoC4/CapSense_Filter.c ****                 #endif /* CapSense_PROX_AVERAGE_LEN == CapSense_AVERAGE_FILTER_LEN_4 */
1387:Generated_Source\PSoC4/CapSense_Filter.c ****             #endif /* (CapSense_PROXIMITY_SENSOR_EN) */
1388:Generated_Source\PSoC4/CapSense_Filter.c ****         }
1389:Generated_Source\PSoC4/CapSense_Filter.c ****     }
1390:Generated_Source\PSoC4/CapSense_Filter.c **** }
1391:Generated_Source\PSoC4/CapSense_Filter.c **** #endif /* (CapSense_REGULAR_RC_AVERAGE_FILTER_EN || CapSense_PROX_RC_AVERAGE_FILTER_EN) */
1392:Generated_Source\PSoC4/CapSense_Filter.c **** 
1393:Generated_Source\PSoC4/CapSense_Filter.c **** #if (CapSense_ENABLE == CapSense_ALP_FILTER_EN)
1394:Generated_Source\PSoC4/CapSense_Filter.c **** /*******************************************************************************
1395:Generated_Source\PSoC4/CapSense_Filter.c **** * Function Name: CapSense_InitializeALP
1396:Generated_Source\PSoC4/CapSense_Filter.c **** ****************************************************************************//**
1397:Generated_Source\PSoC4/CapSense_Filter.c **** *
1398:Generated_Source\PSoC4/CapSense_Filter.c **** * \brief
1399:Generated_Source\PSoC4/CapSense_Filter.c **** *  Initializes the ALP filter history.
1400:Generated_Source\PSoC4/CapSense_Filter.c **** *
1401:Generated_Source\PSoC4/CapSense_Filter.c **** * \details
1402:Generated_Source\PSoC4/CapSense_Filter.c **** *  Initializes the ALP filter history.
1403:Generated_Source\PSoC4/CapSense_Filter.c **** *
1404:Generated_Source\PSoC4/CapSense_Filter.c **** * \param widgetId
1405:Generated_Source\PSoC4/CapSense_Filter.c **** *  Specifies the ID number of the widget.
1406:Generated_Source\PSoC4/CapSense_Filter.c **** *
1407:Generated_Source\PSoC4/CapSense_Filter.c **** * \param sensorId
1408:Generated_Source\PSoC4/CapSense_Filter.c **** *  Specifies the ID number of the sensor in the widget.
1409:Generated_Source\PSoC4/CapSense_Filter.c **** *
1410:Generated_Source\PSoC4/CapSense_Filter.c **** *******************************************************************************/
1411:Generated_Source\PSoC4/CapSense_Filter.c **** void CapSense_InitializeALP(uint32 widgetId, uint32 sensorId)
1412:Generated_Source\PSoC4/CapSense_Filter.c **** {
1413:Generated_Source\PSoC4/CapSense_Filter.c ****     CapSense_FLASH_WD_STRUCT const *ptrWidget = &CapSense_dsFlash.wdgtArray[widgetId];
1414:Generated_Source\PSoC4/CapSense_Filter.c ****     CapSense_RAM_SNS_STRUCT *ptrSensor = NULL;
1415:Generated_Source\PSoC4/CapSense_Filter.c ****     CapSense_PTR_FILTER_VARIANT ptrFilterHistObj;
1416:Generated_Source\PSoC4/CapSense_Filter.c **** 
1417:Generated_Source\PSoC4/CapSense_Filter.c ****     /* Find pointer to specified sensor object */
1418:Generated_Source\PSoC4/CapSense_Filter.c ****     ptrSensor = ptrWidget->ptr2SnsRam;
1419:Generated_Source\PSoC4/CapSense_Filter.c ****     ptrSensor = &ptrSensor[sensorId];
1420:Generated_Source\PSoC4/CapSense_Filter.c **** 
1421:Generated_Source\PSoC4/CapSense_Filter.c ****     /* Find pointer to specified filter sensor object */
1422:Generated_Source\PSoC4/CapSense_Filter.c ****     ptrFilterHistObj.ptr = ptrWidget->ptr2FltrHistory;
1423:Generated_Source\PSoC4/CapSense_Filter.c ****     ptrFilterHistObj.ptrAlp = &ptrFilterHistObj.ptrAlp[sensorId];
1424:Generated_Source\PSoC4/CapSense_Filter.c ****     CapSense_InitializeALPInternal(ptrFilterHistObj, ptrSensor, (uint32)ptrWidget->wdgtType);
1425:Generated_Source\PSoC4/CapSense_Filter.c **** }
1426:Generated_Source\PSoC4/CapSense_Filter.c **** 
1427:Generated_Source\PSoC4/CapSense_Filter.c **** 
1428:Generated_Source\PSoC4/CapSense_Filter.c **** /*******************************************************************************
1429:Generated_Source\PSoC4/CapSense_Filter.c **** * Function Name: CapSense_RunALP
1430:Generated_Source\PSoC4/CapSense_Filter.c **** ****************************************************************************//**
ARM GAS  C:\Users\zack.li\AppData\Local\Temp\ccZi1DuV.s 			page 32


1431:Generated_Source\PSoC4/CapSense_Filter.c **** *
1432:Generated_Source\PSoC4/CapSense_Filter.c **** * \brief
1433:Generated_Source\PSoC4/CapSense_Filter.c **** *  Executes the ALP filter algorithm on a sensor indicated by an input
1434:Generated_Source\PSoC4/CapSense_Filter.c **** *  parameter.
1435:Generated_Source\PSoC4/CapSense_Filter.c **** *
1436:Generated_Source\PSoC4/CapSense_Filter.c **** * \details
1437:Generated_Source\PSoC4/CapSense_Filter.c **** *  Executes the ALP filter algorithm on a sensor indicated by an input
1438:Generated_Source\PSoC4/CapSense_Filter.c **** *  parameter.
1439:Generated_Source\PSoC4/CapSense_Filter.c **** *
1440:Generated_Source\PSoC4/CapSense_Filter.c **** * \param widgetId
1441:Generated_Source\PSoC4/CapSense_Filter.c **** *  Specifies the ID number of the widget.
1442:Generated_Source\PSoC4/CapSense_Filter.c **** *
1443:Generated_Source\PSoC4/CapSense_Filter.c **** * \param sensorId
1444:Generated_Source\PSoC4/CapSense_Filter.c **** *  Specifies the ID number of the sensor in the widget.
1445:Generated_Source\PSoC4/CapSense_Filter.c **** *
1446:Generated_Source\PSoC4/CapSense_Filter.c **** *******************************************************************************/
1447:Generated_Source\PSoC4/CapSense_Filter.c **** void CapSense_RunALP(uint32 widgetId, uint32 sensorId)
1448:Generated_Source\PSoC4/CapSense_Filter.c **** {
1449:Generated_Source\PSoC4/CapSense_Filter.c ****     CapSense_FLASH_WD_STRUCT const *ptrWidget = &CapSense_dsFlash.wdgtArray[widgetId];
1450:Generated_Source\PSoC4/CapSense_Filter.c ****     CapSense_RAM_SNS_STRUCT *ptrSensor = NULL;
1451:Generated_Source\PSoC4/CapSense_Filter.c ****     CapSense_PTR_FILTER_VARIANT ptrFilterHistObj;
1452:Generated_Source\PSoC4/CapSense_Filter.c ****     ALP_FLTR_CONFIG_STRUCT alpFilterConfig;
1453:Generated_Source\PSoC4/CapSense_Filter.c ****     ALP_FLTR_CONFIG_STRUCT *ptrAlpFilterConfig = &alpFilterConfig;
1454:Generated_Source\PSoC4/CapSense_Filter.c ****     CapSense_RAM_WD_BASE_STRUCT *ptrRamWidget = ptrWidget->ptr2WdgtRam;
1455:Generated_Source\PSoC4/CapSense_Filter.c **** 
1456:Generated_Source\PSoC4/CapSense_Filter.c ****     /* Find pointer to specified sensor object */
1457:Generated_Source\PSoC4/CapSense_Filter.c ****     ptrSensor = ptrWidget->ptr2SnsRam;
1458:Generated_Source\PSoC4/CapSense_Filter.c ****     ptrSensor = &ptrSensor[sensorId];
1459:Generated_Source\PSoC4/CapSense_Filter.c **** 
1460:Generated_Source\PSoC4/CapSense_Filter.c ****     ptrAlpFilterConfig->configParam0 = ptrRamWidget->alpOnTh;
1461:Generated_Source\PSoC4/CapSense_Filter.c ****     ptrAlpFilterConfig->configParam1 = ptrRamWidget->alpOffTh;
1462:Generated_Source\PSoC4/CapSense_Filter.c ****     ptrAlpFilterConfig->configParam2 = ptrRamWidget->fingerTh;
1463:Generated_Source\PSoC4/CapSense_Filter.c ****     ptrAlpFilterConfig->configParam3 = ptrRamWidget->noiseTh;
1464:Generated_Source\PSoC4/CapSense_Filter.c ****     ptrAlpFilterConfig->configParam4 = ptrRamWidget->hysteresis;
1465:Generated_Source\PSoC4/CapSense_Filter.c **** 
1466:Generated_Source\PSoC4/CapSense_Filter.c ****     /* Find pointer to specified filter sensor object */
1467:Generated_Source\PSoC4/CapSense_Filter.c ****     ptrFilterHistObj.ptr = ptrWidget->ptr2FltrHistory;
1468:Generated_Source\PSoC4/CapSense_Filter.c ****     ptrFilterHistObj.ptrAlp = &ptrFilterHistObj.ptrAlp[sensorId];
1469:Generated_Source\PSoC4/CapSense_Filter.c **** 
1470:Generated_Source\PSoC4/CapSense_Filter.c ****     if ((CapSense_WD_TYPE_ENUM)ptrWidget->wdgtType != CapSense_WD_PROXIMITY_E)
1471:Generated_Source\PSoC4/CapSense_Filter.c ****     {
1472:Generated_Source\PSoC4/CapSense_Filter.c ****         #if (CapSense_REGULAR_SENSOR_EN)
1473:Generated_Source\PSoC4/CapSense_Filter.c ****             ptrAlpFilterConfig->configParam5 = CapSense_REGULAR_RC_ALP_FILTER_COEFF;
1474:Generated_Source\PSoC4/CapSense_Filter.c ****         #endif /* (CapSense_REGULAR_SENSOR_EN) */
1475:Generated_Source\PSoC4/CapSense_Filter.c ****     }
1476:Generated_Source\PSoC4/CapSense_Filter.c ****     else
1477:Generated_Source\PSoC4/CapSense_Filter.c ****     {
1478:Generated_Source\PSoC4/CapSense_Filter.c ****         #if (CapSense_PROXIMITY_SENSOR_EN)
1479:Generated_Source\PSoC4/CapSense_Filter.c ****             ptrAlpFilterConfig->configParam5 = CapSense_PROX_RC_ALP_FILTER_COEFF;
1480:Generated_Source\PSoC4/CapSense_Filter.c ****         #endif /* (CapSense_PROXIMITY_SENSOR_EN) */
1481:Generated_Source\PSoC4/CapSense_Filter.c ****     }
1482:Generated_Source\PSoC4/CapSense_Filter.c ****     CapSense_RunALPInternal(ptrFilterHistObj, ptrAlpFilterConfig, ptrSensor, (uint32)ptrWidget->wdg
1483:Generated_Source\PSoC4/CapSense_Filter.c **** }
1484:Generated_Source\PSoC4/CapSense_Filter.c **** 
1485:Generated_Source\PSoC4/CapSense_Filter.c **** 
1486:Generated_Source\PSoC4/CapSense_Filter.c **** /*******************************************************************************
1487:Generated_Source\PSoC4/CapSense_Filter.c **** * Function Name: CapSense_InitializeALPInternal
ARM GAS  C:\Users\zack.li\AppData\Local\Temp\ccZi1DuV.s 			page 33


1488:Generated_Source\PSoC4/CapSense_Filter.c **** ****************************************************************************//**
1489:Generated_Source\PSoC4/CapSense_Filter.c **** *
1490:Generated_Source\PSoC4/CapSense_Filter.c **** * \brief
1491:Generated_Source\PSoC4/CapSense_Filter.c **** *  Initializes the ALP filter.
1492:Generated_Source\PSoC4/CapSense_Filter.c **** *
1493:Generated_Source\PSoC4/CapSense_Filter.c **** * \details
1494:Generated_Source\PSoC4/CapSense_Filter.c **** *  Initializes the ALP filter.
1495:Generated_Source\PSoC4/CapSense_Filter.c **** *
1496:Generated_Source\PSoC4/CapSense_Filter.c **** * \param ptrFilterHistObj
1497:Generated_Source\PSoC4/CapSense_Filter.c **** *  The pointer to the filter RAM object of the sensor.
1498:Generated_Source\PSoC4/CapSense_Filter.c **** *
1499:Generated_Source\PSoC4/CapSense_Filter.c **** * \param ptrSensorObj
1500:Generated_Source\PSoC4/CapSense_Filter.c **** *  The pointer to the sensor RAM object of the sensor.
1501:Generated_Source\PSoC4/CapSense_Filter.c **** *
1502:Generated_Source\PSoC4/CapSense_Filter.c **** * \param wdType
1503:Generated_Source\PSoC4/CapSense_Filter.c **** *  Specifies the type of a widget.
1504:Generated_Source\PSoC4/CapSense_Filter.c **** *
1505:Generated_Source\PSoC4/CapSense_Filter.c **** *
1506:Generated_Source\PSoC4/CapSense_Filter.c **** *******************************************************************************/
1507:Generated_Source\PSoC4/CapSense_Filter.c **** void CapSense_InitializeALPInternal(CapSense_PTR_FILTER_VARIANT ptrFilterHistObj,
1508:Generated_Source\PSoC4/CapSense_Filter.c ****                                             CapSense_RAM_SNS_STRUCT *ptrSensorObj,
1509:Generated_Source\PSoC4/CapSense_Filter.c ****                                             uint32 wdType)
1510:Generated_Source\PSoC4/CapSense_Filter.c **** {
1511:Generated_Source\PSoC4/CapSense_Filter.c ****     uint32 freqChannel;
1512:Generated_Source\PSoC4/CapSense_Filter.c **** 
1513:Generated_Source\PSoC4/CapSense_Filter.c ****     for(freqChannel = CapSense_NUM_SCAN_FREQS; freqChannel-- > 0u;)
1514:Generated_Source\PSoC4/CapSense_Filter.c ****     {
1515:Generated_Source\PSoC4/CapSense_Filter.c ****         if ((CapSense_WD_TYPE_ENUM)wdType != CapSense_WD_PROXIMITY_E)
1516:Generated_Source\PSoC4/CapSense_Filter.c ****         {
1517:Generated_Source\PSoC4/CapSense_Filter.c ****             #if (CapSense_REGULAR_SENSOR_EN && CapSense_REGULAR_RC_ALP_FILTER_EN)
1518:Generated_Source\PSoC4/CapSense_Filter.c ****                 ALP_Initialize(&ptrFilterHistObj.ptrAlp->channel[freqChannel], &ptrSensorObj->raw[f
1519:Generated_Source\PSoC4/CapSense_Filter.c ****             #endif
1520:Generated_Source\PSoC4/CapSense_Filter.c ****         }
1521:Generated_Source\PSoC4/CapSense_Filter.c ****         else
1522:Generated_Source\PSoC4/CapSense_Filter.c ****         {
1523:Generated_Source\PSoC4/CapSense_Filter.c ****             #if (CapSense_PROXIMITY_SENSOR_EN && CapSense_PROX_RC_ALP_FILTER_EN)
1524:Generated_Source\PSoC4/CapSense_Filter.c ****                 ALP_Initialize(&ptrFilterHistObj.ptrAlp->channel[freqChannel], &ptrSensorObj->raw[f
1525:Generated_Source\PSoC4/CapSense_Filter.c ****             #endif
1526:Generated_Source\PSoC4/CapSense_Filter.c ****         }
1527:Generated_Source\PSoC4/CapSense_Filter.c ****     }
1528:Generated_Source\PSoC4/CapSense_Filter.c **** }
1529:Generated_Source\PSoC4/CapSense_Filter.c **** 
1530:Generated_Source\PSoC4/CapSense_Filter.c **** /*******************************************************************************
1531:Generated_Source\PSoC4/CapSense_Filter.c **** * Function Name: CapSense_ConfigRunALPInternal
1532:Generated_Source\PSoC4/CapSense_Filter.c **** ****************************************************************************//**
1533:Generated_Source\PSoC4/CapSense_Filter.c **** *
1534:Generated_Source\PSoC4/CapSense_Filter.c **** * \brief
1535:Generated_Source\PSoC4/CapSense_Filter.c **** *  Prepares ALP configuration structure and runs the filter.
1536:Generated_Source\PSoC4/CapSense_Filter.c **** *
1537:Generated_Source\PSoC4/CapSense_Filter.c **** * \details
1538:Generated_Source\PSoC4/CapSense_Filter.c **** *  Prepares ALP configuration structure and runs the filter.
1539:Generated_Source\PSoC4/CapSense_Filter.c **** *
1540:Generated_Source\PSoC4/CapSense_Filter.c **** * \param ptrFilterHistObj
1541:Generated_Source\PSoC4/CapSense_Filter.c **** *  The pointer to the filter RAM object of the sensor.
1542:Generated_Source\PSoC4/CapSense_Filter.c **** *
1543:Generated_Source\PSoC4/CapSense_Filter.c **** * \param ptrRamWdgt
1544:Generated_Source\PSoC4/CapSense_Filter.c **** *  The pointer to the RAM widget object.
ARM GAS  C:\Users\zack.li\AppData\Local\Temp\ccZi1DuV.s 			page 34


1545:Generated_Source\PSoC4/CapSense_Filter.c **** *
1546:Generated_Source\PSoC4/CapSense_Filter.c **** * \param ptrSensorObj
1547:Generated_Source\PSoC4/CapSense_Filter.c **** *  The pointer to the sensor RAM object of the sensor.
1548:Generated_Source\PSoC4/CapSense_Filter.c **** *
1549:Generated_Source\PSoC4/CapSense_Filter.c **** * \param wdType
1550:Generated_Source\PSoC4/CapSense_Filter.c **** *  Specifies the type of a widget.
1551:Generated_Source\PSoC4/CapSense_Filter.c **** *
1552:Generated_Source\PSoC4/CapSense_Filter.c **** *******************************************************************************/
1553:Generated_Source\PSoC4/CapSense_Filter.c **** void CapSense_ConfigRunALPInternal(CapSense_PTR_FILTER_VARIANT ptrFilterHistObj,
1554:Generated_Source\PSoC4/CapSense_Filter.c ****                                     CapSense_RAM_WD_BASE_STRUCT *ptrRamWdgt,
1555:Generated_Source\PSoC4/CapSense_Filter.c ****                                     CapSense_RAM_SNS_STRUCT *ptrSensorObj,
1556:Generated_Source\PSoC4/CapSense_Filter.c ****                                     uint32 wdType)
1557:Generated_Source\PSoC4/CapSense_Filter.c **** {
1558:Generated_Source\PSoC4/CapSense_Filter.c ****     ALP_FLTR_CONFIG_STRUCT alpFilterConfig;
1559:Generated_Source\PSoC4/CapSense_Filter.c **** 
1560:Generated_Source\PSoC4/CapSense_Filter.c ****     alpFilterConfig.configParam0 = ptrRamWdgt->alpOnTh;
1561:Generated_Source\PSoC4/CapSense_Filter.c ****     alpFilterConfig.configParam1 = ptrRamWdgt->alpOffTh;
1562:Generated_Source\PSoC4/CapSense_Filter.c ****     alpFilterConfig.configParam2 = ptrRamWdgt->fingerTh;
1563:Generated_Source\PSoC4/CapSense_Filter.c ****     alpFilterConfig.configParam3 = ptrRamWdgt->noiseTh;
1564:Generated_Source\PSoC4/CapSense_Filter.c ****     alpFilterConfig.configParam4 = ptrRamWdgt->hysteresis;
1565:Generated_Source\PSoC4/CapSense_Filter.c **** 
1566:Generated_Source\PSoC4/CapSense_Filter.c ****     CapSense_RunALPInternal(ptrFilterHistObj, &alpFilterConfig, ptrSensorObj, wdType);
1567:Generated_Source\PSoC4/CapSense_Filter.c **** }
1568:Generated_Source\PSoC4/CapSense_Filter.c **** 
1569:Generated_Source\PSoC4/CapSense_Filter.c **** /*******************************************************************************
1570:Generated_Source\PSoC4/CapSense_Filter.c **** * Function Name: CapSense_RunALPInternal
1571:Generated_Source\PSoC4/CapSense_Filter.c **** ****************************************************************************//**
1572:Generated_Source\PSoC4/CapSense_Filter.c **** *
1573:Generated_Source\PSoC4/CapSense_Filter.c **** * \brief
1574:Generated_Source\PSoC4/CapSense_Filter.c **** *  Runs the ALP filter.
1575:Generated_Source\PSoC4/CapSense_Filter.c **** *
1576:Generated_Source\PSoC4/CapSense_Filter.c **** * \details
1577:Generated_Source\PSoC4/CapSense_Filter.c **** *  Runs the ALP filter.
1578:Generated_Source\PSoC4/CapSense_Filter.c **** *
1579:Generated_Source\PSoC4/CapSense_Filter.c **** * \param ptrFilterHistObj
1580:Generated_Source\PSoC4/CapSense_Filter.c **** *  The pointer to the filter RAM object of the sensor.
1581:Generated_Source\PSoC4/CapSense_Filter.c **** *
1582:Generated_Source\PSoC4/CapSense_Filter.c **** * \param ptrAlpFilterConfig
1583:Generated_Source\PSoC4/CapSense_Filter.c **** *  The pointer to the filter configuration object of the sensor.
1584:Generated_Source\PSoC4/CapSense_Filter.c **** *
1585:Generated_Source\PSoC4/CapSense_Filter.c **** * \param ptrSensorObj
1586:Generated_Source\PSoC4/CapSense_Filter.c **** *  The pointer to the sensor RAM object of the sensor.
1587:Generated_Source\PSoC4/CapSense_Filter.c **** *
1588:Generated_Source\PSoC4/CapSense_Filter.c **** * \param wdType
1589:Generated_Source\PSoC4/CapSense_Filter.c **** *  Specifies the type of a widget.
1590:Generated_Source\PSoC4/CapSense_Filter.c **** *
1591:Generated_Source\PSoC4/CapSense_Filter.c **** *******************************************************************************/
1592:Generated_Source\PSoC4/CapSense_Filter.c **** void CapSense_RunALPInternal(CapSense_PTR_FILTER_VARIANT ptrFilterHistObj,
1593:Generated_Source\PSoC4/CapSense_Filter.c ****                                     ALP_FLTR_CONFIG_STRUCT *ptrAlpFilterConfig,
1594:Generated_Source\PSoC4/CapSense_Filter.c ****                                     CapSense_RAM_SNS_STRUCT *ptrSensorObj,
1595:Generated_Source\PSoC4/CapSense_Filter.c ****                                     uint32 wdType)
1596:Generated_Source\PSoC4/CapSense_Filter.c **** {
1597:Generated_Source\PSoC4/CapSense_Filter.c ****     uint32 freqChannel;
1598:Generated_Source\PSoC4/CapSense_Filter.c **** 
1599:Generated_Source\PSoC4/CapSense_Filter.c ****     for(freqChannel = CapSense_NUM_SCAN_FREQS; freqChannel-- > 0u;)
1600:Generated_Source\PSoC4/CapSense_Filter.c ****     {
1601:Generated_Source\PSoC4/CapSense_Filter.c ****         if ((CapSense_WD_TYPE_ENUM)wdType != CapSense_WD_PROXIMITY_E)
ARM GAS  C:\Users\zack.li\AppData\Local\Temp\ccZi1DuV.s 			page 35


1602:Generated_Source\PSoC4/CapSense_Filter.c ****         {
1603:Generated_Source\PSoC4/CapSense_Filter.c ****             #if (CapSense_REGULAR_SENSOR_EN && CapSense_REGULAR_RC_ALP_FILTER_EN)
1604:Generated_Source\PSoC4/CapSense_Filter.c ****                 ptrAlpFilterConfig->configParam5 = CapSense_REGULAR_RC_ALP_FILTER_COEFF;
1605:Generated_Source\PSoC4/CapSense_Filter.c ****                 ALP_Run(&ptrFilterHistObj.ptrAlp->channel[freqChannel], ptrAlpFilterConfig, &ptrSen
1606:Generated_Source\PSoC4/CapSense_Filter.c ****             #endif
1607:Generated_Source\PSoC4/CapSense_Filter.c ****         }
1608:Generated_Source\PSoC4/CapSense_Filter.c ****         else
1609:Generated_Source\PSoC4/CapSense_Filter.c ****         {
1610:Generated_Source\PSoC4/CapSense_Filter.c ****             #if (CapSense_PROXIMITY_SENSOR_EN && CapSense_PROX_RC_ALP_FILTER_EN)
1611:Generated_Source\PSoC4/CapSense_Filter.c ****                 ptrAlpFilterConfig->configParam5 = CapSense_PROX_RC_ALP_FILTER_COEFF;
1612:Generated_Source\PSoC4/CapSense_Filter.c ****                 ALP_Run(&ptrFilterHistObj.ptrAlp->channel[freqChannel], ptrAlpFilterConfig, &ptrSen
1613:Generated_Source\PSoC4/CapSense_Filter.c ****             #endif
1614:Generated_Source\PSoC4/CapSense_Filter.c ****         }
1615:Generated_Source\PSoC4/CapSense_Filter.c ****     }
1616:Generated_Source\PSoC4/CapSense_Filter.c **** }
1617:Generated_Source\PSoC4/CapSense_Filter.c **** #endif /* (CapSense_ENABLE == CapSense_ALP_FILTER_EN) */
1618:Generated_Source\PSoC4/CapSense_Filter.c **** 
1619:Generated_Source\PSoC4/CapSense_Filter.c **** #if (CapSense_ENABLE == CapSense_RC_FILTER_EN)
1620:Generated_Source\PSoC4/CapSense_Filter.c **** /*******************************************************************************
1621:Generated_Source\PSoC4/CapSense_Filter.c **** * Function Name: CapSense_FtRunEnabledFilters
1622:Generated_Source\PSoC4/CapSense_Filter.c **** ****************************************************************************//**
1623:Generated_Source\PSoC4/CapSense_Filter.c **** *
1624:Generated_Source\PSoC4/CapSense_Filter.c **** * \brief
1625:Generated_Source\PSoC4/CapSense_Filter.c **** *  Runs all enabled filters.
1626:Generated_Source\PSoC4/CapSense_Filter.c **** *
1627:Generated_Source\PSoC4/CapSense_Filter.c **** * \details
1628:Generated_Source\PSoC4/CapSense_Filter.c **** *  Runs all enabled filters.
1629:Generated_Source\PSoC4/CapSense_Filter.c **** *
1630:Generated_Source\PSoC4/CapSense_Filter.c **** * \param widgetId
1631:Generated_Source\PSoC4/CapSense_Filter.c **** *  Specifies the ID number of a widget to update the IIR filter history.
1632:Generated_Source\PSoC4/CapSense_Filter.c **** *
1633:Generated_Source\PSoC4/CapSense_Filter.c **** * \param sensorId
1634:Generated_Source\PSoC4/CapSense_Filter.c **** *  Specifies the ID number of a sensor in the widget to update the IIR
1635:Generated_Source\PSoC4/CapSense_Filter.c **** *  filter history.
1636:Generated_Source\PSoC4/CapSense_Filter.c **** *
1637:Generated_Source\PSoC4/CapSense_Filter.c **** *******************************************************************************/
1638:Generated_Source\PSoC4/CapSense_Filter.c **** void CapSense_FtRunEnabledFilters(uint32 widgetId, uint32 sensorId)
1639:Generated_Source\PSoC4/CapSense_Filter.c **** {
1640:Generated_Source\PSoC4/CapSense_Filter.c ****     CapSense_FLASH_WD_STRUCT const *ptrWidget = &CapSense_dsFlash.wdgtArray[widgetId];
1641:Generated_Source\PSoC4/CapSense_Filter.c ****     CapSense_RAM_SNS_STRUCT *ptrSensor = NULL;
1642:Generated_Source\PSoC4/CapSense_Filter.c ****     CapSense_PTR_FILTER_VARIANT ptrFilterHistObj;
1643:Generated_Source\PSoC4/CapSense_Filter.c **** 
1644:Generated_Source\PSoC4/CapSense_Filter.c ****     /* Find pointer to specified sensor object */
1645:Generated_Source\PSoC4/CapSense_Filter.c ****     ptrSensor = ptrWidget->ptr2SnsRam;
1646:Generated_Source\PSoC4/CapSense_Filter.c ****     ptrSensor = &ptrSensor[sensorId];
1647:Generated_Source\PSoC4/CapSense_Filter.c **** 
1648:Generated_Source\PSoC4/CapSense_Filter.c ****     /* Find pointer to specified filter sensor object */
1649:Generated_Source\PSoC4/CapSense_Filter.c ****     ptrFilterHistObj.ptr = ptrWidget->ptr2FltrHistory;
1650:Generated_Source\PSoC4/CapSense_Filter.c **** 
1651:Generated_Source\PSoC4/CapSense_Filter.c ****     if ((CapSense_WD_TYPE_ENUM)ptrWidget->wdgtType != CapSense_WD_PROXIMITY_E)
1652:Generated_Source\PSoC4/CapSense_Filter.c ****     {
1653:Generated_Source\PSoC4/CapSense_Filter.c ****         #if (0u != CapSense_REGULAR_RC_ALP_FILTER_EN)
1654:Generated_Source\PSoC4/CapSense_Filter.c ****             ptrFilterHistObj.ptr = &ptrFilterHistObj.ptrAlp[sensorId];
1655:Generated_Source\PSoC4/CapSense_Filter.c ****         #elif (0u != CapSense_REGULAR_RC_FILTER_EN)
1656:Generated_Source\PSoC4/CapSense_Filter.c ****             ptrFilterHistObj.ptr = &ptrFilterHistObj.ptrRegular[sensorId];
1657:Generated_Source\PSoC4/CapSense_Filter.c ****         #endif
1658:Generated_Source\PSoC4/CapSense_Filter.c ****     }
ARM GAS  C:\Users\zack.li\AppData\Local\Temp\ccZi1DuV.s 			page 36


1659:Generated_Source\PSoC4/CapSense_Filter.c ****     else
1660:Generated_Source\PSoC4/CapSense_Filter.c ****     {
1661:Generated_Source\PSoC4/CapSense_Filter.c ****         #if (0u != CapSense_PROX_RC_ALP_FILTER_EN)
1662:Generated_Source\PSoC4/CapSense_Filter.c ****             ptrFilterHistObj.ptr = &ptrFilterHistObj.ptrAlp[sensorId];
1663:Generated_Source\PSoC4/CapSense_Filter.c ****         #elif (0u != CapSense_PROX_RC_FILTER_EN)
1664:Generated_Source\PSoC4/CapSense_Filter.c ****             ptrFilterHistObj.ptr = &ptrFilterHistObj.ptrProx[sensorId];
1665:Generated_Source\PSoC4/CapSense_Filter.c ****         #endif
1666:Generated_Source\PSoC4/CapSense_Filter.c ****     }
1667:Generated_Source\PSoC4/CapSense_Filter.c **** 
1668:Generated_Source\PSoC4/CapSense_Filter.c ****     CapSense_FtRunEnabledFiltersInternal(ptrFilterHistObj, ptrSensor, (uint32)ptrWidget->wdgtType);
1669:Generated_Source\PSoC4/CapSense_Filter.c ****     #if (CapSense_ALP_FILTER_EN)
1670:Generated_Source\PSoC4/CapSense_Filter.c ****         CapSense_ConfigRunALPInternal(ptrFilterHistObj, ptrWidget->ptr2WdgtRam, ptrSensor, (uint32)
1671:Generated_Source\PSoC4/CapSense_Filter.c ****     #endif
1672:Generated_Source\PSoC4/CapSense_Filter.c **** }
1673:Generated_Source\PSoC4/CapSense_Filter.c **** 
1674:Generated_Source\PSoC4/CapSense_Filter.c **** 
1675:Generated_Source\PSoC4/CapSense_Filter.c **** /*******************************************************************************
1676:Generated_Source\PSoC4/CapSense_Filter.c **** * Function Name: CapSense_FtRunEnabledFiltersInternal
1677:Generated_Source\PSoC4/CapSense_Filter.c **** ****************************************************************************//**
1678:Generated_Source\PSoC4/CapSense_Filter.c **** *
1679:Generated_Source\PSoC4/CapSense_Filter.c **** * \brief
1680:Generated_Source\PSoC4/CapSense_Filter.c **** *  Runs all enabled filters.
1681:Generated_Source\PSoC4/CapSense_Filter.c **** *
1682:Generated_Source\PSoC4/CapSense_Filter.c **** * \details
1683:Generated_Source\PSoC4/CapSense_Filter.c **** *  Runs all enabled filters.
1684:Generated_Source\PSoC4/CapSense_Filter.c **** *
1685:Generated_Source\PSoC4/CapSense_Filter.c **** * \param ptrFilterHistObj
1686:Generated_Source\PSoC4/CapSense_Filter.c **** *  The pointer to the filter RAM object of the sensor.
1687:Generated_Source\PSoC4/CapSense_Filter.c **** *
1688:Generated_Source\PSoC4/CapSense_Filter.c **** * \param ptrSensorObj
1689:Generated_Source\PSoC4/CapSense_Filter.c **** *  The pointer to the sensor RAM object of the sensor.
1690:Generated_Source\PSoC4/CapSense_Filter.c **** *
1691:Generated_Source\PSoC4/CapSense_Filter.c **** * \param wdType
1692:Generated_Source\PSoC4/CapSense_Filter.c **** *  Specifies the type of a widget.
1693:Generated_Source\PSoC4/CapSense_Filter.c **** *
1694:Generated_Source\PSoC4/CapSense_Filter.c **** *******************************************************************************/
1695:Generated_Source\PSoC4/CapSense_Filter.c **** void CapSense_FtRunEnabledFiltersInternal(CapSense_PTR_FILTER_VARIANT ptrFilterHistObj,
1696:Generated_Source\PSoC4/CapSense_Filter.c ****                                                   CapSense_RAM_SNS_STRUCT *ptrSensorObj, uint32 wdT
1697:Generated_Source\PSoC4/CapSense_Filter.c **** {
1698:Generated_Source\PSoC4/CapSense_Filter.c ****     #if (CapSense_REGULAR_RC_MEDIAN_FILTER_EN || CapSense_PROX_RC_MEDIAN_FILTER_EN)
1699:Generated_Source\PSoC4/CapSense_Filter.c ****         CapSense_RunMedianInternal(ptrFilterHistObj, ptrSensorObj, wdType);
1700:Generated_Source\PSoC4/CapSense_Filter.c ****     #endif /* (CapSense_REGULAR_RC_MEDIAN_FILTER_EN || CapSense_PROX_RC_MEDIAN_FILTER_EN) */
1701:Generated_Source\PSoC4/CapSense_Filter.c **** 
1702:Generated_Source\PSoC4/CapSense_Filter.c ****     #if (CapSense_REGULAR_RC_IIR_FILTER_EN || CapSense_PROX_RC_IIR_FILTER_EN)
1703:Generated_Source\PSoC4/CapSense_Filter.c ****         CapSense_RunIIRInternal(ptrFilterHistObj, ptrSensorObj, wdType);
1704:Generated_Source\PSoC4/CapSense_Filter.c ****     #endif /* (CapSense_REGULAR_RC_IIR_FILTER_EN || CapSense_PROX_RC_IIR_FILTER_EN) */
1705:Generated_Source\PSoC4/CapSense_Filter.c **** 
1706:Generated_Source\PSoC4/CapSense_Filter.c ****     #if (CapSense_REGULAR_RC_AVERAGE_FILTER_EN || CapSense_PROX_RC_AVERAGE_FILTER_EN)
1707:Generated_Source\PSoC4/CapSense_Filter.c ****         CapSense_RunAverageInternal(ptrFilterHistObj, ptrSensorObj, wdType);
1708:Generated_Source\PSoC4/CapSense_Filter.c ****     #endif /* (CapSense_REGULAR_RC_AVERAGE_FILTER_EN || CapSense_PROX_RC_AVERAGE_FILTER_EN) */
1709:Generated_Source\PSoC4/CapSense_Filter.c **** }
1710:Generated_Source\PSoC4/CapSense_Filter.c **** #endif /* (CapSense_ENABLE == CapSense_RC_FILTER_EN) */
1711:Generated_Source\PSoC4/CapSense_Filter.c **** 
1712:Generated_Source\PSoC4/CapSense_Filter.c **** 
1713:Generated_Source\PSoC4/CapSense_Filter.c **** #if (0u != (CapSense_CSD_AUTOTUNE & CapSense_CSD_SS_TH_EN))
1714:Generated_Source\PSoC4/CapSense_Filter.c **** /*******************************************************************************
1715:Generated_Source\PSoC4/CapSense_Filter.c **** * Function Name: CapSense_RunNoiseEnvelope
ARM GAS  C:\Users\zack.li\AppData\Local\Temp\ccZi1DuV.s 			page 37


1716:Generated_Source\PSoC4/CapSense_Filter.c **** ****************************************************************************//**
1717:Generated_Source\PSoC4/CapSense_Filter.c **** *
1718:Generated_Source\PSoC4/CapSense_Filter.c **** * \brief
1719:Generated_Source\PSoC4/CapSense_Filter.c **** *  Executes the noise envelope  filter algorithm on a sensor indicated by
1720:Generated_Source\PSoC4/CapSense_Filter.c **** *  an input parameter to measure the pk-to-pk noise in the sensor raw count.
1721:Generated_Source\PSoC4/CapSense_Filter.c **** *
1722:Generated_Source\PSoC4/CapSense_Filter.c **** * \details
1723:Generated_Source\PSoC4/CapSense_Filter.c **** *  Executes the noise envelope  filter algorithm on a sensor indicated by
1724:Generated_Source\PSoC4/CapSense_Filter.c **** *  an input parameter to measure the pk-to-pk noise in the sensor raw count.
1725:Generated_Source\PSoC4/CapSense_Filter.c **** *
1726:Generated_Source\PSoC4/CapSense_Filter.c **** * \param widgetId
1727:Generated_Source\PSoC4/CapSense_Filter.c **** *  Specifies the ID number of the widget.
1728:Generated_Source\PSoC4/CapSense_Filter.c **** *
1729:Generated_Source\PSoC4/CapSense_Filter.c **** * \param sensorId
1730:Generated_Source\PSoC4/CapSense_Filter.c **** *  Specifies the ID number of the sensor in the widget.
1731:Generated_Source\PSoC4/CapSense_Filter.c **** *
1732:Generated_Source\PSoC4/CapSense_Filter.c **** *******************************************************************************/
1733:Generated_Source\PSoC4/CapSense_Filter.c **** void CapSense_RunNoiseEnvelope(uint32 widgetId, uint32 sensorId)
1734:Generated_Source\PSoC4/CapSense_Filter.c **** {
1735:Generated_Source\PSoC4/CapSense_Filter.c ****     CapSense_FLASH_WD_STRUCT const *ptrWidget = &CapSense_dsFlash.wdgtArray[widgetId];
1736:Generated_Source\PSoC4/CapSense_Filter.c ****     CapSense_RAM_WD_BASE_STRUCT *ptrWidgetRam = ptrWidget->ptr2WdgtRam;
1737:Generated_Source\PSoC4/CapSense_Filter.c ****     CapSense_RAM_SNS_STRUCT *ptrSensor = NULL;
1738:Generated_Source\PSoC4/CapSense_Filter.c ****     SMARTSENSE_CSD_NOISE_ENVELOPE_STRUCT *ptrNoiseEnvelope = NULL;
1739:Generated_Source\PSoC4/CapSense_Filter.c **** 
1740:Generated_Source\PSoC4/CapSense_Filter.c ****     /* Find pointer to specified sensor object */
1741:Generated_Source\PSoC4/CapSense_Filter.c ****     ptrSensor = ptrWidget->ptr2SnsRam;
1742:Generated_Source\PSoC4/CapSense_Filter.c ****     ptrSensor = &ptrSensor[sensorId];
1743:Generated_Source\PSoC4/CapSense_Filter.c **** 
1744:Generated_Source\PSoC4/CapSense_Filter.c ****     /* Find pointer to specified filter sensor object */
1745:Generated_Source\PSoC4/CapSense_Filter.c ****     ptrNoiseEnvelope = ptrWidget->ptr2NoiseEnvlp;
1746:Generated_Source\PSoC4/CapSense_Filter.c ****     ptrNoiseEnvelope = &ptrNoiseEnvelope[sensorId];
1747:Generated_Source\PSoC4/CapSense_Filter.c **** 
1748:Generated_Source\PSoC4/CapSense_Filter.c ****     SmartSense_RunNoiseEnvelope(ptrSensor->raw[0u], ptrWidgetRam->sigPFC, ptrNoiseEnvelope);
1749:Generated_Source\PSoC4/CapSense_Filter.c **** }
1750:Generated_Source\PSoC4/CapSense_Filter.c **** 
1751:Generated_Source\PSoC4/CapSense_Filter.c **** 
1752:Generated_Source\PSoC4/CapSense_Filter.c **** /*******************************************************************************
1753:Generated_Source\PSoC4/CapSense_Filter.c **** * Function Name: CapSense_InitializeNoiseEnvelope
1754:Generated_Source\PSoC4/CapSense_Filter.c **** ****************************************************************************//**
1755:Generated_Source\PSoC4/CapSense_Filter.c **** *
1756:Generated_Source\PSoC4/CapSense_Filter.c **** * \brief
1757:Generated_Source\PSoC4/CapSense_Filter.c **** *  Initializes the noise-envelope filter
1758:Generated_Source\PSoC4/CapSense_Filter.c **** *
1759:Generated_Source\PSoC4/CapSense_Filter.c **** * \details
1760:Generated_Source\PSoC4/CapSense_Filter.c **** *  Initializes the noise-envelope filter
1761:Generated_Source\PSoC4/CapSense_Filter.c **** *
1762:Generated_Source\PSoC4/CapSense_Filter.c **** * \param widgetId
1763:Generated_Source\PSoC4/CapSense_Filter.c **** *  Specifies the ID number of the widget.
1764:Generated_Source\PSoC4/CapSense_Filter.c **** *
1765:Generated_Source\PSoC4/CapSense_Filter.c **** * \param sensorId
1766:Generated_Source\PSoC4/CapSense_Filter.c **** *  Specifies the ID number of the sensor in the widget.
1767:Generated_Source\PSoC4/CapSense_Filter.c **** *
1768:Generated_Source\PSoC4/CapSense_Filter.c **** *******************************************************************************/
1769:Generated_Source\PSoC4/CapSense_Filter.c **** void CapSense_InitializeNoiseEnvelope(uint32 widgetId, uint32 sensorId)
1770:Generated_Source\PSoC4/CapSense_Filter.c **** {
1771:Generated_Source\PSoC4/CapSense_Filter.c ****     CapSense_FLASH_WD_STRUCT const *ptrWidget = &CapSense_dsFlash.wdgtArray[widgetId];
1772:Generated_Source\PSoC4/CapSense_Filter.c ****     CapSense_RAM_WD_BASE_STRUCT *ptrWidgetRam = ptrWidget->ptr2WdgtRam;
ARM GAS  C:\Users\zack.li\AppData\Local\Temp\ccZi1DuV.s 			page 38


1773:Generated_Source\PSoC4/CapSense_Filter.c ****     CapSense_RAM_SNS_STRUCT *ptrSensor = NULL;
1774:Generated_Source\PSoC4/CapSense_Filter.c ****     SMARTSENSE_CSD_NOISE_ENVELOPE_STRUCT *ptrNoiseEnvelope = NULL;
1775:Generated_Source\PSoC4/CapSense_Filter.c **** 
1776:Generated_Source\PSoC4/CapSense_Filter.c ****     /* Find pointer to specified sensor object */
1777:Generated_Source\PSoC4/CapSense_Filter.c ****     ptrSensor = ptrWidget->ptr2SnsRam;
1778:Generated_Source\PSoC4/CapSense_Filter.c ****     ptrSensor = &ptrSensor[sensorId];
1779:Generated_Source\PSoC4/CapSense_Filter.c **** 
1780:Generated_Source\PSoC4/CapSense_Filter.c ****     /* Find pointer to specified filter sensor object */
1781:Generated_Source\PSoC4/CapSense_Filter.c ****     ptrNoiseEnvelope = ptrWidget->ptr2NoiseEnvlp;
1782:Generated_Source\PSoC4/CapSense_Filter.c ****     ptrNoiseEnvelope = &ptrNoiseEnvelope[sensorId];
1783:Generated_Source\PSoC4/CapSense_Filter.c **** 
1784:Generated_Source\PSoC4/CapSense_Filter.c ****     SmartSense_InitializeNoiseEnvelope(ptrSensor->raw[0u], ptrWidgetRam->sigPFC, ptrNoiseEnvelope);
1785:Generated_Source\PSoC4/CapSense_Filter.c **** }
1786:Generated_Source\PSoC4/CapSense_Filter.c **** #endif /* (0u != (CapSense_CSD_AUTOTUNE & CapSense_CSD_SS_TH_EN)) */
1787:Generated_Source\PSoC4/CapSense_Filter.c **** 
1788:Generated_Source\PSoC4/CapSense_Filter.c **** 
1789:Generated_Source\PSoC4/CapSense_Filter.c **** #if (CapSense_POS_MEDIAN_FILTER_EN || CapSense_REGULAR_RC_MEDIAN_FILTER_EN || CapSense_PROX_RC_MEDI
1790:Generated_Source\PSoC4/CapSense_Filter.c **** /*******************************************************************************
1791:Generated_Source\PSoC4/CapSense_Filter.c **** * Function Name: CapSense_FtMedian
1792:Generated_Source\PSoC4/CapSense_Filter.c **** ****************************************************************************//**
1793:Generated_Source\PSoC4/CapSense_Filter.c **** *
1794:Generated_Source\PSoC4/CapSense_Filter.c **** * \brief
1795:Generated_Source\PSoC4/CapSense_Filter.c **** *  Return the median value from the three passed arguments.
1796:Generated_Source\PSoC4/CapSense_Filter.c **** *
1797:Generated_Source\PSoC4/CapSense_Filter.c **** * \details
1798:Generated_Source\PSoC4/CapSense_Filter.c **** *  Return the median value from the three passed arguments.
1799:Generated_Source\PSoC4/CapSense_Filter.c **** *
1800:Generated_Source\PSoC4/CapSense_Filter.c **** * \param x1
1801:Generated_Source\PSoC4/CapSense_Filter.c **** *  The first value to be compared.
1802:Generated_Source\PSoC4/CapSense_Filter.c **** *
1803:Generated_Source\PSoC4/CapSense_Filter.c **** * \param x2
1804:Generated_Source\PSoC4/CapSense_Filter.c **** *  The second value to be compared.
1805:Generated_Source\PSoC4/CapSense_Filter.c **** *
1806:Generated_Source\PSoC4/CapSense_Filter.c **** * \param x3
1807:Generated_Source\PSoC4/CapSense_Filter.c **** *  The third value to be compared.
1808:Generated_Source\PSoC4/CapSense_Filter.c **** *
1809:Generated_Source\PSoC4/CapSense_Filter.c **** * \return
1810:Generated_Source\PSoC4/CapSense_Filter.c **** *  Returns the median value of input arguments.
1811:Generated_Source\PSoC4/CapSense_Filter.c **** *
1812:Generated_Source\PSoC4/CapSense_Filter.c **** *******************************************************************************/
1813:Generated_Source\PSoC4/CapSense_Filter.c **** uint32 CapSense_FtMedian(uint32 x1, uint32 x2, uint32 x3)
1814:Generated_Source\PSoC4/CapSense_Filter.c **** {
1815:Generated_Source\PSoC4/CapSense_Filter.c ****     uint32 tmp;
1816:Generated_Source\PSoC4/CapSense_Filter.c **** 
1817:Generated_Source\PSoC4/CapSense_Filter.c ****     if (x1 > x2)
1818:Generated_Source\PSoC4/CapSense_Filter.c ****     {
1819:Generated_Source\PSoC4/CapSense_Filter.c ****         tmp = x2;
1820:Generated_Source\PSoC4/CapSense_Filter.c ****         x2 = x1;
1821:Generated_Source\PSoC4/CapSense_Filter.c ****         x1 = tmp;
1822:Generated_Source\PSoC4/CapSense_Filter.c ****     }
1823:Generated_Source\PSoC4/CapSense_Filter.c **** 
1824:Generated_Source\PSoC4/CapSense_Filter.c ****     if (x2 > x3)
1825:Generated_Source\PSoC4/CapSense_Filter.c ****     {
1826:Generated_Source\PSoC4/CapSense_Filter.c ****         x2 = x3;
1827:Generated_Source\PSoC4/CapSense_Filter.c ****     }
1828:Generated_Source\PSoC4/CapSense_Filter.c **** 
1829:Generated_Source\PSoC4/CapSense_Filter.c ****     return ((x1 > x2) ? x1 : x2);
ARM GAS  C:\Users\zack.li\AppData\Local\Temp\ccZi1DuV.s 			page 39


1830:Generated_Source\PSoC4/CapSense_Filter.c **** }
1831:Generated_Source\PSoC4/CapSense_Filter.c **** #endif /*CapSense_POS_MEDIAN_FILTER_EN || CapSense_REGULAR_RC_MEDIAN_FILTER_EN || CapSense_PROX_RC_
1832:Generated_Source\PSoC4/CapSense_Filter.c **** 
1833:Generated_Source\PSoC4/CapSense_Filter.c **** 
1834:Generated_Source\PSoC4/CapSense_Filter.c **** /*******************************************************************************
1835:Generated_Source\PSoC4/CapSense_Filter.c **** * Function Name: CapSense_FtIIR1stOrder
1836:Generated_Source\PSoC4/CapSense_Filter.c **** ****************************************************************************//**
1837:Generated_Source\PSoC4/CapSense_Filter.c **** *
1838:Generated_Source\PSoC4/CapSense_Filter.c **** * \brief
1839:Generated_Source\PSoC4/CapSense_Filter.c **** *  Return the filtered data by the IIR 1-st order algorithm
1840:Generated_Source\PSoC4/CapSense_Filter.c **** *
1841:Generated_Source\PSoC4/CapSense_Filter.c **** * \details
1842:Generated_Source\PSoC4/CapSense_Filter.c **** *  Return the filtered data by the IIR 1-st order algorithm
1843:Generated_Source\PSoC4/CapSense_Filter.c **** *
1844:Generated_Source\PSoC4/CapSense_Filter.c **** * \param input
1845:Generated_Source\PSoC4/CapSense_Filter.c **** *  The data to be filtered.
1846:Generated_Source\PSoC4/CapSense_Filter.c **** *
1847:Generated_Source\PSoC4/CapSense_Filter.c **** * \param prevOutput
1848:Generated_Source\PSoC4/CapSense_Filter.c **** *  The previous filtered data.
1849:Generated_Source\PSoC4/CapSense_Filter.c **** *
1850:Generated_Source\PSoC4/CapSense_Filter.c **** * \param n
1851:Generated_Source\PSoC4/CapSense_Filter.c **** *  The IIR filter coefficient (n/256).
1852:Generated_Source\PSoC4/CapSense_Filter.c **** *
1853:Generated_Source\PSoC4/CapSense_Filter.c **** * \param shift
1854:Generated_Source\PSoC4/CapSense_Filter.c **** *  The parameter is used to shift input data to have free LSB
1855:Generated_Source\PSoC4/CapSense_Filter.c **** *  bits for a fraction storage of the filter output calculation.
1856:Generated_Source\PSoC4/CapSense_Filter.c **** *
1857:Generated_Source\PSoC4/CapSense_Filter.c **** * \return
1858:Generated_Source\PSoC4/CapSense_Filter.c **** *  Returns the filtered data.
1859:Generated_Source\PSoC4/CapSense_Filter.c **** *
1860:Generated_Source\PSoC4/CapSense_Filter.c **** *******************************************************************************/
1861:Generated_Source\PSoC4/CapSense_Filter.c **** uint32 CapSense_FtIIR1stOrder(uint32 input, uint32 prevOutput, uint32 n, uint32 shift)
1862:Generated_Source\PSoC4/CapSense_Filter.c **** {
1863:Generated_Source\PSoC4/CapSense_Filter.c ****     uint32 filteredOutput;
1864:Generated_Source\PSoC4/CapSense_Filter.c **** 
1865:Generated_Source\PSoC4/CapSense_Filter.c ****     /*
1866:Generated_Source\PSoC4/CapSense_Filter.c ****     * n - IIR filter coefficient (n/256)
1867:Generated_Source\PSoC4/CapSense_Filter.c ****     * shift - Used to shift input data to have free LSB bits
1868:Generated_Source\PSoC4/CapSense_Filter.c ****     * for fraction storage of filter output calculation
1869:Generated_Source\PSoC4/CapSense_Filter.c ****     */
1870:Generated_Source\PSoC4/CapSense_Filter.c ****     filteredOutput = ((n * (input << shift)) + ((CapSense_IIR_COEFFICIENT_K - n) * prevOutput)) >> 
 299              		.loc 1 1870 0
 300 0030 1343     		orrs	r3, r2
 301 0032 6B43     		muls	r3, r5
 302 0034 2402     		lsls	r4, r4, #8
 303 0036 1B19     		adds	r3, r3, r4
 304 0038 1A0A     		lsrs	r2, r3, #8
 305              	.LBE15:
 306              	.LBE14:
 340:Generated_Source\PSoC4/CapSense_Filter.c ****                             ptrSensor->bslnExt[freqChannel] = LO8(history);
 307              		.loc 1 340 0
 308 003a 1B0C     		lsrs	r3, r3, #16
 309 003c 4380     		strh	r3, [r0, #2]
 341:Generated_Source\PSoC4/CapSense_Filter.c ****                         #else
 310              		.loc 1 341 0
 311 003e 0271     		strb	r2, [r0, #4]
 312 0040 0FE0     		b	.L23
ARM GAS  C:\Users\zack.li\AppData\Local\Temp\ccZi1DuV.s 			page 40


 313              	.LVL36:
 314              	.L21:
 311:Generated_Source\PSoC4/CapSense_Filter.c ****                     ((difference <= (uint32) ptrWidgetRam->nNoiseTh) && (sign == 0u)))
 315              		.loc 1 311 0
 316 0042 6D79     		ldrb	r5, [r5, #5]
 317              	.LVL37:
 318 0044 AA42     		cmp	r2, r5
 319 0046 0CD8     		bhi	.L23
 312:Generated_Source\PSoC4/CapSense_Filter.c ****                 {
 320              		.loc 1 312 0
 321 0048 002E     		cmp	r6, #0
 322 004a EED0     		beq	.L24
 323 004c 09E0     		b	.L23
 324              	.LVL38:
 325              	.L19:
 298:Generated_Source\PSoC4/CapSense_Filter.c ****             {
 326              		.loc 1 298 0
 327 004e 037A     		ldrb	r3, [r0, #8]
 328 0050 2A7A     		ldrb	r2, [r5, #8]
 329              	.LVL39:
 330 0052 9A42     		cmp	r2, r3
 331 0054 02D9     		bls	.L25
 304:Generated_Source\PSoC4/CapSense_Filter.c ****             }
 332              		.loc 1 304 0
 333 0056 0133     		adds	r3, r3, #1
 334 0058 0372     		strb	r3, [r0, #8]
 335 005a 02E0     		b	.L23
 336              	.L25:
 300:Generated_Source\PSoC4/CapSense_Filter.c ****             }
 337              		.loc 1 300 0
 338 005c 0022     		movs	r2, #0
 339 005e FFF7FEFF 		bl	CapSense_FtInitializeBaselineChannel
 340              	.LVL40:
 341              	.L23:
 398:Generated_Source\PSoC4/CapSense_Filter.c **** 
 342              		.loc 1 398 0
 343 0062 0020     		movs	r0, #0
 344              		@ sp needed
 345 0064 F8BD     		pop	{r3, r4, r5, r6, r7, pc}
 346              		.cfi_endproc
 347              	.LFE5:
 348              		.size	CapSense_FtUpdateBaseline, .-CapSense_FtUpdateBaseline
 349              		.section	.text.CapSense_UpdateSensorBaseline,"ax",%progbits
 350              		.align	1
 351              		.global	CapSense_UpdateSensorBaseline
 352              		.code	16
 353              		.thumb_func
 354              		.type	CapSense_UpdateSensorBaseline, %function
 355              	CapSense_UpdateSensorBaseline:
 356              	.LFB4:
 201:Generated_Source\PSoC4/CapSense_Filter.c ****     uint32 result = CYRET_SUCCESS;
 357              		.loc 1 201 0
 358              		.cfi_startproc
 359              		@ args = 0, pretend = 0, frame = 0
 360              		@ frame_needed = 0, uses_anonymous_args = 0
 361              	.LVL41:
 209:Generated_Source\PSoC4/CapSense_Filter.c ****     ptrSensor = &ptrSensor[sensorId];
ARM GAS  C:\Users\zack.li\AppData\Local\Temp\ccZi1DuV.s 			page 41


 362              		.loc 1 209 0
 363 0000 1C23     		movs	r3, #28
 364 0002 5843     		muls	r0, r3
 365              	.LVL42:
 366 0004 054B     		ldr	r3, .L30
 201:Generated_Source\PSoC4/CapSense_Filter.c ****     uint32 result = CYRET_SUCCESS;
 367              		.loc 1 201 0
 368 0006 10B5     		push	{r4, lr}
 369              		.cfi_def_cfa_offset 8
 370              		.cfi_offset 4, -8
 371              		.cfi_offset 14, -4
 209:Generated_Source\PSoC4/CapSense_Filter.c ****     ptrSensor = &ptrSensor[sensorId];
 372              		.loc 1 209 0
 373 0008 1818     		adds	r0, r3, r0
 374              	.LVL43:
 211:Generated_Source\PSoC4/CapSense_Filter.c **** 
 375              		.loc 1 211 0
 376 000a 0A23     		movs	r3, #10
 377 000c 5943     		muls	r1, r3
 378              	.LVL44:
 379 000e 8368     		ldr	r3, [r0, #8]
 380 0010 827E     		ldrb	r2, [r0, #26]
 381 0012 5918     		adds	r1, r3, r1
 382              	.LVL45:
 383 0014 4068     		ldr	r0, [r0, #4]
 384              	.LVL46:
 385 0016 FFF7FEFF 		bl	CapSense_FtUpdateBaseline
 386              	.LVL47:
 222:Generated_Source\PSoC4/CapSense_Filter.c **** 
 387              		.loc 1 222 0
 388              		@ sp needed
 389 001a 10BD     		pop	{r4, pc}
 390              	.L31:
 391              		.align	2
 392              	.L30:
 393 001c 00000000 		.word	CapSense_dsFlash
 394              		.cfi_endproc
 395              	.LFE4:
 396              		.size	CapSense_UpdateSensorBaseline, .-CapSense_UpdateSensorBaseline
 397              		.section	.text.CapSense_UpdateWidgetBaseline,"ax",%progbits
 398              		.align	1
 399              		.global	CapSense_UpdateWidgetBaseline
 400              		.code	16
 401              		.thumb_func
 402              		.type	CapSense_UpdateWidgetBaseline, %function
 403              	CapSense_UpdateWidgetBaseline:
 404              	.LFB3:
 144:Generated_Source\PSoC4/CapSense_Filter.c ****     uint32 sensorId;
 405              		.loc 1 144 0
 406              		.cfi_startproc
 407              		@ args = 0, pretend = 0, frame = 0
 408              		@ frame_needed = 0, uses_anonymous_args = 0
 409              	.LVL48:
 152:Generated_Source\PSoC4/CapSense_Filter.c **** 
 410              		.loc 1 152 0
 411 0000 1C23     		movs	r3, #28
 144:Generated_Source\PSoC4/CapSense_Filter.c ****     uint32 sensorId;
ARM GAS  C:\Users\zack.li\AppData\Local\Temp\ccZi1DuV.s 			page 42


 412              		.loc 1 144 0
 413 0002 70B5     		push	{r4, r5, r6, lr}
 414              		.cfi_def_cfa_offset 16
 415              		.cfi_offset 4, -16
 416              		.cfi_offset 5, -12
 417              		.cfi_offset 6, -8
 418              		.cfi_offset 14, -4
 144:Generated_Source\PSoC4/CapSense_Filter.c ****     uint32 sensorId;
 419              		.loc 1 144 0
 420 0004 0400     		movs	r4, r0
 149:Generated_Source\PSoC4/CapSense_Filter.c **** 
 421              		.loc 1 149 0
 422 0006 0025     		movs	r5, #0
 152:Generated_Source\PSoC4/CapSense_Filter.c **** 
 423              		.loc 1 152 0
 424 0008 4343     		muls	r3, r0
 425 000a 074A     		ldr	r2, .L36
 426 000c D318     		adds	r3, r2, r3
 427              	.LVL49:
 428 000e 1B8B     		ldrh	r3, [r3, #24]
 429              	.LVL50:
 430              	.L33:
 154:Generated_Source\PSoC4/CapSense_Filter.c ****     {
 431              		.loc 1 154 0 discriminator 1
 432 0010 5E1E     		subs	r6, r3, #1
 433              	.LVL51:
 434 0012 002B     		cmp	r3, #0
 435 0014 06D0     		beq	.L35
 156:Generated_Source\PSoC4/CapSense_Filter.c ****     }
 436              		.loc 1 156 0
 437 0016 3100     		movs	r1, r6
 438 0018 2000     		movs	r0, r4
 439 001a FFF7FEFF 		bl	CapSense_UpdateSensorBaseline
 440              	.LVL52:
 441 001e 3300     		movs	r3, r6
 442 0020 0543     		orrs	r5, r0
 443              	.LVL53:
 444 0022 F5E7     		b	.L33
 445              	.L35:
 160:Generated_Source\PSoC4/CapSense_Filter.c **** 
 446              		.loc 1 160 0
 447 0024 2800     		movs	r0, r5
 448              		@ sp needed
 449              	.LVL54:
 450              	.LVL55:
 451              	.LVL56:
 452 0026 70BD     		pop	{r4, r5, r6, pc}
 453              	.L37:
 454              		.align	2
 455              	.L36:
 456 0028 00000000 		.word	CapSense_dsFlash
 457              		.cfi_endproc
 458              	.LFE3:
 459              		.size	CapSense_UpdateWidgetBaseline, .-CapSense_UpdateWidgetBaseline
 460              		.section	.text.CapSense_UpdateAllBaselines,"ax",%progbits
 461              		.align	1
 462              		.global	CapSense_UpdateAllBaselines
ARM GAS  C:\Users\zack.li\AppData\Local\Temp\ccZi1DuV.s 			page 43


 463              		.code	16
 464              		.thumb_func
 465              		.type	CapSense_UpdateAllBaselines, %function
 466              	CapSense_UpdateAllBaselines:
 467              	.LFB2:
  98:Generated_Source\PSoC4/CapSense_Filter.c ****     uint32 widgetId;
 468              		.loc 1 98 0
 469              		.cfi_startproc
 470              		@ args = 0, pretend = 0, frame = 0
 471              		@ frame_needed = 0, uses_anonymous_args = 0
 472              	.LVL57:
 473 0000 70B5     		push	{r4, r5, r6, lr}
 474              		.cfi_def_cfa_offset 16
 475              		.cfi_offset 4, -16
 476              		.cfi_offset 5, -12
 477              		.cfi_offset 6, -8
 478              		.cfi_offset 14, -4
 100:Generated_Source\PSoC4/CapSense_Filter.c **** 
 479              		.loc 1 100 0
 480 0002 0025     		movs	r5, #0
 102:Generated_Source\PSoC4/CapSense_Filter.c ****     {
 481              		.loc 1 102 0
 482 0004 0524     		movs	r4, #5
 483              	.LVL58:
 484              	.L39:
 102:Generated_Source\PSoC4/CapSense_Filter.c ****     {
 485              		.loc 1 102 0 is_stmt 0 discriminator 1
 486 0006 013C     		subs	r4, r4, #1
 487 0008 04D3     		bcc	.L41
 488              	.LVL59:
 104:Generated_Source\PSoC4/CapSense_Filter.c ****     }
 489              		.loc 1 104 0 is_stmt 1
 490 000a 2000     		movs	r0, r4
 491 000c FFF7FEFF 		bl	CapSense_UpdateWidgetBaseline
 492              	.LVL60:
 493 0010 0543     		orrs	r5, r0
 494              	.LVL61:
 495 0012 F8E7     		b	.L39
 496              	.L41:
 108:Generated_Source\PSoC4/CapSense_Filter.c **** 
 497              		.loc 1 108 0
 498 0014 2800     		movs	r0, r5
 499              		@ sp needed
 500              	.LVL62:
 501              	.LVL63:
 502 0016 70BD     		pop	{r4, r5, r6, pc}
 503              		.cfi_endproc
 504              	.LFE2:
 505              		.size	CapSense_UpdateAllBaselines, .-CapSense_UpdateAllBaselines
 506              		.section	.text.CapSense_InitializeIIRInternal,"ax",%progbits
 507              		.align	1
 508              		.global	CapSense_InitializeIIRInternal
 509              		.code	16
 510              		.thumb_func
 511              		.type	CapSense_InitializeIIRInternal, %function
 512              	CapSense_InitializeIIRInternal:
 513              	.LFB15:
ARM GAS  C:\Users\zack.li\AppData\Local\Temp\ccZi1DuV.s 			page 44


 852:Generated_Source\PSoC4/CapSense_Filter.c ****     uint32 freqChannel;
 514              		.loc 1 852 0
 515              		.cfi_startproc
 516              		@ args = 0, pretend = 0, frame = 0
 517              		@ frame_needed = 0, uses_anonymous_args = 0
 518              		@ link register save eliminated.
 519              	.LVL64:
 520 0000 0B88     		ldrh	r3, [r1]
 880:Generated_Source\PSoC4/CapSense_Filter.c **** 
 521              		.loc 1 880 0
 522              		@ sp needed
 864:Generated_Source\PSoC4/CapSense_Filter.c ****                 #endif /* (CapSense_REGULAR_IIR_RC_TYPE == CapSense_IIR_FILTER_PERFORMANCE) */
 523              		.loc 1 864 0
 524 0002 0380     		strh	r3, [r0]
 880:Generated_Source\PSoC4/CapSense_Filter.c **** 
 525              		.loc 1 880 0
 526 0004 7047     		bx	lr
 527              		.cfi_endproc
 528              	.LFE15:
 529              		.size	CapSense_InitializeIIRInternal, .-CapSense_InitializeIIRInternal
 530              		.section	.text.CapSense_InitializeIIR,"ax",%progbits
 531              		.align	1
 532              		.global	CapSense_InitializeIIR
 533              		.code	16
 534              		.thumb_func
 535              		.type	CapSense_InitializeIIR, %function
 536              	CapSense_InitializeIIR:
 537              	.LFB13:
 753:Generated_Source\PSoC4/CapSense_Filter.c ****     CapSense_FLASH_WD_STRUCT const *ptrWidget = &CapSense_dsFlash.wdgtArray[widgetId];
 538              		.loc 1 753 0
 539              		.cfi_startproc
 540              		@ args = 0, pretend = 0, frame = 0
 541              		@ frame_needed = 0, uses_anonymous_args = 0
 542              	.LVL65:
 759:Generated_Source\PSoC4/CapSense_Filter.c ****     ptrSensor = &ptrSensor[sensorId];
 543              		.loc 1 759 0
 544 0000 1C23     		movs	r3, #28
 545 0002 5843     		muls	r0, r3
 546              	.LVL66:
 547 0004 074B     		ldr	r3, .L46
 753:Generated_Source\PSoC4/CapSense_Filter.c ****     CapSense_FLASH_WD_STRUCT const *ptrWidget = &CapSense_dsFlash.wdgtArray[widgetId];
 548              		.loc 1 753 0
 549 0006 10B5     		push	{r4, lr}
 550              		.cfi_def_cfa_offset 8
 551              		.cfi_offset 4, -8
 552              		.cfi_offset 14, -4
 759:Generated_Source\PSoC4/CapSense_Filter.c ****     ptrSensor = &ptrSensor[sensorId];
 553              		.loc 1 759 0
 554 0008 1B18     		adds	r3, r3, r0
 555              	.LVL67:
 778:Generated_Source\PSoC4/CapSense_Filter.c **** }
 556              		.loc 1 778 0
 557 000a 0C20     		movs	r0, #12
 558 000c 4843     		muls	r0, r1
 759:Generated_Source\PSoC4/CapSense_Filter.c ****     ptrSensor = &ptrSensor[sensorId];
 559              		.loc 1 759 0
 560 000e 9C68     		ldr	r4, [r3, #8]
ARM GAS  C:\Users\zack.li\AppData\Local\Temp\ccZi1DuV.s 			page 45


 561              	.LVL68:
 778:Generated_Source\PSoC4/CapSense_Filter.c **** }
 562              		.loc 1 778 0
 563 0010 9A7E     		ldrb	r2, [r3, #26]
 564 0012 DB68     		ldr	r3, [r3, #12]
 565              	.LVL69:
 779:Generated_Source\PSoC4/CapSense_Filter.c **** 
 566              		.loc 1 779 0
 567              		@ sp needed
 778:Generated_Source\PSoC4/CapSense_Filter.c **** }
 568              		.loc 1 778 0
 569 0014 1818     		adds	r0, r3, r0
 570 0016 0A23     		movs	r3, #10
 571 0018 5943     		muls	r1, r3
 572              	.LVL70:
 573 001a 6118     		adds	r1, r4, r1
 574              	.LVL71:
 575 001c FFF7FEFF 		bl	CapSense_InitializeIIRInternal
 576              	.LVL72:
 577              	.LVL73:
 779:Generated_Source\PSoC4/CapSense_Filter.c **** 
 578              		.loc 1 779 0
 579 0020 10BD     		pop	{r4, pc}
 580              	.L47:
 581 0022 C046     		.align	2
 582              	.L46:
 583 0024 00000000 		.word	CapSense_dsFlash
 584              		.cfi_endproc
 585              	.LFE13:
 586              		.size	CapSense_InitializeIIR, .-CapSense_InitializeIIR
 587              		.section	.text.CapSense_RunIIRInternal,"ax",%progbits
 588              		.align	1
 589              		.global	CapSense_RunIIRInternal
 590              		.code	16
 591              		.thumb_func
 592              		.type	CapSense_RunIIRInternal, %function
 593              	CapSense_RunIIRInternal:
 594              	.LFB16:
 905:Generated_Source\PSoC4/CapSense_Filter.c ****     uint32 freqChannel;
 595              		.loc 1 905 0
 596              		.cfi_startproc
 597              		@ args = 0, pretend = 0, frame = 0
 598              		@ frame_needed = 0, uses_anonymous_args = 0
 599              	.LVL74:
 600 0000 0B88     		ldrh	r3, [r1]
 911:Generated_Source\PSoC4/CapSense_Filter.c ****         {
 601              		.loc 1 911 0
 602 0002 D2B2     		uxtb	r2, r2
 603              	.LVL75:
 905:Generated_Source\PSoC4/CapSense_Filter.c ****     uint32 freqChannel;
 604              		.loc 1 905 0
 605 0004 10B5     		push	{r4, lr}
 606              		.cfi_def_cfa_offset 8
 607              		.cfi_offset 4, -8
 608              		.cfi_offset 14, -4
 929:Generated_Source\PSoC4/CapSense_Filter.c ****                     ptrSensorObj->raw[freqChannel] = LO16(temp >>CapSense_REGULAR_IIR_RC_SHIFT);
 609              		.loc 1 929 0
ARM GAS  C:\Users\zack.li\AppData\Local\Temp\ccZi1DuV.s 			page 46


 610 0006 9B01     		lsls	r3, r3, #6
 611 0008 C024     		movs	r4, #192
 911:Generated_Source\PSoC4/CapSense_Filter.c ****         {
 612              		.loc 1 911 0
 613 000a 062A     		cmp	r2, #6
 614 000c 07D1     		bne	.L49
 952:Generated_Source\PSoC4/CapSense_Filter.c ****                     ptrSensorObj->raw[freqChannel] = LO16(temp >>CapSense_PROX_IIR_RC_SHIFT);
 615              		.loc 1 952 0
 616 000e 0288     		ldrh	r2, [r0]
 617 0010 5443     		muls	r4, r2
 618 0012 1C19     		adds	r4, r3, r4
 619 0014 240A     		lsrs	r4, r4, #8
 620 0016 A4B2     		uxth	r4, r4
 621 0018 0480     		strh	r4, [r0]
 953:Generated_Source\PSoC4/CapSense_Filter.c ****                 #endif /* (CapSense_PROX_IIR_RC_TYPE == CapSense_IIR_FILTER_PERFORMANCE) */
 622              		.loc 1 953 0
 623 001a 0C80     		strh	r4, [r1]
 624 001c 06E0     		b	.L48
 625              	.L49:
 929:Generated_Source\PSoC4/CapSense_Filter.c ****                     ptrSensorObj->raw[freqChannel] = LO16(temp >>CapSense_REGULAR_IIR_RC_SHIFT);
 626              		.loc 1 929 0
 627 001e 0288     		ldrh	r2, [r0]
 628 0020 5443     		muls	r4, r2
 629 0022 1B19     		adds	r3, r3, r4
 630 0024 1B0A     		lsrs	r3, r3, #8
 631 0026 9BB2     		uxth	r3, r3
 632 0028 0380     		strh	r3, [r0]
 930:Generated_Source\PSoC4/CapSense_Filter.c ****                 #endif /* (CapSense_REGULAR_IIR_RC_TYPE == CapSense_IIR_FILTER_PERFORMANCE) */
 633              		.loc 1 930 0
 634 002a 0B80     		strh	r3, [r1]
 635              	.LVL76:
 636              	.L48:
 958:Generated_Source\PSoC4/CapSense_Filter.c **** #endif /* #if (CapSense_REGULAR_RC_IIR_FILTER_EN || CapSense_PROX_RC_IIR_FILTER_EN) */
 637              		.loc 1 958 0
 638              		@ sp needed
 639 002c 10BD     		pop	{r4, pc}
 640              		.cfi_endproc
 641              	.LFE16:
 642              		.size	CapSense_RunIIRInternal, .-CapSense_RunIIRInternal
 643              		.section	.text.CapSense_RunIIR,"ax",%progbits
 644              		.align	1
 645              		.global	CapSense_RunIIR
 646              		.code	16
 647              		.thumb_func
 648              		.type	CapSense_RunIIR, %function
 649              	CapSense_RunIIR:
 650              	.LFB14:
 802:Generated_Source\PSoC4/CapSense_Filter.c ****     CapSense_FLASH_WD_STRUCT const *ptrWidget = &CapSense_dsFlash.wdgtArray[widgetId];
 651              		.loc 1 802 0
 652              		.cfi_startproc
 653              		@ args = 0, pretend = 0, frame = 0
 654              		@ frame_needed = 0, uses_anonymous_args = 0
 655              	.LVL77:
 808:Generated_Source\PSoC4/CapSense_Filter.c ****     ptrSensor = &ptrSensor[sensorId];
 656              		.loc 1 808 0
 657 0000 1C23     		movs	r3, #28
 658 0002 5843     		muls	r0, r3
ARM GAS  C:\Users\zack.li\AppData\Local\Temp\ccZi1DuV.s 			page 47


 659              	.LVL78:
 660 0004 074B     		ldr	r3, .L52
 802:Generated_Source\PSoC4/CapSense_Filter.c ****     CapSense_FLASH_WD_STRUCT const *ptrWidget = &CapSense_dsFlash.wdgtArray[widgetId];
 661              		.loc 1 802 0
 662 0006 10B5     		push	{r4, lr}
 663              		.cfi_def_cfa_offset 8
 664              		.cfi_offset 4, -8
 665              		.cfi_offset 14, -4
 808:Generated_Source\PSoC4/CapSense_Filter.c ****     ptrSensor = &ptrSensor[sensorId];
 666              		.loc 1 808 0
 667 0008 1B18     		adds	r3, r3, r0
 668              	.LVL79:
 827:Generated_Source\PSoC4/CapSense_Filter.c **** }
 669              		.loc 1 827 0
 670 000a 0C20     		movs	r0, #12
 671 000c 4843     		muls	r0, r1
 808:Generated_Source\PSoC4/CapSense_Filter.c ****     ptrSensor = &ptrSensor[sensorId];
 672              		.loc 1 808 0
 673 000e 9C68     		ldr	r4, [r3, #8]
 674              	.LVL80:
 827:Generated_Source\PSoC4/CapSense_Filter.c **** }
 675              		.loc 1 827 0
 676 0010 9A7E     		ldrb	r2, [r3, #26]
 677 0012 DB68     		ldr	r3, [r3, #12]
 678              	.LVL81:
 828:Generated_Source\PSoC4/CapSense_Filter.c **** 
 679              		.loc 1 828 0
 680              		@ sp needed
 827:Generated_Source\PSoC4/CapSense_Filter.c **** }
 681              		.loc 1 827 0
 682 0014 1818     		adds	r0, r3, r0
 683 0016 0A23     		movs	r3, #10
 684 0018 5943     		muls	r1, r3
 685              	.LVL82:
 686 001a 6118     		adds	r1, r4, r1
 687              	.LVL83:
 688 001c FFF7FEFF 		bl	CapSense_RunIIRInternal
 689              	.LVL84:
 690              	.LVL85:
 828:Generated_Source\PSoC4/CapSense_Filter.c **** 
 691              		.loc 1 828 0
 692 0020 10BD     		pop	{r4, pc}
 693              	.L53:
 694 0022 C046     		.align	2
 695              	.L52:
 696 0024 00000000 		.word	CapSense_dsFlash
 697              		.cfi_endproc
 698              	.LFE14:
 699              		.size	CapSense_RunIIR, .-CapSense_RunIIR
 700              		.section	.text.CapSense_InitializeMedianInternal,"ax",%progbits
 701              		.align	1
 702              		.global	CapSense_InitializeMedianInternal
 703              		.code	16
 704              		.thumb_func
 705              		.type	CapSense_InitializeMedianInternal, %function
 706              	CapSense_InitializeMedianInternal:
 707              	.LFB19:
ARM GAS  C:\Users\zack.li\AppData\Local\Temp\ccZi1DuV.s 			page 48


1082:Generated_Source\PSoC4/CapSense_Filter.c ****     uint32 freqChannel;
 708              		.loc 1 1082 0
 709              		.cfi_startproc
 710              		@ args = 0, pretend = 0, frame = 0
 711              		@ frame_needed = 0, uses_anonymous_args = 0
 712              		@ link register save eliminated.
 713              	.LVL86:
 714 0000 0B88     		ldrh	r3, [r1]
1102:Generated_Source\PSoC4/CapSense_Filter.c **** 
 715              		.loc 1 1102 0
 716              		@ sp needed
1090:Generated_Source\PSoC4/CapSense_Filter.c ****                 ptrFilterHistObj.ptrRegular->regularChannel[freqChannel].medHistory[1u] = ptrSensor
 717              		.loc 1 1090 0
 718 0002 4380     		strh	r3, [r0, #2]
1091:Generated_Source\PSoC4/CapSense_Filter.c ****             #endif /* (CapSense_REGULAR_SENSOR_EN) */
 719              		.loc 1 1091 0
 720 0004 8380     		strh	r3, [r0, #4]
1102:Generated_Source\PSoC4/CapSense_Filter.c **** 
 721              		.loc 1 1102 0
 722 0006 7047     		bx	lr
 723              		.cfi_endproc
 724              	.LFE19:
 725              		.size	CapSense_InitializeMedianInternal, .-CapSense_InitializeMedianInternal
 726              		.section	.text.CapSense_InitializeMedian,"ax",%progbits
 727              		.align	1
 728              		.global	CapSense_InitializeMedian
 729              		.code	16
 730              		.thumb_func
 731              		.type	CapSense_InitializeMedian, %function
 732              	CapSense_InitializeMedian:
 733              	.LFB17:
 982:Generated_Source\PSoC4/CapSense_Filter.c ****     CapSense_FLASH_WD_STRUCT const *ptrWidget = &CapSense_dsFlash.wdgtArray[widgetId];
 734              		.loc 1 982 0
 735              		.cfi_startproc
 736              		@ args = 0, pretend = 0, frame = 0
 737              		@ frame_needed = 0, uses_anonymous_args = 0
 738              	.LVL87:
 988:Generated_Source\PSoC4/CapSense_Filter.c ****     ptrSensor = &ptrSensor[sensorId];
 739              		.loc 1 988 0
 740 0000 1C23     		movs	r3, #28
 741 0002 5843     		muls	r0, r3
 742              	.LVL88:
 743 0004 074B     		ldr	r3, .L58
 982:Generated_Source\PSoC4/CapSense_Filter.c ****     CapSense_FLASH_WD_STRUCT const *ptrWidget = &CapSense_dsFlash.wdgtArray[widgetId];
 744              		.loc 1 982 0
 745 0006 10B5     		push	{r4, lr}
 746              		.cfi_def_cfa_offset 8
 747              		.cfi_offset 4, -8
 748              		.cfi_offset 14, -4
 988:Generated_Source\PSoC4/CapSense_Filter.c ****     ptrSensor = &ptrSensor[sensorId];
 749              		.loc 1 988 0
 750 0008 1B18     		adds	r3, r3, r0
 751              	.LVL89:
1007:Generated_Source\PSoC4/CapSense_Filter.c **** }
 752              		.loc 1 1007 0
 753 000a 0C20     		movs	r0, #12
 754 000c 4843     		muls	r0, r1
ARM GAS  C:\Users\zack.li\AppData\Local\Temp\ccZi1DuV.s 			page 49


 988:Generated_Source\PSoC4/CapSense_Filter.c ****     ptrSensor = &ptrSensor[sensorId];
 755              		.loc 1 988 0
 756 000e 9C68     		ldr	r4, [r3, #8]
 757              	.LVL90:
1007:Generated_Source\PSoC4/CapSense_Filter.c **** }
 758              		.loc 1 1007 0
 759 0010 9A7E     		ldrb	r2, [r3, #26]
 760 0012 DB68     		ldr	r3, [r3, #12]
 761              	.LVL91:
1008:Generated_Source\PSoC4/CapSense_Filter.c **** 
 762              		.loc 1 1008 0
 763              		@ sp needed
1007:Generated_Source\PSoC4/CapSense_Filter.c **** }
 764              		.loc 1 1007 0
 765 0014 1818     		adds	r0, r3, r0
 766 0016 0A23     		movs	r3, #10
 767 0018 5943     		muls	r1, r3
 768              	.LVL92:
 769 001a 6118     		adds	r1, r4, r1
 770              	.LVL93:
 771 001c FFF7FEFF 		bl	CapSense_InitializeMedianInternal
 772              	.LVL94:
 773              	.LVL95:
1008:Generated_Source\PSoC4/CapSense_Filter.c **** 
 774              		.loc 1 1008 0
 775 0020 10BD     		pop	{r4, pc}
 776              	.L59:
 777 0022 C046     		.align	2
 778              	.L58:
 779 0024 00000000 		.word	CapSense_dsFlash
 780              		.cfi_endproc
 781              	.LFE17:
 782              		.size	CapSense_InitializeMedian, .-CapSense_InitializeMedian
 783              		.section	.text.CapSense_RunMedianInternal,"ax",%progbits
 784              		.align	1
 785              		.global	CapSense_RunMedianInternal
 786              		.code	16
 787              		.thumb_func
 788              		.type	CapSense_RunMedianInternal, %function
 789              	CapSense_RunMedianInternal:
 790              	.LFB20:
1127:Generated_Source\PSoC4/CapSense_Filter.c ****     uint32 freqChannel;
 791              		.loc 1 1127 0
 792              		.cfi_startproc
 793              		@ args = 0, pretend = 0, frame = 0
 794              		@ frame_needed = 0, uses_anonymous_args = 0
 795              	.LVL96:
 796 0000 70B5     		push	{r4, r5, r6, lr}
 797              		.cfi_def_cfa_offset 16
 798              		.cfi_offset 4, -16
 799              		.cfi_offset 5, -12
 800              		.cfi_offset 6, -8
 801              		.cfi_offset 14, -4
 802 0002 0C88     		ldrh	r4, [r1]
 803 0004 4588     		ldrh	r5, [r0, #2]
 804 0006 8388     		ldrh	r3, [r0, #4]
1140:Generated_Source\PSoC4/CapSense_Filter.c ****                                                  (uint32)ptrFilterHistObj.ptrRegular->regularChanne
ARM GAS  C:\Users\zack.li\AppData\Local\Temp\ccZi1DuV.s 			page 50


 805              		.loc 1 1140 0
 806 0008 2200     		movs	r2, r4
 807              	.LVL97:
 808 000a 2E00     		movs	r6, r5
 809              	.LVL98:
 810              	.LBB16:
 811              	.LBB17:
1817:Generated_Source\PSoC4/CapSense_Filter.c ****     {
 812              		.loc 1 1817 0
 813 000c AC42     		cmp	r4, r5
 814 000e 01D9     		bls	.L66
 815 0010 2A00     		movs	r2, r5
 816              	.LVL99:
 817 0012 2600     		movs	r6, r4
 818              	.L66:
 819              	.LVL100:
 820              	.LBE17:
 821              	.LBE16:
1143:Generated_Source\PSoC4/CapSense_Filter.c ****                 ptrFilterHistObj.ptrRegular->regularChannel[freqChannel].medHistory[0u];
 822              		.loc 1 1143 0
 823 0014 8580     		strh	r5, [r0, #4]
1145:Generated_Source\PSoC4/CapSense_Filter.c ****                 ptrSensorObj->raw[freqChannel] = LO16(temp);
 824              		.loc 1 1145 0
 825 0016 4480     		strh	r4, [r0, #2]
1146:Generated_Source\PSoC4/CapSense_Filter.c ****             #endif /* (CapSense_REGULAR_SENSOR_EN) */
 826              		.loc 1 1146 0
 827 0018 B342     		cmp	r3, r6
 828 001a 00D9     		bls	.L67
 829 001c 3300     		movs	r3, r6
 830              	.L67:
 831 001e 9342     		cmp	r3, r2
 832 0020 00D2     		bcs	.L68
 833 0022 1300     		movs	r3, r2
 834              	.L68:
 835 0024 0B80     		strh	r3, [r1]
 836              	.LVL101:
1162:Generated_Source\PSoC4/CapSense_Filter.c **** #endif /* (CapSense_REGULAR_RC_MEDIAN_FILTER_EN || CapSense_PROX_RC_MEDIAN_FILTER_EN) */
 837              		.loc 1 1162 0
 838              		@ sp needed
 839 0026 70BD     		pop	{r4, r5, r6, pc}
 840              		.cfi_endproc
 841              	.LFE20:
 842              		.size	CapSense_RunMedianInternal, .-CapSense_RunMedianInternal
 843              		.section	.text.CapSense_RunMedian,"ax",%progbits
 844              		.align	1
 845              		.global	CapSense_RunMedian
 846              		.code	16
 847              		.thumb_func
 848              		.type	CapSense_RunMedian, %function
 849              	CapSense_RunMedian:
 850              	.LFB18:
1031:Generated_Source\PSoC4/CapSense_Filter.c ****     CapSense_FLASH_WD_STRUCT const *ptrWidget = &CapSense_dsFlash.wdgtArray[widgetId];
 851              		.loc 1 1031 0
 852              		.cfi_startproc
 853              		@ args = 0, pretend = 0, frame = 0
 854              		@ frame_needed = 0, uses_anonymous_args = 0
 855              	.LVL102:
ARM GAS  C:\Users\zack.li\AppData\Local\Temp\ccZi1DuV.s 			page 51


1037:Generated_Source\PSoC4/CapSense_Filter.c ****     ptrSensor = &ptrSensor[sensorId];
 856              		.loc 1 1037 0
 857 0000 1C23     		movs	r3, #28
 858 0002 5843     		muls	r0, r3
 859              	.LVL103:
 860 0004 074B     		ldr	r3, .L74
1031:Generated_Source\PSoC4/CapSense_Filter.c ****     CapSense_FLASH_WD_STRUCT const *ptrWidget = &CapSense_dsFlash.wdgtArray[widgetId];
 861              		.loc 1 1031 0
 862 0006 10B5     		push	{r4, lr}
 863              		.cfi_def_cfa_offset 8
 864              		.cfi_offset 4, -8
 865              		.cfi_offset 14, -4
1037:Generated_Source\PSoC4/CapSense_Filter.c ****     ptrSensor = &ptrSensor[sensorId];
 866              		.loc 1 1037 0
 867 0008 1B18     		adds	r3, r3, r0
 868              	.LVL104:
1056:Generated_Source\PSoC4/CapSense_Filter.c **** }
 869              		.loc 1 1056 0
 870 000a 0C20     		movs	r0, #12
 871 000c 4843     		muls	r0, r1
1037:Generated_Source\PSoC4/CapSense_Filter.c ****     ptrSensor = &ptrSensor[sensorId];
 872              		.loc 1 1037 0
 873 000e 9C68     		ldr	r4, [r3, #8]
 874              	.LVL105:
1056:Generated_Source\PSoC4/CapSense_Filter.c **** }
 875              		.loc 1 1056 0
 876 0010 9A7E     		ldrb	r2, [r3, #26]
 877 0012 DB68     		ldr	r3, [r3, #12]
 878              	.LVL106:
1057:Generated_Source\PSoC4/CapSense_Filter.c **** 
 879              		.loc 1 1057 0
 880              		@ sp needed
1056:Generated_Source\PSoC4/CapSense_Filter.c **** }
 881              		.loc 1 1056 0
 882 0014 1818     		adds	r0, r3, r0
 883 0016 0A23     		movs	r3, #10
 884 0018 5943     		muls	r1, r3
 885              	.LVL107:
 886 001a 6118     		adds	r1, r4, r1
 887              	.LVL108:
 888 001c FFF7FEFF 		bl	CapSense_RunMedianInternal
 889              	.LVL109:
 890              	.LVL110:
1057:Generated_Source\PSoC4/CapSense_Filter.c **** 
 891              		.loc 1 1057 0
 892 0020 10BD     		pop	{r4, pc}
 893              	.L75:
 894 0022 C046     		.align	2
 895              	.L74:
 896 0024 00000000 		.word	CapSense_dsFlash
 897              		.cfi_endproc
 898              	.LFE18:
 899              		.size	CapSense_RunMedian, .-CapSense_RunMedian
 900              		.section	.text.CapSense_InitializeAverageInternal,"ax",%progbits
 901              		.align	1
 902              		.global	CapSense_InitializeAverageInternal
 903              		.code	16
ARM GAS  C:\Users\zack.li\AppData\Local\Temp\ccZi1DuV.s 			page 52


 904              		.thumb_func
 905              		.type	CapSense_InitializeAverageInternal, %function
 906              	CapSense_InitializeAverageInternal:
 907              	.LFB23:
1286:Generated_Source\PSoC4/CapSense_Filter.c ****     uint32 freqChannel;
 908              		.loc 1 1286 0
 909              		.cfi_startproc
 910              		@ args = 0, pretend = 0, frame = 0
 911              		@ frame_needed = 0, uses_anonymous_args = 0
 912              		@ link register save eliminated.
 913              	.LVL111:
 914 0000 0B88     		ldrh	r3, [r1]
1312:Generated_Source\PSoC4/CapSense_Filter.c **** 
 915              		.loc 1 1312 0
 916              		@ sp needed
1294:Generated_Source\PSoC4/CapSense_Filter.c ****                 #if (CapSense_REGULAR_AVERAGE_LEN == CapSense_AVERAGE_FILTER_LEN_4)
 917              		.loc 1 1294 0
 918 0002 C380     		strh	r3, [r0, #6]
1296:Generated_Source\PSoC4/CapSense_Filter.c ****                     ptrFilterHistObj.ptrRegular->regularChannel[freqChannel].avgHistory[2u] = ptrSe
 919              		.loc 1 1296 0
 920 0004 0381     		strh	r3, [r0, #8]
1297:Generated_Source\PSoC4/CapSense_Filter.c ****                 #endif /* CapSense_REGULAR_AVERAGE_LEN == CapSense_AVERAGE_FILTER_LEN_4 */
 921              		.loc 1 1297 0
 922 0006 4381     		strh	r3, [r0, #10]
1312:Generated_Source\PSoC4/CapSense_Filter.c **** 
 923              		.loc 1 1312 0
 924 0008 7047     		bx	lr
 925              		.cfi_endproc
 926              	.LFE23:
 927              		.size	CapSense_InitializeAverageInternal, .-CapSense_InitializeAverageInternal
 928              		.section	.text.CapSense_InitializeWidgetFilter,"ax",%progbits
 929              		.align	1
 930              		.global	CapSense_InitializeWidgetFilter
 931              		.code	16
 932              		.thumb_func
 933              		.type	CapSense_InitializeWidgetFilter, %function
 934              	CapSense_InitializeWidgetFilter:
 935              	.LFB12:
 648:Generated_Source\PSoC4/CapSense_Filter.c ****     uint32 sensorId;
 936              		.loc 1 648 0
 937              		.cfi_startproc
 938              		@ args = 0, pretend = 0, frame = 16
 939              		@ frame_needed = 0, uses_anonymous_args = 0
 940              	.LVL112:
 670:Generated_Source\PSoC4/CapSense_Filter.c **** 
 941              		.loc 1 670 0
 942 0000 1C21     		movs	r1, #28
 943 0002 0300     		movs	r3, r0
 944 0004 4B43     		muls	r3, r1
 945 0006 1B4A     		ldr	r2, .L83
 648:Generated_Source\PSoC4/CapSense_Filter.c ****     uint32 sensorId;
 946              		.loc 1 648 0
 947 0008 F0B5     		push	{r4, r5, r6, r7, lr}
 948              		.cfi_def_cfa_offset 20
 949              		.cfi_offset 4, -20
 950              		.cfi_offset 5, -16
 951              		.cfi_offset 6, -12
ARM GAS  C:\Users\zack.li\AppData\Local\Temp\ccZi1DuV.s 			page 53


 952              		.cfi_offset 7, -8
 953              		.cfi_offset 14, -4
 670:Generated_Source\PSoC4/CapSense_Filter.c **** 
 954              		.loc 1 670 0
 955 000a D318     		adds	r3, r2, r3
 956 000c 0A22     		movs	r2, #10
 957 000e 1B8B     		ldrh	r3, [r3, #24]
 648:Generated_Source\PSoC4/CapSense_Filter.c ****     uint32 sensorId;
 958              		.loc 1 648 0
 959 0010 85B0     		sub	sp, sp, #20
 960              		.cfi_def_cfa_offset 40
 961              	.LVL113:
 962 0012 5A43     		muls	r2, r3
 963 0014 0A3A     		subs	r2, r2, #10
 964 0016 0092     		str	r2, [sp]
 965 0018 0C22     		movs	r2, #12
 672:Generated_Source\PSoC4/CapSense_Filter.c ****     {
 966              		.loc 1 672 0
 967 001a 1F00     		movs	r7, r3
 968 001c 5A43     		muls	r2, r3
 969 001e 0C3A     		subs	r2, r2, #12
 648:Generated_Source\PSoC4/CapSense_Filter.c ****     uint32 sensorId;
 970              		.loc 1 648 0
 971 0020 0290     		str	r0, [sp, #8]
 972              	.LVL114:
 973 0022 0192     		str	r2, [sp, #4]
 675:Generated_Source\PSoC4/CapSense_Filter.c ****         ptrSensor = &ptrSensor[sensorId];
 974              		.loc 1 675 0
 975 0024 0391     		str	r1, [sp, #12]
 976              	.LVL115:
 977              	.L80:
 672:Generated_Source\PSoC4/CapSense_Filter.c ****     {
 978              		.loc 1 672 0 discriminator 1
 979 0026 002F     		cmp	r7, #0
 980 0028 22D0     		beq	.L82
 675:Generated_Source\PSoC4/CapSense_Filter.c ****         ptrSensor = &ptrSensor[sensorId];
 981              		.loc 1 675 0
 982 002a 029A     		ldr	r2, [sp, #8]
 983 002c 039B     		ldr	r3, [sp, #12]
 676:Generated_Source\PSoC4/CapSense_Filter.c **** 
 984              		.loc 1 676 0
 985 002e 0099     		ldr	r1, [sp]
 675:Generated_Source\PSoC4/CapSense_Filter.c ****         ptrSensor = &ptrSensor[sensorId];
 986              		.loc 1 675 0
 987 0030 5343     		muls	r3, r2
 988 0032 104A     		ldr	r2, .L83
 989              	.LVL116:
 990 0034 013F     		subs	r7, r7, #1
 991              	.LVL117:
 992 0036 D318     		adds	r3, r2, r3
 993              	.LVL118:
 707:Generated_Source\PSoC4/CapSense_Filter.c ****         #endif /* (CapSense_REGULAR_RC_IIR_FILTER_EN || CapSense_PROX_RC_IIR_FILTER_EN) */
 994              		.loc 1 707 0
 995 0038 9E7E     		ldrb	r6, [r3, #26]
 676:Generated_Source\PSoC4/CapSense_Filter.c **** 
 996              		.loc 1 676 0
 997 003a 9A68     		ldr	r2, [r3, #8]
ARM GAS  C:\Users\zack.li\AppData\Local\Temp\ccZi1DuV.s 			page 54


 998              	.LVL119:
 707:Generated_Source\PSoC4/CapSense_Filter.c ****         #endif /* (CapSense_REGULAR_RC_IIR_FILTER_EN || CapSense_PROX_RC_IIR_FILTER_EN) */
 999              		.loc 1 707 0
 1000 003c DC68     		ldr	r4, [r3, #12]
 1001 003e 019B     		ldr	r3, [sp, #4]
 1002              	.LVL120:
 676:Generated_Source\PSoC4/CapSense_Filter.c **** 
 1003              		.loc 1 676 0
 1004 0040 5518     		adds	r5, r2, r1
 1005              	.LVL121:
 707:Generated_Source\PSoC4/CapSense_Filter.c ****         #endif /* (CapSense_REGULAR_RC_IIR_FILTER_EN || CapSense_PROX_RC_IIR_FILTER_EN) */
 1006              		.loc 1 707 0
 1007 0042 E418     		adds	r4, r4, r3
 1008 0044 3200     		movs	r2, r6
 1009 0046 2900     		movs	r1, r5
 1010 0048 2000     		movs	r0, r4
 1011 004a FFF7FEFF 		bl	CapSense_InitializeIIRInternal
 1012              	.LVL122:
 711:Generated_Source\PSoC4/CapSense_Filter.c ****         #endif /* (CapSense_REGULAR_RC_MEDIAN_FILTER_EN || CapSense_PROX_RC_MEDIAN_FILTER_EN) */
 1013              		.loc 1 711 0
 1014 004e 3200     		movs	r2, r6
 1015 0050 2900     		movs	r1, r5
 1016 0052 2000     		movs	r0, r4
 1017 0054 FFF7FEFF 		bl	CapSense_InitializeMedianInternal
 1018              	.LVL123:
 715:Generated_Source\PSoC4/CapSense_Filter.c ****         #endif /* (CapSense_REGULAR_RC_AVERAGE_FILTER_EN || CapSense_PROX_RC_AVERAGE_FILTER_EN) */
 1019              		.loc 1 715 0
 1020 0058 3200     		movs	r2, r6
 1021 005a 2900     		movs	r1, r5
 1022 005c 2000     		movs	r0, r4
 1023 005e FFF7FEFF 		bl	CapSense_InitializeAverageInternal
 1024              	.LVL124:
 1025 0062 009B     		ldr	r3, [sp]
 1026 0064 0A3B     		subs	r3, r3, #10
 1027 0066 0093     		str	r3, [sp]
 1028 0068 019B     		ldr	r3, [sp, #4]
 1029 006a 0C3B     		subs	r3, r3, #12
 1030 006c 0193     		str	r3, [sp, #4]
 1031              	.LVL125:
 1032 006e DAE7     		b	.L80
 1033              	.LVL126:
 1034              	.L82:
 730:Generated_Source\PSoC4/CapSense_Filter.c **** #endif /* ((CapSense_ENABLE == CapSense_RC_FILTER_EN) || \
 1035              		.loc 1 730 0
 1036 0070 05B0     		add	sp, sp, #20
 1037              		@ sp needed
 1038              	.LVL127:
 1039 0072 F0BD     		pop	{r4, r5, r6, r7, pc}
 1040              	.L84:
 1041              		.align	2
 1042              	.L83:
 1043 0074 00000000 		.word	CapSense_dsFlash
 1044              		.cfi_endproc
 1045              	.LFE12:
 1046              		.size	CapSense_InitializeWidgetFilter, .-CapSense_InitializeWidgetFilter
 1047              		.section	.text.CapSense_InitializeAllFilters,"ax",%progbits
 1048              		.align	1
ARM GAS  C:\Users\zack.li\AppData\Local\Temp\ccZi1DuV.s 			page 55


 1049              		.global	CapSense_InitializeAllFilters
 1050              		.code	16
 1051              		.thumb_func
 1052              		.type	CapSense_InitializeAllFilters, %function
 1053              	CapSense_InitializeAllFilters:
 1054              	.LFB11:
 618:Generated_Source\PSoC4/CapSense_Filter.c ****     uint32 widgetId;
 1055              		.loc 1 618 0
 1056              		.cfi_startproc
 1057              		@ args = 0, pretend = 0, frame = 0
 1058              		@ frame_needed = 0, uses_anonymous_args = 0
 1059              	.LVL128:
 1060 0000 10B5     		push	{r4, lr}
 1061              		.cfi_def_cfa_offset 8
 1062              		.cfi_offset 4, -8
 1063              		.cfi_offset 14, -4
 621:Generated_Source\PSoC4/CapSense_Filter.c ****     {
 1064              		.loc 1 621 0
 1065 0002 0524     		movs	r4, #5
 1066              	.LVL129:
 1067              	.L86:
 621:Generated_Source\PSoC4/CapSense_Filter.c ****     {
 1068              		.loc 1 621 0 is_stmt 0 discriminator 1
 1069 0004 013C     		subs	r4, r4, #1
 1070 0006 03D3     		bcc	.L88
 1071              	.LVL130:
 623:Generated_Source\PSoC4/CapSense_Filter.c ****     }
 1072              		.loc 1 623 0 is_stmt 1
 1073 0008 2000     		movs	r0, r4
 1074 000a FFF7FEFF 		bl	CapSense_InitializeWidgetFilter
 1075              	.LVL131:
 1076 000e F9E7     		b	.L86
 1077              	.L88:
 625:Generated_Source\PSoC4/CapSense_Filter.c **** 
 1078              		.loc 1 625 0
 1079              		@ sp needed
 1080              	.LVL132:
 1081 0010 10BD     		pop	{r4, pc}
 1082              		.cfi_endproc
 1083              	.LFE11:
 1084              		.size	CapSense_InitializeAllFilters, .-CapSense_InitializeAllFilters
 1085              		.section	.text.CapSense_FtInitialize,"ax",%progbits
 1086              		.align	1
 1087              		.global	CapSense_FtInitialize
 1088              		.code	16
 1089              		.thumb_func
 1090              		.type	CapSense_FtInitialize, %function
 1091              	CapSense_FtInitialize:
 1092              	.LFB1:
  63:Generated_Source\PSoC4/CapSense_Filter.c ****     #if ((CapSense_ENABLE == CapSense_RC_FILTER_EN) || \
 1093              		.loc 1 63 0
 1094              		.cfi_startproc
 1095              		@ args = 0, pretend = 0, frame = 0
 1096              		@ frame_needed = 0, uses_anonymous_args = 0
 1097 0000 10B5     		push	{r4, lr}
 1098              		.cfi_def_cfa_offset 8
 1099              		.cfi_offset 4, -8
ARM GAS  C:\Users\zack.li\AppData\Local\Temp\ccZi1DuV.s 			page 56


 1100              		.cfi_offset 14, -4
  66:Generated_Source\PSoC4/CapSense_Filter.c ****     #endif /* ((CapSense_ENABLE == CapSense_RC_FILTER_EN) || \
 1101              		.loc 1 66 0
 1102 0002 FFF7FEFF 		bl	CapSense_InitializeAllFilters
 1103              	.LVL133:
  69:Generated_Source\PSoC4/CapSense_Filter.c **** 
 1104              		.loc 1 69 0
 1105              		@ sp needed
 1106 0006 10BD     		pop	{r4, pc}
 1107              		.cfi_endproc
 1108              	.LFE1:
 1109              		.size	CapSense_FtInitialize, .-CapSense_FtInitialize
 1110              		.section	.text.CapSense_InitializeAverage,"ax",%progbits
 1111              		.align	1
 1112              		.global	CapSense_InitializeAverage
 1113              		.code	16
 1114              		.thumb_func
 1115              		.type	CapSense_InitializeAverage, %function
 1116              	CapSense_InitializeAverage:
 1117              	.LFB21:
1186:Generated_Source\PSoC4/CapSense_Filter.c ****     CapSense_FLASH_WD_STRUCT const *ptrWidget = &CapSense_dsFlash.wdgtArray[widgetId];
 1118              		.loc 1 1186 0
 1119              		.cfi_startproc
 1120              		@ args = 0, pretend = 0, frame = 0
 1121              		@ frame_needed = 0, uses_anonymous_args = 0
 1122              	.LVL134:
1192:Generated_Source\PSoC4/CapSense_Filter.c ****     ptrSensor = &ptrSensor[sensorId];
 1123              		.loc 1 1192 0
 1124 0000 1C23     		movs	r3, #28
 1125 0002 5843     		muls	r0, r3
 1126              	.LVL135:
 1127 0004 074B     		ldr	r3, .L91
1186:Generated_Source\PSoC4/CapSense_Filter.c ****     CapSense_FLASH_WD_STRUCT const *ptrWidget = &CapSense_dsFlash.wdgtArray[widgetId];
 1128              		.loc 1 1186 0
 1129 0006 10B5     		push	{r4, lr}
 1130              		.cfi_def_cfa_offset 8
 1131              		.cfi_offset 4, -8
 1132              		.cfi_offset 14, -4
1192:Generated_Source\PSoC4/CapSense_Filter.c ****     ptrSensor = &ptrSensor[sensorId];
 1133              		.loc 1 1192 0
 1134 0008 1B18     		adds	r3, r3, r0
 1135              	.LVL136:
1211:Generated_Source\PSoC4/CapSense_Filter.c **** }
 1136              		.loc 1 1211 0
 1137 000a 0C20     		movs	r0, #12
 1138 000c 4843     		muls	r0, r1
1192:Generated_Source\PSoC4/CapSense_Filter.c ****     ptrSensor = &ptrSensor[sensorId];
 1139              		.loc 1 1192 0
 1140 000e 9C68     		ldr	r4, [r3, #8]
 1141              	.LVL137:
1211:Generated_Source\PSoC4/CapSense_Filter.c **** }
 1142              		.loc 1 1211 0
 1143 0010 9A7E     		ldrb	r2, [r3, #26]
 1144 0012 DB68     		ldr	r3, [r3, #12]
 1145              	.LVL138:
1212:Generated_Source\PSoC4/CapSense_Filter.c **** 
 1146              		.loc 1 1212 0
ARM GAS  C:\Users\zack.li\AppData\Local\Temp\ccZi1DuV.s 			page 57


 1147              		@ sp needed
1211:Generated_Source\PSoC4/CapSense_Filter.c **** }
 1148              		.loc 1 1211 0
 1149 0014 1818     		adds	r0, r3, r0
 1150 0016 0A23     		movs	r3, #10
 1151 0018 5943     		muls	r1, r3
 1152              	.LVL139:
 1153 001a 6118     		adds	r1, r4, r1
 1154              	.LVL140:
 1155 001c FFF7FEFF 		bl	CapSense_InitializeAverageInternal
 1156              	.LVL141:
 1157              	.LVL142:
1212:Generated_Source\PSoC4/CapSense_Filter.c **** 
 1158              		.loc 1 1212 0
 1159 0020 10BD     		pop	{r4, pc}
 1160              	.L92:
 1161 0022 C046     		.align	2
 1162              	.L91:
 1163 0024 00000000 		.word	CapSense_dsFlash
 1164              		.cfi_endproc
 1165              	.LFE21:
 1166              		.size	CapSense_InitializeAverage, .-CapSense_InitializeAverage
 1167              		.section	.text.CapSense_RunAverageInternal,"ax",%progbits
 1168              		.align	1
 1169              		.global	CapSense_RunAverageInternal
 1170              		.code	16
 1171              		.thumb_func
 1172              		.type	CapSense_RunAverageInternal, %function
 1173              	CapSense_RunAverageInternal:
 1174              	.LFB24:
1337:Generated_Source\PSoC4/CapSense_Filter.c ****     uint32 freqChannel;
 1175              		.loc 1 1337 0
 1176              		.cfi_startproc
 1177              		@ args = 0, pretend = 0, frame = 0
 1178              		@ frame_needed = 0, uses_anonymous_args = 0
 1179              	.LVL143:
 1180 0000 70B5     		push	{r4, r5, r6, lr}
 1181              		.cfi_def_cfa_offset 16
 1182              		.cfi_offset 4, -16
 1183              		.cfi_offset 5, -12
 1184              		.cfi_offset 6, -8
 1185              		.cfi_offset 14, -4
 1186 0002 0C88     		ldrh	r4, [r1]
 1187 0004 C588     		ldrh	r5, [r0, #6]
 1188 0006 0689     		ldrh	r6, [r0, #8]
 1189 0008 4389     		ldrh	r3, [r0, #10]
1352:Generated_Source\PSoC4/CapSense_Filter.c ****                             (uint32)ptrFilterHistObj.ptrRegular->regularChannel[freqChannel].avgHis
 1190              		.loc 1 1352 0
 1191 000a 6219     		adds	r2, r4, r5
 1192              	.LVL144:
 1193 000c 9219     		adds	r2, r2, r6
 1194 000e D318     		adds	r3, r2, r3
 1195 0010 9B08     		lsrs	r3, r3, #2
 1196              	.LVL145:
1357:Generated_Source\PSoC4/CapSense_Filter.c ****                     ptrFilterHistObj.ptrRegular->regularChannel[freqChannel].avgHistory[1u];
 1197              		.loc 1 1357 0
 1198 0012 4681     		strh	r6, [r0, #10]
ARM GAS  C:\Users\zack.li\AppData\Local\Temp\ccZi1DuV.s 			page 58


1359:Generated_Source\PSoC4/CapSense_Filter.c ****                     ptrFilterHistObj.ptrRegular->regularChannel[freqChannel].avgHistory[0];
 1199              		.loc 1 1359 0
 1200 0014 0581     		strh	r5, [r0, #8]
1361:Generated_Source\PSoC4/CapSense_Filter.c ****                     ptrSensorObj->raw[freqChannel] = LO16(temp);
 1201              		.loc 1 1361 0
 1202 0016 C480     		strh	r4, [r0, #6]
1390:Generated_Source\PSoC4/CapSense_Filter.c **** #endif /* (CapSense_REGULAR_RC_AVERAGE_FILTER_EN || CapSense_PROX_RC_AVERAGE_FILTER_EN) */
 1203              		.loc 1 1390 0
 1204              		@ sp needed
1362:Generated_Source\PSoC4/CapSense_Filter.c ****                 #endif /* CapSense_REGULAR_AVERAGE_LEN == CapSense_AVERAGE_FILTER_LEN_4 */
 1205              		.loc 1 1362 0
 1206 0018 0B80     		strh	r3, [r1]
 1207              	.LVL146:
1390:Generated_Source\PSoC4/CapSense_Filter.c **** #endif /* (CapSense_REGULAR_RC_AVERAGE_FILTER_EN || CapSense_PROX_RC_AVERAGE_FILTER_EN) */
 1208              		.loc 1 1390 0
 1209 001a 70BD     		pop	{r4, r5, r6, pc}
 1210              		.cfi_endproc
 1211              	.LFE24:
 1212              		.size	CapSense_RunAverageInternal, .-CapSense_RunAverageInternal
 1213              		.section	.text.CapSense_RunAverage,"ax",%progbits
 1214              		.align	1
 1215              		.global	CapSense_RunAverage
 1216              		.code	16
 1217              		.thumb_func
 1218              		.type	CapSense_RunAverage, %function
 1219              	CapSense_RunAverage:
 1220              	.LFB22:
1235:Generated_Source\PSoC4/CapSense_Filter.c ****     CapSense_FLASH_WD_STRUCT const *ptrWidget = &CapSense_dsFlash.wdgtArray[widgetId];
 1221              		.loc 1 1235 0
 1222              		.cfi_startproc
 1223              		@ args = 0, pretend = 0, frame = 0
 1224              		@ frame_needed = 0, uses_anonymous_args = 0
 1225              	.LVL147:
1241:Generated_Source\PSoC4/CapSense_Filter.c ****     ptrSensor = &ptrSensor[sensorId];
 1226              		.loc 1 1241 0
 1227 0000 1C23     		movs	r3, #28
 1228 0002 5843     		muls	r0, r3
 1229              	.LVL148:
 1230 0004 074B     		ldr	r3, .L97
1235:Generated_Source\PSoC4/CapSense_Filter.c ****     CapSense_FLASH_WD_STRUCT const *ptrWidget = &CapSense_dsFlash.wdgtArray[widgetId];
 1231              		.loc 1 1235 0
 1232 0006 10B5     		push	{r4, lr}
 1233              		.cfi_def_cfa_offset 8
 1234              		.cfi_offset 4, -8
 1235              		.cfi_offset 14, -4
1241:Generated_Source\PSoC4/CapSense_Filter.c ****     ptrSensor = &ptrSensor[sensorId];
 1236              		.loc 1 1241 0
 1237 0008 1B18     		adds	r3, r3, r0
 1238              	.LVL149:
1260:Generated_Source\PSoC4/CapSense_Filter.c **** }
 1239              		.loc 1 1260 0
 1240 000a 0C20     		movs	r0, #12
 1241 000c 4843     		muls	r0, r1
1241:Generated_Source\PSoC4/CapSense_Filter.c ****     ptrSensor = &ptrSensor[sensorId];
 1242              		.loc 1 1241 0
 1243 000e 9C68     		ldr	r4, [r3, #8]
 1244              	.LVL150:
ARM GAS  C:\Users\zack.li\AppData\Local\Temp\ccZi1DuV.s 			page 59


1260:Generated_Source\PSoC4/CapSense_Filter.c **** }
 1245              		.loc 1 1260 0
 1246 0010 9A7E     		ldrb	r2, [r3, #26]
 1247 0012 DB68     		ldr	r3, [r3, #12]
 1248              	.LVL151:
1261:Generated_Source\PSoC4/CapSense_Filter.c **** 
 1249              		.loc 1 1261 0
 1250              		@ sp needed
1260:Generated_Source\PSoC4/CapSense_Filter.c **** }
 1251              		.loc 1 1260 0
 1252 0014 1818     		adds	r0, r3, r0
 1253 0016 0A23     		movs	r3, #10
 1254 0018 5943     		muls	r1, r3
 1255              	.LVL152:
 1256 001a 6118     		adds	r1, r4, r1
 1257              	.LVL153:
 1258 001c FFF7FEFF 		bl	CapSense_RunAverageInternal
 1259              	.LVL154:
 1260              	.LVL155:
1261:Generated_Source\PSoC4/CapSense_Filter.c **** 
 1261              		.loc 1 1261 0
 1262 0020 10BD     		pop	{r4, pc}
 1263              	.L98:
 1264 0022 C046     		.align	2
 1265              	.L97:
 1266 0024 00000000 		.word	CapSense_dsFlash
 1267              		.cfi_endproc
 1268              	.LFE22:
 1269              		.size	CapSense_RunAverage, .-CapSense_RunAverage
 1270              		.section	.text.CapSense_FtRunEnabledFiltersInternal,"ax",%progbits
 1271              		.align	1
 1272              		.global	CapSense_FtRunEnabledFiltersInternal
 1273              		.code	16
 1274              		.thumb_func
 1275              		.type	CapSense_FtRunEnabledFiltersInternal, %function
 1276              	CapSense_FtRunEnabledFiltersInternal:
 1277              	.LFB26:
1697:Generated_Source\PSoC4/CapSense_Filter.c ****     #if (CapSense_REGULAR_RC_MEDIAN_FILTER_EN || CapSense_PROX_RC_MEDIAN_FILTER_EN)
 1278              		.loc 1 1697 0
 1279              		.cfi_startproc
 1280              		@ args = 0, pretend = 0, frame = 0
 1281              		@ frame_needed = 0, uses_anonymous_args = 0
 1282              	.LVL156:
 1283 0000 70B5     		push	{r4, r5, r6, lr}
 1284              		.cfi_def_cfa_offset 16
 1285              		.cfi_offset 4, -16
 1286              		.cfi_offset 5, -12
 1287              		.cfi_offset 6, -8
 1288              		.cfi_offset 14, -4
1697:Generated_Source\PSoC4/CapSense_Filter.c ****     #if (CapSense_REGULAR_RC_MEDIAN_FILTER_EN || CapSense_PROX_RC_MEDIAN_FILTER_EN)
 1289              		.loc 1 1697 0
 1290 0002 0D00     		movs	r5, r1
 1291 0004 1600     		movs	r6, r2
 1292 0006 0400     		movs	r4, r0
1699:Generated_Source\PSoC4/CapSense_Filter.c ****     #endif /* (CapSense_REGULAR_RC_MEDIAN_FILTER_EN || CapSense_PROX_RC_MEDIAN_FILTER_EN) */
 1293              		.loc 1 1699 0
 1294 0008 FFF7FEFF 		bl	CapSense_RunMedianInternal
ARM GAS  C:\Users\zack.li\AppData\Local\Temp\ccZi1DuV.s 			page 60


 1295              	.LVL157:
1703:Generated_Source\PSoC4/CapSense_Filter.c ****     #endif /* (CapSense_REGULAR_RC_IIR_FILTER_EN || CapSense_PROX_RC_IIR_FILTER_EN) */
 1296              		.loc 1 1703 0
 1297 000c 3200     		movs	r2, r6
 1298 000e 2900     		movs	r1, r5
 1299              	.LVL158:
 1300 0010 2000     		movs	r0, r4
 1301 0012 FFF7FEFF 		bl	CapSense_RunIIRInternal
 1302              	.LVL159:
1707:Generated_Source\PSoC4/CapSense_Filter.c ****     #endif /* (CapSense_REGULAR_RC_AVERAGE_FILTER_EN || CapSense_PROX_RC_AVERAGE_FILTER_EN) */
 1303              		.loc 1 1707 0
 1304 0016 3200     		movs	r2, r6
 1305 0018 2900     		movs	r1, r5
 1306 001a 2000     		movs	r0, r4
 1307 001c FFF7FEFF 		bl	CapSense_RunAverageInternal
 1308              	.LVL160:
1709:Generated_Source\PSoC4/CapSense_Filter.c **** #endif /* (CapSense_ENABLE == CapSense_RC_FILTER_EN) */
 1309              		.loc 1 1709 0
 1310              		@ sp needed
 1311              	.LVL161:
 1312              	.LVL162:
 1313              	.LVL163:
 1314 0020 70BD     		pop	{r4, r5, r6, pc}
 1315              		.cfi_endproc
 1316              	.LFE26:
 1317              		.size	CapSense_FtRunEnabledFiltersInternal, .-CapSense_FtRunEnabledFiltersInternal
 1318              		.section	.text.CapSense_FtRunEnabledFilters,"ax",%progbits
 1319              		.align	1
 1320              		.global	CapSense_FtRunEnabledFilters
 1321              		.code	16
 1322              		.thumb_func
 1323              		.type	CapSense_FtRunEnabledFilters, %function
 1324              	CapSense_FtRunEnabledFilters:
 1325              	.LFB25:
1639:Generated_Source\PSoC4/CapSense_Filter.c ****     CapSense_FLASH_WD_STRUCT const *ptrWidget = &CapSense_dsFlash.wdgtArray[widgetId];
 1326              		.loc 1 1639 0
 1327              		.cfi_startproc
 1328              		@ args = 0, pretend = 0, frame = 0
 1329              		@ frame_needed = 0, uses_anonymous_args = 0
 1330              	.LVL164:
1645:Generated_Source\PSoC4/CapSense_Filter.c ****     ptrSensor = &ptrSensor[sensorId];
 1331              		.loc 1 1645 0
 1332 0000 1C23     		movs	r3, #28
 1333 0002 5843     		muls	r0, r3
 1334              	.LVL165:
 1335 0004 074B     		ldr	r3, .L101
1639:Generated_Source\PSoC4/CapSense_Filter.c ****     CapSense_FLASH_WD_STRUCT const *ptrWidget = &CapSense_dsFlash.wdgtArray[widgetId];
 1336              		.loc 1 1639 0
 1337 0006 10B5     		push	{r4, lr}
 1338              		.cfi_def_cfa_offset 8
 1339              		.cfi_offset 4, -8
 1340              		.cfi_offset 14, -4
1645:Generated_Source\PSoC4/CapSense_Filter.c ****     ptrSensor = &ptrSensor[sensorId];
 1341              		.loc 1 1645 0
 1342 0008 1B18     		adds	r3, r3, r0
 1343              	.LVL166:
1668:Generated_Source\PSoC4/CapSense_Filter.c ****     #if (CapSense_ALP_FILTER_EN)
ARM GAS  C:\Users\zack.li\AppData\Local\Temp\ccZi1DuV.s 			page 61


 1344              		.loc 1 1668 0
 1345 000a 0C20     		movs	r0, #12
 1346 000c 4843     		muls	r0, r1
1645:Generated_Source\PSoC4/CapSense_Filter.c ****     ptrSensor = &ptrSensor[sensorId];
 1347              		.loc 1 1645 0
 1348 000e 9C68     		ldr	r4, [r3, #8]
 1349              	.LVL167:
1668:Generated_Source\PSoC4/CapSense_Filter.c ****     #if (CapSense_ALP_FILTER_EN)
 1350              		.loc 1 1668 0
 1351 0010 9A7E     		ldrb	r2, [r3, #26]
 1352 0012 DB68     		ldr	r3, [r3, #12]
 1353              	.LVL168:
1672:Generated_Source\PSoC4/CapSense_Filter.c **** 
 1354              		.loc 1 1672 0
 1355              		@ sp needed
1668:Generated_Source\PSoC4/CapSense_Filter.c ****     #if (CapSense_ALP_FILTER_EN)
 1356              		.loc 1 1668 0
 1357 0014 1818     		adds	r0, r3, r0
 1358 0016 0A23     		movs	r3, #10
 1359 0018 5943     		muls	r1, r3
 1360              	.LVL169:
 1361 001a 6118     		adds	r1, r4, r1
 1362              	.LVL170:
 1363 001c FFF7FEFF 		bl	CapSense_FtRunEnabledFiltersInternal
 1364              	.LVL171:
 1365              	.LVL172:
1672:Generated_Source\PSoC4/CapSense_Filter.c **** 
 1366              		.loc 1 1672 0
 1367 0020 10BD     		pop	{r4, pc}
 1368              	.L102:
 1369 0022 C046     		.align	2
 1370              	.L101:
 1371 0024 00000000 		.word	CapSense_dsFlash
 1372              		.cfi_endproc
 1373              	.LFE25:
 1374              		.size	CapSense_FtRunEnabledFilters, .-CapSense_FtRunEnabledFilters
 1375              		.section	.text.CapSense_FtMedian,"ax",%progbits
 1376              		.align	1
 1377              		.global	CapSense_FtMedian
 1378              		.code	16
 1379              		.thumb_func
 1380              		.type	CapSense_FtMedian, %function
 1381              	CapSense_FtMedian:
 1382              	.LFB27:
1814:Generated_Source\PSoC4/CapSense_Filter.c ****     uint32 tmp;
 1383              		.loc 1 1814 0
 1384              		.cfi_startproc
 1385              		@ args = 0, pretend = 0, frame = 0
 1386              		@ frame_needed = 0, uses_anonymous_args = 0
 1387              		@ link register save eliminated.
 1388              	.LVL173:
1817:Generated_Source\PSoC4/CapSense_Filter.c ****     {
 1389              		.loc 1 1817 0
 1390 0000 8842     		cmp	r0, r1
 1391 0002 02D9     		bls	.L104
 1392 0004 0300     		movs	r3, r0
 1393 0006 0800     		movs	r0, r1
ARM GAS  C:\Users\zack.li\AppData\Local\Temp\ccZi1DuV.s 			page 62


 1394              	.LVL174:
 1395 0008 1900     		movs	r1, r3
 1396              	.LVL175:
 1397              	.L104:
1829:Generated_Source\PSoC4/CapSense_Filter.c **** }
 1398              		.loc 1 1829 0
 1399 000a 9142     		cmp	r1, r2
 1400 000c 00D9     		bls	.L105
 1401 000e 1100     		movs	r1, r2
 1402              	.LVL176:
 1403              	.L105:
 1404 0010 8142     		cmp	r1, r0
 1405 0012 00D2     		bcs	.L106
 1406 0014 0100     		movs	r1, r0
 1407              	.L106:
1830:Generated_Source\PSoC4/CapSense_Filter.c **** #endif /*CapSense_POS_MEDIAN_FILTER_EN || CapSense_REGULAR_RC_MEDIAN_FILTER_EN || CapSense_PROX_RC_
 1408              		.loc 1 1830 0
 1409 0016 0800     		movs	r0, r1
 1410              	.LVL177:
 1411              		@ sp needed
 1412 0018 7047     		bx	lr
 1413              		.cfi_endproc
 1414              	.LFE27:
 1415              		.size	CapSense_FtMedian, .-CapSense_FtMedian
 1416              		.section	.text.CapSense_FtIIR1stOrder,"ax",%progbits
 1417              		.align	1
 1418              		.global	CapSense_FtIIR1stOrder
 1419              		.code	16
 1420              		.thumb_func
 1421              		.type	CapSense_FtIIR1stOrder, %function
 1422              	CapSense_FtIIR1stOrder:
 1423              	.LFB28:
1862:Generated_Source\PSoC4/CapSense_Filter.c ****     uint32 filteredOutput;
 1424              		.loc 1 1862 0
 1425              		.cfi_startproc
 1426              		@ args = 0, pretend = 0, frame = 0
 1427              		@ frame_needed = 0, uses_anonymous_args = 0
 1428              		@ link register save eliminated.
 1429              	.LVL178:
1871:Generated_Source\PSoC4/CapSense_Filter.c **** 
1872:Generated_Source\PSoC4/CapSense_Filter.c ****     /* Shift operation of output will be done in upper level API if needed */
1873:Generated_Source\PSoC4/CapSense_Filter.c ****     return filteredOutput;
 1430              		.loc 1 1873 0
 1431 0000 9840     		lsls	r0, r0, r3
 1432              	.LVL179:
 1433 0002 8023     		movs	r3, #128
 1434              	.LVL180:
 1435 0004 5B00     		lsls	r3, r3, #1
 1436 0006 5043     		muls	r0, r2
 1437 0008 9A1A     		subs	r2, r3, r2
 1438              	.LVL181:
 1439 000a 5143     		muls	r1, r2
 1440              	.LVL182:
 1441 000c 4018     		adds	r0, r0, r1
 1442 000e 000A     		lsrs	r0, r0, #8
1874:Generated_Source\PSoC4/CapSense_Filter.c **** }
 1443              		.loc 1 1874 0
ARM GAS  C:\Users\zack.li\AppData\Local\Temp\ccZi1DuV.s 			page 63


 1444              		@ sp needed
 1445 0010 7047     		bx	lr
 1446              		.cfi_endproc
 1447              	.LFE28:
 1448              		.size	CapSense_FtIIR1stOrder, .-CapSense_FtIIR1stOrder
 1449              		.text
 1450              	.Letext0:
 1451              		.file 2 "Generated_Source\\PSoC4\\cytypes.h"
 1452              		.file 3 "Generated_Source\\PSoC4\\CapSense_Configuration.h"
 1453              		.file 4 "Generated_Source\\PSoC4\\CapSense_Structure.h"