ARM GAS  C:\Users\zack.li\AppData\Local\Temp\ccYoE7wd.s 			page 1


   1              		.syntax unified
   2              		.cpu cortex-m0plus
   3              		.fpu softvfp
   4              		.eabi_attribute 20, 1
   5              		.eabi_attribute 21, 1
   6              		.eabi_attribute 23, 3
   7              		.eabi_attribute 24, 1
   8              		.eabi_attribute 25, 1
   9              		.eabi_attribute 26, 1
  10              		.eabi_attribute 30, 4
  11              		.eabi_attribute 34, 0
  12              		.eabi_attribute 18, 4
  13              		.thumb
  14              		.syntax unified
  15              		.file	"CapSense_Structure.c"
  16              		.text
  17              	.Ltext0:
  18              		.cfi_sections	.debug_frame
  19              		.section	.text.DsParseParamId,"ax",%progbits
  20              		.align	1
  21              		.code	16
  22              		.thumb_func
  23              		.type	DsParseParamId, %function
  24              	DsParseParamId:
  25              	.LFB2:
  26              		.file 1 "Generated_Source\\PSoC4\\CapSense_Structure.c"
   1:Generated_Source\PSoC4/CapSense_Structure.c **** /***************************************************************************//**
   2:Generated_Source\PSoC4/CapSense_Structure.c **** * \file CapSense_Structure.c
   3:Generated_Source\PSoC4/CapSense_Structure.c **** * \version 7.0
   4:Generated_Source\PSoC4/CapSense_Structure.c **** *
   5:Generated_Source\PSoC4/CapSense_Structure.c **** * \brief
   6:Generated_Source\PSoC4/CapSense_Structure.c **** *   This file defines the data structure global variables and provides implementation
   7:Generated_Source\PSoC4/CapSense_Structure.c **** *   for the high-level and low-level APIs of the Data Structure module.
   8:Generated_Source\PSoC4/CapSense_Structure.c **** *
   9:Generated_Source\PSoC4/CapSense_Structure.c **** * \see CapSense v7.0 Datasheet
  10:Generated_Source\PSoC4/CapSense_Structure.c **** *
  11:Generated_Source\PSoC4/CapSense_Structure.c **** *//*****************************************************************************
  12:Generated_Source\PSoC4/CapSense_Structure.c **** * Copyright (2016-2019), Cypress Semiconductor Corporation.
  13:Generated_Source\PSoC4/CapSense_Structure.c **** ********************************************************************************
  14:Generated_Source\PSoC4/CapSense_Structure.c **** * This software is owned by Cypress Semiconductor Corporation (Cypress) and is
  15:Generated_Source\PSoC4/CapSense_Structure.c **** * protected by and subject to worldwide patent protection (United States and
  16:Generated_Source\PSoC4/CapSense_Structure.c **** * foreign), United States copyright laws and international treaty provisions.
  17:Generated_Source\PSoC4/CapSense_Structure.c **** * Cypress hereby grants to licensee a personal, non-exclusive, non-transferable
  18:Generated_Source\PSoC4/CapSense_Structure.c **** * license to copy, use, modify, create derivative works of, and compile the
  19:Generated_Source\PSoC4/CapSense_Structure.c **** * Cypress Source Code and derivative works for the sole purpose of creating
  20:Generated_Source\PSoC4/CapSense_Structure.c **** * custom software in support of licensee product to be used only in conjunction
  21:Generated_Source\PSoC4/CapSense_Structure.c **** * with a Cypress integrated circuit as specified in the applicable agreement.
  22:Generated_Source\PSoC4/CapSense_Structure.c **** * Any reproduction, modification, translation, compilation, or representation of
  23:Generated_Source\PSoC4/CapSense_Structure.c **** * this software except as specified above is prohibited without the express
  24:Generated_Source\PSoC4/CapSense_Structure.c **** * written permission of Cypress.
  25:Generated_Source\PSoC4/CapSense_Structure.c **** *
  26:Generated_Source\PSoC4/CapSense_Structure.c **** * Disclaimer: CYPRESS MAKES NO WARRANTY OF ANY KIND, EXPRESS OR IMPLIED, WITH
  27:Generated_Source\PSoC4/CapSense_Structure.c **** * REGARD TO THIS MATERIAL, INCLUDING, BUT NOT LIMITED TO, THE IMPLIED
  28:Generated_Source\PSoC4/CapSense_Structure.c **** * WARRANTIES OF MERCHANTABILITY AND FITNESS FOR A PARTICULAR PURPOSE.
  29:Generated_Source\PSoC4/CapSense_Structure.c **** * Cypress reserves the right to make changes without further notice to the
  30:Generated_Source\PSoC4/CapSense_Structure.c **** * materials described herein. Cypress does not assume any liability arising out
  31:Generated_Source\PSoC4/CapSense_Structure.c **** * of the application or use of any product or circuit described herein. Cypress
ARM GAS  C:\Users\zack.li\AppData\Local\Temp\ccYoE7wd.s 			page 2


  32:Generated_Source\PSoC4/CapSense_Structure.c **** * does not authorize its products for use as critical components in life-support
  33:Generated_Source\PSoC4/CapSense_Structure.c **** * systems where a malfunction or failure may reasonably be expected to result in
  34:Generated_Source\PSoC4/CapSense_Structure.c **** * significant injury to the user. The inclusion of Cypress' product in a life-
  35:Generated_Source\PSoC4/CapSense_Structure.c **** * support systems application implies that the manufacturer assumes all risk of
  36:Generated_Source\PSoC4/CapSense_Structure.c **** * such use and in doing so indemnifies Cypress against all charges. Use may be
  37:Generated_Source\PSoC4/CapSense_Structure.c **** * limited by and subject to the applicable Cypress software license agreement.
  38:Generated_Source\PSoC4/CapSense_Structure.c **** *******************************************************************************/
  39:Generated_Source\PSoC4/CapSense_Structure.c **** 
  40:Generated_Source\PSoC4/CapSense_Structure.c **** #include <cytypes.h>
  41:Generated_Source\PSoC4/CapSense_Structure.c **** #include "CyLib.h"
  42:Generated_Source\PSoC4/CapSense_Structure.c **** #include "CapSense_Structure.h"
  43:Generated_Source\PSoC4/CapSense_Structure.c **** #include "CapSense_Configuration.h"
  44:Generated_Source\PSoC4/CapSense_Structure.c **** 
  45:Generated_Source\PSoC4/CapSense_Structure.c **** #if (0u != CapSense_ADC_EN)
  46:Generated_Source\PSoC4/CapSense_Structure.c ****     #include "CapSense_Adc.h"
  47:Generated_Source\PSoC4/CapSense_Structure.c **** #endif /* (0u != CapSense_ADC_EN) */
  48:Generated_Source\PSoC4/CapSense_Structure.c **** 
  49:Generated_Source\PSoC4/CapSense_Structure.c **** #if (CapSense_ENABLE == CapSense_SELF_TEST_EN)
  50:Generated_Source\PSoC4/CapSense_Structure.c ****     #include "CapSense_SelfTest.h"
  51:Generated_Source\PSoC4/CapSense_Structure.c **** #endif
  52:Generated_Source\PSoC4/CapSense_Structure.c **** 
  53:Generated_Source\PSoC4/CapSense_Structure.c **** #if (CapSense_ENABLE == CapSense_CENTROID_5X5_CSD_EN)
  54:Generated_Source\PSoC4/CapSense_Structure.c ****     #include "CapSense_AdvancedCentroid_LL.h"
  55:Generated_Source\PSoC4/CapSense_Structure.c **** #endif
  56:Generated_Source\PSoC4/CapSense_Structure.c **** 
  57:Generated_Source\PSoC4/CapSense_Structure.c **** #if (CapSense_ENABLE == CapSense_GES_GLOBAL_EN)
  58:Generated_Source\PSoC4/CapSense_Structure.c ****     #include "CapSense_Gesture.h"
  59:Generated_Source\PSoC4/CapSense_Structure.c **** #endif /* (CapSense_ENABLE == CapSense_GES_GLOBAL_EN) */
  60:Generated_Source\PSoC4/CapSense_Structure.c **** 
  61:Generated_Source\PSoC4/CapSense_Structure.c **** /*******************************************************************************
  62:Generated_Source\PSoC4/CapSense_Structure.c **** * Defines the RAM Data Structure variables and their init data in flash
  63:Generated_Source\PSoC4/CapSense_Structure.c **** *******************************************************************************/
  64:Generated_Source\PSoC4/CapSense_Structure.c **** /**
  65:Generated_Source\PSoC4/CapSense_Structure.c **** * \cond SECTION_GLOBAL_VARIABLES
  66:Generated_Source\PSoC4/CapSense_Structure.c **** * \addtogroup group_global_variables
  67:Generated_Source\PSoC4/CapSense_Structure.c **** * \{
  68:Generated_Source\PSoC4/CapSense_Structure.c **** */
  69:Generated_Source\PSoC4/CapSense_Structure.c **** 
  70:Generated_Source\PSoC4/CapSense_Structure.c **** /**
  71:Generated_Source\PSoC4/CapSense_Structure.c **** * The variable that contains the CapSense configuration, settings and
  72:Generated_Source\PSoC4/CapSense_Structure.c **** * scanning results. CapSense_dsRam represents RAM Data Structure.
  73:Generated_Source\PSoC4/CapSense_Structure.c **** */
  74:Generated_Source\PSoC4/CapSense_Structure.c **** CapSense_RAM_STRUCT CapSense_dsRam;
  75:Generated_Source\PSoC4/CapSense_Structure.c **** /** \}
  76:Generated_Source\PSoC4/CapSense_Structure.c **** * \endcond */
  77:Generated_Source\PSoC4/CapSense_Structure.c **** 
  78:Generated_Source\PSoC4/CapSense_Structure.c **** /*******************************************************************************
  79:Generated_Source\PSoC4/CapSense_Structure.c **** * Declares Widget's De-bounce Counters
  80:Generated_Source\PSoC4/CapSense_Structure.c **** *******************************************************************************/
  81:Generated_Source\PSoC4/CapSense_Structure.c **** static uint8 CapSense_debounceVOL_UP[CapSense_VOL_UP_NUM_SENSORS];
  82:Generated_Source\PSoC4/CapSense_Structure.c **** static uint8 CapSense_debounceVOL_DOWN[CapSense_VOL_DOWN_NUM_SENSORS];
  83:Generated_Source\PSoC4/CapSense_Structure.c **** static uint8 CapSense_debouncePLAY_PAUSE[CapSense_PLAY_PAUSE_NUM_SENSORS];
  84:Generated_Source\PSoC4/CapSense_Structure.c **** static uint8 CapSense_debounceFORMATION[CapSense_FORMATION_NUM_SENSORS];
  85:Generated_Source\PSoC4/CapSense_Structure.c **** static uint8 CapSense_debouncePROX[CapSense_PROX_NUM_SENSORS * 2u];
  86:Generated_Source\PSoC4/CapSense_Structure.c **** 
  87:Generated_Source\PSoC4/CapSense_Structure.c **** 
  88:Generated_Source\PSoC4/CapSense_Structure.c **** /***************************************************************************//**
ARM GAS  C:\Users\zack.li\AppData\Local\Temp\ccYoE7wd.s 			page 3


  89:Generated_Source\PSoC4/CapSense_Structure.c **** * Declares Filter History Objects
  90:Generated_Source\PSoC4/CapSense_Structure.c **** *******************************************************************************/
  91:Generated_Source\PSoC4/CapSense_Structure.c **** static CapSense_REGULAR_FLTR_STRUCT CapSense_fltrHistoryVOL_UP[CapSense_VOL_UP_NUM_SENSORS];
  92:Generated_Source\PSoC4/CapSense_Structure.c **** static CapSense_REGULAR_FLTR_STRUCT CapSense_fltrHistoryVOL_DOWN[CapSense_VOL_DOWN_NUM_SENSORS];
  93:Generated_Source\PSoC4/CapSense_Structure.c **** static CapSense_REGULAR_FLTR_STRUCT CapSense_fltrHistoryPLAY_PAUSE[CapSense_PLAY_PAUSE_NUM_SENSORS]
  94:Generated_Source\PSoC4/CapSense_Structure.c **** static CapSense_REGULAR_FLTR_STRUCT CapSense_fltrHistoryFORMATION[CapSense_FORMATION_NUM_SENSORS];
  95:Generated_Source\PSoC4/CapSense_Structure.c **** static CapSense_PROX_FLTR_STRUCT CapSense_fltrHistoryPROX[CapSense_PROX_NUM_SENSORS];
  96:Generated_Source\PSoC4/CapSense_Structure.c **** 
  97:Generated_Source\PSoC4/CapSense_Structure.c **** /*******************************************************************************
  98:Generated_Source\PSoC4/CapSense_Structure.c **** * Defines and initializes the Flash Data Structure
  99:Generated_Source\PSoC4/CapSense_Structure.c **** *******************************************************************************/
 100:Generated_Source\PSoC4/CapSense_Structure.c **** 
 101:Generated_Source\PSoC4/CapSense_Structure.c **** 
 102:Generated_Source\PSoC4/CapSense_Structure.c **** 
 103:Generated_Source\PSoC4/CapSense_Structure.c **** /**
 104:Generated_Source\PSoC4/CapSense_Structure.c **** * \cond SECTION_API_CONSTANTS
 105:Generated_Source\PSoC4/CapSense_Structure.c **** * \addtogroup group_api_constants
 106:Generated_Source\PSoC4/CapSense_Structure.c **** * \{
 107:Generated_Source\PSoC4/CapSense_Structure.c **** */
 108:Generated_Source\PSoC4/CapSense_Structure.c **** /**
 109:Generated_Source\PSoC4/CapSense_Structure.c **** * Constant for the FLASH Data Structure
 110:Generated_Source\PSoC4/CapSense_Structure.c **** */
 111:Generated_Source\PSoC4/CapSense_Structure.c **** const CapSense_FLASH_STRUCT CapSense_dsFlash =
 112:Generated_Source\PSoC4/CapSense_Structure.c **** {
 113:Generated_Source\PSoC4/CapSense_Structure.c ****     /* Flash Widget Initialization Data */
 114:Generated_Source\PSoC4/CapSense_Structure.c ****     {
 115:Generated_Source\PSoC4/CapSense_Structure.c ****         { /* VOL_UP */
 116:Generated_Source\PSoC4/CapSense_Structure.c ****             &CapSense_ioList[0u],
 117:Generated_Source\PSoC4/CapSense_Structure.c ****             (void *)&CapSense_dsRam.wdgtList.vol_up,
 118:Generated_Source\PSoC4/CapSense_Structure.c ****             CapSense_dsRam.snsList.vol_up,
 119:Generated_Source\PSoC4/CapSense_Structure.c ****             (void *)CapSense_fltrHistoryVOL_UP,
 120:Generated_Source\PSoC4/CapSense_Structure.c ****             CapSense_debounceVOL_UP,
 121:Generated_Source\PSoC4/CapSense_Structure.c ****             CapSense_VOL_UP_STATIC_CONFIG,
 122:Generated_Source\PSoC4/CapSense_Structure.c ****             CapSense_VOL_UP_NUM_SENSORS,
 123:Generated_Source\PSoC4/CapSense_Structure.c ****             (uint8)CapSense_WD_BUTTON_E,
 124:Generated_Source\PSoC4/CapSense_Structure.c ****             CapSense_VOL_UP_NUM_SENSORS,
 125:Generated_Source\PSoC4/CapSense_Structure.c ****         },
 126:Generated_Source\PSoC4/CapSense_Structure.c ****         { /* VOL_DOWN */
 127:Generated_Source\PSoC4/CapSense_Structure.c ****             &CapSense_ioList[1u],
 128:Generated_Source\PSoC4/CapSense_Structure.c ****             (void *)&CapSense_dsRam.wdgtList.vol_down,
 129:Generated_Source\PSoC4/CapSense_Structure.c ****             CapSense_dsRam.snsList.vol_down,
 130:Generated_Source\PSoC4/CapSense_Structure.c ****             (void *)CapSense_fltrHistoryVOL_DOWN,
 131:Generated_Source\PSoC4/CapSense_Structure.c ****             CapSense_debounceVOL_DOWN,
 132:Generated_Source\PSoC4/CapSense_Structure.c ****             CapSense_VOL_DOWN_STATIC_CONFIG,
 133:Generated_Source\PSoC4/CapSense_Structure.c ****             CapSense_VOL_DOWN_NUM_SENSORS,
 134:Generated_Source\PSoC4/CapSense_Structure.c ****             (uint8)CapSense_WD_BUTTON_E,
 135:Generated_Source\PSoC4/CapSense_Structure.c ****             CapSense_VOL_DOWN_NUM_SENSORS,
 136:Generated_Source\PSoC4/CapSense_Structure.c ****         },
 137:Generated_Source\PSoC4/CapSense_Structure.c ****         { /* PLAY_PAUSE */
 138:Generated_Source\PSoC4/CapSense_Structure.c ****             &CapSense_ioList[2u],
 139:Generated_Source\PSoC4/CapSense_Structure.c ****             (void *)&CapSense_dsRam.wdgtList.play_pause,
 140:Generated_Source\PSoC4/CapSense_Structure.c ****             CapSense_dsRam.snsList.play_pause,
 141:Generated_Source\PSoC4/CapSense_Structure.c ****             (void *)CapSense_fltrHistoryPLAY_PAUSE,
 142:Generated_Source\PSoC4/CapSense_Structure.c ****             CapSense_debouncePLAY_PAUSE,
 143:Generated_Source\PSoC4/CapSense_Structure.c ****             CapSense_PLAY_PAUSE_STATIC_CONFIG,
 144:Generated_Source\PSoC4/CapSense_Structure.c ****             CapSense_PLAY_PAUSE_NUM_SENSORS,
 145:Generated_Source\PSoC4/CapSense_Structure.c ****             (uint8)CapSense_WD_BUTTON_E,
ARM GAS  C:\Users\zack.li\AppData\Local\Temp\ccYoE7wd.s 			page 4


 146:Generated_Source\PSoC4/CapSense_Structure.c ****             CapSense_PLAY_PAUSE_NUM_SENSORS,
 147:Generated_Source\PSoC4/CapSense_Structure.c ****         },
 148:Generated_Source\PSoC4/CapSense_Structure.c ****         { /* FORMATION */
 149:Generated_Source\PSoC4/CapSense_Structure.c ****             &CapSense_ioList[3u],
 150:Generated_Source\PSoC4/CapSense_Structure.c ****             (void *)&CapSense_dsRam.wdgtList.formation,
 151:Generated_Source\PSoC4/CapSense_Structure.c ****             CapSense_dsRam.snsList.formation,
 152:Generated_Source\PSoC4/CapSense_Structure.c ****             (void *)CapSense_fltrHistoryFORMATION,
 153:Generated_Source\PSoC4/CapSense_Structure.c ****             CapSense_debounceFORMATION,
 154:Generated_Source\PSoC4/CapSense_Structure.c ****             CapSense_FORMATION_STATIC_CONFIG,
 155:Generated_Source\PSoC4/CapSense_Structure.c ****             CapSense_FORMATION_NUM_SENSORS,
 156:Generated_Source\PSoC4/CapSense_Structure.c ****             (uint8)CapSense_WD_BUTTON_E,
 157:Generated_Source\PSoC4/CapSense_Structure.c ****             CapSense_FORMATION_NUM_SENSORS,
 158:Generated_Source\PSoC4/CapSense_Structure.c ****         },
 159:Generated_Source\PSoC4/CapSense_Structure.c ****         { /* PROX */
 160:Generated_Source\PSoC4/CapSense_Structure.c ****             &CapSense_ioList[4u],
 161:Generated_Source\PSoC4/CapSense_Structure.c ****             (void *)&CapSense_dsRam.wdgtList.prox,
 162:Generated_Source\PSoC4/CapSense_Structure.c ****             CapSense_dsRam.snsList.prox,
 163:Generated_Source\PSoC4/CapSense_Structure.c ****             (void *)CapSense_fltrHistoryPROX,
 164:Generated_Source\PSoC4/CapSense_Structure.c ****             CapSense_debouncePROX,
 165:Generated_Source\PSoC4/CapSense_Structure.c ****             CapSense_PROX_STATIC_CONFIG,
 166:Generated_Source\PSoC4/CapSense_Structure.c ****             CapSense_PROX_NUM_SENSORS,
 167:Generated_Source\PSoC4/CapSense_Structure.c ****             (uint8)CapSense_WD_PROXIMITY_E,
 168:Generated_Source\PSoC4/CapSense_Structure.c ****             CapSense_PROX_NUM_SENSORS,
 169:Generated_Source\PSoC4/CapSense_Structure.c ****         },
 170:Generated_Source\PSoC4/CapSense_Structure.c ****     },
 171:Generated_Source\PSoC4/CapSense_Structure.c **** };
 172:Generated_Source\PSoC4/CapSense_Structure.c **** 
 173:Generated_Source\PSoC4/CapSense_Structure.c **** /**
 174:Generated_Source\PSoC4/CapSense_Structure.c **** * The array of the pointers to the electrode specific register.
 175:Generated_Source\PSoC4/CapSense_Structure.c **** */
 176:Generated_Source\PSoC4/CapSense_Structure.c **** const CapSense_FLASH_IO_STRUCT CapSense_ioList[CapSense_TOTAL_ELECTRODES] =
 177:Generated_Source\PSoC4/CapSense_Structure.c **** {
 178:Generated_Source\PSoC4/CapSense_Structure.c ****     { /* 0: VOL_UP_Sns0 */
 179:Generated_Source\PSoC4/CapSense_Structure.c ****         (reg32 *)CapSense_Sns__0__HSIOM,
 180:Generated_Source\PSoC4/CapSense_Structure.c ****         (reg32 *)CapSense_Sns__0__PC,
 181:Generated_Source\PSoC4/CapSense_Structure.c ****         (reg32 *)CapSense_Sns__0__DR,
 182:Generated_Source\PSoC4/CapSense_Structure.c ****         (reg32 *)CapSense_Sns__0__PS,
 183:Generated_Source\PSoC4/CapSense_Structure.c ****         CapSense_Sns__0__HSIOM_MASK,
 184:Generated_Source\PSoC4/CapSense_Structure.c ****         CapSense_Sns__0__MASK,
 185:Generated_Source\PSoC4/CapSense_Structure.c ****         CapSense_Sns__0__HSIOM_SHIFT,
 186:Generated_Source\PSoC4/CapSense_Structure.c ****         (uint8)CapSense_Sns__0__SHIFT,
 187:Generated_Source\PSoC4/CapSense_Structure.c ****         (uint8)CapSense_Sns__0__SHIFT * 3u,
 188:Generated_Source\PSoC4/CapSense_Structure.c ****     },
 189:Generated_Source\PSoC4/CapSense_Structure.c ****     { /* 1: VOL_DOWN_Sns0 */
 190:Generated_Source\PSoC4/CapSense_Structure.c ****         (reg32 *)CapSense_Sns__1__HSIOM,
 191:Generated_Source\PSoC4/CapSense_Structure.c ****         (reg32 *)CapSense_Sns__1__PC,
 192:Generated_Source\PSoC4/CapSense_Structure.c ****         (reg32 *)CapSense_Sns__1__DR,
 193:Generated_Source\PSoC4/CapSense_Structure.c ****         (reg32 *)CapSense_Sns__1__PS,
 194:Generated_Source\PSoC4/CapSense_Structure.c ****         CapSense_Sns__1__HSIOM_MASK,
 195:Generated_Source\PSoC4/CapSense_Structure.c ****         CapSense_Sns__1__MASK,
 196:Generated_Source\PSoC4/CapSense_Structure.c ****         CapSense_Sns__1__HSIOM_SHIFT,
 197:Generated_Source\PSoC4/CapSense_Structure.c ****         (uint8)CapSense_Sns__1__SHIFT,
 198:Generated_Source\PSoC4/CapSense_Structure.c ****         (uint8)CapSense_Sns__1__SHIFT * 3u,
 199:Generated_Source\PSoC4/CapSense_Structure.c ****     },
 200:Generated_Source\PSoC4/CapSense_Structure.c ****     { /* 2: PLAY_PAUSE_Sns0 */
 201:Generated_Source\PSoC4/CapSense_Structure.c ****         (reg32 *)CapSense_Sns__2__HSIOM,
 202:Generated_Source\PSoC4/CapSense_Structure.c ****         (reg32 *)CapSense_Sns__2__PC,
ARM GAS  C:\Users\zack.li\AppData\Local\Temp\ccYoE7wd.s 			page 5


 203:Generated_Source\PSoC4/CapSense_Structure.c ****         (reg32 *)CapSense_Sns__2__DR,
 204:Generated_Source\PSoC4/CapSense_Structure.c ****         (reg32 *)CapSense_Sns__2__PS,
 205:Generated_Source\PSoC4/CapSense_Structure.c ****         CapSense_Sns__2__HSIOM_MASK,
 206:Generated_Source\PSoC4/CapSense_Structure.c ****         CapSense_Sns__2__MASK,
 207:Generated_Source\PSoC4/CapSense_Structure.c ****         CapSense_Sns__2__HSIOM_SHIFT,
 208:Generated_Source\PSoC4/CapSense_Structure.c ****         (uint8)CapSense_Sns__2__SHIFT,
 209:Generated_Source\PSoC4/CapSense_Structure.c ****         (uint8)CapSense_Sns__2__SHIFT * 3u,
 210:Generated_Source\PSoC4/CapSense_Structure.c ****     },
 211:Generated_Source\PSoC4/CapSense_Structure.c ****     { /* 3: FORMATION_Sns0 */
 212:Generated_Source\PSoC4/CapSense_Structure.c ****         (reg32 *)CapSense_Sns__3__HSIOM,
 213:Generated_Source\PSoC4/CapSense_Structure.c ****         (reg32 *)CapSense_Sns__3__PC,
 214:Generated_Source\PSoC4/CapSense_Structure.c ****         (reg32 *)CapSense_Sns__3__DR,
 215:Generated_Source\PSoC4/CapSense_Structure.c ****         (reg32 *)CapSense_Sns__3__PS,
 216:Generated_Source\PSoC4/CapSense_Structure.c ****         CapSense_Sns__3__HSIOM_MASK,
 217:Generated_Source\PSoC4/CapSense_Structure.c ****         CapSense_Sns__3__MASK,
 218:Generated_Source\PSoC4/CapSense_Structure.c ****         CapSense_Sns__3__HSIOM_SHIFT,
 219:Generated_Source\PSoC4/CapSense_Structure.c ****         (uint8)CapSense_Sns__3__SHIFT,
 220:Generated_Source\PSoC4/CapSense_Structure.c ****         (uint8)CapSense_Sns__3__SHIFT * 3u,
 221:Generated_Source\PSoC4/CapSense_Structure.c ****     },
 222:Generated_Source\PSoC4/CapSense_Structure.c ****     { /* 4: PROX_Sns0 */
 223:Generated_Source\PSoC4/CapSense_Structure.c ****         (reg32 *)CapSense_Sns__4__HSIOM,
 224:Generated_Source\PSoC4/CapSense_Structure.c ****         (reg32 *)CapSense_Sns__4__PC,
 225:Generated_Source\PSoC4/CapSense_Structure.c ****         (reg32 *)CapSense_Sns__4__DR,
 226:Generated_Source\PSoC4/CapSense_Structure.c ****         (reg32 *)CapSense_Sns__4__PS,
 227:Generated_Source\PSoC4/CapSense_Structure.c ****         CapSense_Sns__4__HSIOM_MASK,
 228:Generated_Source\PSoC4/CapSense_Structure.c ****         CapSense_Sns__4__MASK,
 229:Generated_Source\PSoC4/CapSense_Structure.c ****         CapSense_Sns__4__HSIOM_SHIFT,
 230:Generated_Source\PSoC4/CapSense_Structure.c ****         (uint8)CapSense_Sns__4__SHIFT,
 231:Generated_Source\PSoC4/CapSense_Structure.c ****         (uint8)CapSense_Sns__4__SHIFT * 3u,
 232:Generated_Source\PSoC4/CapSense_Structure.c ****     },
 233:Generated_Source\PSoC4/CapSense_Structure.c **** };
 234:Generated_Source\PSoC4/CapSense_Structure.c **** 
 235:Generated_Source\PSoC4/CapSense_Structure.c **** /**
 236:Generated_Source\PSoC4/CapSense_Structure.c ****  *  The array of the pointers to the shield electrode specific register.
 237:Generated_Source\PSoC4/CapSense_Structure.c ****  */
 238:Generated_Source\PSoC4/CapSense_Structure.c **** const CapSense_SHIELD_IO_STRUCT CapSense_shieldIoList[CapSense_CSD_TOTAL_SHIELD_COUNT] =
 239:Generated_Source\PSoC4/CapSense_Structure.c **** {
 240:Generated_Source\PSoC4/CapSense_Structure.c ****     {
 241:Generated_Source\PSoC4/CapSense_Structure.c ****         (reg32 *)CapSense_Shield__0__HSIOM,
 242:Generated_Source\PSoC4/CapSense_Structure.c ****         (reg32 *)CapSense_Shield__0__PC,
 243:Generated_Source\PSoC4/CapSense_Structure.c ****         (reg32 *)CapSense_Shield__0__DR,
 244:Generated_Source\PSoC4/CapSense_Structure.c ****         CapSense_Shield__0__HSIOM_MASK,
 245:Generated_Source\PSoC4/CapSense_Structure.c ****         CapSense_Shield__0__HSIOM_SHIFT,
 246:Generated_Source\PSoC4/CapSense_Structure.c ****         (uint8)CapSense_Shield__0__SHIFT,
 247:Generated_Source\PSoC4/CapSense_Structure.c ****         (uint8)CapSense_Shield__0__SHIFT * 3u,
 248:Generated_Source\PSoC4/CapSense_Structure.c ****     },
 249:Generated_Source\PSoC4/CapSense_Structure.c **** };
 250:Generated_Source\PSoC4/CapSense_Structure.c **** 
 251:Generated_Source\PSoC4/CapSense_Structure.c **** 
 252:Generated_Source\PSoC4/CapSense_Structure.c **** /** \}
 253:Generated_Source\PSoC4/CapSense_Structure.c **** * \endcond */
 254:Generated_Source\PSoC4/CapSense_Structure.c **** 
 255:Generated_Source\PSoC4/CapSense_Structure.c **** /* Initialization data for RAM widget list */
 256:Generated_Source\PSoC4/CapSense_Structure.c **** const CapSense_RAM_WD_LIST_STRUCT CapSense_ramWidgetInit =
 257:Generated_Source\PSoC4/CapSense_Structure.c **** {
 258:Generated_Source\PSoC4/CapSense_Structure.c ****     { /* VOL_UP */
 259:Generated_Source\PSoC4/CapSense_Structure.c ****         CapSense_VOL_UP_RESOLUTION,
ARM GAS  C:\Users\zack.li\AppData\Local\Temp\ccYoE7wd.s 			page 6


 260:Generated_Source\PSoC4/CapSense_Structure.c ****         CapSense_VOL_UP_FINGER_TH,
 261:Generated_Source\PSoC4/CapSense_Structure.c ****         CapSense_VOL_UP_NOISE_TH,
 262:Generated_Source\PSoC4/CapSense_Structure.c ****         CapSense_VOL_UP_NNOISE_TH,
 263:Generated_Source\PSoC4/CapSense_Structure.c ****         CapSense_VOL_UP_HYSTERESIS,
 264:Generated_Source\PSoC4/CapSense_Structure.c ****         CapSense_VOL_UP_ON_DEBOUNCE,
 265:Generated_Source\PSoC4/CapSense_Structure.c ****         CapSense_VOL_UP_LOW_BSLN_RST,
 266:Generated_Source\PSoC4/CapSense_Structure.c ****         {
 267:Generated_Source\PSoC4/CapSense_Structure.c ****             CapSense_VOL_UP_IDAC_MOD0,
 268:Generated_Source\PSoC4/CapSense_Structure.c ****         },
 269:Generated_Source\PSoC4/CapSense_Structure.c ****         CapSense_VOL_UP_IDAC_GAIN_INDEX,
 270:Generated_Source\PSoC4/CapSense_Structure.c ****         CapSense_VOL_UP_SNS_CLK,
 271:Generated_Source\PSoC4/CapSense_Structure.c ****         CapSense_VOL_UP_SNS_CLK_SOURCE,
 272:Generated_Source\PSoC4/CapSense_Structure.c ****     },
 273:Generated_Source\PSoC4/CapSense_Structure.c ****     { /* VOL_DOWN */
 274:Generated_Source\PSoC4/CapSense_Structure.c ****         CapSense_VOL_DOWN_RESOLUTION,
 275:Generated_Source\PSoC4/CapSense_Structure.c ****         CapSense_VOL_DOWN_FINGER_TH,
 276:Generated_Source\PSoC4/CapSense_Structure.c ****         CapSense_VOL_DOWN_NOISE_TH,
 277:Generated_Source\PSoC4/CapSense_Structure.c ****         CapSense_VOL_DOWN_NNOISE_TH,
 278:Generated_Source\PSoC4/CapSense_Structure.c ****         CapSense_VOL_DOWN_HYSTERESIS,
 279:Generated_Source\PSoC4/CapSense_Structure.c ****         CapSense_VOL_DOWN_ON_DEBOUNCE,
 280:Generated_Source\PSoC4/CapSense_Structure.c ****         CapSense_VOL_DOWN_LOW_BSLN_RST,
 281:Generated_Source\PSoC4/CapSense_Structure.c ****         {
 282:Generated_Source\PSoC4/CapSense_Structure.c ****             CapSense_VOL_DOWN_IDAC_MOD0,
 283:Generated_Source\PSoC4/CapSense_Structure.c ****         },
 284:Generated_Source\PSoC4/CapSense_Structure.c ****         CapSense_VOL_DOWN_IDAC_GAIN_INDEX,
 285:Generated_Source\PSoC4/CapSense_Structure.c ****         CapSense_VOL_DOWN_SNS_CLK,
 286:Generated_Source\PSoC4/CapSense_Structure.c ****         CapSense_VOL_DOWN_SNS_CLK_SOURCE,
 287:Generated_Source\PSoC4/CapSense_Structure.c ****     },
 288:Generated_Source\PSoC4/CapSense_Structure.c ****     { /* PLAY_PAUSE */
 289:Generated_Source\PSoC4/CapSense_Structure.c ****         CapSense_PLAY_PAUSE_RESOLUTION,
 290:Generated_Source\PSoC4/CapSense_Structure.c ****         CapSense_PLAY_PAUSE_FINGER_TH,
 291:Generated_Source\PSoC4/CapSense_Structure.c ****         CapSense_PLAY_PAUSE_NOISE_TH,
 292:Generated_Source\PSoC4/CapSense_Structure.c ****         CapSense_PLAY_PAUSE_NNOISE_TH,
 293:Generated_Source\PSoC4/CapSense_Structure.c ****         CapSense_PLAY_PAUSE_HYSTERESIS,
 294:Generated_Source\PSoC4/CapSense_Structure.c ****         CapSense_PLAY_PAUSE_ON_DEBOUNCE,
 295:Generated_Source\PSoC4/CapSense_Structure.c ****         CapSense_PLAY_PAUSE_LOW_BSLN_RST,
 296:Generated_Source\PSoC4/CapSense_Structure.c ****         {
 297:Generated_Source\PSoC4/CapSense_Structure.c ****             CapSense_PLAY_PAUSE_IDAC_MOD0,
 298:Generated_Source\PSoC4/CapSense_Structure.c ****         },
 299:Generated_Source\PSoC4/CapSense_Structure.c ****         CapSense_PLAY_PAUSE_IDAC_GAIN_INDEX,
 300:Generated_Source\PSoC4/CapSense_Structure.c ****         CapSense_PLAY_PAUSE_SNS_CLK,
 301:Generated_Source\PSoC4/CapSense_Structure.c ****         CapSense_PLAY_PAUSE_SNS_CLK_SOURCE,
 302:Generated_Source\PSoC4/CapSense_Structure.c ****     },
 303:Generated_Source\PSoC4/CapSense_Structure.c ****     { /* FORMATION */
 304:Generated_Source\PSoC4/CapSense_Structure.c ****         CapSense_FORMATION_RESOLUTION,
 305:Generated_Source\PSoC4/CapSense_Structure.c ****         CapSense_FORMATION_FINGER_TH,
 306:Generated_Source\PSoC4/CapSense_Structure.c ****         CapSense_FORMATION_NOISE_TH,
 307:Generated_Source\PSoC4/CapSense_Structure.c ****         CapSense_FORMATION_NNOISE_TH,
 308:Generated_Source\PSoC4/CapSense_Structure.c ****         CapSense_FORMATION_HYSTERESIS,
 309:Generated_Source\PSoC4/CapSense_Structure.c ****         CapSense_FORMATION_ON_DEBOUNCE,
 310:Generated_Source\PSoC4/CapSense_Structure.c ****         CapSense_FORMATION_LOW_BSLN_RST,
 311:Generated_Source\PSoC4/CapSense_Structure.c ****         {
 312:Generated_Source\PSoC4/CapSense_Structure.c ****             CapSense_FORMATION_IDAC_MOD0,
 313:Generated_Source\PSoC4/CapSense_Structure.c ****         },
 314:Generated_Source\PSoC4/CapSense_Structure.c ****         CapSense_FORMATION_IDAC_GAIN_INDEX,
 315:Generated_Source\PSoC4/CapSense_Structure.c ****         CapSense_FORMATION_SNS_CLK,
 316:Generated_Source\PSoC4/CapSense_Structure.c ****         CapSense_FORMATION_SNS_CLK_SOURCE,
ARM GAS  C:\Users\zack.li\AppData\Local\Temp\ccYoE7wd.s 			page 7


 317:Generated_Source\PSoC4/CapSense_Structure.c ****     },
 318:Generated_Source\PSoC4/CapSense_Structure.c ****     { /* PROX */
 319:Generated_Source\PSoC4/CapSense_Structure.c ****         CapSense_PROX_RESOLUTION,
 320:Generated_Source\PSoC4/CapSense_Structure.c ****         CapSense_PROX_FINGER_TH,
 321:Generated_Source\PSoC4/CapSense_Structure.c ****         CapSense_PROX_NOISE_TH,
 322:Generated_Source\PSoC4/CapSense_Structure.c ****         CapSense_PROX_NNOISE_TH,
 323:Generated_Source\PSoC4/CapSense_Structure.c ****         CapSense_PROX_HYSTERESIS,
 324:Generated_Source\PSoC4/CapSense_Structure.c ****         CapSense_PROX_ON_DEBOUNCE,
 325:Generated_Source\PSoC4/CapSense_Structure.c ****         CapSense_PROX_LOW_BSLN_RST,
 326:Generated_Source\PSoC4/CapSense_Structure.c ****         {
 327:Generated_Source\PSoC4/CapSense_Structure.c ****             CapSense_PROX_IDAC_MOD0,
 328:Generated_Source\PSoC4/CapSense_Structure.c ****         },
 329:Generated_Source\PSoC4/CapSense_Structure.c ****         CapSense_PROX_IDAC_GAIN_INDEX,
 330:Generated_Source\PSoC4/CapSense_Structure.c ****         CapSense_PROX_SNS_CLK,
 331:Generated_Source\PSoC4/CapSense_Structure.c ****         CapSense_PROX_SNS_CLK_SOURCE,
 332:Generated_Source\PSoC4/CapSense_Structure.c ****         CapSense_PROX_PROX_TOUCH_TH,
 333:Generated_Source\PSoC4/CapSense_Structure.c ****     },
 334:Generated_Source\PSoC4/CapSense_Structure.c **** };
 335:Generated_Source\PSoC4/CapSense_Structure.c **** 
 336:Generated_Source\PSoC4/CapSense_Structure.c **** 
 337:Generated_Source\PSoC4/CapSense_Structure.c **** /* IDAC Initialization Data */
 338:Generated_Source\PSoC4/CapSense_Structure.c **** const uint8 CapSense_ramIdacInit[CapSense_TOTAL_SENSORS] =
 339:Generated_Source\PSoC4/CapSense_Structure.c **** {
 340:Generated_Source\PSoC4/CapSense_Structure.c ****     /* VOL_UP */
 341:Generated_Source\PSoC4/CapSense_Structure.c ****     CapSense_VOL_UP_SNS0_IDAC_COMP0,
 342:Generated_Source\PSoC4/CapSense_Structure.c **** 
 343:Generated_Source\PSoC4/CapSense_Structure.c ****     /* VOL_DOWN */
 344:Generated_Source\PSoC4/CapSense_Structure.c ****     CapSense_VOL_DOWN_SNS0_IDAC_COMP0,
 345:Generated_Source\PSoC4/CapSense_Structure.c **** 
 346:Generated_Source\PSoC4/CapSense_Structure.c ****     /* PLAY_PAUSE */
 347:Generated_Source\PSoC4/CapSense_Structure.c ****     CapSense_PLAY_PAUSE_SNS0_IDAC_COMP0,
 348:Generated_Source\PSoC4/CapSense_Structure.c **** 
 349:Generated_Source\PSoC4/CapSense_Structure.c ****     /* FORMATION */
 350:Generated_Source\PSoC4/CapSense_Structure.c ****     CapSense_FORMATION_SNS0_IDAC_COMP0,
 351:Generated_Source\PSoC4/CapSense_Structure.c **** 
 352:Generated_Source\PSoC4/CapSense_Structure.c ****     /* PROX */
 353:Generated_Source\PSoC4/CapSense_Structure.c ****     CapSense_PROX_SNS0_IDAC_COMP0,
 354:Generated_Source\PSoC4/CapSense_Structure.c **** };
 355:Generated_Source\PSoC4/CapSense_Structure.c **** 
 356:Generated_Source\PSoC4/CapSense_Structure.c **** 
 357:Generated_Source\PSoC4/CapSense_Structure.c **** 
 358:Generated_Source\PSoC4/CapSense_Structure.c **** 
 359:Generated_Source\PSoC4/CapSense_Structure.c **** 
 360:Generated_Source\PSoC4/CapSense_Structure.c **** /*******************************************************************************
 361:Generated_Source\PSoC4/CapSense_Structure.c **** * Defines internal data types and statements
 362:Generated_Source\PSoC4/CapSense_Structure.c **** *******************************************************************************/
 363:Generated_Source\PSoC4/CapSense_Structure.c **** #define PARAM_TYPE_OFFSET       (30u)
 364:Generated_Source\PSoC4/CapSense_Structure.c **** #define PARAM_TYPE_MASK         (3Lu << PARAM_TYPE_OFFSET)
 365:Generated_Source\PSoC4/CapSense_Structure.c **** #define PARAM_RWBIT_OFFSET      (29u)
 366:Generated_Source\PSoC4/CapSense_Structure.c **** #define PARAM_RWBIT_MASK        (1Lu << PARAM_RWBIT_OFFSET)
 367:Generated_Source\PSoC4/CapSense_Structure.c **** #define PARAM_FBIT_OFFSET       (28u)
 368:Generated_Source\PSoC4/CapSense_Structure.c **** #define PARAM_FBIT_MASK         (1Lu << PARAM_FBIT_OFFSET)
 369:Generated_Source\PSoC4/CapSense_Structure.c **** #define PARAM_UBIT_OFFSET       (23u)
 370:Generated_Source\PSoC4/CapSense_Structure.c **** #define PARAM_UBIT_MASK         (1Lu << PARAM_UBIT_OFFSET)
 371:Generated_Source\PSoC4/CapSense_Structure.c **** #define PARAM_WDID_OFFSET       (16u)
 372:Generated_Source\PSoC4/CapSense_Structure.c **** #define PARAM_WDID_MASK         (0x7FLu << PARAM_WDID_OFFSET)
 373:Generated_Source\PSoC4/CapSense_Structure.c **** #define PARAM_CRC_OFFSET        (24u)
ARM GAS  C:\Users\zack.li\AppData\Local\Temp\ccYoE7wd.s 			page 8


 374:Generated_Source\PSoC4/CapSense_Structure.c **** #define PARAM_CRC_MASK          (0x0FLu << PARAM_CRC_OFFSET)
 375:Generated_Source\PSoC4/CapSense_Structure.c **** 
 376:Generated_Source\PSoC4/CapSense_Structure.c **** /* Defines align masks for uint16 and uint32 */
 377:Generated_Source\PSoC4/CapSense_Structure.c **** #define UINT16_ALIGN_MASK       (1Lu)
 378:Generated_Source\PSoC4/CapSense_Structure.c **** #define UINT32_ALIGN_MASK       (3Lu)
 379:Generated_Source\PSoC4/CapSense_Structure.c **** 
 380:Generated_Source\PSoC4/CapSense_Structure.c **** /* Defines supported parameter types */
 381:Generated_Source\PSoC4/CapSense_Structure.c **** #define DS_PARAM_TYPE_UINT8     (0x01u)
 382:Generated_Source\PSoC4/CapSense_Structure.c **** #define DS_PARAM_TYPE_UINT16    (0x02u)
 383:Generated_Source\PSoC4/CapSense_Structure.c **** #define DS_PARAM_TYPE_UINT32    (0x03u)
 384:Generated_Source\PSoC4/CapSense_Structure.c **** 
 385:Generated_Source\PSoC4/CapSense_Structure.c **** 
 386:Generated_Source\PSoC4/CapSense_Structure.c **** /* Defines PARAM_ID structure */
 387:Generated_Source\PSoC4/CapSense_Structure.c **** typedef struct
 388:Generated_Source\PSoC4/CapSense_Structure.c **** {
 389:Generated_Source\PSoC4/CapSense_Structure.c ****     uint16 offset;      /* parameter offset */
 390:Generated_Source\PSoC4/CapSense_Structure.c ****     uint8  widgetId;    /* widget Id parameter belongs to */
 391:Generated_Source\PSoC4/CapSense_Structure.c ****     uint8  affectsCrc;  /* parameter affects widget CRC */
 392:Generated_Source\PSoC4/CapSense_Structure.c ****     uint8  crc;         /* parameter CRC */
 393:Generated_Source\PSoC4/CapSense_Structure.c ****     uint8  flash;       /* parameter located in FLASH flag */
 394:Generated_Source\PSoC4/CapSense_Structure.c ****     uint8  rw;          /* parameter is read/write flag */
 395:Generated_Source\PSoC4/CapSense_Structure.c ****     uint8  type;        /* parameter type: uint8/uint16/uint32 */
 396:Generated_Source\PSoC4/CapSense_Structure.c **** } PARAM_ID_STRUCT;
 397:Generated_Source\PSoC4/CapSense_Structure.c **** 
 398:Generated_Source\PSoC4/CapSense_Structure.c **** 
 399:Generated_Source\PSoC4/CapSense_Structure.c **** /*******************************************************************************
 400:Generated_Source\PSoC4/CapSense_Structure.c **** * Static Function Prototypes
 401:Generated_Source\PSoC4/CapSense_Structure.c **** *******************************************************************************/
 402:Generated_Source\PSoC4/CapSense_Structure.c **** /**
 403:Generated_Source\PSoC4/CapSense_Structure.c **** * \cond SECTION_C_INTERNAL
 404:Generated_Source\PSoC4/CapSense_Structure.c **** * \addtogroup group_c_internal
 405:Generated_Source\PSoC4/CapSense_Structure.c **** * \{
 406:Generated_Source\PSoC4/CapSense_Structure.c **** */
 407:Generated_Source\PSoC4/CapSense_Structure.c **** 
 408:Generated_Source\PSoC4/CapSense_Structure.c **** 
 409:Generated_Source\PSoC4/CapSense_Structure.c **** 
 410:Generated_Source\PSoC4/CapSense_Structure.c **** static cystatus DsParseParamId(uint32 paramId, PARAM_ID_STRUCT *pData);
 411:Generated_Source\PSoC4/CapSense_Structure.c **** 
 412:Generated_Source\PSoC4/CapSense_Structure.c **** /** \}
 413:Generated_Source\PSoC4/CapSense_Structure.c **** * \endcond */
 414:Generated_Source\PSoC4/CapSense_Structure.c **** 
 415:Generated_Source\PSoC4/CapSense_Structure.c **** 
 416:Generated_Source\PSoC4/CapSense_Structure.c **** /*******************************************************************************
 417:Generated_Source\PSoC4/CapSense_Structure.c **** * Function Name: CapSense_DsInitialize
 418:Generated_Source\PSoC4/CapSense_Structure.c **** ****************************************************************************//**
 419:Generated_Source\PSoC4/CapSense_Structure.c **** *
 420:Generated_Source\PSoC4/CapSense_Structure.c **** * \brief
 421:Generated_Source\PSoC4/CapSense_Structure.c **** *   This function initializes the Data Structure storage.
 422:Generated_Source\PSoC4/CapSense_Structure.c **** *
 423:Generated_Source\PSoC4/CapSense_Structure.c **** * \details
 424:Generated_Source\PSoC4/CapSense_Structure.c **** *   This function copies the default widget configuration parameters
 425:Generated_Source\PSoC4/CapSense_Structure.c **** *   from the Flash storage into the RAM Data Structure.
 426:Generated_Source\PSoC4/CapSense_Structure.c **** *
 427:Generated_Source\PSoC4/CapSense_Structure.c **** *******************************************************************************/
 428:Generated_Source\PSoC4/CapSense_Structure.c **** void CapSense_DsInitialize(void)
 429:Generated_Source\PSoC4/CapSense_Structure.c **** {
 430:Generated_Source\PSoC4/CapSense_Structure.c ****     #if ((CapSense_ENABLE == CapSense_CSX_EN) || \
ARM GAS  C:\Users\zack.li\AppData\Local\Temp\ccYoE7wd.s 			page 9


 431:Generated_Source\PSoC4/CapSense_Structure.c ****          (CapSense_ENABLE == CapSense_CSD_IDAC_COMP_EN) || \
 432:Generated_Source\PSoC4/CapSense_Structure.c ****         ((CapSense_ENABLE == CapSense_CSX_EN) && \
 433:Generated_Source\PSoC4/CapSense_Structure.c ****          (CapSense_ENABLE == CapSense_CSX_SKIP_OVSMPL_SPECIFIC_NODES)))
 434:Generated_Source\PSoC4/CapSense_Structure.c ****         uint32 snsId;
 435:Generated_Source\PSoC4/CapSense_Structure.c ****         uint32 wdgtId;
 436:Generated_Source\PSoC4/CapSense_Structure.c ****         CapSense_RAM_SNS_STRUCT * ptrSnsTmp;
 437:Generated_Source\PSoC4/CapSense_Structure.c ****         CapSense_FLASH_WD_STRUCT const * ptrFlashWdgt;
 438:Generated_Source\PSoC4/CapSense_Structure.c ****     #endif
 439:Generated_Source\PSoC4/CapSense_Structure.c **** 
 440:Generated_Source\PSoC4/CapSense_Structure.c ****     #if ((CapSense_ENABLE == CapSense_CSX_EN) && \
 441:Generated_Source\PSoC4/CapSense_Structure.c ****          (CapSense_ENABLE == CapSense_CSX_SKIP_OVSMPL_SPECIFIC_NODES))
 442:Generated_Source\PSoC4/CapSense_Structure.c ****         uint16 subConvNumber;
 443:Generated_Source\PSoC4/CapSense_Structure.c ****     #endif
 444:Generated_Source\PSoC4/CapSense_Structure.c **** 
 445:Generated_Source\PSoC4/CapSense_Structure.c ****     #if ((0u != CapSense_CSX_EN) || (0 != CapSense_CSD_IDAC_COMP_EN))
 446:Generated_Source\PSoC4/CapSense_Structure.c ****         uint8 const * ptrIdacInit = CapSense_ramIdacInit;
 447:Generated_Source\PSoC4/CapSense_Structure.c ****     #endif
 448:Generated_Source\PSoC4/CapSense_Structure.c **** 
 449:Generated_Source\PSoC4/CapSense_Structure.c ****     /* Reset RAM data structure content */
 450:Generated_Source\PSoC4/CapSense_Structure.c ****     (void)memset(&CapSense_dsRam, 0, sizeof(CapSense_dsRam));
 451:Generated_Source\PSoC4/CapSense_Structure.c **** 
 452:Generated_Source\PSoC4/CapSense_Structure.c ****     /* Initialize configId, deviceId and hwClock registers */
 453:Generated_Source\PSoC4/CapSense_Structure.c ****     CapSense_dsRam.configId = CapSense_CONFIG_ID;
 454:Generated_Source\PSoC4/CapSense_Structure.c ****     CapSense_dsRam.deviceId = CapSense_DEVICE_ID;
 455:Generated_Source\PSoC4/CapSense_Structure.c ****     CapSense_dsRam.hwClock = CapSense_HW_CLOCK;
 456:Generated_Source\PSoC4/CapSense_Structure.c **** 
 457:Generated_Source\PSoC4/CapSense_Structure.c ****     /* Initialize global RAM data */
 458:Generated_Source\PSoC4/CapSense_Structure.c ****     CapSense_dsRam.csd0Config = CapSense_CSD0_CONFIG;
 459:Generated_Source\PSoC4/CapSense_Structure.c **** 
 460:Generated_Source\PSoC4/CapSense_Structure.c ****     CapSense_dsRam.scanCurrentISC = CapSense_SNS_CONNECTION_UNDEFINED;
 461:Generated_Source\PSoC4/CapSense_Structure.c ****     #if (0u != CapSense_TOTAL_CSD_WIDGETS)
 462:Generated_Source\PSoC4/CapSense_Structure.c ****         CapSense_dsRam.modCsdClk = CapSense_CSD_SCANSPEED_DIVIDER;
 463:Generated_Source\PSoC4/CapSense_Structure.c ****         CapSense_dsRam.scanCsdISC = CapSense_CSD_INACTIVE_SNS_CONNECTION;
 464:Generated_Source\PSoC4/CapSense_Structure.c **** 
 465:Generated_Source\PSoC4/CapSense_Structure.c ****         #if (0u != CapSense_CSD_COMMON_SNS_CLK_EN)
 466:Generated_Source\PSoC4/CapSense_Structure.c ****             CapSense_dsRam.snsCsdClk = CapSense_CSD_SNS_CLK_DIVIDER;
 467:Generated_Source\PSoC4/CapSense_Structure.c ****         #endif /* #if (0u != CapSense_CSD_COMMON_SNS_CLK_EN) */
 468:Generated_Source\PSoC4/CapSense_Structure.c ****     #endif /* #if (0u != CapSense_TOTAL_CSD_WIDGETS) */
 469:Generated_Source\PSoC4/CapSense_Structure.c **** 
 470:Generated_Source\PSoC4/CapSense_Structure.c ****     #if (CapSense_ENABLE == CapSense_CSX_EN)
 471:Generated_Source\PSoC4/CapSense_Structure.c ****         CapSense_dsRam.modCsxClk = CapSense_CSX_SCANSPEED_DIVIDER;
 472:Generated_Source\PSoC4/CapSense_Structure.c ****         CapSense_dsRam.scanCsxISC = CapSense_CSX_INACTIVE_SNS_CONNECTION;
 473:Generated_Source\PSoC4/CapSense_Structure.c **** 
 474:Generated_Source\PSoC4/CapSense_Structure.c ****         #if (0u != CapSense_CSX_COMMON_TX_CLK_EN)
 475:Generated_Source\PSoC4/CapSense_Structure.c ****             CapSense_dsRam.snsCsxClk = CapSense_CSX_TX_CLK_DIVIDER;
 476:Generated_Source\PSoC4/CapSense_Structure.c ****         #endif /* #if (0u != CapSense_CSX_COMMON_TX_CLK_EN) */
 477:Generated_Source\PSoC4/CapSense_Structure.c ****     #endif /* #if (CapSense_ENABLE == CapSense_CSX_EN) */
 478:Generated_Source\PSoC4/CapSense_Structure.c **** 
 479:Generated_Source\PSoC4/CapSense_Structure.c ****     #if (CapSense_ENABLE == CapSense_ISX_EN)
 480:Generated_Source\PSoC4/CapSense_Structure.c ****         CapSense_dsRam.modIsxClk = CapSense_ISX_SCANSPEED_DIVIDER;
 481:Generated_Source\PSoC4/CapSense_Structure.c ****     #endif /* #if (0u != CapSense_ISX_EN) */
 482:Generated_Source\PSoC4/CapSense_Structure.c **** 
 483:Generated_Source\PSoC4/CapSense_Structure.c ****     #if (0u != CapSense_SELF_TEST_EN)
 484:Generated_Source\PSoC4/CapSense_Structure.c **** 
 485:Generated_Source\PSoC4/CapSense_Structure.c ****         CapSense_dsRam.glbCrc = CapSense_GLB_CRC;
 486:Generated_Source\PSoC4/CapSense_Structure.c ****         CapSense_dsRam.selfTestConfig.fineInitTime = (uint8)CapSense_TST_FINE_INIT_TIME;
 487:Generated_Source\PSoC4/CapSense_Structure.c ****         CapSense_dsRam.selfTestConfig.startupDelay = CapSense_TST_ANALOG_STARTUP_DELAY_US;
ARM GAS  C:\Users\zack.li\AppData\Local\Temp\ccYoE7wd.s 			page 10


 488:Generated_Source\PSoC4/CapSense_Structure.c **** 
 489:Generated_Source\PSoC4/CapSense_Structure.c ****         #if (0u != CapSense_TST_SNS_SHORT_EN)
 490:Generated_Source\PSoC4/CapSense_Structure.c ****             CapSense_dsRam.selfTestConfig.snsShortTimeUs = CapSense_TST_SNS_SHORT_TIME;
 491:Generated_Source\PSoC4/CapSense_Structure.c ****         #endif
 492:Generated_Source\PSoC4/CapSense_Structure.c **** 
 493:Generated_Source\PSoC4/CapSense_Structure.c ****         #if ((0u != CapSense_TST_SNS_CAP_EN) ||\
 494:Generated_Source\PSoC4/CapSense_Structure.c ****              (0u != CapSense_TST_SH_CAP_EN))
 495:Generated_Source\PSoC4/CapSense_Structure.c ****             CapSense_dsRam.selfTestConfig.snsCapSnsClkDivider = CapSense_TST_SNS_CAP_SNS_CLK_DIVIDE
 496:Generated_Source\PSoC4/CapSense_Structure.c ****             CapSense_dsRam.selfTestConfig.snsCapSnsClkHz = CapSense_TST_SNS_CAP_SNS_CLK_HZ;
 497:Generated_Source\PSoC4/CapSense_Structure.c ****             CapSense_dsRam.selfTestConfig.snsCapResolution = CapSense_TST_SNS_CAP_RESOLUTION;
 498:Generated_Source\PSoC4/CapSense_Structure.c ****             CapSense_dsRam.selfTestConfig.snsCapVrefGain = CapSense_TST_SNS_CAP_VREF_GAIN ;
 499:Generated_Source\PSoC4/CapSense_Structure.c ****             CapSense_dsRam.selfTestConfig.snsCapVrefVoltage = CapSense_TST_SNS_CAP_VREF_MV;
 500:Generated_Source\PSoC4/CapSense_Structure.c ****             CapSense_dsRam.selfTestConfig.snsCapModClkDivider = CapSense_TST_MOD_CLK_DIVIDER ;
 501:Generated_Source\PSoC4/CapSense_Structure.c ****             CapSense_dsRam.selfTestConfig.snsCapModClkKHz = CapSense_TST_MOD_CLK_KHZ ;
 502:Generated_Source\PSoC4/CapSense_Structure.c ****         #endif /* ((0u != CapSense_TST_SNS_CAP_EN) ||
 503:Generated_Source\PSoC4/CapSense_Structure.c ****                    (0u != CapSense_TST_SH_CAP_EN)) */
 504:Generated_Source\PSoC4/CapSense_Structure.c **** 
 505:Generated_Source\PSoC4/CapSense_Structure.c ****         #if (0u != CapSense_TST_SNS_CAP_EN)
 506:Generated_Source\PSoC4/CapSense_Structure.c ****             #if (0u != CapSense_CSD_EN)
 507:Generated_Source\PSoC4/CapSense_Structure.c ****                 CapSense_dsRam.selfTestConfig.bistCsdSnsCapISC = CapSense_SNS_CAP_CSD_INACTIVE_CONN
 508:Generated_Source\PSoC4/CapSense_Structure.c ****             #endif /* (0u != CapSense_CSD_EN) */
 509:Generated_Source\PSoC4/CapSense_Structure.c ****             #if (0u != CapSense_CSX_EN)
 510:Generated_Source\PSoC4/CapSense_Structure.c ****                 CapSense_dsRam.selfTestConfig.bistCsxSnsCapISC = CapSense_SNS_CAP_CSX_INACTIVE_CONN
 511:Generated_Source\PSoC4/CapSense_Structure.c ****             #endif /* (0u != CapSense_CSX_EN) */
 512:Generated_Source\PSoC4/CapSense_Structure.c ****         #endif /* (0u != CapSense_TST_SNS_CAP_EN) */
 513:Generated_Source\PSoC4/CapSense_Structure.c **** 
 514:Generated_Source\PSoC4/CapSense_Structure.c ****         #if (0u != CapSense_TST_SH_CAP_EN)
 515:Generated_Source\PSoC4/CapSense_Structure.c ****             #if ((0u != CapSense_CSD_EN) && (0u != CapSense_CSD_SHIELD_EN))
 516:Generated_Source\PSoC4/CapSense_Structure.c ****                 CapSense_dsRam.selfTestConfig.bistCsdShCapISC = CapSense_SHIELD_CAP_INACTIVE_CONNEC
 517:Generated_Source\PSoC4/CapSense_Structure.c ****             #endif /* ((0u != CapSense_CSD_EN) && (0u != CapSense_CSD_SHIELD_EN)) */
 518:Generated_Source\PSoC4/CapSense_Structure.c ****         #endif /* (0u != CapSense_TST_SH_CAP_EN) */
 519:Generated_Source\PSoC4/CapSense_Structure.c **** 
 520:Generated_Source\PSoC4/CapSense_Structure.c ****         #if (0u != CapSense_TST_EXTERNAL_CAP_EN)
 521:Generated_Source\PSoC4/CapSense_Structure.c ****             CapSense_dsRam.selfTestConfig.extCapVrefGain = CapSense_TST_EXT_CAP_VREF_GAIN;
 522:Generated_Source\PSoC4/CapSense_Structure.c ****             CapSense_dsRam.selfTestConfig.extCapVrefVoltage = CapSense_TST_EXT_CAP_VREF_MV;
 523:Generated_Source\PSoC4/CapSense_Structure.c ****         #endif /* #if (0u != CapSense_TST_EXTERNAL_CAP_EN) */
 524:Generated_Source\PSoC4/CapSense_Structure.c **** 
 525:Generated_Source\PSoC4/CapSense_Structure.c ****         #if (0u != CapSense_TST_VDDA_EN)
 526:Generated_Source\PSoC4/CapSense_Structure.c ****             CapSense_dsRam.selfTestConfig.vddaResolution = CapSense_TST_VDDA_RESOLUTION;
 527:Generated_Source\PSoC4/CapSense_Structure.c ****             CapSense_dsRam.selfTestConfig.vddaModClkDivider = CapSense_TST_VDDA_MOD_CLK_DIVIDER;
 528:Generated_Source\PSoC4/CapSense_Structure.c **** 
 529:Generated_Source\PSoC4/CapSense_Structure.c ****             CapSense_dsRam.selfTestConfig.vddaVrefGain = CapSense_TST_VDDA_VREF_GAIN;
 530:Generated_Source\PSoC4/CapSense_Structure.c ****             CapSense_dsRam.selfTestConfig.vddaVrefVoltage = CapSense_TST_VDDA_VREF_MV;
 531:Generated_Source\PSoC4/CapSense_Structure.c ****         #endif /* #if (0u != CapSense_TST_VDDA_EN) */
 532:Generated_Source\PSoC4/CapSense_Structure.c **** 
 533:Generated_Source\PSoC4/CapSense_Structure.c ****     #endif /* #if (0u != CapSense_SELF_TEST_EN) */
 534:Generated_Source\PSoC4/CapSense_Structure.c **** 
 535:Generated_Source\PSoC4/CapSense_Structure.c ****     /* Initialize RAM widget data */
 536:Generated_Source\PSoC4/CapSense_Structure.c ****     CapSense_dsRam.wdgtList = CapSense_ramWidgetInit;
 537:Generated_Source\PSoC4/CapSense_Structure.c **** 
 538:Generated_Source\PSoC4/CapSense_Structure.c ****     /* Initialize Gesture configuration structure */
 539:Generated_Source\PSoC4/CapSense_Structure.c ****     #if ((0u != CapSense_GES_GLOBAL_EN) || (0u != CapSense_BALLISTIC_MULTIPLIER_EN))
 540:Generated_Source\PSoC4/CapSense_Structure.c ****         CapSense_dsRam.timestampInterval = CapSense_TIMESTAMP_INTERVAL;
 541:Generated_Source\PSoC4/CapSense_Structure.c ****     #endif /* ((0u != CapSense_GES_GLOBAL_EN) || (0u != CapSense_BALLISTIC_MULTIPLIER_EN)) */
 542:Generated_Source\PSoC4/CapSense_Structure.c **** 
 543:Generated_Source\PSoC4/CapSense_Structure.c ****     #if (0u != CapSense_GES_GLOBAL_EN)
 544:Generated_Source\PSoC4/CapSense_Structure.c ****         CapSense_dsRam.gestures = CapSense_ramGesturesInit;
ARM GAS  C:\Users\zack.li\AppData\Local\Temp\ccYoE7wd.s 			page 11


 545:Generated_Source\PSoC4/CapSense_Structure.c ****     #endif /* (0u != CapSense_GES_GLOBAL_EN) */
 546:Generated_Source\PSoC4/CapSense_Structure.c **** 
 547:Generated_Source\PSoC4/CapSense_Structure.c ****     #if (0u != CapSense_BALLISTIC_MULTIPLIER_EN)
 548:Generated_Source\PSoC4/CapSense_Structure.c ****         CapSense_dsRam.ballisticConfig = CapSense_ramBallisticInit;
 549:Generated_Source\PSoC4/CapSense_Structure.c ****     #endif /* (0u != CapSense_BALLISTIC_MULTIPLIER_EN) */
 550:Generated_Source\PSoC4/CapSense_Structure.c **** 
 551:Generated_Source\PSoC4/CapSense_Structure.c ****     #if (0u != CapSense_CSX_EN) || (0 != CapSense_CSD_IDAC_COMP_EN)
 552:Generated_Source\PSoC4/CapSense_Structure.c ****         /* Initialize IDAC data */
 553:Generated_Source\PSoC4/CapSense_Structure.c ****         ptrFlashWdgt = CapSense_dsFlash.wdgtArray;
 554:Generated_Source\PSoC4/CapSense_Structure.c **** 
 555:Generated_Source\PSoC4/CapSense_Structure.c ****         for (wdgtId = CapSense_TOTAL_WIDGETS; wdgtId-- > 0u; )
 556:Generated_Source\PSoC4/CapSense_Structure.c ****         {
 557:Generated_Source\PSoC4/CapSense_Structure.c ****             ptrSnsTmp = ptrFlashWdgt->ptr2SnsRam;
 558:Generated_Source\PSoC4/CapSense_Structure.c **** 
 559:Generated_Source\PSoC4/CapSense_Structure.c ****             for (snsId = CapSense_GET_SNS_CNT_BY_PTR(ptrFlashWdgt); snsId-- > 0u;)
 560:Generated_Source\PSoC4/CapSense_Structure.c ****             {
 561:Generated_Source\PSoC4/CapSense_Structure.c ****                 ptrSnsTmp->idacComp[0u] = *ptrIdacInit;
 562:Generated_Source\PSoC4/CapSense_Structure.c ****                 ptrIdacInit++;
 563:Generated_Source\PSoC4/CapSense_Structure.c **** 
 564:Generated_Source\PSoC4/CapSense_Structure.c ****                 #if (0u != CapSense_MULTI_FREQ_SCAN_EN)
 565:Generated_Source\PSoC4/CapSense_Structure.c ****                     ptrSnsTmp->idacComp[1u] = *ptrIdacInit;
 566:Generated_Source\PSoC4/CapSense_Structure.c ****                     ptrIdacInit++;
 567:Generated_Source\PSoC4/CapSense_Structure.c **** 
 568:Generated_Source\PSoC4/CapSense_Structure.c ****                     ptrSnsTmp->idacComp[2u] = *ptrIdacInit;
 569:Generated_Source\PSoC4/CapSense_Structure.c ****                     ptrIdacInit++;
 570:Generated_Source\PSoC4/CapSense_Structure.c ****                 #endif /* #if (0u != CapSense_MULTI_FREQ_SCAN_EN) */
 571:Generated_Source\PSoC4/CapSense_Structure.c **** 
 572:Generated_Source\PSoC4/CapSense_Structure.c ****                 ptrSnsTmp++;
 573:Generated_Source\PSoC4/CapSense_Structure.c ****             }
 574:Generated_Source\PSoC4/CapSense_Structure.c **** 
 575:Generated_Source\PSoC4/CapSense_Structure.c ****             ptrFlashWdgt++; /* Move to next widget */
 576:Generated_Source\PSoC4/CapSense_Structure.c ****         }
 577:Generated_Source\PSoC4/CapSense_Structure.c ****     #endif /*(0u != CapSense_CSX_EN) || (0 != CapSense_CSD_IDAC_COMP_EN)*/
 578:Generated_Source\PSoC4/CapSense_Structure.c **** 
 579:Generated_Source\PSoC4/CapSense_Structure.c ****     #if ((CapSense_ENABLE == CapSense_CSX_EN) && \
 580:Generated_Source\PSoC4/CapSense_Structure.c ****          (CapSense_ENABLE == CapSense_CSX_SKIP_OVSMPL_SPECIFIC_NODES))
 581:Generated_Source\PSoC4/CapSense_Structure.c ****         /* Initialize Sub-Conversion Number for each node of each CSX widget */
 582:Generated_Source\PSoC4/CapSense_Structure.c ****         ptrFlashWdgt = CapSense_dsFlash.wdgtArray;
 583:Generated_Source\PSoC4/CapSense_Structure.c ****         for (wdgtId = CapSense_TOTAL_WIDGETS; wdgtId-- > 0u;)
 584:Generated_Source\PSoC4/CapSense_Structure.c ****         {
 585:Generated_Source\PSoC4/CapSense_Structure.c ****             /* Check for widget sense method */
 586:Generated_Source\PSoC4/CapSense_Structure.c ****             if (CapSense_SENSE_METHOD_CSX_E == CapSense_GET_SENSE_METHOD(ptrFlashWdgt))
 587:Generated_Source\PSoC4/CapSense_Structure.c ****             {
 588:Generated_Source\PSoC4/CapSense_Structure.c ****                 /* Take the sub-convesion number of a CSX widget and initialize each node of this w
 589:Generated_Source\PSoC4/CapSense_Structure.c ****                 subConvNumber = ((CapSense_RAM_WD_BASE_STRUCT *)(ptrFlashWdgt->ptr2WdgtRam))->resol
 590:Generated_Source\PSoC4/CapSense_Structure.c ****                 ptrSnsTmp = ptrFlashWdgt->ptr2SnsRam;
 591:Generated_Source\PSoC4/CapSense_Structure.c ****                 for (snsId = CapSense_GET_SNS_CNT_BY_PTR(ptrFlashWdgt); snsId-- > 0u;)
 592:Generated_Source\PSoC4/CapSense_Structure.c ****                 {
 593:Generated_Source\PSoC4/CapSense_Structure.c ****                     ptrSnsTmp->subConvNum = subConvNumber;
 594:Generated_Source\PSoC4/CapSense_Structure.c ****                     ptrSnsTmp++;
 595:Generated_Source\PSoC4/CapSense_Structure.c ****                 }
 596:Generated_Source\PSoC4/CapSense_Structure.c ****             }
 597:Generated_Source\PSoC4/CapSense_Structure.c ****             /* Move to the next widget */
 598:Generated_Source\PSoC4/CapSense_Structure.c ****             ptrFlashWdgt++;
 599:Generated_Source\PSoC4/CapSense_Structure.c ****         }
 600:Generated_Source\PSoC4/CapSense_Structure.c ****     #endif /* ((CapSense_ENABLE == CapSense_CSX_EN) && \
 601:Generated_Source\PSoC4/CapSense_Structure.c ****                (CapSense_ENABLE == CapSense_CSX_SKIP_OVSMPL_SPECIFIC_NODES)) */
ARM GAS  C:\Users\zack.li\AppData\Local\Temp\ccYoE7wd.s 			page 12


 602:Generated_Source\PSoC4/CapSense_Structure.c **** 
 603:Generated_Source\PSoC4/CapSense_Structure.c ****     #if (0u != CapSense_ADC_EN)
 604:Generated_Source\PSoC4/CapSense_Structure.c ****         CapSense_AdcDsInitialize();
 605:Generated_Source\PSoC4/CapSense_Structure.c ****     #endif /* (0u != CapSense_ADC_EN) */
 606:Generated_Source\PSoC4/CapSense_Structure.c **** }
 607:Generated_Source\PSoC4/CapSense_Structure.c **** 
 608:Generated_Source\PSoC4/CapSense_Structure.c **** 
 609:Generated_Source\PSoC4/CapSense_Structure.c **** #if (0u != CapSense_ADC_EN)
 610:Generated_Source\PSoC4/CapSense_Structure.c ****     /*******************************************************************************
 611:Generated_Source\PSoC4/CapSense_Structure.c ****     * Function Name: CapSense_AdcDsInitialize
 612:Generated_Source\PSoC4/CapSense_Structure.c ****     ****************************************************************************//**
 613:Generated_Source\PSoC4/CapSense_Structure.c ****     *
 614:Generated_Source\PSoC4/CapSense_Structure.c ****     * \brief
 615:Generated_Source\PSoC4/CapSense_Structure.c ****     *   Configures the initial Adc datastructure members.
 616:Generated_Source\PSoC4/CapSense_Structure.c ****     *
 617:Generated_Source\PSoC4/CapSense_Structure.c ****     *******************************************************************************/
 618:Generated_Source\PSoC4/CapSense_Structure.c ****     void CapSense_AdcDsInitialize(void)
 619:Generated_Source\PSoC4/CapSense_Structure.c ****     {
 620:Generated_Source\PSoC4/CapSense_Structure.c ****         CapSense_dsRam.adcResolution = CapSense_ADC_RESOLUTION;
 621:Generated_Source\PSoC4/CapSense_Structure.c ****         CapSense_dsRam.adcIdac = (uint8)(CapSense_ADC_IDAC_DEFAULT);
 622:Generated_Source\PSoC4/CapSense_Structure.c ****         CapSense_dsRam.adcActiveCh = CapSense_AdcNO_CHANNEL;
 623:Generated_Source\PSoC4/CapSense_Structure.c ****     }
 624:Generated_Source\PSoC4/CapSense_Structure.c **** #endif /* (0u != CapSense_ADC_EN) */
 625:Generated_Source\PSoC4/CapSense_Structure.c **** 
 626:Generated_Source\PSoC4/CapSense_Structure.c **** 
 627:Generated_Source\PSoC4/CapSense_Structure.c **** /*******************************************************************************
 628:Generated_Source\PSoC4/CapSense_Structure.c **** * Function Name: DsParseParamId
 629:Generated_Source\PSoC4/CapSense_Structure.c **** ****************************************************************************//**
 630:Generated_Source\PSoC4/CapSense_Structure.c **** *
 631:Generated_Source\PSoC4/CapSense_Structure.c **** * \brief
 632:Generated_Source\PSoC4/CapSense_Structure.c **** *   This function parses the parameter ID and checks its correctness.
 633:Generated_Source\PSoC4/CapSense_Structure.c **** *
 634:Generated_Source\PSoC4/CapSense_Structure.c **** * \details
 635:Generated_Source\PSoC4/CapSense_Structure.c **** *   This function checks the parameter CRC if the self-test is enabled,
 636:Generated_Source\PSoC4/CapSense_Structure.c **** *   validates the offset value and parameter type.
 637:Generated_Source\PSoC4/CapSense_Structure.c **** *
 638:Generated_Source\PSoC4/CapSense_Structure.c **** * \param paramId The parameter to parse.
 639:Generated_Source\PSoC4/CapSense_Structure.c **** * \param pData   The pointer to the structure that will hold parsed data.
 640:Generated_Source\PSoC4/CapSense_Structure.c **** *
 641:Generated_Source\PSoC4/CapSense_Structure.c **** * \return CYRET_SUCCESS     If the parameter is valid
 642:Generated_Source\PSoC4/CapSense_Structure.c **** *         CYRET_BAD_PARAM   If the parameter is invalid
 643:Generated_Source\PSoC4/CapSense_Structure.c **** *
 644:Generated_Source\PSoC4/CapSense_Structure.c **** *******************************************************************************/
 645:Generated_Source\PSoC4/CapSense_Structure.c **** static cystatus DsParseParamId(uint32 paramId, PARAM_ID_STRUCT *pData)
 646:Generated_Source\PSoC4/CapSense_Structure.c **** {
  27              		.loc 1 646 0
  28              		.cfi_startproc
  29              		@ args = 0, pretend = 0, frame = 0
  30              		@ frame_needed = 0, uses_anonymous_args = 0
  31              	.LVL0:
 647:Generated_Source\PSoC4/CapSense_Structure.c ****     cystatus result = CYRET_SUCCESS;
 648:Generated_Source\PSoC4/CapSense_Structure.c **** 
 649:Generated_Source\PSoC4/CapSense_Structure.c ****     #if (0u != CapSense_SELF_TEST_EN)
 650:Generated_Source\PSoC4/CapSense_Structure.c ****         const uint8 crcTable[] =
 651:Generated_Source\PSoC4/CapSense_Structure.c ****         {
 652:Generated_Source\PSoC4/CapSense_Structure.c ****             0x00u, 0x09u, 0x0Bu, 0x02u, 0x0Fu, 0x06u, 0x04u, 0x0Du,
 653:Generated_Source\PSoC4/CapSense_Structure.c ****             0x07u, 0x0Eu, 0x0Cu, 0x05u, 0x08u, 0x01u, 0x03u, 0x0Au
ARM GAS  C:\Users\zack.li\AppData\Local\Temp\ccYoE7wd.s 			page 13


 654:Generated_Source\PSoC4/CapSense_Structure.c ****         };
 655:Generated_Source\PSoC4/CapSense_Structure.c **** 
 656:Generated_Source\PSoC4/CapSense_Structure.c ****         uint32 i;
 657:Generated_Source\PSoC4/CapSense_Structure.c ****         uint32 actualCrc = 0u;
 658:Generated_Source\PSoC4/CapSense_Structure.c ****         uint32 crcIndex;
 659:Generated_Source\PSoC4/CapSense_Structure.c ****     #endif /* #if (0u != CapSense_SELF_TEST_EN) */
 660:Generated_Source\PSoC4/CapSense_Structure.c **** 
 661:Generated_Source\PSoC4/CapSense_Structure.c ****     /* Extract parameter data */
 662:Generated_Source\PSoC4/CapSense_Structure.c ****     pData->offset     = LO16(paramId);
 663:Generated_Source\PSoC4/CapSense_Structure.c ****     pData->affectsCrc = LO8((paramId & PARAM_UBIT_MASK)  >> PARAM_UBIT_OFFSET);
  32              		.loc 1 663 0
  33 0000 0123     		movs	r3, #1
  34 0002 C20D     		lsrs	r2, r0, #23
  35 0004 1A40     		ands	r2, r3
  36 0006 CA70     		strb	r2, [r1, #3]
 664:Generated_Source\PSoC4/CapSense_Structure.c ****     pData->widgetId   = LO8((paramId & PARAM_WDID_MASK)  >> PARAM_WDID_OFFSET);
  37              		.loc 1 664 0
  38 0008 4202     		lsls	r2, r0, #9
  39 000a 520E     		lsrs	r2, r2, #25
 646:Generated_Source\PSoC4/CapSense_Structure.c ****     cystatus result = CYRET_SUCCESS;
  40              		.loc 1 646 0
  41 000c 70B5     		push	{r4, r5, r6, lr}
  42              		.cfi_def_cfa_offset 16
  43              		.cfi_offset 4, -16
  44              		.cfi_offset 5, -12
  45              		.cfi_offset 6, -8
  46              		.cfi_offset 14, -4
  47              		.loc 1 664 0
  48 000e 8A70     		strb	r2, [r1, #2]
 662:Generated_Source\PSoC4/CapSense_Structure.c ****     pData->affectsCrc = LO8((paramId & PARAM_UBIT_MASK)  >> PARAM_UBIT_OFFSET);
  49              		.loc 1 662 0
  50 0010 84B2     		uxth	r4, r0
 665:Generated_Source\PSoC4/CapSense_Structure.c ****     pData->type       = LO8((paramId & PARAM_TYPE_MASK)  >> PARAM_TYPE_OFFSET);
  51              		.loc 1 665 0
  52 0012 820F     		lsrs	r2, r0, #30
 666:Generated_Source\PSoC4/CapSense_Structure.c ****     pData->flash      = LO8((paramId & PARAM_FBIT_MASK)  >> PARAM_FBIT_OFFSET);
  53              		.loc 1 666 0
  54 0014 060F     		lsrs	r6, r0, #28
 667:Generated_Source\PSoC4/CapSense_Structure.c ****     pData->rw         = LO8((paramId & PARAM_RWBIT_MASK) >> PARAM_RWBIT_OFFSET);
  55              		.loc 1 667 0
  56 0016 450F     		lsrs	r5, r0, #29
 668:Generated_Source\PSoC4/CapSense_Structure.c ****     pData->crc        = LO8((paramId & PARAM_CRC_MASK)   >> PARAM_CRC_OFFSET);
  57              		.loc 1 668 0
  58 0018 0001     		lsls	r0, r0, #4
  59              	.LVL1:
  60 001a 000F     		lsrs	r0, r0, #28
 666:Generated_Source\PSoC4/CapSense_Structure.c ****     pData->flash      = LO8((paramId & PARAM_FBIT_MASK)  >> PARAM_FBIT_OFFSET);
  61              		.loc 1 666 0
  62 001c 1E40     		ands	r6, r3
 667:Generated_Source\PSoC4/CapSense_Structure.c ****     pData->rw         = LO8((paramId & PARAM_RWBIT_MASK) >> PARAM_RWBIT_OFFSET);
  63              		.loc 1 667 0
  64 001e 1D40     		ands	r5, r3
  65              		.loc 1 668 0
  66 0020 0871     		strb	r0, [r1, #4]
 662:Generated_Source\PSoC4/CapSense_Structure.c ****     pData->affectsCrc = LO8((paramId & PARAM_UBIT_MASK)  >> PARAM_UBIT_OFFSET);
  67              		.loc 1 662 0
  68 0022 0C80     		strh	r4, [r1]
ARM GAS  C:\Users\zack.li\AppData\Local\Temp\ccYoE7wd.s 			page 14


 665:Generated_Source\PSoC4/CapSense_Structure.c ****     pData->flash      = LO8((paramId & PARAM_FBIT_MASK)  >> PARAM_FBIT_OFFSET);
  69              		.loc 1 665 0
  70 0024 CA71     		strb	r2, [r1, #7]
 666:Generated_Source\PSoC4/CapSense_Structure.c ****     pData->rw         = LO8((paramId & PARAM_RWBIT_MASK) >> PARAM_RWBIT_OFFSET);
  71              		.loc 1 666 0
  72 0026 4E71     		strb	r6, [r1, #5]
 667:Generated_Source\PSoC4/CapSense_Structure.c ****     pData->crc        = LO8((paramId & PARAM_CRC_MASK)   >> PARAM_CRC_OFFSET);
  73              		.loc 1 667 0
  74 0028 8D71     		strb	r5, [r1, #6]
  75 002a 1800     		movs	r0, r3
 669:Generated_Source\PSoC4/CapSense_Structure.c **** 
 670:Generated_Source\PSoC4/CapSense_Structure.c ****     /* Check parameter CRC if self-test is enabled */
 671:Generated_Source\PSoC4/CapSense_Structure.c ****     #if (0u != CapSense_SELF_TEST_EN)
 672:Generated_Source\PSoC4/CapSense_Structure.c **** 
 673:Generated_Source\PSoC4/CapSense_Structure.c ****         /* Calculate CRC for bits 0..24.
 674:Generated_Source\PSoC4/CapSense_Structure.c ****          * The CRC is calculated using nibbles (4-bits).
 675:Generated_Source\PSoC4/CapSense_Structure.c ****          * So for 0..24 bits there are in total 6 nibbles. */
 676:Generated_Source\PSoC4/CapSense_Structure.c ****         for (i = 6u; i > 0u; i--)
 677:Generated_Source\PSoC4/CapSense_Structure.c ****         {
 678:Generated_Source\PSoC4/CapSense_Structure.c ****             crcIndex = actualCrc ^ (paramId & 0x0Fu);
 679:Generated_Source\PSoC4/CapSense_Structure.c ****             actualCrc = crcTable[crcIndex];
 680:Generated_Source\PSoC4/CapSense_Structure.c ****             paramId >>= 4u;
 681:Generated_Source\PSoC4/CapSense_Structure.c ****         }
 682:Generated_Source\PSoC4/CapSense_Structure.c **** 
 683:Generated_Source\PSoC4/CapSense_Structure.c ****         /* Add bits 28..32 */
 684:Generated_Source\PSoC4/CapSense_Structure.c ****         crcIndex = actualCrc ^ ((paramId >> 4u) & 0x0Fu);
 685:Generated_Source\PSoC4/CapSense_Structure.c ****         actualCrc = crcTable[crcIndex];
 686:Generated_Source\PSoC4/CapSense_Structure.c **** 
 687:Generated_Source\PSoC4/CapSense_Structure.c ****         /* Add bits 24..28 (CRC) */
 688:Generated_Source\PSoC4/CapSense_Structure.c ****         crcIndex = actualCrc ^ (paramId & 0x0Fu);
 689:Generated_Source\PSoC4/CapSense_Structure.c ****         actualCrc = crcTable[crcIndex];
 690:Generated_Source\PSoC4/CapSense_Structure.c **** 
 691:Generated_Source\PSoC4/CapSense_Structure.c ****         if (0u != actualCrc)
 692:Generated_Source\PSoC4/CapSense_Structure.c ****         {
 693:Generated_Source\PSoC4/CapSense_Structure.c ****             /* CRC mismatch */
 694:Generated_Source\PSoC4/CapSense_Structure.c ****             result = CYRET_BAD_PARAM;
 695:Generated_Source\PSoC4/CapSense_Structure.c ****         }
 696:Generated_Source\PSoC4/CapSense_Structure.c **** 
 697:Generated_Source\PSoC4/CapSense_Structure.c ****         if ((CYRET_SUCCESS == result) &&
 698:Generated_Source\PSoC4/CapSense_Structure.c ****             (0u != pData->affectsCrc) && (pData->widgetId >= CapSense_TOTAL_WIDGETS ))
 699:Generated_Source\PSoC4/CapSense_Structure.c ****         {
 700:Generated_Source\PSoC4/CapSense_Structure.c ****             /* Wrong widgetId for protected parameter */
 701:Generated_Source\PSoC4/CapSense_Structure.c ****             result = CYRET_BAD_PARAM;
 702:Generated_Source\PSoC4/CapSense_Structure.c ****         }
 703:Generated_Source\PSoC4/CapSense_Structure.c **** 
 704:Generated_Source\PSoC4/CapSense_Structure.c ****         /* Check offset value range */
 705:Generated_Source\PSoC4/CapSense_Structure.c ****         if (CYRET_SUCCESS == result)
 706:Generated_Source\PSoC4/CapSense_Structure.c ****         {
 707:Generated_Source\PSoC4/CapSense_Structure.c ****             if (0u == pData->flash)
 708:Generated_Source\PSoC4/CapSense_Structure.c ****             {
 709:Generated_Source\PSoC4/CapSense_Structure.c ****                 /* Check offset for RAM Data Structure range */
 710:Generated_Source\PSoC4/CapSense_Structure.c ****                 if (pData->offset >= sizeof(CapSense_dsRam))
 711:Generated_Source\PSoC4/CapSense_Structure.c ****                 {
 712:Generated_Source\PSoC4/CapSense_Structure.c ****                     result = CYRET_BAD_PARAM;
 713:Generated_Source\PSoC4/CapSense_Structure.c ****                 }
 714:Generated_Source\PSoC4/CapSense_Structure.c ****             }
 715:Generated_Source\PSoC4/CapSense_Structure.c ****             else
ARM GAS  C:\Users\zack.li\AppData\Local\Temp\ccYoE7wd.s 			page 15


 716:Generated_Source\PSoC4/CapSense_Structure.c ****             {
 717:Generated_Source\PSoC4/CapSense_Structure.c ****                 /* Check offset for Flash Data Structure range */
 718:Generated_Source\PSoC4/CapSense_Structure.c ****                 if (pData->offset >= sizeof(CapSense_dsFlash))
 719:Generated_Source\PSoC4/CapSense_Structure.c ****                 {
 720:Generated_Source\PSoC4/CapSense_Structure.c ****                     result = CYRET_BAD_PARAM;
 721:Generated_Source\PSoC4/CapSense_Structure.c ****                 }
 722:Generated_Source\PSoC4/CapSense_Structure.c **** 
 723:Generated_Source\PSoC4/CapSense_Structure.c ****                 /* Check if it is marked as Read Only */
 724:Generated_Source\PSoC4/CapSense_Structure.c ****                 if (0u != pData->rw)
 725:Generated_Source\PSoC4/CapSense_Structure.c ****                 {
 726:Generated_Source\PSoC4/CapSense_Structure.c ****                     result = CYRET_BAD_PARAM;
 727:Generated_Source\PSoC4/CapSense_Structure.c ****                 }
 728:Generated_Source\PSoC4/CapSense_Structure.c ****             }
 729:Generated_Source\PSoC4/CapSense_Structure.c ****         }
 730:Generated_Source\PSoC4/CapSense_Structure.c ****     #else /* #if (0u != CapSense_SELF_TEST_EN) */
 731:Generated_Source\PSoC4/CapSense_Structure.c ****         /* Check offset value range */
 732:Generated_Source\PSoC4/CapSense_Structure.c ****         if (0u == pData->flash)
  76              		.loc 1 732 0
  77 002c 002E     		cmp	r6, #0
  78 002e 02D1     		bne	.L2
 733:Generated_Source\PSoC4/CapSense_Structure.c ****         {
 734:Generated_Source\PSoC4/CapSense_Structure.c ****             /* Check offset for RAM Data Structure range */
 735:Generated_Source\PSoC4/CapSense_Structure.c ****             if (pData->offset >= sizeof(CapSense_dsRam))
  79              		.loc 1 735 0
  80 0030 AF2C     		cmp	r4, #175
  81 0032 12D8     		bhi	.L3
  82 0034 03E0     		b	.L4
  83              	.L2:
  84              	.LVL2:
 736:Generated_Source\PSoC4/CapSense_Structure.c ****             {
 737:Generated_Source\PSoC4/CapSense_Structure.c ****                 result = CYRET_BAD_PARAM;
 738:Generated_Source\PSoC4/CapSense_Structure.c ****             }
 739:Generated_Source\PSoC4/CapSense_Structure.c ****         }
 740:Generated_Source\PSoC4/CapSense_Structure.c ****         else
 741:Generated_Source\PSoC4/CapSense_Structure.c ****         {
 742:Generated_Source\PSoC4/CapSense_Structure.c ****             /* Check offset for Flash Data Structure range */
 743:Generated_Source\PSoC4/CapSense_Structure.c ****             if (pData->offset >= sizeof(CapSense_dsFlash))
 744:Generated_Source\PSoC4/CapSense_Structure.c ****             {
 745:Generated_Source\PSoC4/CapSense_Structure.c ****                 result = CYRET_BAD_PARAM;
 746:Generated_Source\PSoC4/CapSense_Structure.c ****             }
 747:Generated_Source\PSoC4/CapSense_Structure.c **** 
 748:Generated_Source\PSoC4/CapSense_Structure.c ****             /* Check if it is marked as Read Only */
 749:Generated_Source\PSoC4/CapSense_Structure.c ****             if (0u != pData->rw)
  85              		.loc 1 749 0
  86 0036 002D     		cmp	r5, #0
  87 0038 0FD1     		bne	.L3
 750:Generated_Source\PSoC4/CapSense_Structure.c ****             {
 751:Generated_Source\PSoC4/CapSense_Structure.c ****                 result = CYRET_BAD_PARAM;
 752:Generated_Source\PSoC4/CapSense_Structure.c ****             }
 753:Generated_Source\PSoC4/CapSense_Structure.c ****         }
 754:Generated_Source\PSoC4/CapSense_Structure.c ****     #endif /* #if (0u != CapSense_SELF_TEST_EN) */
 755:Generated_Source\PSoC4/CapSense_Structure.c **** 
 756:Generated_Source\PSoC4/CapSense_Structure.c ****     if (CYRET_SUCCESS == result)
  88              		.loc 1 756 0
  89 003a 8B2C     		cmp	r4, #139
  90 003c 0DD8     		bhi	.L3
  91              	.LVL3:
ARM GAS  C:\Users\zack.li\AppData\Local\Temp\ccYoE7wd.s 			page 16


  92              	.L4:
 757:Generated_Source\PSoC4/CapSense_Structure.c ****     {
 758:Generated_Source\PSoC4/CapSense_Structure.c ****         /* Check parameter type, offset alignment */
 759:Generated_Source\PSoC4/CapSense_Structure.c ****         switch (pData->type)
 760:Generated_Source\PSoC4/CapSense_Structure.c ****         {
 761:Generated_Source\PSoC4/CapSense_Structure.c ****         case DS_PARAM_TYPE_UINT16:
 762:Generated_Source\PSoC4/CapSense_Structure.c ****             if (0u != (pData->offset & UINT16_ALIGN_MASK))
 763:Generated_Source\PSoC4/CapSense_Structure.c ****             {
 764:Generated_Source\PSoC4/CapSense_Structure.c ****                 result = CYRET_BAD_PARAM;
  93              		.loc 1 764 0
  94 003e 2340     		ands	r3, r4
  95 0040 1800     		movs	r0, r3
 759:Generated_Source\PSoC4/CapSense_Structure.c ****         {
  96              		.loc 1 759 0
  97 0042 022A     		cmp	r2, #2
  98 0044 09D0     		beq	.L3
  99 0046 032A     		cmp	r2, #3
 100 0048 03D0     		beq	.L7
 765:Generated_Source\PSoC4/CapSense_Structure.c ****             }
 766:Generated_Source\PSoC4/CapSense_Structure.c ****             break;
 767:Generated_Source\PSoC4/CapSense_Structure.c **** 
 768:Generated_Source\PSoC4/CapSense_Structure.c ****         case DS_PARAM_TYPE_UINT32:
 769:Generated_Source\PSoC4/CapSense_Structure.c ****             if (0u != (pData->offset & UINT32_ALIGN_MASK))
 770:Generated_Source\PSoC4/CapSense_Structure.c ****             {
 771:Generated_Source\PSoC4/CapSense_Structure.c ****                 result = CYRET_BAD_PARAM;
 772:Generated_Source\PSoC4/CapSense_Structure.c ****             }
 773:Generated_Source\PSoC4/CapSense_Structure.c ****             break;
 774:Generated_Source\PSoC4/CapSense_Structure.c **** 
 775:Generated_Source\PSoC4/CapSense_Structure.c ****         case DS_PARAM_TYPE_UINT8:
 776:Generated_Source\PSoC4/CapSense_Structure.c ****             break;
 777:Generated_Source\PSoC4/CapSense_Structure.c **** 
 778:Generated_Source\PSoC4/CapSense_Structure.c ****         default:
 779:Generated_Source\PSoC4/CapSense_Structure.c ****             result = CYRET_BAD_PARAM;
 101              		.loc 1 779 0
 102 004a 501E     		subs	r0, r2, #1
 103 004c 431E     		subs	r3, r0, #1
 104 004e 9841     		sbcs	r0, r0, r3
 105 0050 03E0     		b	.L3
 106              	.L7:
 764:Generated_Source\PSoC4/CapSense_Structure.c ****             }
 107              		.loc 1 764 0
 108 0052 2000     		movs	r0, r4
 109 0054 1040     		ands	r0, r2
 110 0056 421E     		subs	r2, r0, #1
 111 0058 9041     		sbcs	r0, r0, r2
 112              	.L3:
 113              	.LVL4:
 780:Generated_Source\PSoC4/CapSense_Structure.c ****             break;
 781:Generated_Source\PSoC4/CapSense_Structure.c ****         }
 782:Generated_Source\PSoC4/CapSense_Structure.c ****     }
 783:Generated_Source\PSoC4/CapSense_Structure.c **** 
 784:Generated_Source\PSoC4/CapSense_Structure.c ****     return result;
 785:Generated_Source\PSoC4/CapSense_Structure.c **** }
 114              		.loc 1 785 0
 115              		@ sp needed
 116 005a 70BD     		pop	{r4, r5, r6, pc}
 117              		.cfi_endproc
ARM GAS  C:\Users\zack.li\AppData\Local\Temp\ccYoE7wd.s 			page 17


 118              	.LFE2:
 119              		.size	DsParseParamId, .-DsParseParamId
 120              		.section	.text.CapSense_DsInitialize,"ax",%progbits
 121              		.align	1
 122              		.global	CapSense_DsInitialize
 123              		.code	16
 124              		.thumb_func
 125              		.type	CapSense_DsInitialize, %function
 126              	CapSense_DsInitialize:
 127              	.LFB1:
 429:Generated_Source\PSoC4/CapSense_Structure.c ****     #if ((CapSense_ENABLE == CapSense_CSX_EN) || \
 128              		.loc 1 429 0
 129              		.cfi_startproc
 130              		@ args = 0, pretend = 0, frame = 0
 131              		@ frame_needed = 0, uses_anonymous_args = 0
 132              	.LVL5:
 133 0000 F8B5     		push	{r3, r4, r5, r6, r7, lr}
 134              		.cfi_def_cfa_offset 24
 135              		.cfi_offset 3, -24
 136              		.cfi_offset 4, -20
 137              		.cfi_offset 5, -16
 138              		.cfi_offset 6, -12
 139              		.cfi_offset 7, -8
 140              		.cfi_offset 14, -4
 450:Generated_Source\PSoC4/CapSense_Structure.c **** 
 141              		.loc 1 450 0
 142 0002 194C     		ldr	r4, .L20
 143 0004 B022     		movs	r2, #176
 144 0006 0021     		movs	r1, #0
 145 0008 2000     		movs	r0, r4
 146 000a FFF7FEFF 		bl	memset
 147              	.LVL6:
 453:Generated_Source\PSoC4/CapSense_Structure.c ****     CapSense_dsRam.deviceId = CapSense_DEVICE_ID;
 148              		.loc 1 453 0
 149 000e 174B     		ldr	r3, .L20+4
 460:Generated_Source\PSoC4/CapSense_Structure.c ****     #if (0u != CapSense_TOTAL_CSD_WIDGETS)
 150              		.loc 1 460 0
 151 0010 0322     		movs	r2, #3
 453:Generated_Source\PSoC4/CapSense_Structure.c ****     CapSense_dsRam.deviceId = CapSense_DEVICE_ID;
 152              		.loc 1 453 0
 153 0012 2380     		strh	r3, [r4]
 454:Generated_Source\PSoC4/CapSense_Structure.c ****     CapSense_dsRam.hwClock = CapSense_HW_CLOCK;
 154              		.loc 1 454 0
 155 0014 8023     		movs	r3, #128
 156 0016 5B00     		lsls	r3, r3, #1
 157 0018 6380     		strh	r3, [r4, #2]
 455:Generated_Source\PSoC4/CapSense_Structure.c **** 
 158              		.loc 1 455 0
 159 001a 154B     		ldr	r3, .L20+8
 536:Generated_Source\PSoC4/CapSense_Structure.c **** 
 160              		.loc 1 536 0
 161 001c 2000     		movs	r0, r4
 455:Generated_Source\PSoC4/CapSense_Structure.c **** 
 162              		.loc 1 455 0
 163 001e A380     		strh	r3, [r4, #4]
 458:Generated_Source\PSoC4/CapSense_Structure.c **** 
 164              		.loc 1 458 0
ARM GAS  C:\Users\zack.li\AppData\Local\Temp\ccYoE7wd.s 			page 18


 165 0020 C223     		movs	r3, #194
 166 0022 9B00     		lsls	r3, r3, #2
 167 0024 E383     		strh	r3, [r4, #30]
 460:Generated_Source\PSoC4/CapSense_Structure.c ****     #if (0u != CapSense_TOTAL_CSD_WIDGETS)
 168              		.loc 1 460 0
 169 0026 2300     		movs	r3, r4
 170 0028 AD33     		adds	r3, r3, #173
 171 002a 1A70     		strb	r2, [r3]
 462:Generated_Source\PSoC4/CapSense_Structure.c ****         CapSense_dsRam.scanCsdISC = CapSense_CSD_INACTIVE_SNS_CONNECTION;
 172              		.loc 1 462 0
 173 002c 631C     		adds	r3, r4, #1
 536:Generated_Source\PSoC4/CapSense_Structure.c **** 
 174              		.loc 1 536 0
 175 002e 114C     		ldr	r4, .L20+12
 462:Generated_Source\PSoC4/CapSense_Structure.c ****         CapSense_dsRam.scanCsdISC = CapSense_CSD_INACTIVE_SNS_CONNECTION;
 176              		.loc 1 462 0
 177 0030 023A     		subs	r2, r2, #2
 178 0032 DA77     		strb	r2, [r3, #31]
 536:Generated_Source\PSoC4/CapSense_Structure.c **** 
 179              		.loc 1 536 0
 180 0034 2230     		adds	r0, r0, #34
 181 0036 A11D     		adds	r1, r4, #6
 182 0038 5132     		adds	r2, r2, #81
 183 003a FFF7FEFF 		bl	memcpy
 184              	.LVL7:
 185 003e 2600     		movs	r6, r4
 186 0040 2300     		movs	r3, r4
 187 0042 EC36     		adds	r6, r6, #236
 188 0044 6033     		adds	r3, r3, #96
 189              	.LVL8:
 190              	.L14:
 555:Generated_Source\PSoC4/CapSense_Structure.c ****         {
 191              		.loc 1 555 0 discriminator 1
 192 0046 B342     		cmp	r3, r6
 193 0048 0DD0     		beq	.L18
 559:Generated_Source\PSoC4/CapSense_Structure.c ****             {
 194              		.loc 1 559 0
 195 004a 1D8A     		ldrh	r5, [r3, #16]
 196 004c 2000     		movs	r0, r4
 197 004e 2A00     		movs	r2, r5
 557:Generated_Source\PSoC4/CapSense_Structure.c **** 
 198              		.loc 1 557 0
 199 0050 1968     		ldr	r1, [r3]
 200              	.LVL9:
 201              	.L15:
 559:Generated_Source\PSoC4/CapSense_Structure.c ****             {
 202              		.loc 1 559 0 discriminator 1
 203 0052 013A     		subs	r2, r2, #1
 204 0054 04D3     		bcc	.L19
 205              	.LVL10:
 561:Generated_Source\PSoC4/CapSense_Structure.c ****                 ptrIdacInit++;
 206              		.loc 1 561 0
 207 0056 0778     		ldrb	r7, [r0]
 562:Generated_Source\PSoC4/CapSense_Structure.c **** 
 208              		.loc 1 562 0
 209 0058 0130     		adds	r0, r0, #1
 210              	.LVL11:
ARM GAS  C:\Users\zack.li\AppData\Local\Temp\ccYoE7wd.s 			page 19


 561:Generated_Source\PSoC4/CapSense_Structure.c ****                 ptrIdacInit++;
 211              		.loc 1 561 0
 212 005a 4F72     		strb	r7, [r1, #9]
 572:Generated_Source\PSoC4/CapSense_Structure.c ****             }
 213              		.loc 1 572 0
 214 005c 0A31     		adds	r1, r1, #10
 215              	.LVL12:
 216 005e F8E7     		b	.L15
 217              	.L19:
 218 0060 6419     		adds	r4, r4, r5
 219              	.LVL13:
 220 0062 1C33     		adds	r3, r3, #28
 221              	.LVL14:
 222 0064 EFE7     		b	.L14
 223              	.LVL15:
 224              	.L18:
 606:Generated_Source\PSoC4/CapSense_Structure.c **** 
 225              		.loc 1 606 0
 226              		@ sp needed
 227              	.LVL16:
 228 0066 F8BD     		pop	{r3, r4, r5, r6, r7, pc}
 229              	.L21:
 230              		.align	2
 231              	.L20:
 232 0068 00000000 		.word	CapSense_dsRam
 233 006c 48670000 		.word	26440
 234 0070 B80B0000 		.word	3000
 235 0074 00000000 		.word	.LANCHOR0
 236              		.cfi_endproc
 237              	.LFE1:
 238              		.size	CapSense_DsInitialize, .-CapSense_DsInitialize
 239              		.section	.text.CapSense_GetParam,"ax",%progbits
 240              		.align	1
 241              		.global	CapSense_GetParam
 242              		.code	16
 243              		.thumb_func
 244              		.type	CapSense_GetParam, %function
 245              	CapSense_GetParam:
 246              	.LFB3:
 786:Generated_Source\PSoC4/CapSense_Structure.c **** 
 787:Generated_Source\PSoC4/CapSense_Structure.c **** /*******************************************************************************
 788:Generated_Source\PSoC4/CapSense_Structure.c **** * Function Name: CapSense_GetParam
 789:Generated_Source\PSoC4/CapSense_Structure.c **** ****************************************************************************//**
 790:Generated_Source\PSoC4/CapSense_Structure.c **** *
 791:Generated_Source\PSoC4/CapSense_Structure.c **** * \brief
 792:Generated_Source\PSoC4/CapSense_Structure.c **** *  Gets the specified parameter value from the \ref group_structures.
 793:Generated_Source\PSoC4/CapSense_Structure.c **** *
 794:Generated_Source\PSoC4/CapSense_Structure.c **** * \details
 795:Generated_Source\PSoC4/CapSense_Structure.c **** *  This function gets the value of the specified parameter by the paramId
 796:Generated_Source\PSoC4/CapSense_Structure.c **** *  argument. The paramId for each register is available in the
 797:Generated_Source\PSoC4/CapSense_Structure.c **** *  CapSense RegisterMap header file as
 798:Generated_Source\PSoC4/CapSense_Structure.c **** *  CapSense_<ParameterName>_PARAM_ID. The paramId is a special
 799:Generated_Source\PSoC4/CapSense_Structure.c **** *  enumerated value generated by the customizer. The format of paramId is as
 800:Generated_Source\PSoC4/CapSense_Structure.c **** *  follows:
 801:Generated_Source\PSoC4/CapSense_Structure.c **** *    1. [ byte 3 byte 2 byte 1 byte 0 ]
 802:Generated_Source\PSoC4/CapSense_Structure.c **** *    2. [ TTWFCCCC UIIIIIII MMMMMMMM LLLLLLLL ]
 803:Generated_Source\PSoC4/CapSense_Structure.c **** *    3. T - encodes the parameter type:
ARM GAS  C:\Users\zack.li\AppData\Local\Temp\ccYoE7wd.s 			page 20


 804:Generated_Source\PSoC4/CapSense_Structure.c **** *      - 01b: uint8
 805:Generated_Source\PSoC4/CapSense_Structure.c **** *      - 10b: uint16
 806:Generated_Source\PSoC4/CapSense_Structure.c **** *      - 11b: uint32
 807:Generated_Source\PSoC4/CapSense_Structure.c **** *    4. W - indicates whether the parameter is writable:
 808:Generated_Source\PSoC4/CapSense_Structure.c **** *      - 0: ReadOnly
 809:Generated_Source\PSoC4/CapSense_Structure.c **** *      - 1: Read/Write
 810:Generated_Source\PSoC4/CapSense_Structure.c **** *    5. C - 4 bit CRC (X^3 + 1) of the whole paramId word, the C bits are
 811:Generated_Source\PSoC4/CapSense_Structure.c **** *       filled with 0s when the CRC is calculated.
 812:Generated_Source\PSoC4/CapSense_Structure.c **** *    6. U - indicates if the parameter affects the RAM Widget Object CRC.
 813:Generated_Source\PSoC4/CapSense_Structure.c **** *    7. I - specifies that the widgetId parameter belongs to
 814:Generated_Source\PSoC4/CapSense_Structure.c **** *    8. M,L - the parameter offset MSB and LSB accordingly in:
 815:Generated_Source\PSoC4/CapSense_Structure.c **** *      - Flash Data Structure if W bit is 0.
 816:Generated_Source\PSoC4/CapSense_Structure.c **** *      - RAM Data Structure if W bit is 1.
 817:Generated_Source\PSoC4/CapSense_Structure.c **** *
 818:Generated_Source\PSoC4/CapSense_Structure.c **** *  Refer to the \ref group_structures section for details of the data structure
 819:Generated_Source\PSoC4/CapSense_Structure.c **** *  organization and examples of its register access.
 820:Generated_Source\PSoC4/CapSense_Structure.c **** *
 821:Generated_Source\PSoC4/CapSense_Structure.c **** * \param paramId
 822:Generated_Source\PSoC4/CapSense_Structure.c **** *  Specifies the ID of parameter to get its value.
 823:Generated_Source\PSoC4/CapSense_Structure.c **** *  A macro for the parameter ID can be found in the CapSense RegisterMap header
 824:Generated_Source\PSoC4/CapSense_Structure.c **** *  file defined as CapSense_<ParameterName>_PARAM_ID.
 825:Generated_Source\PSoC4/CapSense_Structure.c **** *
 826:Generated_Source\PSoC4/CapSense_Structure.c **** * \param value
 827:Generated_Source\PSoC4/CapSense_Structure.c **** *  The pointer to a variable to be updated with the obtained value.
 828:Generated_Source\PSoC4/CapSense_Structure.c **** *
 829:Generated_Source\PSoC4/CapSense_Structure.c **** * \return
 830:Generated_Source\PSoC4/CapSense_Structure.c **** *  Returns the status of the operation:
 831:Generated_Source\PSoC4/CapSense_Structure.c **** *    - CYRET_SUCCESS - The operation is successfully completed.
 832:Generated_Source\PSoC4/CapSense_Structure.c **** *    - CYRET_BAD_PARAM - The input parameter is invalid.
 833:Generated_Source\PSoC4/CapSense_Structure.c **** *
 834:Generated_Source\PSoC4/CapSense_Structure.c **** *******************************************************************************/
 835:Generated_Source\PSoC4/CapSense_Structure.c **** cystatus CapSense_GetParam(uint32 paramId, uint32 *value)
 836:Generated_Source\PSoC4/CapSense_Structure.c **** {
 247              		.loc 1 836 0
 248              		.cfi_startproc
 249              		@ args = 0, pretend = 0, frame = 8
 250              		@ frame_needed = 0, uses_anonymous_args = 0
 251              	.LVL17:
 252 0000 13B5     		push	{r0, r1, r4, lr}
 253              		.cfi_def_cfa_offset 16
 254              		.cfi_offset 0, -16
 255              		.cfi_offset 1, -12
 256              		.cfi_offset 4, -8
 257              		.cfi_offset 14, -4
 258              		.loc 1 836 0
 259 0002 0C00     		movs	r4, r1
 837:Generated_Source\PSoC4/CapSense_Structure.c ****     PARAM_ID_STRUCT pData;
 838:Generated_Source\PSoC4/CapSense_Structure.c ****     cystatus result;
 839:Generated_Source\PSoC4/CapSense_Structure.c **** 
 840:Generated_Source\PSoC4/CapSense_Structure.c ****     union
 841:Generated_Source\PSoC4/CapSense_Structure.c ****     {
 842:Generated_Source\PSoC4/CapSense_Structure.c ****         volatile void   const * ptr;
 843:Generated_Source\PSoC4/CapSense_Structure.c ****         volatile uint8  const * ptrUint8;
 844:Generated_Source\PSoC4/CapSense_Structure.c ****         volatile uint16 const * ptrUint16;
 845:Generated_Source\PSoC4/CapSense_Structure.c ****         volatile uint32 const * ptrUint32;
 846:Generated_Source\PSoC4/CapSense_Structure.c ****     } ptrData;
 847:Generated_Source\PSoC4/CapSense_Structure.c **** 
ARM GAS  C:\Users\zack.li\AppData\Local\Temp\ccYoE7wd.s 			page 21


 848:Generated_Source\PSoC4/CapSense_Structure.c ****     result = DsParseParamId(paramId, &pData);
 260              		.loc 1 848 0
 261 0004 6946     		mov	r1, sp
 262              	.LVL18:
 263 0006 FFF7FEFF 		bl	DsParseParamId
 264              	.LVL19:
 849:Generated_Source\PSoC4/CapSense_Structure.c **** 
 850:Generated_Source\PSoC4/CapSense_Structure.c ****     /* Parse and validate paramId */
 851:Generated_Source\PSoC4/CapSense_Structure.c ****     if (CYRET_SUCCESS == result)
 265              		.loc 1 851 0
 266 000a 0028     		cmp	r0, #0
 267 000c 17D1     		bne	.L23
 852:Generated_Source\PSoC4/CapSense_Structure.c ****     {
 853:Generated_Source\PSoC4/CapSense_Structure.c ****         /* Get base address of parameter */
 854:Generated_Source\PSoC4/CapSense_Structure.c ****         if (0u == pData.flash)
 268              		.loc 1 854 0
 269 000e 6B46     		mov	r3, sp
 270 0010 5A79     		ldrb	r2, [r3, #5]
 855:Generated_Source\PSoC4/CapSense_Structure.c ****         {
 856:Generated_Source\PSoC4/CapSense_Structure.c ****             ptrData.ptr = &CapSense_dsRam;
 271              		.loc 1 856 0
 272 0012 0B4B     		ldr	r3, .L30
 854:Generated_Source\PSoC4/CapSense_Structure.c ****         {
 273              		.loc 1 854 0
 274 0014 002A     		cmp	r2, #0
 275 0016 01D0     		beq	.L24
 857:Generated_Source\PSoC4/CapSense_Structure.c ****         }
 858:Generated_Source\PSoC4/CapSense_Structure.c ****         else
 859:Generated_Source\PSoC4/CapSense_Structure.c ****         {
 860:Generated_Source\PSoC4/CapSense_Structure.c ****             ptrData.ptr = &CapSense_dsFlash;
 276              		.loc 1 860 0
 277 0018 0A4B     		ldr	r3, .L30+4
 278 001a 5833     		adds	r3, r3, #88
 279              	.L24:
 280              	.LVL20:
 861:Generated_Source\PSoC4/CapSense_Structure.c ****         }
 862:Generated_Source\PSoC4/CapSense_Structure.c **** 
 863:Generated_Source\PSoC4/CapSense_Structure.c ****         /* Add offset to base address */
 864:Generated_Source\PSoC4/CapSense_Structure.c ****         ptrData.ptrUint8 += pData.offset;
 281              		.loc 1 864 0
 282 001c 6A46     		mov	r2, sp
 283 001e 1288     		ldrh	r2, [r2]
 284 0020 9B18     		adds	r3, r3, r2
 285              	.LVL21:
 865:Generated_Source\PSoC4/CapSense_Structure.c **** 
 866:Generated_Source\PSoC4/CapSense_Structure.c ****         /* Read data */
 867:Generated_Source\PSoC4/CapSense_Structure.c ****         if (DS_PARAM_TYPE_UINT8 == pData.type)
 286              		.loc 1 867 0
 287 0022 6A46     		mov	r2, sp
 288 0024 D279     		ldrb	r2, [r2, #7]
 289 0026 012A     		cmp	r2, #1
 290 0028 01D1     		bne	.L25
 868:Generated_Source\PSoC4/CapSense_Structure.c ****         {
 869:Generated_Source\PSoC4/CapSense_Structure.c ****             *value = (uint32) (*ptrData.ptrUint8);
 291              		.loc 1 869 0
 292 002a 1B78     		ldrb	r3, [r3]
 293              	.LVL22:
ARM GAS  C:\Users\zack.li\AppData\Local\Temp\ccYoE7wd.s 			page 22


 294 002c 06E0     		b	.L29
 295              	.LVL23:
 296              	.L25:
 870:Generated_Source\PSoC4/CapSense_Structure.c ****         }
 871:Generated_Source\PSoC4/CapSense_Structure.c ****         else if (DS_PARAM_TYPE_UINT16 == pData.type)
 297              		.loc 1 871 0
 298 002e 022A     		cmp	r2, #2
 299 0030 01D1     		bne	.L26
 872:Generated_Source\PSoC4/CapSense_Structure.c ****         {
 873:Generated_Source\PSoC4/CapSense_Structure.c ****             *value = (uint32) (*ptrData.ptrUint16);
 300              		.loc 1 873 0
 301 0032 1B88     		ldrh	r3, [r3]
 302              	.LVL24:
 303 0034 02E0     		b	.L29
 304              	.LVL25:
 305              	.L26:
 874:Generated_Source\PSoC4/CapSense_Structure.c ****         }
 875:Generated_Source\PSoC4/CapSense_Structure.c ****         else if (DS_PARAM_TYPE_UINT32 == pData.type)
 306              		.loc 1 875 0
 307 0036 032A     		cmp	r2, #3
 308 0038 01D1     		bne	.L23
 876:Generated_Source\PSoC4/CapSense_Structure.c ****         {
 877:Generated_Source\PSoC4/CapSense_Structure.c ****             *value = *ptrData.ptrUint32;
 309              		.loc 1 877 0
 310 003a 1B68     		ldr	r3, [r3]
 311              	.LVL26:
 312              	.L29:
 313 003c 2360     		str	r3, [r4]
 314              	.L23:
 878:Generated_Source\PSoC4/CapSense_Structure.c ****         }
 879:Generated_Source\PSoC4/CapSense_Structure.c ****         else
 880:Generated_Source\PSoC4/CapSense_Structure.c ****         {
 881:Generated_Source\PSoC4/CapSense_Structure.c ****             /* Parameter comes here already validated. */
 882:Generated_Source\PSoC4/CapSense_Structure.c ****             CYASSERT(0u);
 883:Generated_Source\PSoC4/CapSense_Structure.c ****         }
 884:Generated_Source\PSoC4/CapSense_Structure.c ****     }
 885:Generated_Source\PSoC4/CapSense_Structure.c **** 
 886:Generated_Source\PSoC4/CapSense_Structure.c ****     return result;
 887:Generated_Source\PSoC4/CapSense_Structure.c **** }
 315              		.loc 1 887 0
 316              		@ sp needed
 317              	.LVL27:
 318 003e 16BD     		pop	{r1, r2, r4, pc}
 319              	.L31:
 320              		.align	2
 321              	.L30:
 322 0040 00000000 		.word	CapSense_dsRam
 323 0044 00000000 		.word	.LANCHOR0
 324              		.cfi_endproc
 325              	.LFE3:
 326              		.size	CapSense_GetParam, .-CapSense_GetParam
 327              		.section	.text.CapSense_SetParam,"ax",%progbits
 328              		.align	1
 329              		.global	CapSense_SetParam
 330              		.code	16
 331              		.thumb_func
 332              		.type	CapSense_SetParam, %function
ARM GAS  C:\Users\zack.li\AppData\Local\Temp\ccYoE7wd.s 			page 23


 333              	CapSense_SetParam:
 334              	.LFB4:
 888:Generated_Source\PSoC4/CapSense_Structure.c **** 
 889:Generated_Source\PSoC4/CapSense_Structure.c **** 
 890:Generated_Source\PSoC4/CapSense_Structure.c **** /*******************************************************************************
 891:Generated_Source\PSoC4/CapSense_Structure.c **** * Function Name: CapSense_SetParam
 892:Generated_Source\PSoC4/CapSense_Structure.c **** ****************************************************************************//**
 893:Generated_Source\PSoC4/CapSense_Structure.c **** *
 894:Generated_Source\PSoC4/CapSense_Structure.c **** * \brief
 895:Generated_Source\PSoC4/CapSense_Structure.c **** *  Sets a new value for the specified parameter in the \ref group_structures.
 896:Generated_Source\PSoC4/CapSense_Structure.c **** *
 897:Generated_Source\PSoC4/CapSense_Structure.c **** * \details
 898:Generated_Source\PSoC4/CapSense_Structure.c **** *  This function sets the value of the specified parameter by the paramId
 899:Generated_Source\PSoC4/CapSense_Structure.c **** *  argument. The paramId for each register is available in the
 900:Generated_Source\PSoC4/CapSense_Structure.c **** *  CapSense RegisterMap header file as
 901:Generated_Source\PSoC4/CapSense_Structure.c **** *  CapSense_<ParameterName>_PARAM_ID. The paramId is a special
 902:Generated_Source\PSoC4/CapSense_Structure.c **** *  enumerated value generated by the customizer. The format of paramId is as
 903:Generated_Source\PSoC4/CapSense_Structure.c **** *  follows:
 904:Generated_Source\PSoC4/CapSense_Structure.c **** *    1. [ byte 3 byte 2 byte 1 byte 0 ]
 905:Generated_Source\PSoC4/CapSense_Structure.c **** *    2. [ TTWFCCCC UIIIIIII MMMMMMMM LLLLLLLL ]
 906:Generated_Source\PSoC4/CapSense_Structure.c **** *    3. T - encodes the parameter type:
 907:Generated_Source\PSoC4/CapSense_Structure.c **** *      - 01b: uint8
 908:Generated_Source\PSoC4/CapSense_Structure.c **** *      - 10b: uint16
 909:Generated_Source\PSoC4/CapSense_Structure.c **** *      - 11b: uint32
 910:Generated_Source\PSoC4/CapSense_Structure.c **** *    4. W - indicates whether the parameter is writable:
 911:Generated_Source\PSoC4/CapSense_Structure.c **** *      - 0: ReadOnly
 912:Generated_Source\PSoC4/CapSense_Structure.c **** *      - 1: Read/Write
 913:Generated_Source\PSoC4/CapSense_Structure.c **** *    5. C - 4 bit CRC (X^3 + 1) of the whole paramId word, the C bits are
 914:Generated_Source\PSoC4/CapSense_Structure.c **** *       filled with 0s when the CRC is calculated.
 915:Generated_Source\PSoC4/CapSense_Structure.c **** *    6. U - indicates if the parameter affects the RAM Widget Object CRC.
 916:Generated_Source\PSoC4/CapSense_Structure.c **** *    7. I - specifies that the widgetId parameter belongs to
 917:Generated_Source\PSoC4/CapSense_Structure.c **** *    8. M,L - the parameter offset MSB and LSB accordingly in:
 918:Generated_Source\PSoC4/CapSense_Structure.c **** *      - Flash Data Structure if W bit is 0.
 919:Generated_Source\PSoC4/CapSense_Structure.c **** *      - RAM Data Structure if W bit is 1.
 920:Generated_Source\PSoC4/CapSense_Structure.c **** *
 921:Generated_Source\PSoC4/CapSense_Structure.c **** *  Refer to the \ref group_structures section for details of the data structure
 922:Generated_Source\PSoC4/CapSense_Structure.c **** *  organization and examples of its register access.
 923:Generated_Source\PSoC4/CapSense_Structure.c **** *
 924:Generated_Source\PSoC4/CapSense_Structure.c **** *  This function writes specified value into the desired register without
 925:Generated_Source\PSoC4/CapSense_Structure.c **** *  other registers update. It is application layer responsibility to keep all
 926:Generated_Source\PSoC4/CapSense_Structure.c **** *  the data structure registers aligned. Repeated call of
 927:Generated_Source\PSoC4/CapSense_Structure.c **** *  CapSense_Start() function helps aligning dependent register values.
 928:Generated_Source\PSoC4/CapSense_Structure.c **** *
 929:Generated_Source\PSoC4/CapSense_Structure.c **** * \param paramId
 930:Generated_Source\PSoC4/CapSense_Structure.c **** *  Specifies the ID of parameter to set its value.
 931:Generated_Source\PSoC4/CapSense_Structure.c **** *  A macro for the parameter ID can be found in the CapSense RegisterMap header
 932:Generated_Source\PSoC4/CapSense_Structure.c **** *  file defined as CapSense_<ParameterName>_PARAM_ID.
 933:Generated_Source\PSoC4/CapSense_Structure.c **** 
 934:Generated_Source\PSoC4/CapSense_Structure.c **** * \param value
 935:Generated_Source\PSoC4/CapSense_Structure.c **** *  Specifies the new parameter's value.
 936:Generated_Source\PSoC4/CapSense_Structure.c **** *
 937:Generated_Source\PSoC4/CapSense_Structure.c **** * \return
 938:Generated_Source\PSoC4/CapSense_Structure.c **** *  Returns the status of the operation:
 939:Generated_Source\PSoC4/CapSense_Structure.c **** *    - CYRET_SUCCESS - The operation is successfully completed.
 940:Generated_Source\PSoC4/CapSense_Structure.c **** *    - CYRET_BAD_PARAM - The input parameter is invalid.
 941:Generated_Source\PSoC4/CapSense_Structure.c **** *
 942:Generated_Source\PSoC4/CapSense_Structure.c **** *******************************************************************************/
ARM GAS  C:\Users\zack.li\AppData\Local\Temp\ccYoE7wd.s 			page 24


 943:Generated_Source\PSoC4/CapSense_Structure.c **** cystatus CapSense_SetParam(uint32 paramId, uint32 value)
 944:Generated_Source\PSoC4/CapSense_Structure.c **** {
 335              		.loc 1 944 0
 336              		.cfi_startproc
 337              		@ args = 0, pretend = 0, frame = 8
 338              		@ frame_needed = 0, uses_anonymous_args = 0
 339              	.LVL28:
 340 0000 13B5     		push	{r0, r1, r4, lr}
 341              		.cfi_def_cfa_offset 16
 342              		.cfi_offset 0, -16
 343              		.cfi_offset 1, -12
 344              		.cfi_offset 4, -8
 345              		.cfi_offset 14, -4
 346              		.loc 1 944 0
 347 0002 0C00     		movs	r4, r1
 945:Generated_Source\PSoC4/CapSense_Structure.c ****     cystatus result;
 946:Generated_Source\PSoC4/CapSense_Structure.c ****     PARAM_ID_STRUCT pData;
 947:Generated_Source\PSoC4/CapSense_Structure.c **** 
 948:Generated_Source\PSoC4/CapSense_Structure.c ****     union
 949:Generated_Source\PSoC4/CapSense_Structure.c ****     {
 950:Generated_Source\PSoC4/CapSense_Structure.c ****         volatile void   * ptr;
 951:Generated_Source\PSoC4/CapSense_Structure.c ****         volatile uint8  * ptrUint8;
 952:Generated_Source\PSoC4/CapSense_Structure.c ****         volatile uint16 * ptrUint16;
 953:Generated_Source\PSoC4/CapSense_Structure.c ****         volatile uint32 * ptrUint32;
 954:Generated_Source\PSoC4/CapSense_Structure.c ****     } ptrData;
 955:Generated_Source\PSoC4/CapSense_Structure.c **** 
 956:Generated_Source\PSoC4/CapSense_Structure.c ****     result = DsParseParamId(paramId, &pData);
 348              		.loc 1 956 0
 349 0004 6946     		mov	r1, sp
 350              	.LVL29:
 351 0006 FFF7FEFF 		bl	DsParseParamId
 352              	.LVL30:
 957:Generated_Source\PSoC4/CapSense_Structure.c **** 
 958:Generated_Source\PSoC4/CapSense_Structure.c ****     /* verify if parameter is writable */
 959:Generated_Source\PSoC4/CapSense_Structure.c ****     if (CYRET_SUCCESS == result)
 353              		.loc 1 959 0
 354 000a 0028     		cmp	r0, #0
 355 000c 18D1     		bne	.L40
 960:Generated_Source\PSoC4/CapSense_Structure.c ****     {
 961:Generated_Source\PSoC4/CapSense_Structure.c ****         if (0u == pData.rw)
 356              		.loc 1 961 0
 357 000e 6B46     		mov	r3, sp
 358 0010 9B79     		ldrb	r3, [r3, #6]
 359 0012 002B     		cmp	r3, #0
 360 0014 01D1     		bne	.L43
 962:Generated_Source\PSoC4/CapSense_Structure.c ****         {
 963:Generated_Source\PSoC4/CapSense_Structure.c ****             result = CYRET_BAD_PARAM;
 361              		.loc 1 963 0
 362 0016 0120     		movs	r0, #1
 363              	.LVL31:
 964:Generated_Source\PSoC4/CapSense_Structure.c ****         }
 965:Generated_Source\PSoC4/CapSense_Structure.c ****     }
 966:Generated_Source\PSoC4/CapSense_Structure.c **** 
 967:Generated_Source\PSoC4/CapSense_Structure.c ****     /* Parse and validate paramId */
 968:Generated_Source\PSoC4/CapSense_Structure.c ****     if (CYRET_SUCCESS == result)
 969:Generated_Source\PSoC4/CapSense_Structure.c ****     {
 970:Generated_Source\PSoC4/CapSense_Structure.c ****         /* Get base address of parameter */
ARM GAS  C:\Users\zack.li\AppData\Local\Temp\ccYoE7wd.s 			page 25


 971:Generated_Source\PSoC4/CapSense_Structure.c ****         ptrData.ptr = &CapSense_dsRam;
 972:Generated_Source\PSoC4/CapSense_Structure.c **** 
 973:Generated_Source\PSoC4/CapSense_Structure.c ****         /* Add offset to base address */
 974:Generated_Source\PSoC4/CapSense_Structure.c ****         ptrData.ptrUint8 += pData.offset;
 975:Generated_Source\PSoC4/CapSense_Structure.c **** 
 976:Generated_Source\PSoC4/CapSense_Structure.c ****         /* Write data */
 977:Generated_Source\PSoC4/CapSense_Structure.c ****         if (DS_PARAM_TYPE_UINT8 == pData.type)
 978:Generated_Source\PSoC4/CapSense_Structure.c ****         {
 979:Generated_Source\PSoC4/CapSense_Structure.c ****             *ptrData.ptrUint8 = LO8(value);
 980:Generated_Source\PSoC4/CapSense_Structure.c ****         }
 981:Generated_Source\PSoC4/CapSense_Structure.c ****         else if (DS_PARAM_TYPE_UINT16 == pData.type)
 982:Generated_Source\PSoC4/CapSense_Structure.c ****         {
 983:Generated_Source\PSoC4/CapSense_Structure.c ****             *ptrData.ptrUint16 = LO16(value);
 984:Generated_Source\PSoC4/CapSense_Structure.c ****         }
 985:Generated_Source\PSoC4/CapSense_Structure.c ****         else if (DS_PARAM_TYPE_UINT32 == pData.type)
 986:Generated_Source\PSoC4/CapSense_Structure.c ****         {
 987:Generated_Source\PSoC4/CapSense_Structure.c ****             *ptrData.ptrUint32 = value;
 988:Generated_Source\PSoC4/CapSense_Structure.c ****         }
 989:Generated_Source\PSoC4/CapSense_Structure.c ****         else
 990:Generated_Source\PSoC4/CapSense_Structure.c ****         {
 991:Generated_Source\PSoC4/CapSense_Structure.c ****             /* Parameter comes here already validated. */
 992:Generated_Source\PSoC4/CapSense_Structure.c ****             CYASSERT(0u);
 993:Generated_Source\PSoC4/CapSense_Structure.c ****         }
 994:Generated_Source\PSoC4/CapSense_Structure.c **** 
 995:Generated_Source\PSoC4/CapSense_Structure.c ****         #if (CapSense_ENABLE == (CapSense_TST_WDGT_CRC_EN || CapSense_TST_GLOBAL_CRC_EN))
 996:Generated_Source\PSoC4/CapSense_Structure.c ****             /* Update widget or global CRC if self-test is enabled and parameter affects it */
 997:Generated_Source\PSoC4/CapSense_Structure.c ****             if (0u != pData.affectsCrc)
 998:Generated_Source\PSoC4/CapSense_Structure.c ****             {
 999:Generated_Source\PSoC4/CapSense_Structure.c ****                 if ((ptrData.ptrUint16 >= &CapSense_dsRam.csd0Config) &&
1000:Generated_Source\PSoC4/CapSense_Structure.c ****                     (ptrData.ptrUint16 <  &CapSense_dsRam.glbCrc))
1001:Generated_Source\PSoC4/CapSense_Structure.c ****                 {
1002:Generated_Source\PSoC4/CapSense_Structure.c **** 
1003:Generated_Source\PSoC4/CapSense_Structure.c ****                     #if (CapSense_ENABLE == CapSense_TST_GLOBAL_CRC_EN)
1004:Generated_Source\PSoC4/CapSense_Structure.c ****                         CapSense_DsUpdateGlobalCrc();
1005:Generated_Source\PSoC4/CapSense_Structure.c ****                     #endif /* (CapSense_ENABLE == CapSense_TST_GLOBAL_CRC_EN) */
1006:Generated_Source\PSoC4/CapSense_Structure.c **** 
1007:Generated_Source\PSoC4/CapSense_Structure.c ****                 }
1008:Generated_Source\PSoC4/CapSense_Structure.c ****                 else
1009:Generated_Source\PSoC4/CapSense_Structure.c ****                 {
1010:Generated_Source\PSoC4/CapSense_Structure.c ****                     #if (CapSense_ENABLE == CapSense_TST_WDGT_CRC_EN)
1011:Generated_Source\PSoC4/CapSense_Structure.c ****                         CapSense_DsUpdateWidgetCrc((uint32)pData.widgetId);
1012:Generated_Source\PSoC4/CapSense_Structure.c ****                     #endif /* (CapSense_ENABLE == CapSense_TST_WDGT_CRC_EN) */
1013:Generated_Source\PSoC4/CapSense_Structure.c ****                 }
1014:Generated_Source\PSoC4/CapSense_Structure.c ****             }
1015:Generated_Source\PSoC4/CapSense_Structure.c ****         #endif /* (CapSense_ENABLE == (CapSense_TST_WDGT_CRC_EN || CapSense_TST_GLOBAL_CRC_EN)) */
1016:Generated_Source\PSoC4/CapSense_Structure.c ****     }
1017:Generated_Source\PSoC4/CapSense_Structure.c **** 
1018:Generated_Source\PSoC4/CapSense_Structure.c ****     return result;
 364              		.loc 1 1018 0
 365 0018 12E0     		b	.L40
 366              	.LVL32:
 367              	.L43:
 974:Generated_Source\PSoC4/CapSense_Structure.c **** 
 368              		.loc 1 974 0
 369 001a 6B46     		mov	r3, sp
 370 001c 1A88     		ldrh	r2, [r3]
 371 001e 094B     		ldr	r3, .L44
ARM GAS  C:\Users\zack.li\AppData\Local\Temp\ccYoE7wd.s 			page 26


 372 0020 D318     		adds	r3, r2, r3
 373              	.LVL33:
 977:Generated_Source\PSoC4/CapSense_Structure.c ****         {
 374              		.loc 1 977 0
 375 0022 6A46     		mov	r2, sp
 376 0024 D279     		ldrb	r2, [r2, #7]
 377 0026 012A     		cmp	r2, #1
 378 0028 02D1     		bne	.L42
 979:Generated_Source\PSoC4/CapSense_Structure.c ****         }
 379              		.loc 1 979 0
 380 002a E4B2     		uxtb	r4, r4
 381              	.LVL34:
 382 002c 1C70     		strb	r4, [r3]
 383 002e 07E0     		b	.L40
 384              	.LVL35:
 385              	.L42:
 981:Generated_Source\PSoC4/CapSense_Structure.c ****         {
 386              		.loc 1 981 0
 387 0030 022A     		cmp	r2, #2
 388 0032 02D1     		bne	.L36
 983:Generated_Source\PSoC4/CapSense_Structure.c ****         }
 389              		.loc 1 983 0
 390 0034 A4B2     		uxth	r4, r4
 391              	.LVL36:
 392 0036 1C80     		strh	r4, [r3]
 393 0038 02E0     		b	.L40
 394              	.LVL37:
 395              	.L36:
 985:Generated_Source\PSoC4/CapSense_Structure.c ****         {
 396              		.loc 1 985 0
 397 003a 032A     		cmp	r2, #3
 398 003c 00D1     		bne	.L40
 987:Generated_Source\PSoC4/CapSense_Structure.c ****         }
 399              		.loc 1 987 0
 400 003e 1C60     		str	r4, [r3]
 401              	.LVL38:
 402              	.L40:
1019:Generated_Source\PSoC4/CapSense_Structure.c **** }
 403              		.loc 1 1019 0
 404              		@ sp needed
 405 0040 16BD     		pop	{r1, r2, r4, pc}
 406              	.L45:
 407 0042 C046     		.align	2
 408              	.L44:
 409 0044 00000000 		.word	CapSense_dsRam
 410              		.cfi_endproc
 411              	.LFE4:
 412              		.size	CapSense_SetParam, .-CapSense_SetParam
 413              		.section	.text.CapSense_IsAnyWidgetActive,"ax",%progbits
 414              		.align	1
 415              		.global	CapSense_IsAnyWidgetActive
 416              		.code	16
 417              		.thumb_func
 418              		.type	CapSense_IsAnyWidgetActive, %function
 419              	CapSense_IsAnyWidgetActive:
 420              	.LFB5:
1020:Generated_Source\PSoC4/CapSense_Structure.c **** 
ARM GAS  C:\Users\zack.li\AppData\Local\Temp\ccYoE7wd.s 			page 27


1021:Generated_Source\PSoC4/CapSense_Structure.c **** /*******************************************************************************
1022:Generated_Source\PSoC4/CapSense_Structure.c **** * Function Name: CapSense_IsAnyWidgetActive
1023:Generated_Source\PSoC4/CapSense_Structure.c **** ****************************************************************************//**
1024:Generated_Source\PSoC4/CapSense_Structure.c **** *
1025:Generated_Source\PSoC4/CapSense_Structure.c **** * \brief
1026:Generated_Source\PSoC4/CapSense_Structure.c **** *  Reports if any widget has detected a touch.
1027:Generated_Source\PSoC4/CapSense_Structure.c **** *
1028:Generated_Source\PSoC4/CapSense_Structure.c **** * \details
1029:Generated_Source\PSoC4/CapSense_Structure.c **** *  This function reports if any widget has detected a touch or not by extracting
1030:Generated_Source\PSoC4/CapSense_Structure.c **** *  information from the wdgtStatus registers
1031:Generated_Source\PSoC4/CapSense_Structure.c **** *  (CapSense_WDGT_STATUS<X>_VALUE). This function does not process a
1032:Generated_Source\PSoC4/CapSense_Structure.c **** *  widget but extracts processed results from the \ref group_structures.
1033:Generated_Source\PSoC4/CapSense_Structure.c **** *
1034:Generated_Source\PSoC4/CapSense_Structure.c **** * \return
1035:Generated_Source\PSoC4/CapSense_Structure.c **** *   Returns the touch detection status of all the widgets:
1036:Generated_Source\PSoC4/CapSense_Structure.c **** *     - Zero - No touch is detected in all the widgets or sensors.
1037:Generated_Source\PSoC4/CapSense_Structure.c **** *     - Non-zero - At least one widget or sensor detected a touch.
1038:Generated_Source\PSoC4/CapSense_Structure.c **** *
1039:Generated_Source\PSoC4/CapSense_Structure.c **** *******************************************************************************/
1040:Generated_Source\PSoC4/CapSense_Structure.c **** uint32 CapSense_IsAnyWidgetActive(void)
1041:Generated_Source\PSoC4/CapSense_Structure.c **** {
 421              		.loc 1 1041 0
 422              		.cfi_startproc
 423              		@ args = 0, pretend = 0, frame = 0
 424              		@ frame_needed = 0, uses_anonymous_args = 0
 425              		@ link register save eliminated.
 426              	.LVL39:
1042:Generated_Source\PSoC4/CapSense_Structure.c ****     uint32 result = 0Lu;
1043:Generated_Source\PSoC4/CapSense_Structure.c ****     uint32 wdWord;
1044:Generated_Source\PSoC4/CapSense_Structure.c **** 
1045:Generated_Source\PSoC4/CapSense_Structure.c ****     for (wdWord = CapSense_WDGT_STATUS_WORDS; wdWord-- > 0u;)
1046:Generated_Source\PSoC4/CapSense_Structure.c ****     {
1047:Generated_Source\PSoC4/CapSense_Structure.c ****         result |= CapSense_dsRam.wdgtStatus[wdWord];
 427              		.loc 1 1047 0
 428 0000 014B     		ldr	r3, .L47
1048:Generated_Source\PSoC4/CapSense_Structure.c ****     }
1049:Generated_Source\PSoC4/CapSense_Structure.c **** 
1050:Generated_Source\PSoC4/CapSense_Structure.c ****     return result;
1051:Generated_Source\PSoC4/CapSense_Structure.c **** }
 429              		.loc 1 1051 0
 430              		@ sp needed
1050:Generated_Source\PSoC4/CapSense_Structure.c **** }
 431              		.loc 1 1050 0
 432 0002 5869     		ldr	r0, [r3, #20]
 433              		.loc 1 1051 0
 434 0004 7047     		bx	lr
 435              	.L48:
 436 0006 C046     		.align	2
 437              	.L47:
 438 0008 00000000 		.word	CapSense_dsRam
 439              		.cfi_endproc
 440              	.LFE5:
 441              		.size	CapSense_IsAnyWidgetActive, .-CapSense_IsAnyWidgetActive
 442              		.section	.text.CapSense_IsWidgetActive,"ax",%progbits
 443              		.align	1
 444              		.global	CapSense_IsWidgetActive
 445              		.code	16
ARM GAS  C:\Users\zack.li\AppData\Local\Temp\ccYoE7wd.s 			page 28


 446              		.thumb_func
 447              		.type	CapSense_IsWidgetActive, %function
 448              	CapSense_IsWidgetActive:
 449              	.LFB6:
1052:Generated_Source\PSoC4/CapSense_Structure.c **** 
1053:Generated_Source\PSoC4/CapSense_Structure.c **** 
1054:Generated_Source\PSoC4/CapSense_Structure.c **** /*******************************************************************************
1055:Generated_Source\PSoC4/CapSense_Structure.c **** * Function Name: CapSense_IsWidgetActive
1056:Generated_Source\PSoC4/CapSense_Structure.c **** ****************************************************************************//**
1057:Generated_Source\PSoC4/CapSense_Structure.c **** *
1058:Generated_Source\PSoC4/CapSense_Structure.c **** * \brief
1059:Generated_Source\PSoC4/CapSense_Structure.c **** *  Reports if the specified widget detects a touch on any of its sensors.
1060:Generated_Source\PSoC4/CapSense_Structure.c **** *
1061:Generated_Source\PSoC4/CapSense_Structure.c **** * \details
1062:Generated_Source\PSoC4/CapSense_Structure.c **** *  This function reports if the specified widget has detected a touch or not by
1063:Generated_Source\PSoC4/CapSense_Structure.c **** *  extracting information from the wdgtStatus registers
1064:Generated_Source\PSoC4/CapSense_Structure.c **** *  (CapSense_WDGT_STATUS<X>_VALUE). This function does not process the
1065:Generated_Source\PSoC4/CapSense_Structure.c **** *  widget but extracts processed results from the \ref group_structures.
1066:Generated_Source\PSoC4/CapSense_Structure.c **** *
1067:Generated_Source\PSoC4/CapSense_Structure.c **** * \param widgetId
1068:Generated_Source\PSoC4/CapSense_Structure.c **** *  Specifies the ID number of the widget to get its status.
1069:Generated_Source\PSoC4/CapSense_Structure.c **** *  A macro for the widget ID can be found in the CapSense Configuration header
1070:Generated_Source\PSoC4/CapSense_Structure.c **** *  file defined as CapSense_<WidgetName>_WDGT_ID.
1071:Generated_Source\PSoC4/CapSense_Structure.c **** *
1072:Generated_Source\PSoC4/CapSense_Structure.c **** * \return
1073:Generated_Source\PSoC4/CapSense_Structure.c **** *  Returns the touch detection status of the specified widgets:
1074:Generated_Source\PSoC4/CapSense_Structure.c **** *    - Zero - No touch is detected in the specified widget or a wrong widgetId
1075:Generated_Source\PSoC4/CapSense_Structure.c **** *      is specified.
1076:Generated_Source\PSoC4/CapSense_Structure.c **** *    - Non-zero if at least one sensor of the specified widget is active, i.e.
1077:Generated_Source\PSoC4/CapSense_Structure.c **** *      a touch is detected.
1078:Generated_Source\PSoC4/CapSense_Structure.c **** *
1079:Generated_Source\PSoC4/CapSense_Structure.c **** *******************************************************************************/
1080:Generated_Source\PSoC4/CapSense_Structure.c **** uint32 CapSense_IsWidgetActive(uint32 widgetId)
1081:Generated_Source\PSoC4/CapSense_Structure.c **** {
 450              		.loc 1 1081 0
 451              		.cfi_startproc
 452              		@ args = 0, pretend = 0, frame = 0
 453              		@ frame_needed = 0, uses_anonymous_args = 0
 454              		@ link register save eliminated.
 455              	.LVL40:
 456              		.loc 1 1081 0
 457 0000 0300     		movs	r3, r0
1082:Generated_Source\PSoC4/CapSense_Structure.c ****     uint32 result = 0Lu;
 458              		.loc 1 1082 0
 459 0002 0020     		movs	r0, #0
 460              	.LVL41:
1083:Generated_Source\PSoC4/CapSense_Structure.c **** 
1084:Generated_Source\PSoC4/CapSense_Structure.c ****     if (widgetId < CapSense_TOTAL_WIDGETS)
 461              		.loc 1 1084 0
 462 0004 042B     		cmp	r3, #4
 463 0006 04D8     		bhi	.L50
1085:Generated_Source\PSoC4/CapSense_Structure.c ****     {
1086:Generated_Source\PSoC4/CapSense_Structure.c ****         result = CapSense_GET_WIDGET_ACTIVE_STATUS(widgetId);
 464              		.loc 1 1086 0
 465 0008 0130     		adds	r0, r0, #1
 466 000a 9840     		lsls	r0, r0, r3
 467 000c 014B     		ldr	r3, .L52
ARM GAS  C:\Users\zack.li\AppData\Local\Temp\ccYoE7wd.s 			page 29


 468              	.LVL42:
 469 000e 5B69     		ldr	r3, [r3, #20]
 470 0010 1840     		ands	r0, r3
 471              	.LVL43:
 472              	.L50:
1087:Generated_Source\PSoC4/CapSense_Structure.c ****     }
1088:Generated_Source\PSoC4/CapSense_Structure.c ****     return result;
1089:Generated_Source\PSoC4/CapSense_Structure.c **** }
 473              		.loc 1 1089 0
 474              		@ sp needed
 475 0012 7047     		bx	lr
 476              	.L53:
 477              		.align	2
 478              	.L52:
 479 0014 00000000 		.word	CapSense_dsRam
 480              		.cfi_endproc
 481              	.LFE6:
 482              		.size	CapSense_IsWidgetActive, .-CapSense_IsWidgetActive
 483              		.section	.text.CapSense_IsSensorActive,"ax",%progbits
 484              		.align	1
 485              		.global	CapSense_IsSensorActive
 486              		.code	16
 487              		.thumb_func
 488              		.type	CapSense_IsSensorActive, %function
 489              	CapSense_IsSensorActive:
 490              	.LFB7:
1090:Generated_Source\PSoC4/CapSense_Structure.c **** 
1091:Generated_Source\PSoC4/CapSense_Structure.c **** 
1092:Generated_Source\PSoC4/CapSense_Structure.c **** /*******************************************************************************
1093:Generated_Source\PSoC4/CapSense_Structure.c **** * Function Name: CapSense_IsSensorActive
1094:Generated_Source\PSoC4/CapSense_Structure.c **** ****************************************************************************//**
1095:Generated_Source\PSoC4/CapSense_Structure.c **** *
1096:Generated_Source\PSoC4/CapSense_Structure.c **** * \brief
1097:Generated_Source\PSoC4/CapSense_Structure.c **** *  Reports if the specified sensor in the widget detects a touch.
1098:Generated_Source\PSoC4/CapSense_Structure.c **** *
1099:Generated_Source\PSoC4/CapSense_Structure.c **** * \details
1100:Generated_Source\PSoC4/CapSense_Structure.c **** *  This function reports if the specified sensor in the widget has detected a
1101:Generated_Source\PSoC4/CapSense_Structure.c **** *  touch or not by extracting information from the wdgtStatus registers
1102:Generated_Source\PSoC4/CapSense_Structure.c **** *  (CapSense_WDGT_STATUS<X>_VALUE). This function does not process the
1103:Generated_Source\PSoC4/CapSense_Structure.c **** *  widget or sensor but extracts processed results from the \ref group_structures.
1104:Generated_Source\PSoC4/CapSense_Structure.c **** *
1105:Generated_Source\PSoC4/CapSense_Structure.c **** *  For proximity sensors, this function returns the proximity detection status. To
1106:Generated_Source\PSoC4/CapSense_Structure.c **** *  get the finger touch status of proximity sensors, use the
1107:Generated_Source\PSoC4/CapSense_Structure.c **** *  CapSense_IsProximitySensorActive() function.
1108:Generated_Source\PSoC4/CapSense_Structure.c **** *
1109:Generated_Source\PSoC4/CapSense_Structure.c **** * \param widgetId
1110:Generated_Source\PSoC4/CapSense_Structure.c **** *  Specifies the ID number of the widget.
1111:Generated_Source\PSoC4/CapSense_Structure.c **** *  A macro for the widget ID can be found in the CapSense Configuration header
1112:Generated_Source\PSoC4/CapSense_Structure.c **** *  file defined as CapSense_<WidgetName>_WDGT_ID.
1113:Generated_Source\PSoC4/CapSense_Structure.c **** 
1114:Generated_Source\PSoC4/CapSense_Structure.c **** * \param sensorId
1115:Generated_Source\PSoC4/CapSense_Structure.c **** *  Specifies the ID number of the sensor within the widget to get its touch
1116:Generated_Source\PSoC4/CapSense_Structure.c **** *  detection status.
1117:Generated_Source\PSoC4/CapSense_Structure.c **** *  A macro for the sensor ID within the specified widget can be found in the
1118:Generated_Source\PSoC4/CapSense_Structure.c **** *  CapSense Configuration header file defined as
1119:Generated_Source\PSoC4/CapSense_Structure.c **** *  CapSense_<WidgetName>_SNS<SensorNumber>_ID.
1120:Generated_Source\PSoC4/CapSense_Structure.c **** *
ARM GAS  C:\Users\zack.li\AppData\Local\Temp\ccYoE7wd.s 			page 30


1121:Generated_Source\PSoC4/CapSense_Structure.c **** * \return
1122:Generated_Source\PSoC4/CapSense_Structure.c **** *  Returns the touch detection status of the specified sensor / widget:
1123:Generated_Source\PSoC4/CapSense_Structure.c **** *    - Zero if no touch is detected in the specified sensor / widget or a wrong
1124:Generated_Source\PSoC4/CapSense_Structure.c **** *      widget ID / sensor ID is specified.
1125:Generated_Source\PSoC4/CapSense_Structure.c **** *    - Non-zero if the specified sensor is active i.e. touch is detected. If the
1126:Generated_Source\PSoC4/CapSense_Structure.c **** *      specific sensor belongs to a proximity widget, the proximity detection
1127:Generated_Source\PSoC4/CapSense_Structure.c **** *      status is returned.
1128:Generated_Source\PSoC4/CapSense_Structure.c **** *
1129:Generated_Source\PSoC4/CapSense_Structure.c **** *******************************************************************************/
1130:Generated_Source\PSoC4/CapSense_Structure.c **** uint32 CapSense_IsSensorActive(uint32 widgetId, uint32 sensorId)
1131:Generated_Source\PSoC4/CapSense_Structure.c **** {
 491              		.loc 1 1131 0
 492              		.cfi_startproc
 493              		@ args = 0, pretend = 0, frame = 0
 494              		@ frame_needed = 0, uses_anonymous_args = 0
 495              	.LVL44:
 496 0000 10B5     		push	{r4, lr}
 497              		.cfi_def_cfa_offset 8
 498              		.cfi_offset 4, -8
 499              		.cfi_offset 14, -4
 500              		.loc 1 1131 0
 501 0002 0400     		movs	r4, r0
1132:Generated_Source\PSoC4/CapSense_Structure.c ****     uint32 result = 0Lu;
 502              		.loc 1 1132 0
 503 0004 0020     		movs	r0, #0
 504              	.LVL45:
1133:Generated_Source\PSoC4/CapSense_Structure.c **** 
1134:Generated_Source\PSoC4/CapSense_Structure.c ****     if ((widgetId < CapSense_TOTAL_WIDGETS) &&
 505              		.loc 1 1134 0
 506 0006 042C     		cmp	r4, #4
 507 0008 12D8     		bhi	.L55
1135:Generated_Source\PSoC4/CapSense_Structure.c ****         (sensorId < CapSense_GET_SENSOR_COUNT(widgetId)))
 508              		.loc 1 1135 0 discriminator 1
 509 000a 1C23     		movs	r3, #28
 510 000c 6343     		muls	r3, r4
 511 000e 1A00     		movs	r2, r3
 512 0010 084B     		ldr	r3, .L59
 513 0012 5833     		adds	r3, r3, #88
 514 0014 9B18     		adds	r3, r3, r2
1134:Generated_Source\PSoC4/CapSense_Structure.c ****         (sensorId < CapSense_GET_SENSOR_COUNT(widgetId)))
 515              		.loc 1 1134 0 discriminator 1
 516 0016 1A8B     		ldrh	r2, [r3, #24]
 517 0018 8A42     		cmp	r2, r1
 518 001a 09D9     		bls	.L55
1136:Generated_Source\PSoC4/CapSense_Structure.c ****     {
1137:Generated_Source\PSoC4/CapSense_Structure.c ****         #if (CapSense_ENABLE == CapSense_PROXIMITY_WIDGET_EN)
1138:Generated_Source\PSoC4/CapSense_Structure.c ****             if (CapSense_WD_PROXIMITY_E ==
 519              		.loc 1 1138 0
 520 001c 9B7E     		ldrb	r3, [r3, #26]
 521 001e 062B     		cmp	r3, #6
 522 0020 00D1     		bne	.L56
1139:Generated_Source\PSoC4/CapSense_Structure.c ****                 (CapSense_WD_TYPE_ENUM)CapSense_dsFlash.wdgtArray[widgetId].wdgtType)
1140:Generated_Source\PSoC4/CapSense_Structure.c ****             {
1141:Generated_Source\PSoC4/CapSense_Structure.c ****                 sensorId = CapSense_PROX_STS_OFFSET(sensorId);
 523              		.loc 1 1141 0
 524 0022 4900     		lsls	r1, r1, #1
 525              	.LVL46:
ARM GAS  C:\Users\zack.li\AppData\Local\Temp\ccYoE7wd.s 			page 31


 526              	.L56:
1142:Generated_Source\PSoC4/CapSense_Structure.c ****             }
1143:Generated_Source\PSoC4/CapSense_Structure.c ****         #endif /* (CapSense_ENABLE != CapSense_PROXIMITY_WIDGET_EN) */
1144:Generated_Source\PSoC4/CapSense_Structure.c ****         result = CapSense_dsRam.snsStatus[widgetId] & (1Lu << sensorId);
 527              		.loc 1 1144 0
 528 0024 0448     		ldr	r0, .L59+4
 529 0026 0419     		adds	r4, r0, r4
 530              	.LVL47:
 531 0028 0120     		movs	r0, #1
 532 002a 8840     		lsls	r0, r0, r1
 533 002c 237E     		ldrb	r3, [r4, #24]
 534 002e 1840     		ands	r0, r3
 535              	.LVL48:
 536              	.L55:
1145:Generated_Source\PSoC4/CapSense_Structure.c ****     }
1146:Generated_Source\PSoC4/CapSense_Structure.c **** 
1147:Generated_Source\PSoC4/CapSense_Structure.c ****     return result;
1148:Generated_Source\PSoC4/CapSense_Structure.c **** }
 537              		.loc 1 1148 0
 538              		@ sp needed
 539 0030 10BD     		pop	{r4, pc}
 540              	.L60:
 541 0032 C046     		.align	2
 542              	.L59:
 543 0034 00000000 		.word	.LANCHOR0
 544 0038 00000000 		.word	CapSense_dsRam
 545              		.cfi_endproc
 546              	.LFE7:
 547              		.size	CapSense_IsSensorActive, .-CapSense_IsSensorActive
 548              		.section	.text.CapSense_IsProximitySensorActive,"ax",%progbits
 549              		.align	1
 550              		.global	CapSense_IsProximitySensorActive
 551              		.code	16
 552              		.thumb_func
 553              		.type	CapSense_IsProximitySensorActive, %function
 554              	CapSense_IsProximitySensorActive:
 555              	.LFB8:
1149:Generated_Source\PSoC4/CapSense_Structure.c **** 
1150:Generated_Source\PSoC4/CapSense_Structure.c **** #if (0u != CapSense_MATRIX_WIDGET_EN)
1151:Generated_Source\PSoC4/CapSense_Structure.c **** /*******************************************************************************
1152:Generated_Source\PSoC4/CapSense_Structure.c **** * Function Name: CapSense_IsMatrixButtonsActive
1153:Generated_Source\PSoC4/CapSense_Structure.c **** ****************************************************************************//**
1154:Generated_Source\PSoC4/CapSense_Structure.c **** *
1155:Generated_Source\PSoC4/CapSense_Structure.c **** * \brief
1156:Generated_Source\PSoC4/CapSense_Structure.c **** *  Reports the status of the specified matrix button widget.
1157:Generated_Source\PSoC4/CapSense_Structure.c **** *
1158:Generated_Source\PSoC4/CapSense_Structure.c **** * \details
1159:Generated_Source\PSoC4/CapSense_Structure.c **** *  This function reports if the specified matrix widget has detected a touch or
1160:Generated_Source\PSoC4/CapSense_Structure.c **** *  not by extracting information from the wdgtStatus registers
1161:Generated_Source\PSoC4/CapSense_Structure.c **** *  (CapSense_WDGT_STATUS<X>_VALUE for the CSD widgets and
1162:Generated_Source\PSoC4/CapSense_Structure.c **** *  CapSense_SNS_STATUS<WidgetId>_VALUE for CSX widget). In addition, the
1163:Generated_Source\PSoC4/CapSense_Structure.c **** *  function provides details of the active sensor including active rows/columns
1164:Generated_Source\PSoC4/CapSense_Structure.c **** *  for the CSD widgets. This function is used only with the matrix button
1165:Generated_Source\PSoC4/CapSense_Structure.c **** *  widgets. This function does not process the widget but extracts
1166:Generated_Source\PSoC4/CapSense_Structure.c **** *  processed results from the \ref group_structures.
1167:Generated_Source\PSoC4/CapSense_Structure.c **** *
1168:Generated_Source\PSoC4/CapSense_Structure.c **** * \param widgetId
ARM GAS  C:\Users\zack.li\AppData\Local\Temp\ccYoE7wd.s 			page 32


1169:Generated_Source\PSoC4/CapSense_Structure.c **** *  Specifies the ID number of the matrix button widget to check the status of its
1170:Generated_Source\PSoC4/CapSense_Structure.c **** *  sensors.
1171:Generated_Source\PSoC4/CapSense_Structure.c **** *  A macro for the widget ID can be found in the CapSense Configuration header file
1172:Generated_Source\PSoC4/CapSense_Structure.c **** *  defined as CapSense_<WidgetName>_WDGT_ID
1173:Generated_Source\PSoC4/CapSense_Structure.c **** *
1174:Generated_Source\PSoC4/CapSense_Structure.c **** * \return
1175:Generated_Source\PSoC4/CapSense_Structure.c **** *  Returns the touch detection status of the sensors in the specified matrix
1176:Generated_Source\PSoC4/CapSense_Structure.c **** *  buttons widget. Zero indicates that no touch is detected in the specified
1177:Generated_Source\PSoC4/CapSense_Structure.c **** *  widget or a wrong widgetId is specified.
1178:Generated_Source\PSoC4/CapSense_Structure.c **** *    1. For the matrix buttons widgets with the CSD sensing mode:
1179:Generated_Source\PSoC4/CapSense_Structure.c **** *      - Bit [31] if set, indicates that one or more sensors in the widget
1180:Generated_Source\PSoC4/CapSense_Structure.c **** *        detected a touch.
1181:Generated_Source\PSoC4/CapSense_Structure.c **** *      - Bits [30..24] are reserved
1182:Generated_Source\PSoC4/CapSense_Structure.c **** *      - Bits [23..16] indicate the logical sensor number of the sensor that
1183:Generated_Source\PSoC4/CapSense_Structure.c **** *        detected a touch. If more than one sensor detected a touch for the CSD
1184:Generated_Source\PSoC4/CapSense_Structure.c **** *        widget, no status is reported because more than one touch is invalid for the
1185:Generated_Source\PSoC4/CapSense_Structure.c **** *        CSD matrix buttons widgets.
1186:Generated_Source\PSoC4/CapSense_Structure.c **** *      - Bits [15..8] indicate the active row number.
1187:Generated_Source\PSoC4/CapSense_Structure.c **** *      - Bits [7..0] indicate the active column number.
1188:Generated_Source\PSoC4/CapSense_Structure.c **** *    2. For the matrix buttons widgets with the CSX widgets, each bit (31..0)
1189:Generated_Source\PSoC4/CapSense_Structure.c **** *      corresponds to the TX/RX intersection.
1190:Generated_Source\PSoC4/CapSense_Structure.c **** *
1191:Generated_Source\PSoC4/CapSense_Structure.c **** *******************************************************************************/
1192:Generated_Source\PSoC4/CapSense_Structure.c **** uint32 CapSense_IsMatrixButtonsActive(uint32 widgetId)
1193:Generated_Source\PSoC4/CapSense_Structure.c **** {
1194:Generated_Source\PSoC4/CapSense_Structure.c ****     uint32 result = 0Lu;
1195:Generated_Source\PSoC4/CapSense_Structure.c ****     cystatus state = CYRET_SUCCESS;
1196:Generated_Source\PSoC4/CapSense_Structure.c ****     CapSense_FLASH_WD_STRUCT const *ptrFlashWdgt = 0u;
1197:Generated_Source\PSoC4/CapSense_Structure.c **** 
1198:Generated_Source\PSoC4/CapSense_Structure.c ****     #if (0u != CapSense_CSD_MATRIX_WIDGET_EN)
1199:Generated_Source\PSoC4/CapSense_Structure.c ****         CapSense_RAM_WD_CSD_MATRIX_STRUCT *wdCsdMatrix;
1200:Generated_Source\PSoC4/CapSense_Structure.c ****     #endif
1201:Generated_Source\PSoC4/CapSense_Structure.c **** 
1202:Generated_Source\PSoC4/CapSense_Structure.c ****     if (widgetId >= CapSense_TOTAL_WIDGETS)
1203:Generated_Source\PSoC4/CapSense_Structure.c ****     {
1204:Generated_Source\PSoC4/CapSense_Structure.c ****         state = CYRET_BAD_PARAM;
1205:Generated_Source\PSoC4/CapSense_Structure.c ****     }
1206:Generated_Source\PSoC4/CapSense_Structure.c ****     else
1207:Generated_Source\PSoC4/CapSense_Structure.c ****     {
1208:Generated_Source\PSoC4/CapSense_Structure.c ****         ptrFlashWdgt = &CapSense_dsFlash.wdgtArray[widgetId];
1209:Generated_Source\PSoC4/CapSense_Structure.c **** 
1210:Generated_Source\PSoC4/CapSense_Structure.c ****         if ((CapSense_WD_TYPE_ENUM)ptrFlashWdgt->wdgtType != CapSense_WD_MATRIX_BUTTON_E)
1211:Generated_Source\PSoC4/CapSense_Structure.c ****         {
1212:Generated_Source\PSoC4/CapSense_Structure.c ****             state = CYRET_BAD_PARAM;
1213:Generated_Source\PSoC4/CapSense_Structure.c ****         }
1214:Generated_Source\PSoC4/CapSense_Structure.c ****         else if (0u == CapSense_GET_WIDGET_ACTIVE_STATUS(widgetId))
1215:Generated_Source\PSoC4/CapSense_Structure.c ****         {
1216:Generated_Source\PSoC4/CapSense_Structure.c ****             state = CYRET_BAD_PARAM;
1217:Generated_Source\PSoC4/CapSense_Structure.c ****         }
1218:Generated_Source\PSoC4/CapSense_Structure.c ****         else
1219:Generated_Source\PSoC4/CapSense_Structure.c ****         {
1220:Generated_Source\PSoC4/CapSense_Structure.c ****             /* input parameters are OK */
1221:Generated_Source\PSoC4/CapSense_Structure.c ****         }
1222:Generated_Source\PSoC4/CapSense_Structure.c ****     }
1223:Generated_Source\PSoC4/CapSense_Structure.c **** 
1224:Generated_Source\PSoC4/CapSense_Structure.c ****     if (CYRET_SUCCESS == state)
1225:Generated_Source\PSoC4/CapSense_Structure.c ****     {
ARM GAS  C:\Users\zack.li\AppData\Local\Temp\ccYoE7wd.s 			page 33


1226:Generated_Source\PSoC4/CapSense_Structure.c ****         switch(CapSense_GET_SENSE_METHOD(ptrFlashWdgt))
1227:Generated_Source\PSoC4/CapSense_Structure.c ****         {
1228:Generated_Source\PSoC4/CapSense_Structure.c ****         #if (0u != CapSense_CSD_MATRIX_WIDGET_EN)
1229:Generated_Source\PSoC4/CapSense_Structure.c ****             case CapSense_SENSE_METHOD_CSD_E:
1230:Generated_Source\PSoC4/CapSense_Structure.c ****                 wdCsdMatrix = ptrFlashWdgt->ptr2WdgtRam;
1231:Generated_Source\PSoC4/CapSense_Structure.c **** 
1232:Generated_Source\PSoC4/CapSense_Structure.c ****                 result = CapSense_MATRIX_BUTTONS_TOUCHED |
1233:Generated_Source\PSoC4/CapSense_Structure.c ****                          ((uint32)wdCsdMatrix->posSnsId << 16u)  |
1234:Generated_Source\PSoC4/CapSense_Structure.c ****                          ((uint32)wdCsdMatrix->posRow   << 8u)   |
1235:Generated_Source\PSoC4/CapSense_Structure.c ****                          (uint32)wdCsdMatrix->posCol;
1236:Generated_Source\PSoC4/CapSense_Structure.c ****                 break;
1237:Generated_Source\PSoC4/CapSense_Structure.c ****         #endif /* #if (0u != CapSense_CSD_MATRIX_WIDGET_EN) */
1238:Generated_Source\PSoC4/CapSense_Structure.c **** 
1239:Generated_Source\PSoC4/CapSense_Structure.c ****         #if (0u != CapSense_CSX_MATRIX_WIDGET_EN)
1240:Generated_Source\PSoC4/CapSense_Structure.c ****             case CapSense_SENSE_METHOD_CSX_E:
1241:Generated_Source\PSoC4/CapSense_Structure.c ****                 result = CapSense_dsRam.snsStatus[widgetId];
1242:Generated_Source\PSoC4/CapSense_Structure.c ****                 break;
1243:Generated_Source\PSoC4/CapSense_Structure.c ****         #endif /* #if (0u != CapSense_CSX_MATRIX_WIDGET_EN) */
1244:Generated_Source\PSoC4/CapSense_Structure.c **** 
1245:Generated_Source\PSoC4/CapSense_Structure.c ****         default:
1246:Generated_Source\PSoC4/CapSense_Structure.c ****             CYASSERT(0u);
1247:Generated_Source\PSoC4/CapSense_Structure.c ****             break;
1248:Generated_Source\PSoC4/CapSense_Structure.c ****         }
1249:Generated_Source\PSoC4/CapSense_Structure.c ****     }
1250:Generated_Source\PSoC4/CapSense_Structure.c **** 
1251:Generated_Source\PSoC4/CapSense_Structure.c ****     return result;
1252:Generated_Source\PSoC4/CapSense_Structure.c **** }
1253:Generated_Source\PSoC4/CapSense_Structure.c **** #endif /* #if (0u != CapSense_MATRIX_WIDGET_EN) */
1254:Generated_Source\PSoC4/CapSense_Structure.c **** 
1255:Generated_Source\PSoC4/CapSense_Structure.c **** #if (0u != CapSense_PROXIMITY_WIDGET_EN)
1256:Generated_Source\PSoC4/CapSense_Structure.c **** /*******************************************************************************
1257:Generated_Source\PSoC4/CapSense_Structure.c **** * Function Name: CapSense_IsProximitySensorActive
1258:Generated_Source\PSoC4/CapSense_Structure.c **** ****************************************************************************//**
1259:Generated_Source\PSoC4/CapSense_Structure.c **** *
1260:Generated_Source\PSoC4/CapSense_Structure.c **** * \brief
1261:Generated_Source\PSoC4/CapSense_Structure.c **** *  Reports the finger detection status of the specified proximity widget/sensor.
1262:Generated_Source\PSoC4/CapSense_Structure.c **** *
1263:Generated_Source\PSoC4/CapSense_Structure.c **** * \details
1264:Generated_Source\PSoC4/CapSense_Structure.c **** *  This function reports if the specified proximity sensor has detected a touch
1265:Generated_Source\PSoC4/CapSense_Structure.c **** *  or not by extracting information from the wdgtStatus registers
1266:Generated_Source\PSoC4/CapSense_Structure.c **** *  (CapSense_SNS_STATUS<WidgetId>_VALUE). This function is used
1267:Generated_Source\PSoC4/CapSense_Structure.c **** *  only with proximity sensor widgets. This function does not process the
1268:Generated_Source\PSoC4/CapSense_Structure.c **** *  widget but extracts processed results from the \ref group_structures.
1269:Generated_Source\PSoC4/CapSense_Structure.c **** *
1270:Generated_Source\PSoC4/CapSense_Structure.c **** * \param widgetId
1271:Generated_Source\PSoC4/CapSense_Structure.c **** *  Specifies the ID number of the proximity widget.
1272:Generated_Source\PSoC4/CapSense_Structure.c **** *  A macro for the widget ID can be found in the CapSense Configuration header
1273:Generated_Source\PSoC4/CapSense_Structure.c **** *  file defined as CapSense_<WidgetName>_WDGT_ID
1274:Generated_Source\PSoC4/CapSense_Structure.c **** *
1275:Generated_Source\PSoC4/CapSense_Structure.c **** * \param proxId
1276:Generated_Source\PSoC4/CapSense_Structure.c **** *  Specifies the ID number of the proximity sensor within the proximity widget to
1277:Generated_Source\PSoC4/CapSense_Structure.c **** *  get its touch detection status.
1278:Generated_Source\PSoC4/CapSense_Structure.c **** *  A macro for the proximity ID within a specified widget can be found in the
1279:Generated_Source\PSoC4/CapSense_Structure.c **** *  CapSense Configuration header file defined as
1280:Generated_Source\PSoC4/CapSense_Structure.c **** *  CapSense_<WidgetName>_SNS<SensorNumber>_ID
1281:Generated_Source\PSoC4/CapSense_Structure.c **** *
1282:Generated_Source\PSoC4/CapSense_Structure.c **** * \return
ARM GAS  C:\Users\zack.li\AppData\Local\Temp\ccYoE7wd.s 			page 34


1283:Generated_Source\PSoC4/CapSense_Structure.c **** *  Returns the status of the specified sensor of the proximity widget. Zero
1284:Generated_Source\PSoC4/CapSense_Structure.c **** *  indicates that no touch is detected in the specified sensor / widget or a
1285:Generated_Source\PSoC4/CapSense_Structure.c **** *  wrong widgetId / proxId is specified.
1286:Generated_Source\PSoC4/CapSense_Structure.c **** *    - Bits [31..2] are reserved.
1287:Generated_Source\PSoC4/CapSense_Structure.c **** *    - Bit [1] indicates that a touch is detected.
1288:Generated_Source\PSoC4/CapSense_Structure.c **** *    - Bit [0] indicates that a proximity is detected.
1289:Generated_Source\PSoC4/CapSense_Structure.c **** *
1290:Generated_Source\PSoC4/CapSense_Structure.c **** *******************************************************************************/
1291:Generated_Source\PSoC4/CapSense_Structure.c **** uint32 CapSense_IsProximitySensorActive(uint32 widgetId, uint32 proxId)
1292:Generated_Source\PSoC4/CapSense_Structure.c **** {
 556              		.loc 1 1292 0
 557              		.cfi_startproc
 558              		@ args = 0, pretend = 0, frame = 0
 559              		@ frame_needed = 0, uses_anonymous_args = 0
 560              	.LVL49:
 561 0000 10B5     		push	{r4, lr}
 562              		.cfi_def_cfa_offset 8
 563              		.cfi_offset 4, -8
 564              		.cfi_offset 14, -4
 565              		.loc 1 1292 0
 566 0002 0400     		movs	r4, r0
1293:Generated_Source\PSoC4/CapSense_Structure.c ****     uint32 result = 0Lu;
 567              		.loc 1 1293 0
 568 0004 0020     		movs	r0, #0
 569              	.LVL50:
1294:Generated_Source\PSoC4/CapSense_Structure.c **** 
1295:Generated_Source\PSoC4/CapSense_Structure.c ****     if ((widgetId < CapSense_TOTAL_WIDGETS) && (proxId < CapSense_GET_SENSOR_COUNT(widgetId)) &&
 570              		.loc 1 1295 0
 571 0006 042C     		cmp	r4, #4
 572 0008 12D8     		bhi	.L62
 573              		.loc 1 1295 0 is_stmt 0 discriminator 1
 574 000a 1C23     		movs	r3, #28
 575 000c 6343     		muls	r3, r4
 576 000e 1A00     		movs	r2, r3
 577 0010 084B     		ldr	r3, .L66
 578 0012 5833     		adds	r3, r3, #88
 579 0014 9B18     		adds	r3, r3, r2
 580 0016 1A8B     		ldrh	r2, [r3, #24]
 581 0018 8A42     		cmp	r2, r1
 582 001a 09D9     		bls	.L62
 583              		.loc 1 1295 0 discriminator 2
 584 001c 9B7E     		ldrb	r3, [r3, #26]
 585 001e 062B     		cmp	r3, #6
 586 0020 06D1     		bne	.L62
1296:Generated_Source\PSoC4/CapSense_Structure.c ****         (CapSense_WD_PROXIMITY_E ==
1297:Generated_Source\PSoC4/CapSense_Structure.c ****             (CapSense_WD_TYPE_ENUM)CapSense_dsFlash.wdgtArray[widgetId].wdgtType))
1298:Generated_Source\PSoC4/CapSense_Structure.c ****     {
1299:Generated_Source\PSoC4/CapSense_Structure.c ****         result = CapSense_dsRam.snsStatus[widgetId];
 587              		.loc 1 1299 0 is_stmt 1
 588 0022 0548     		ldr	r0, .L66+4
1300:Generated_Source\PSoC4/CapSense_Structure.c ****         result >>= CapSense_PROX_STS_OFFSET(proxId);
 589              		.loc 1 1300 0
 590 0024 4900     		lsls	r1, r1, #1
 591              	.LVL51:
1299:Generated_Source\PSoC4/CapSense_Structure.c ****         result >>= CapSense_PROX_STS_OFFSET(proxId);
 592              		.loc 1 1299 0
 593 0026 0419     		adds	r4, r0, r4
ARM GAS  C:\Users\zack.li\AppData\Local\Temp\ccYoE7wd.s 			page 35


 594              	.LVL52:
 595 0028 207E     		ldrb	r0, [r4, #24]
 596              	.LVL53:
1301:Generated_Source\PSoC4/CapSense_Structure.c ****         result &=  CapSense_PROX_STS_MASK;
 597              		.loc 1 1301 0
 598 002a 033B     		subs	r3, r3, #3
1300:Generated_Source\PSoC4/CapSense_Structure.c ****         result >>= CapSense_PROX_STS_OFFSET(proxId);
 599              		.loc 1 1300 0
 600 002c C840     		lsrs	r0, r0, r1
 601              	.LVL54:
 602              		.loc 1 1301 0
 603 002e 1840     		ands	r0, r3
 604              	.LVL55:
 605              	.L62:
1302:Generated_Source\PSoC4/CapSense_Structure.c ****     }
1303:Generated_Source\PSoC4/CapSense_Structure.c **** 
1304:Generated_Source\PSoC4/CapSense_Structure.c ****     return result;
1305:Generated_Source\PSoC4/CapSense_Structure.c **** }
 606              		.loc 1 1305 0
 607              		@ sp needed
 608 0030 10BD     		pop	{r4, pc}
 609              	.L67:
 610 0032 C046     		.align	2
 611              	.L66:
 612 0034 00000000 		.word	.LANCHOR0
 613 0038 00000000 		.word	CapSense_dsRam
 614              		.cfi_endproc
 615              	.LFE8:
 616              		.size	CapSense_IsProximitySensorActive, .-CapSense_IsProximitySensorActive
 617              		.global	CapSense_ramIdacInit
 618              		.global	CapSense_ramWidgetInit
 619              		.global	CapSense_shieldIoList
 620              		.global	CapSense_ioList
 621              		.global	CapSense_dsFlash
 622              		.comm	CapSense_dsRam,176,4
 623              		.section	.rodata
 624              		.align	2
 625              		.set	.LANCHOR0,. + 0
 626              		.type	CapSense_ramIdacInit, %object
 627              		.size	CapSense_ramIdacInit, 5
 628              	CapSense_ramIdacInit:
 629 0000 20       		.byte	32
 630 0001 20       		.byte	32
 631 0002 20       		.byte	32
 632 0003 20       		.byte	32
 633 0004 20       		.byte	32
 634 0005 00       		.space	1
 635              		.type	CapSense_ramWidgetInit, %object
 636              		.size	CapSense_ramWidgetInit, 82
 637              	CapSense_ramWidgetInit:
 638 0006 0C00     		.short	12
 639 0008 C800     		.short	200
 640 000a 28       		.byte	40
 641 000b 28       		.byte	40
 642 000c 0A       		.byte	10
 643 000d 03       		.byte	3
 644 000e 1E       		.byte	30
ARM GAS  C:\Users\zack.li\AppData\Local\Temp\ccYoE7wd.s 			page 36


 645 000f 20       		.byte	32
 646 0010 04       		.byte	4
 647 0011 00       		.space	1
 648 0012 0800     		.short	8
 649 0014 00       		.byte	0
 650 0015 00       		.space	1
 651 0016 0C00     		.short	12
 652 0018 C800     		.short	200
 653 001a 28       		.byte	40
 654 001b 28       		.byte	40
 655 001c 0A       		.byte	10
 656 001d 03       		.byte	3
 657 001e 1E       		.byte	30
 658 001f 20       		.byte	32
 659 0020 04       		.byte	4
 660 0021 00       		.space	1
 661 0022 0800     		.short	8
 662 0024 00       		.byte	0
 663 0025 00       		.space	1
 664 0026 0C00     		.short	12
 665 0028 C800     		.short	200
 666 002a 28       		.byte	40
 667 002b 28       		.byte	40
 668 002c 0A       		.byte	10
 669 002d 03       		.byte	3
 670 002e 1E       		.byte	30
 671 002f 20       		.byte	32
 672 0030 04       		.byte	4
 673 0031 00       		.space	1
 674 0032 0800     		.short	8
 675 0034 00       		.byte	0
 676 0035 00       		.space	1
 677 0036 0C00     		.short	12
 678 0038 C800     		.short	200
 679 003a 28       		.byte	40
 680 003b 28       		.byte	40
 681 003c 0A       		.byte	10
 682 003d 03       		.byte	3
 683 003e 1E       		.byte	30
 684 003f 20       		.byte	32
 685 0040 04       		.byte	4
 686 0041 00       		.space	1
 687 0042 0800     		.short	8
 688 0044 00       		.byte	0
 689 0045 00       		.space	1
 690 0046 1000     		.short	16
 691 0048 5802     		.short	600
 692 004a 28       		.byte	40
 693 004b 28       		.byte	40
 694 004c 0F       		.byte	15
 695 004d 03       		.byte	3
 696 004e 1E       		.byte	30
 697 004f 20       		.byte	32
 698 0050 04       		.byte	4
 699 0051 00       		.space	1
 700 0052 0400     		.short	4
 701 0054 00       		.byte	0
ARM GAS  C:\Users\zack.li\AppData\Local\Temp\ccYoE7wd.s 			page 37


 702 0055 00       		.space	1
 703 0056 9001     		.short	400
 704              		.type	CapSense_dsFlash, %object
 705              		.size	CapSense_dsFlash, 140
 706              	CapSense_dsFlash:
 707 0058 00000000 		.word	CapSense_ioList
 708 005c 22000000 		.word	CapSense_dsRam+34
 709 0060 74000000 		.word	CapSense_dsRam+116
 710 0064 30000000 		.word	CapSense_fltrHistoryVOL_UP
 711 0068 41000000 		.word	CapSense_debounceVOL_UP
 712 006c 01280000 		.word	10241
 713 0070 0100     		.short	1
 714 0072 01       		.byte	1
 715 0073 01       		.byte	1
 716 0074 1C000000 		.word	CapSense_ioList+28
 717 0078 32000000 		.word	CapSense_dsRam+50
 718 007c 7E000000 		.word	CapSense_dsRam+126
 719 0080 24000000 		.word	CapSense_fltrHistoryVOL_DOWN
 720 0084 40000000 		.word	CapSense_debounceVOL_DOWN
 721 0088 01280000 		.word	10241
 722 008c 0100     		.short	1
 723 008e 01       		.byte	1
 724 008f 01       		.byte	1
 725 0090 38000000 		.word	CapSense_ioList+56
 726 0094 42000000 		.word	CapSense_dsRam+66
 727 0098 88000000 		.word	CapSense_dsRam+136
 728 009c 18000000 		.word	CapSense_fltrHistoryPLAY_PAUSE
 729 00a0 3F000000 		.word	CapSense_debouncePLAY_PAUSE
 730 00a4 01280000 		.word	10241
 731 00a8 0100     		.short	1
 732 00aa 01       		.byte	1
 733 00ab 01       		.byte	1
 734 00ac 54000000 		.word	CapSense_ioList+84
 735 00b0 52000000 		.word	CapSense_dsRam+82
 736 00b4 92000000 		.word	CapSense_dsRam+146
 737 00b8 0C000000 		.word	CapSense_fltrHistoryFORMATION
 738 00bc 3E000000 		.word	CapSense_debounceFORMATION
 739 00c0 01280000 		.word	10241
 740 00c4 0100     		.short	1
 741 00c6 01       		.byte	1
 742 00c7 01       		.byte	1
 743 00c8 70000000 		.word	CapSense_ioList+112
 744 00cc 62000000 		.word	CapSense_dsRam+98
 745 00d0 9C000000 		.word	CapSense_dsRam+156
 746 00d4 00000000 		.word	CapSense_fltrHistoryPROX
 747 00d8 3C000000 		.word	CapSense_debouncePROX
 748 00dc 01280000 		.word	10241
 749 00e0 0100     		.short	1
 750 00e2 06       		.byte	6
 751 00e3 01       		.byte	1
 752              		.type	CapSense_shieldIoList, %object
 753              		.size	CapSense_shieldIoList, 20
 754              	CapSense_shieldIoList:
 755 00e4 00020240 		.word	1073873408
 756 00e8 08020440 		.word	1074004488
 757 00ec 00020440 		.word	1074004480
 758 00f0 0000000F 		.word	251658240
ARM GAS  C:\Users\zack.li\AppData\Local\Temp\ccYoE7wd.s 			page 38


 759 00f4 18       		.byte	24
 760 00f5 06       		.byte	6
 761 00f6 12       		.byte	18
 762 00f7 00       		.space	1
 763              		.type	CapSense_ioList, %object
 764              		.size	CapSense_ioList, 140
 765              	CapSense_ioList:
 766 00f8 00020240 		.word	1073873408
 767 00fc 08020440 		.word	1074004488
 768 0100 00020440 		.word	1074004480
 769 0104 04020440 		.word	1074004484
 770 0108 000F0000 		.word	3840
 771 010c 04000000 		.word	4
 772 0110 08       		.byte	8
 773 0111 02       		.byte	2
 774 0112 06       		.byte	6
 775 0113 00       		.space	1
 776 0114 00010240 		.word	1073873152
 777 0118 08010440 		.word	1074004232
 778 011c 00010440 		.word	1074004224
 779 0120 04010440 		.word	1074004228
 780 0124 000000F0 		.word	-268435456
 781 0128 80000000 		.word	128
 782 012c 1C       		.byte	28
 783 012d 07       		.byte	7
 784 012e 15       		.byte	21
 785 012f 00       		.space	1
 786 0130 00020240 		.word	1073873408
 787 0134 08020440 		.word	1074004488
 788 0138 00020440 		.word	1074004480
 789 013c 04020440 		.word	1074004484
 790 0140 F0000000 		.word	240
 791 0144 02000000 		.word	2
 792 0148 04       		.byte	4
 793 0149 01       		.byte	1
 794 014a 03       		.byte	3
 795 014b 00       		.space	1
 796 014c 00020240 		.word	1073873408
 797 0150 08020440 		.word	1074004488
 798 0154 00020440 		.word	1074004480
 799 0158 04020440 		.word	1074004484
 800 015c 0F000000 		.word	15
 801 0160 01000000 		.word	1
 802 0164 00       		.byte	0
 803 0165 00       		.byte	0
 804 0166 00       		.byte	0
 805 0167 00       		.space	1
 806 0168 00020240 		.word	1073873408
 807 016c 08020440 		.word	1074004488
 808 0170 00020440 		.word	1074004480
 809 0174 04020440 		.word	1074004484
 810 0178 00F00000 		.word	61440
 811 017c 08000000 		.word	8
 812 0180 0C       		.byte	12
 813 0181 03       		.byte	3
 814 0182 09       		.byte	9
 815 0183 00       		.space	1
ARM GAS  C:\Users\zack.li\AppData\Local\Temp\ccYoE7wd.s 			page 39


 816              		.bss
 817              		.align	1
 818              		.type	CapSense_fltrHistoryPROX, %object
 819              		.size	CapSense_fltrHistoryPROX, 12
 820              	CapSense_fltrHistoryPROX:
 821 0000 00000000 		.space	12
 821      00000000 
 821      00000000 
 822              		.type	CapSense_fltrHistoryFORMATION, %object
 823              		.size	CapSense_fltrHistoryFORMATION, 12
 824              	CapSense_fltrHistoryFORMATION:
 825 000c 00000000 		.space	12
 825      00000000 
 825      00000000 
 826              		.type	CapSense_fltrHistoryPLAY_PAUSE, %object
 827              		.size	CapSense_fltrHistoryPLAY_PAUSE, 12
 828              	CapSense_fltrHistoryPLAY_PAUSE:
 829 0018 00000000 		.space	12
 829      00000000 
 829      00000000 
 830              		.type	CapSense_fltrHistoryVOL_DOWN, %object
 831              		.size	CapSense_fltrHistoryVOL_DOWN, 12
 832              	CapSense_fltrHistoryVOL_DOWN:
 833 0024 00000000 		.space	12
 833      00000000 
 833      00000000 
 834              		.type	CapSense_fltrHistoryVOL_UP, %object
 835              		.size	CapSense_fltrHistoryVOL_UP, 12
 836              	CapSense_fltrHistoryVOL_UP:
 837 0030 00000000 		.space	12
 837      00000000 
 837      00000000 
 838              		.type	CapSense_debouncePROX, %object
 839              		.size	CapSense_debouncePROX, 2
 840              	CapSense_debouncePROX:
 841 003c 0000     		.space	2
 842              		.type	CapSense_debounceFORMATION, %object
 843              		.size	CapSense_debounceFORMATION, 1
 844              	CapSense_debounceFORMATION:
 845 003e 00       		.space	1
 846              		.type	CapSense_debouncePLAY_PAUSE, %object
 847              		.size	CapSense_debouncePLAY_PAUSE, 1
 848              	CapSense_debouncePLAY_PAUSE:
 849 003f 00       		.space	1
 850              		.type	CapSense_debounceVOL_DOWN, %object
 851              		.size	CapSense_debounceVOL_DOWN, 1
 852              	CapSense_debounceVOL_DOWN:
 853 0040 00       		.space	1
 854              		.type	CapSense_debounceVOL_UP, %object
 855              		.size	CapSense_debounceVOL_UP, 1
 856              	CapSense_debounceVOL_UP:
 857 0041 00       		.space	1
 858              		.text
 859              	.Letext0:
 860              		.file 2 "Generated_Source\\PSoC4/cytypes.h"
 861              		.file 3 "Generated_Source\\PSoC4\\CapSense_Configuration.h"
 862              		.file 4 "Generated_Source\\PSoC4\\CapSense_Structure.h"
ARM GAS  C:\Users\zack.li\AppData\Local\Temp\ccYoE7wd.s 			page 40

