ARM GAS  C:\Users\zack.li\AppData\Local\Temp\ccTyLy6m.s 			page 1


   1              		.syntax unified
   2              		.cpu cortex-m0plus
   3              		.fpu softvfp
   4              		.eabi_attribute 20, 1
   5              		.eabi_attribute 21, 1
   6              		.eabi_attribute 23, 3
   7              		.eabi_attribute 24, 1
   8              		.eabi_attribute 25, 1
   9              		.eabi_attribute 26, 1
  10              		.eabi_attribute 30, 4
  11              		.eabi_attribute 34, 0
  12              		.eabi_attribute 18, 4
  13              		.thumb
  14              		.syntax unified
  15              		.file	"CapSense_SensingCSD_LL.c"
  16              		.text
  17              	.Ltext0:
  18              		.cfi_sections	.debug_frame
  19              		.section	.text.CapSense_SsCSDSetShieldElectrodesState,"ax",%progbits
  20              		.align	1
  21              		.global	CapSense_SsCSDSetShieldElectrodesState
  22              		.code	16
  23              		.thumb_func
  24              		.type	CapSense_SsCSDSetShieldElectrodesState, %function
  25              	CapSense_SsCSDSetShieldElectrodesState:
  26              	.LFB4:
  27              		.file 1 "Generated_Source\\PSoC4\\CapSense_SensingCSD_LL.c"
   1:Generated_Source\PSoC4/CapSense_SensingCSD_LL.c **** /***************************************************************************//**
   2:Generated_Source\PSoC4/CapSense_SensingCSD_LL.c **** * \file CapSense_SensingCSD_LL.c
   3:Generated_Source\PSoC4/CapSense_SensingCSD_LL.c **** * \version 7.0
   4:Generated_Source\PSoC4/CapSense_SensingCSD_LL.c **** *
   5:Generated_Source\PSoC4/CapSense_SensingCSD_LL.c **** * \brief
   6:Generated_Source\PSoC4/CapSense_SensingCSD_LL.c **** *   This file defines the data structure global variables and provides
   7:Generated_Source\PSoC4/CapSense_SensingCSD_LL.c **** *   implementation for the low-level APIs of the CSD part of
   8:Generated_Source\PSoC4/CapSense_SensingCSD_LL.c **** *   the Sensing module. The file contains the APIs used for the CSD block
   9:Generated_Source\PSoC4/CapSense_SensingCSD_LL.c **** *   initialization, calibration, and scanning.
  10:Generated_Source\PSoC4/CapSense_SensingCSD_LL.c **** *
  11:Generated_Source\PSoC4/CapSense_SensingCSD_LL.c **** * \see CapSense v7.0 Datasheet
  12:Generated_Source\PSoC4/CapSense_SensingCSD_LL.c **** *
  13:Generated_Source\PSoC4/CapSense_SensingCSD_LL.c **** *//*****************************************************************************
  14:Generated_Source\PSoC4/CapSense_SensingCSD_LL.c **** * Copyright (2016-2019), Cypress Semiconductor Corporation.
  15:Generated_Source\PSoC4/CapSense_SensingCSD_LL.c **** ********************************************************************************
  16:Generated_Source\PSoC4/CapSense_SensingCSD_LL.c **** * This software is owned by Cypress Semiconductor Corporation (Cypress) and is
  17:Generated_Source\PSoC4/CapSense_SensingCSD_LL.c **** * protected by and subject to worldwide patent protection (United States and
  18:Generated_Source\PSoC4/CapSense_SensingCSD_LL.c **** * foreign), United States copyright laws and international treaty provisions.
  19:Generated_Source\PSoC4/CapSense_SensingCSD_LL.c **** * Cypress hereby grants to licensee a personal, non-exclusive, non-transferable
  20:Generated_Source\PSoC4/CapSense_SensingCSD_LL.c **** * license to copy, use, modify, create derivative works of, and compile the
  21:Generated_Source\PSoC4/CapSense_SensingCSD_LL.c **** * Cypress Source Code and derivative works for the sole purpose of creating
  22:Generated_Source\PSoC4/CapSense_SensingCSD_LL.c **** * custom software in support of licensee product to be used only in conjunction
  23:Generated_Source\PSoC4/CapSense_SensingCSD_LL.c **** * with a Cypress integrated circuit as specified in the applicable agreement.
  24:Generated_Source\PSoC4/CapSense_SensingCSD_LL.c **** * Any reproduction, modification, translation, compilation, or representation of
  25:Generated_Source\PSoC4/CapSense_SensingCSD_LL.c **** * this software except as specified above is prohibited without the express
  26:Generated_Source\PSoC4/CapSense_SensingCSD_LL.c **** * written permission of Cypress.
  27:Generated_Source\PSoC4/CapSense_SensingCSD_LL.c **** *
  28:Generated_Source\PSoC4/CapSense_SensingCSD_LL.c **** * Disclaimer: CYPRESS MAKES NO WARRANTY OF ANY KIND, EXPRESS OR IMPLIED, WITH
  29:Generated_Source\PSoC4/CapSense_SensingCSD_LL.c **** * REGARD TO THIS MATERIAL, INCLUDING, BUT NOT LIMITED TO, THE IMPLIED
  30:Generated_Source\PSoC4/CapSense_SensingCSD_LL.c **** * WARRANTIES OF MERCHANTABILITY AND FITNESS FOR A PARTICULAR PURPOSE.
ARM GAS  C:\Users\zack.li\AppData\Local\Temp\ccTyLy6m.s 			page 2


  31:Generated_Source\PSoC4/CapSense_SensingCSD_LL.c **** * Cypress reserves the right to make changes without further notice to the
  32:Generated_Source\PSoC4/CapSense_SensingCSD_LL.c **** * materials described herein. Cypress does not assume any liability arising out
  33:Generated_Source\PSoC4/CapSense_SensingCSD_LL.c **** * of the application or use of any product or circuit described herein. Cypress
  34:Generated_Source\PSoC4/CapSense_SensingCSD_LL.c **** * does not authorize its products for use as critical components in life-support
  35:Generated_Source\PSoC4/CapSense_SensingCSD_LL.c **** * systems where a malfunction or failure may reasonably be expected to result in
  36:Generated_Source\PSoC4/CapSense_SensingCSD_LL.c **** * significant injury to the user. The inclusion of Cypress' product in a life-
  37:Generated_Source\PSoC4/CapSense_SensingCSD_LL.c **** * support systems application implies that the manufacturer assumes all risk of
  38:Generated_Source\PSoC4/CapSense_SensingCSD_LL.c **** * such use and in doing so indemnifies Cypress against all charges. Use may be
  39:Generated_Source\PSoC4/CapSense_SensingCSD_LL.c **** * limited by and subject to the applicable Cypress software license agreement.
  40:Generated_Source\PSoC4/CapSense_SensingCSD_LL.c **** *******************************************************************************/
  41:Generated_Source\PSoC4/CapSense_SensingCSD_LL.c **** #include "CapSense_Structure.h"
  42:Generated_Source\PSoC4/CapSense_SensingCSD_LL.c **** #include "CapSense_Configuration.h"
  43:Generated_Source\PSoC4/CapSense_SensingCSD_LL.c **** #include "CapSense_SensingCSD_LL.h"
  44:Generated_Source\PSoC4/CapSense_SensingCSD_LL.c **** #if (CapSense_ENABLE == CapSense_SELF_TEST_EN)
  45:Generated_Source\PSoC4/CapSense_SensingCSD_LL.c ****     #include "CapSense_SelfTest.h"
  46:Generated_Source\PSoC4/CapSense_SensingCSD_LL.c **** #endif
  47:Generated_Source\PSoC4/CapSense_SensingCSD_LL.c **** 
  48:Generated_Source\PSoC4/CapSense_SensingCSD_LL.c **** #include "cyapicallbacks.h"
  49:Generated_Source\PSoC4/CapSense_SensingCSD_LL.c **** 
  50:Generated_Source\PSoC4/CapSense_SensingCSD_LL.c **** #if (CapSense_ENABLE == CapSense_CSD_EN)
  51:Generated_Source\PSoC4/CapSense_SensingCSD_LL.c **** 
  52:Generated_Source\PSoC4/CapSense_SensingCSD_LL.c **** /***************************************
  53:Generated_Source\PSoC4/CapSense_SensingCSD_LL.c **** * API Constants
  54:Generated_Source\PSoC4/CapSense_SensingCSD_LL.c **** ***************************************/
  55:Generated_Source\PSoC4/CapSense_SensingCSD_LL.c **** 
  56:Generated_Source\PSoC4/CapSense_SensingCSD_LL.c **** #if (CapSense_ENABLE == CapSense_CSDV2)
  57:Generated_Source\PSoC4/CapSense_SensingCSD_LL.c **** 
  58:Generated_Source\PSoC4/CapSense_SensingCSD_LL.c ****     #if (CapSense_ENABLE == CapSense_CSD_AUTO_ZERO_EN)
  59:Generated_Source\PSoC4/CapSense_SensingCSD_LL.c ****         #define CapSense_CSD_AZ_ENABLE_CFG                  (CapSense_CSD_AZ_EN_MASK)
  60:Generated_Source\PSoC4/CapSense_SensingCSD_LL.c ****     #else
  61:Generated_Source\PSoC4/CapSense_SensingCSD_LL.c ****         #define CapSense_CSD_AZ_ENABLE_CFG                  (0uL)
  62:Generated_Source\PSoC4/CapSense_SensingCSD_LL.c ****     #endif /* (CapSense_ENABLE == CapSense_CSD_AUTO_ZERO_EN) */
  63:Generated_Source\PSoC4/CapSense_SensingCSD_LL.c **** 
  64:Generated_Source\PSoC4/CapSense_SensingCSD_LL.c ****     #if (CapSense_IDAC_SINKING == CapSense_CSD_IDAC_CONFIG)
  65:Generated_Source\PSoC4/CapSense_SensingCSD_LL.c ****         #define CapSense_HSCMP_SCAN_MASK                    (CapSense_HSCMP_EN_MASK | CapSense_CSD_
  66:Generated_Source\PSoC4/CapSense_SensingCSD_LL.c ****                                                                      CapSense_HSCMP_INVERT_MASK)
  67:Generated_Source\PSoC4/CapSense_SensingCSD_LL.c ****     #else
  68:Generated_Source\PSoC4/CapSense_SensingCSD_LL.c ****         #define CapSense_HSCMP_SCAN_MASK                    (CapSense_HSCMP_EN_MASK | CapSense_CSD_
  69:Generated_Source\PSoC4/CapSense_SensingCSD_LL.c ****     #endif /* (CapSense_IDAC_SINKING == CapSense_CSD_IDAC_CONFIG) */
  70:Generated_Source\PSoC4/CapSense_SensingCSD_LL.c **** 
  71:Generated_Source\PSoC4/CapSense_SensingCSD_LL.c ****     #define CapSense_HSCMP_INIT_MASK                        (CapSense_HSCMP_EN_MASK | CapSense_CSD_
  72:Generated_Source\PSoC4/CapSense_SensingCSD_LL.c **** 
  73:Generated_Source\PSoC4/CapSense_SensingCSD_LL.c ****     #define CapSense_DEFAULT_SW_SHIELD_SEL                  (0x00000000uL)
  74:Generated_Source\PSoC4/CapSense_SensingCSD_LL.c ****     #define CapSense_DEFAULT_CSD_SW_DSI_SEL                 (CapSense_SW_DSI_SEL_CMODPAD | CapSense
  75:Generated_Source\PSoC4/CapSense_SensingCSD_LL.c ****     #define CapSense_DEFAULT_CSD_INTR_SET                   (0x00000000uL)
  76:Generated_Source\PSoC4/CapSense_SensingCSD_LL.c ****     #define CapSense_DEFAULT_SW_HS_P_SEL                    (0x00000000uL)
  77:Generated_Source\PSoC4/CapSense_SensingCSD_LL.c ****     #define CapSense_DEFAULT_SW_HS_N_SEL                    (0x00000000uL)
  78:Generated_Source\PSoC4/CapSense_SensingCSD_LL.c ****     #define CapSense_DEFAULT_CSD_SW_FW_TANK_SEL             (0x00000000uL)
  79:Generated_Source\PSoC4/CapSense_SensingCSD_LL.c ****     #define CapSense_DEFAULT_CSD_ADC_CTL                    (0x00000000uL)
  80:Generated_Source\PSoC4/CapSense_SensingCSD_LL.c ****     #define CapSense_DEFAULT_HSCMP_CFG                      (0x00000000uL)
  81:Generated_Source\PSoC4/CapSense_SensingCSD_LL.c **** 
  82:Generated_Source\PSoC4/CapSense_SensingCSD_LL.c ****     /* CY_ID285392 */
  83:Generated_Source\PSoC4/CapSense_SensingCSD_LL.c ****     #define CapSense_FILTER_DELAY_MAX                   (CapSense_CONFIG_FILTER_DELAY_4_CYCLES)
  84:Generated_Source\PSoC4/CapSense_SensingCSD_LL.c ****     #define CapSense_EXTRA_COUNTS_MAX                   (CapSense_FILTER_DELAY_MAX + 5u + 20u)
  85:Generated_Source\PSoC4/CapSense_SensingCSD_LL.c **** 
  86:Generated_Source\PSoC4/CapSense_SensingCSD_LL.c **** #else
  87:Generated_Source\PSoC4/CapSense_SensingCSD_LL.c **** 
ARM GAS  C:\Users\zack.li\AppData\Local\Temp\ccTyLy6m.s 			page 3


  88:Generated_Source\PSoC4/CapSense_SensingCSD_LL.c ****     /* Set IDAC ranges */
  89:Generated_Source\PSoC4/CapSense_SensingCSD_LL.c ****     #if (CapSense_IDAC_GAIN_8X == CapSense_CSD_IDAC_GAIN)
  90:Generated_Source\PSoC4/CapSense_SensingCSD_LL.c ****         #define CapSense_DEFAULT_IDAC_MOD_RANGE         (CapSense_IDAC_MOD_RANGE_MASK)
  91:Generated_Source\PSoC4/CapSense_SensingCSD_LL.c ****         #define CapSense_DEFAULT_IDAC_COMP_RANGE        (CapSense_IDAC_COMP_RANGE_MASK)
  92:Generated_Source\PSoC4/CapSense_SensingCSD_LL.c ****     #else
  93:Generated_Source\PSoC4/CapSense_SensingCSD_LL.c ****         #define CapSense_DEFAULT_IDAC_MOD_RANGE         (0u)
  94:Generated_Source\PSoC4/CapSense_SensingCSD_LL.c ****         #define CapSense_DEFAULT_IDAC_COMP_RANGE        (0u)
  95:Generated_Source\PSoC4/CapSense_SensingCSD_LL.c ****     #endif /* (CapSense_IDAC_GAIN_8X == CapSense_CSD_IDAC_GAIN) */
  96:Generated_Source\PSoC4/CapSense_SensingCSD_LL.c **** 
  97:Generated_Source\PSoC4/CapSense_SensingCSD_LL.c ****     /* Defining default IDACs configuration according to settings in customizer. */
  98:Generated_Source\PSoC4/CapSense_SensingCSD_LL.c ****     #if (CapSense_ENABLE == CapSense_CSD_IDAC_COMP_EN)
  99:Generated_Source\PSoC4/CapSense_SensingCSD_LL.c ****         #define CapSense_DEFAULT_CSD_IDAC_CONFIG        (CapSense_IDAC_MOD_MODE_VARIABLE |\
 100:Generated_Source\PSoC4/CapSense_SensingCSD_LL.c ****                                                                  CapSense_IDAC_COMP_MODE_FIXED |\
 101:Generated_Source\PSoC4/CapSense_SensingCSD_LL.c ****                                                                  CapSense_DEFAULT_IDAC_MOD_RANGE |\
 102:Generated_Source\PSoC4/CapSense_SensingCSD_LL.c ****                                                                  CapSense_DEFAULT_IDAC_COMP_RANGE)
 103:Generated_Source\PSoC4/CapSense_SensingCSD_LL.c ****     #else
 104:Generated_Source\PSoC4/CapSense_SensingCSD_LL.c ****         #define CapSense_DEFAULT_CSD_IDAC_CONFIG        (CapSense_IDAC_MOD_MODE_VARIABLE |\
 105:Generated_Source\PSoC4/CapSense_SensingCSD_LL.c ****                                                                  CapSense_DEFAULT_IDAC_MOD_RANGE)
 106:Generated_Source\PSoC4/CapSense_SensingCSD_LL.c ****     #endif /* (CapSense_ENABLE == CapSense_CSD_IDAC_COMP_EN) */
 107:Generated_Source\PSoC4/CapSense_SensingCSD_LL.c **** 
 108:Generated_Source\PSoC4/CapSense_SensingCSD_LL.c **** #endif /* (CapSense_ENABLE == CapSense_CSDV2) */
 109:Generated_Source\PSoC4/CapSense_SensingCSD_LL.c **** 
 110:Generated_Source\PSoC4/CapSense_SensingCSD_LL.c **** 
 111:Generated_Source\PSoC4/CapSense_SensingCSD_LL.c **** /***************************************
 112:Generated_Source\PSoC4/CapSense_SensingCSD_LL.c **** * Variables
 113:Generated_Source\PSoC4/CapSense_SensingCSD_LL.c **** ***************************************/
 114:Generated_Source\PSoC4/CapSense_SensingCSD_LL.c **** 
 115:Generated_Source\PSoC4/CapSense_SensingCSD_LL.c **** #if (CapSense_ENABLE == CapSense_CSDV2)
 116:Generated_Source\PSoC4/CapSense_SensingCSD_LL.c ****     uint32 CapSense_configCsd = CapSense_DEFAULT_CSD_CONFIG;
 117:Generated_Source\PSoC4/CapSense_SensingCSD_LL.c **** #else
 118:Generated_Source\PSoC4/CapSense_SensingCSD_LL.c ****     uint32 CapSense_configCsd = CapSense_DEFAULT_CSD_CONFIG | CapSense_DEFAULT_MODULATION_MODE;
 119:Generated_Source\PSoC4/CapSense_SensingCSD_LL.c ****     static uint32 CapSense_counterResolution = CapSense_CNT_RESOLUTION_12_BITS;
 120:Generated_Source\PSoC4/CapSense_SensingCSD_LL.c **** #endif /* (CapSense_ENABLE == CapSense_CSDV2) */
 121:Generated_Source\PSoC4/CapSense_SensingCSD_LL.c **** 
 122:Generated_Source\PSoC4/CapSense_SensingCSD_LL.c **** /* Flag to indicate electrodes that were connected previously */
 123:Generated_Source\PSoC4/CapSense_SensingCSD_LL.c **** static uint8 CapSense_eleCsdDisconnectFlag = 0u;
 124:Generated_Source\PSoC4/CapSense_SensingCSD_LL.c **** #if ((CapSense_ENABLE == CapSense_CSDV2) && (CapSense_ENABLE == CapSense_CSD_NOISE_METRIC_EN))
 125:Generated_Source\PSoC4/CapSense_SensingCSD_LL.c ****     /* Number of re-samplings when the bad conversion occurs */
 126:Generated_Source\PSoC4/CapSense_SensingCSD_LL.c ****     uint8 CapSense_badConversionsNum = CapSense_BAD_CONVERSIONS_NUM;
 127:Generated_Source\PSoC4/CapSense_SensingCSD_LL.c **** #endif /* ((CapSense_ENABLE == CapSense_CSDV2) && (CapSense_ENABLE == CapSense_CSD_NOISE_METRIC_EN)
 128:Generated_Source\PSoC4/CapSense_SensingCSD_LL.c **** 
 129:Generated_Source\PSoC4/CapSense_SensingCSD_LL.c **** 
 130:Generated_Source\PSoC4/CapSense_SensingCSD_LL.c **** /*******************************************************************************
 131:Generated_Source\PSoC4/CapSense_SensingCSD_LL.c **** * Static Function Prototypes
 132:Generated_Source\PSoC4/CapSense_SensingCSD_LL.c **** *******************************************************************************/
 133:Generated_Source\PSoC4/CapSense_SensingCSD_LL.c **** 
 134:Generated_Source\PSoC4/CapSense_SensingCSD_LL.c **** /**
 135:Generated_Source\PSoC4/CapSense_SensingCSD_LL.c **** * \cond SECTION_C_INTERNAL
 136:Generated_Source\PSoC4/CapSense_SensingCSD_LL.c **** * \addtogroup group_c_internal
 137:Generated_Source\PSoC4/CapSense_SensingCSD_LL.c **** * \{
 138:Generated_Source\PSoC4/CapSense_SensingCSD_LL.c **** */
 139:Generated_Source\PSoC4/CapSense_SensingCSD_LL.c **** 
 140:Generated_Source\PSoC4/CapSense_SensingCSD_LL.c **** #if (CapSense_ENABLE == CapSense_CSD_SHIELD_EN)
 141:Generated_Source\PSoC4/CapSense_SensingCSD_LL.c ****     static void CapSense_SsSetShieldDelay(uint32 delay);
 142:Generated_Source\PSoC4/CapSense_SensingCSD_LL.c ****     #if (CapSense_ENABLE == CapSense_CSD_SHIELD_TANK_EN)
 143:Generated_Source\PSoC4/CapSense_SensingCSD_LL.c ****         static void CapSense_SsCSDEnableShieldTank(void);
 144:Generated_Source\PSoC4/CapSense_SensingCSD_LL.c ****     #endif /* (CapSense_ENABLE == CapSense_CSD_SHIELD_TANK_EN) */
ARM GAS  C:\Users\zack.li\AppData\Local\Temp\ccTyLy6m.s 			page 4


 145:Generated_Source\PSoC4/CapSense_SensingCSD_LL.c **** #endif /* (CapSense_ENABLE == CapSense_CSD_SHIELD_EN) */
 146:Generated_Source\PSoC4/CapSense_SensingCSD_LL.c **** 
 147:Generated_Source\PSoC4/CapSense_SensingCSD_LL.c **** #if ((CapSense_CSD_SS_DIS != CapSense_CSD_AUTOTUNE) || \
 148:Generated_Source\PSoC4/CapSense_SensingCSD_LL.c ****      (CapSense_ENABLE == CapSense_CSD_IDAC_AUTOCAL_EN))
 149:Generated_Source\PSoC4/CapSense_SensingCSD_LL.c ****     static cystatus CapSense_SsCSDCalibrateCheck(uint32 widgetId, uint32 target);
 150:Generated_Source\PSoC4/CapSense_SensingCSD_LL.c ****     static void CapSense_SsCSDCalibrate(uint32 widgetId, uint32 target);
 151:Generated_Source\PSoC4/CapSense_SensingCSD_LL.c ****     #if (CapSense_ENABLE == CapSense_CSD_IDAC_COMP_EN)
 152:Generated_Source\PSoC4/CapSense_SensingCSD_LL.c ****         static void CapSense_SsCSDNormalizeIdac(CapSense_FLASH_WD_STRUCT const *ptrFlashWidget, uin
 153:Generated_Source\PSoC4/CapSense_SensingCSD_LL.c ****     #endif
 154:Generated_Source\PSoC4/CapSense_SensingCSD_LL.c ****     #if (CapSense_ENABLE == CapSense_CSD_IDAC_AUTO_GAIN_EN)
 155:Generated_Source\PSoC4/CapSense_SensingCSD_LL.c ****         static uint32 CapSense_SsCSDSwitchIdacGain(CapSense_FLASH_WD_STRUCT const *ptrFlashWidget);
 156:Generated_Source\PSoC4/CapSense_SensingCSD_LL.c ****     #endif
 157:Generated_Source\PSoC4/CapSense_SensingCSD_LL.c **** #endif /* ((CapSense_CSD_SS_DIS != CapSense_CSD_AUTOTUNE) || \
 158:Generated_Source\PSoC4/CapSense_SensingCSD_LL.c ****            (CapSense_ENABLE == CapSense_CSD_IDAC_AUTOCAL_EN))  */
 159:Generated_Source\PSoC4/CapSense_SensingCSD_LL.c **** 
 160:Generated_Source\PSoC4/CapSense_SensingCSD_LL.c **** #if (CapSense_ENABLE == CapSense_CSDV2)
 161:Generated_Source\PSoC4/CapSense_SensingCSD_LL.c ****     static void CapSense_SsCSDSetFilterDelay(void);
 162:Generated_Source\PSoC4/CapSense_SensingCSD_LL.c **** #else
 163:Generated_Source\PSoC4/CapSense_SensingCSD_LL.c ****     CY_INLINE static void CapSense_SsCSDClockRestart(void);
 164:Generated_Source\PSoC4/CapSense_SensingCSD_LL.c **** #endif /* (CapSense_ENABLE == CapSense_CSDV2) */
 165:Generated_Source\PSoC4/CapSense_SensingCSD_LL.c **** CY_INLINE static void CapSense_SsCSDCmodPrecharge(void);
 166:Generated_Source\PSoC4/CapSense_SensingCSD_LL.c **** CY_INLINE static void CapSense_SsCSDTriggerScan(void);
 167:Generated_Source\PSoC4/CapSense_SensingCSD_LL.c **** static void CapSense_SsCSDConfigIDACs(void);
 168:Generated_Source\PSoC4/CapSense_SensingCSD_LL.c **** static void CapSense_SsCSDSetModeSnsClockDivider(uint32 snsClkSource, uint32 snsClkDivider);
 169:Generated_Source\PSoC4/CapSense_SensingCSD_LL.c **** 
 170:Generated_Source\PSoC4/CapSense_SensingCSD_LL.c **** /** \}
 171:Generated_Source\PSoC4/CapSense_SensingCSD_LL.c **** * \endcond */
 172:Generated_Source\PSoC4/CapSense_SensingCSD_LL.c **** 
 173:Generated_Source\PSoC4/CapSense_SensingCSD_LL.c **** 
 174:Generated_Source\PSoC4/CapSense_SensingCSD_LL.c **** #if (CapSense_ENABLE == CapSense_CSD_SHIELD_EN)
 175:Generated_Source\PSoC4/CapSense_SensingCSD_LL.c ****     /*******************************************************************************
 176:Generated_Source\PSoC4/CapSense_SensingCSD_LL.c ****     * Function Name: CapSense_SsSetShieldDelay
 177:Generated_Source\PSoC4/CapSense_SensingCSD_LL.c ****     ****************************************************************************//**
 178:Generated_Source\PSoC4/CapSense_SensingCSD_LL.c ****     *
 179:Generated_Source\PSoC4/CapSense_SensingCSD_LL.c ****     * \brief
 180:Generated_Source\PSoC4/CapSense_SensingCSD_LL.c ****     *   This is an internal function that sets a shield delay.
 181:Generated_Source\PSoC4/CapSense_SensingCSD_LL.c ****     *
 182:Generated_Source\PSoC4/CapSense_SensingCSD_LL.c ****     * \details
 183:Generated_Source\PSoC4/CapSense_SensingCSD_LL.c ****     *   The function updates the CSD configuration register bits that define the shield
 184:Generated_Source\PSoC4/CapSense_SensingCSD_LL.c ****     *   signal delay relatively to the sense signal.
 185:Generated_Source\PSoC4/CapSense_SensingCSD_LL.c ****     *
 186:Generated_Source\PSoC4/CapSense_SensingCSD_LL.c ****     * \param delay
 187:Generated_Source\PSoC4/CapSense_SensingCSD_LL.c ****     *   Specifies the shield delay value:
 188:Generated_Source\PSoC4/CapSense_SensingCSD_LL.c ****     *    PSoC 4100/4200 value interpretation:
 189:Generated_Source\PSoC4/CapSense_SensingCSD_LL.c ****     *         0 - no delay
 190:Generated_Source\PSoC4/CapSense_SensingCSD_LL.c ****     *         1 - 1 cycle of HFCLK
 191:Generated_Source\PSoC4/CapSense_SensingCSD_LL.c ****     *         2 - 2 cycles of HFCLK
 192:Generated_Source\PSoC4/CapSense_SensingCSD_LL.c ****     *    Third-generation HW block (except 4100/4200 devices):
 193:Generated_Source\PSoC4/CapSense_SensingCSD_LL.c ****     *         0 - no delay
 194:Generated_Source\PSoC4/CapSense_SensingCSD_LL.c ****     *         3 - 10ns delay
 195:Generated_Source\PSoC4/CapSense_SensingCSD_LL.c ****     *         2 - 50ns delay
 196:Generated_Source\PSoC4/CapSense_SensingCSD_LL.c ****     *    Fourth-generation HW block:
 197:Generated_Source\PSoC4/CapSense_SensingCSD_LL.c ****     *         0 - no delay
 198:Generated_Source\PSoC4/CapSense_SensingCSD_LL.c ****     *         1 - 5ns delay
 199:Generated_Source\PSoC4/CapSense_SensingCSD_LL.c ****     *         2 - 10ns delay
 200:Generated_Source\PSoC4/CapSense_SensingCSD_LL.c ****     *         3 - 20ns delay
 201:Generated_Source\PSoC4/CapSense_SensingCSD_LL.c ****     *
ARM GAS  C:\Users\zack.li\AppData\Local\Temp\ccTyLy6m.s 			page 5


 202:Generated_Source\PSoC4/CapSense_SensingCSD_LL.c ****     *******************************************************************************/
 203:Generated_Source\PSoC4/CapSense_SensingCSD_LL.c ****     static void CapSense_SsSetShieldDelay(uint32 delay)
 204:Generated_Source\PSoC4/CapSense_SensingCSD_LL.c ****     {
 205:Generated_Source\PSoC4/CapSense_SensingCSD_LL.c ****         /* Update CSD config register shield delay bits with shield delay value */
 206:Generated_Source\PSoC4/CapSense_SensingCSD_LL.c ****         CapSense_configCsd &= (uint32)(~CapSense_CONFIG_SHIELD_DELAY_MASK);
 207:Generated_Source\PSoC4/CapSense_SensingCSD_LL.c ****         CapSense_configCsd |= (delay << CapSense_SHIELD_DELAY_SHIFT);
 208:Generated_Source\PSoC4/CapSense_SensingCSD_LL.c ****     }
 209:Generated_Source\PSoC4/CapSense_SensingCSD_LL.c **** 
 210:Generated_Source\PSoC4/CapSense_SensingCSD_LL.c ****     #if (CapSense_ENABLE == CapSense_CSD_SHIELD_TANK_EN)
 211:Generated_Source\PSoC4/CapSense_SensingCSD_LL.c ****         /*******************************************************************************
 212:Generated_Source\PSoC4/CapSense_SensingCSD_LL.c ****         * Function Name: CapSense_SsCSDEnableShieldTank
 213:Generated_Source\PSoC4/CapSense_SensingCSD_LL.c ****         ****************************************************************************//**
 214:Generated_Source\PSoC4/CapSense_SensingCSD_LL.c ****         *
 215:Generated_Source\PSoC4/CapSense_SensingCSD_LL.c ****         * \brief
 216:Generated_Source\PSoC4/CapSense_SensingCSD_LL.c ****         *   This function configures Csh pin
 217:Generated_Source\PSoC4/CapSense_SensingCSD_LL.c ****         *
 218:Generated_Source\PSoC4/CapSense_SensingCSD_LL.c ****         * \details
 219:Generated_Source\PSoC4/CapSense_SensingCSD_LL.c ****         *   The function updates the CSH_HSIOM register to connect Csh to AMUXBUS-B.
 220:Generated_Source\PSoC4/CapSense_SensingCSD_LL.c ****         *   For Third-generation HW block it additionally sets Strong drive mode for Csh
 221:Generated_Source\PSoC4/CapSense_SensingCSD_LL.c ****         *   and applies High level to Csh pin when precharge is set to IO buffer.
 222:Generated_Source\PSoC4/CapSense_SensingCSD_LL.c ****         *
 223:Generated_Source\PSoC4/CapSense_SensingCSD_LL.c ****         *******************************************************************************/
 224:Generated_Source\PSoC4/CapSense_SensingCSD_LL.c ****         static void CapSense_SsCSDEnableShieldTank(void)
 225:Generated_Source\PSoC4/CapSense_SensingCSD_LL.c ****         {
 226:Generated_Source\PSoC4/CapSense_SensingCSD_LL.c ****             /* Update the CSH_HSIOM register to connect Csh to AMUXBUS-B */
 227:Generated_Source\PSoC4/CapSense_SensingCSD_LL.c ****             CapSense_WriteBitsSafe(CapSense_CSH_HSIOM_PTR, CapSense_CSH_HSIOM_MASK,
 228:Generated_Source\PSoC4/CapSense_SensingCSD_LL.c ****                         (uint32)(CapSense_HSIOM_SEL_AMUXB << CapSense_CSH_HSIOM_SHIFT));
 229:Generated_Source\PSoC4/CapSense_SensingCSD_LL.c **** 
 230:Generated_Source\PSoC4/CapSense_SensingCSD_LL.c ****             #if ((CapSense_CSH_PRECHARGE_IO_BUF == CapSense_CSD_CSH_PRECHARGE_SRC) &&\
 231:Generated_Source\PSoC4/CapSense_SensingCSD_LL.c ****                  (CapSense_DISABLE == CapSense_CSDV2))
 232:Generated_Source\PSoC4/CapSense_SensingCSD_LL.c ****                 /* Set Strong drive mode for Csh */
 233:Generated_Source\PSoC4/CapSense_SensingCSD_LL.c ****                 CapSense_WriteBitsSafe(CapSense_CSH_PC_PTR,
 234:Generated_Source\PSoC4/CapSense_SensingCSD_LL.c ****                             (uint32)(CapSense_CSH_PC_MASK << CapSense_CSH_PC_SHIFT),
 235:Generated_Source\PSoC4/CapSense_SensingCSD_LL.c ****                             (uint32)(CapSense_CSH_PC_STRONG_MODE << CapSense_CSH_PC_SHIFT));
 236:Generated_Source\PSoC4/CapSense_SensingCSD_LL.c ****                 /* Appliy High level to Csh pin for Csh */
 237:Generated_Source\PSoC4/CapSense_SensingCSD_LL.c ****                 CapSense_WriteBitsSafe(CapSense_CSH_DR_PTR, (uint32)(CapSense_DR_MASK << CapSense_C
 238:Generated_Source\PSoC4/CapSense_SensingCSD_LL.c ****             #else
 239:Generated_Source\PSoC4/CapSense_SensingCSD_LL.c ****                 /* Set output port register to 0 to connect to GND */
 240:Generated_Source\PSoC4/CapSense_SensingCSD_LL.c ****                 CapSense_WriteBitsSafe(CapSense_CSH_DR_PTR, (uint32)(CapSense_DR_MASK << CapSense_C
 241:Generated_Source\PSoC4/CapSense_SensingCSD_LL.c ****             #endif
 242:Generated_Source\PSoC4/CapSense_SensingCSD_LL.c ****         }
 243:Generated_Source\PSoC4/CapSense_SensingCSD_LL.c ****     #endif /* (CapSense_ENABLE == CapSense_CSD_SHIELD_TANK_EN) */
 244:Generated_Source\PSoC4/CapSense_SensingCSD_LL.c **** 
 245:Generated_Source\PSoC4/CapSense_SensingCSD_LL.c ****     #if (0u != CapSense_CSD_TOTAL_SHIELD_COUNT)
 246:Generated_Source\PSoC4/CapSense_SensingCSD_LL.c ****         /*******************************************************************************
 247:Generated_Source\PSoC4/CapSense_SensingCSD_LL.c ****         * Function Name: CapSense_SsCSDEnableShieldElectrodes
 248:Generated_Source\PSoC4/CapSense_SensingCSD_LL.c ****         ****************************************************************************//**
 249:Generated_Source\PSoC4/CapSense_SensingCSD_LL.c ****         *
 250:Generated_Source\PSoC4/CapSense_SensingCSD_LL.c ****         * \brief
 251:Generated_Source\PSoC4/CapSense_SensingCSD_LL.c ****         *   This internal function initializes Shield Electrodes.
 252:Generated_Source\PSoC4/CapSense_SensingCSD_LL.c ****         *
 253:Generated_Source\PSoC4/CapSense_SensingCSD_LL.c ****         * \details
 254:Generated_Source\PSoC4/CapSense_SensingCSD_LL.c ****         *   The function sets the bit in the HSIOM register which enables the shield electrode
 255:Generated_Source\PSoC4/CapSense_SensingCSD_LL.c ****         *   functionality on the pin. The port and pin configurations are stored in
 256:Generated_Source\PSoC4/CapSense_SensingCSD_LL.c ****         *   the CapSense_shieldIoList structure.
 257:Generated_Source\PSoC4/CapSense_SensingCSD_LL.c ****         *
 258:Generated_Source\PSoC4/CapSense_SensingCSD_LL.c ****         *******************************************************************************/
ARM GAS  C:\Users\zack.li\AppData\Local\Temp\ccTyLy6m.s 			page 6


 259:Generated_Source\PSoC4/CapSense_SensingCSD_LL.c ****         void CapSense_SsCSDEnableShieldElectrodes(void)
 260:Generated_Source\PSoC4/CapSense_SensingCSD_LL.c ****         {
 261:Generated_Source\PSoC4/CapSense_SensingCSD_LL.c ****             CapSense_SsCSDSetShieldElectrodesState(CapSense_SNS_CONNECTION_SHIELD);
 262:Generated_Source\PSoC4/CapSense_SensingCSD_LL.c ****         }
 263:Generated_Source\PSoC4/CapSense_SensingCSD_LL.c **** 
 264:Generated_Source\PSoC4/CapSense_SensingCSD_LL.c **** 
 265:Generated_Source\PSoC4/CapSense_SensingCSD_LL.c ****         /*******************************************************************************
 266:Generated_Source\PSoC4/CapSense_SensingCSD_LL.c ****         * Function Name: CapSense_SsCSDDisableShieldElectrodes
 267:Generated_Source\PSoC4/CapSense_SensingCSD_LL.c ****         ****************************************************************************//**
 268:Generated_Source\PSoC4/CapSense_SensingCSD_LL.c ****         *
 269:Generated_Source\PSoC4/CapSense_SensingCSD_LL.c ****         * \brief
 270:Generated_Source\PSoC4/CapSense_SensingCSD_LL.c ****         *   This internal function disables Shield Electrodes.
 271:Generated_Source\PSoC4/CapSense_SensingCSD_LL.c ****         *
 272:Generated_Source\PSoC4/CapSense_SensingCSD_LL.c ****         * \details
 273:Generated_Source\PSoC4/CapSense_SensingCSD_LL.c ****         *   The function resets the bit in the HSIOM register which disables the shield
 274:Generated_Source\PSoC4/CapSense_SensingCSD_LL.c ****         *   electrode functionality on the pin. The port and pin configurations are
 275:Generated_Source\PSoC4/CapSense_SensingCSD_LL.c ****         *   stored in  the CapSense_shieldIoList structure.
 276:Generated_Source\PSoC4/CapSense_SensingCSD_LL.c ****         *
 277:Generated_Source\PSoC4/CapSense_SensingCSD_LL.c ****         *******************************************************************************/
 278:Generated_Source\PSoC4/CapSense_SensingCSD_LL.c ****         void CapSense_SsCSDDisableShieldElectrodes(void)
 279:Generated_Source\PSoC4/CapSense_SensingCSD_LL.c ****         {
 280:Generated_Source\PSoC4/CapSense_SensingCSD_LL.c ****             CapSense_SsCSDSetShieldElectrodesState(CapSense_SNS_CONNECTION_GROUND);
 281:Generated_Source\PSoC4/CapSense_SensingCSD_LL.c ****         }
 282:Generated_Source\PSoC4/CapSense_SensingCSD_LL.c **** 
 283:Generated_Source\PSoC4/CapSense_SensingCSD_LL.c **** 
 284:Generated_Source\PSoC4/CapSense_SensingCSD_LL.c ****         /*******************************************************************************
 285:Generated_Source\PSoC4/CapSense_SensingCSD_LL.c ****         * Function Name: CapSense_SsCSDSetShieldElectrodesState
 286:Generated_Source\PSoC4/CapSense_SensingCSD_LL.c ****         ****************************************************************************//**
 287:Generated_Source\PSoC4/CapSense_SensingCSD_LL.c ****         *
 288:Generated_Source\PSoC4/CapSense_SensingCSD_LL.c ****         * \brief
 289:Generated_Source\PSoC4/CapSense_SensingCSD_LL.c ****         *   Sets specified shield electrode pin connection state for all dedicated
 290:Generated_Source\PSoC4/CapSense_SensingCSD_LL.c ****         *   shield electrodes.
 291:Generated_Source\PSoC4/CapSense_SensingCSD_LL.c ****         *
 292:Generated_Source\PSoC4/CapSense_SensingCSD_LL.c ****         * \details
 293:Generated_Source\PSoC4/CapSense_SensingCSD_LL.c ****         *   The function updates following registers for each shield
 294:Generated_Source\PSoC4/CapSense_SensingCSD_LL.c ****         *   electrode:
 295:Generated_Source\PSoC4/CapSense_SensingCSD_LL.c ****         *   - port configuration register
 296:Generated_Source\PSoC4/CapSense_SensingCSD_LL.c ****         *   - pin data register
 297:Generated_Source\PSoC4/CapSense_SensingCSD_LL.c ****         *   - pin HSIOM register
 298:Generated_Source\PSoC4/CapSense_SensingCSD_LL.c ****         *   The shield electrodes port and pin configuration registers addresses are
 299:Generated_Source\PSoC4/CapSense_SensingCSD_LL.c ****         *   stored in the CapSense_shieldIoList structure.
 300:Generated_Source\PSoC4/CapSense_SensingCSD_LL.c ****         *
 301:Generated_Source\PSoC4/CapSense_SensingCSD_LL.c ****         * \param state
 302:Generated_Source\PSoC4/CapSense_SensingCSD_LL.c ****         *   A new state of the shield electrodes. Available values:
 303:Generated_Source\PSoC4/CapSense_SensingCSD_LL.c ****         *   - CapSense_SNS_CONNECTION_GROUND - disconnects electrode from
 304:Generated_Source\PSoC4/CapSense_SensingCSD_LL.c ****         *       CSD hardware block and sets it to GPIO mode with Strong Drive
 305:Generated_Source\PSoC4/CapSense_SensingCSD_LL.c ****         *   - CapSense_SNS_CONNECTION_HIGHZ - disconnects electrode from
 306:Generated_Source\PSoC4/CapSense_SensingCSD_LL.c ****         *       CSD hardware block and sets it to GPIO mode with Analog Hi-Z
 307:Generated_Source\PSoC4/CapSense_SensingCSD_LL.c ****         *   - CapSense_SNS_CONNECTION_SHIELD - connects electrode to
 308:Generated_Source\PSoC4/CapSense_SensingCSD_LL.c ****         *       CSD hardware block
 309:Generated_Source\PSoC4/CapSense_SensingCSD_LL.c ****         *   - CapSense_SNS_CONNECTION_UNDEFINED - sets the same electrode
 310:Generated_Source\PSoC4/CapSense_SensingCSD_LL.c ****         *       connection as for CapSense_SNS_CONNECTION_GROUND
 311:Generated_Source\PSoC4/CapSense_SensingCSD_LL.c ****         *
 312:Generated_Source\PSoC4/CapSense_SensingCSD_LL.c ****         *******************************************************************************/
 313:Generated_Source\PSoC4/CapSense_SensingCSD_LL.c ****         void CapSense_SsCSDSetShieldElectrodesState(uint32 state)
 314:Generated_Source\PSoC4/CapSense_SensingCSD_LL.c ****         {
  28              		.loc 1 314 0
ARM GAS  C:\Users\zack.li\AppData\Local\Temp\ccTyLy6m.s 			page 7


  29              		.cfi_startproc
  30              		@ args = 0, pretend = 0, frame = 8
  31              		@ frame_needed = 0, uses_anonymous_args = 0
  32              	.LVL0:
  33 0000 F7B5     		push	{r0, r1, r2, r4, r5, r6, r7, lr}
  34              		.cfi_def_cfa_offset 32
  35              		.cfi_offset 0, -32
  36              		.cfi_offset 1, -28
  37              		.cfi_offset 2, -24
  38              		.cfi_offset 4, -20
  39              		.cfi_offset 5, -16
  40              		.cfi_offset 6, -12
  41              		.cfi_offset 7, -8
  42              		.cfi_offset 14, -4
 315:Generated_Source\PSoC4/CapSense_SensingCSD_LL.c ****             uint8  interruptState;
 316:Generated_Source\PSoC4/CapSense_SensingCSD_LL.c **** 
 317:Generated_Source\PSoC4/CapSense_SensingCSD_LL.c ****             uint32 loopIndex;
 318:Generated_Source\PSoC4/CapSense_SensingCSD_LL.c **** 
 319:Generated_Source\PSoC4/CapSense_SensingCSD_LL.c ****             uint32 newPinPcVal;
 320:Generated_Source\PSoC4/CapSense_SensingCSD_LL.c ****             uint32 newPinHsiomVal;
 321:Generated_Source\PSoC4/CapSense_SensingCSD_LL.c **** 
 322:Generated_Source\PSoC4/CapSense_SensingCSD_LL.c ****             uint32 tmpPcDrRegValue;
 323:Generated_Source\PSoC4/CapSense_SensingCSD_LL.c ****             uint32 tmpHsiomRegValue;
 324:Generated_Source\PSoC4/CapSense_SensingCSD_LL.c **** 
 325:Generated_Source\PSoC4/CapSense_SensingCSD_LL.c ****             CapSense_SHIELD_IO_STRUCT const *shieldIoPtr;
 326:Generated_Source\PSoC4/CapSense_SensingCSD_LL.c **** 
 327:Generated_Source\PSoC4/CapSense_SensingCSD_LL.c ****             switch(state)
  43              		.loc 1 327 0
  44 0002 0128     		cmp	r0, #1
  45 0004 03D0     		beq	.L3
  46 0006 0228     		cmp	r0, #2
  47 0008 04D1     		bne	.L9
  48              	.LVL1:
 328:Generated_Source\PSoC4/CapSense_SensingCSD_LL.c ****             {
 329:Generated_Source\PSoC4/CapSense_SensingCSD_LL.c ****                 case CapSense_SNS_CONNECTION_GROUND:
 330:Generated_Source\PSoC4/CapSense_SensingCSD_LL.c ****                     newPinPcVal = CY_SYS_PINS_DM_STRONG;
 331:Generated_Source\PSoC4/CapSense_SensingCSD_LL.c ****                     newPinHsiomVal = CapSense_HSIOM_SEL_GPIO;
 332:Generated_Source\PSoC4/CapSense_SensingCSD_LL.c ****                     break;
 333:Generated_Source\PSoC4/CapSense_SensingCSD_LL.c ****                 case CapSense_SNS_CONNECTION_HIGHZ:
 334:Generated_Source\PSoC4/CapSense_SensingCSD_LL.c ****                     newPinPcVal = CY_SYS_PINS_DM_ALG_HIZ;
 335:Generated_Source\PSoC4/CapSense_SensingCSD_LL.c ****                     newPinHsiomVal = CapSense_HSIOM_SEL_GPIO;
 336:Generated_Source\PSoC4/CapSense_SensingCSD_LL.c ****                     break;
 337:Generated_Source\PSoC4/CapSense_SensingCSD_LL.c ****                 case CapSense_SNS_CONNECTION_SHIELD:
 338:Generated_Source\PSoC4/CapSense_SensingCSD_LL.c ****                     newPinPcVal = CY_SYS_PINS_DM_ALG_HIZ;
 339:Generated_Source\PSoC4/CapSense_SensingCSD_LL.c ****                     newPinHsiomVal = CapSense_HSIOM_SEL_CSD_SHIELD;
  49              		.loc 1 339 0
  50 000a 0524     		movs	r4, #5
  51 000c 00E0     		b	.L7
  52              	.LVL2:
  53              	.L3:
 335:Generated_Source\PSoC4/CapSense_SensingCSD_LL.c ****                     break;
  54              		.loc 1 335 0
  55 000e 0024     		movs	r4, #0
  56              	.L7:
 338:Generated_Source\PSoC4/CapSense_SensingCSD_LL.c ****                     newPinHsiomVal = CapSense_HSIOM_SEL_CSD_SHIELD;
  57              		.loc 1 338 0
  58 0010 0025     		movs	r5, #0
ARM GAS  C:\Users\zack.li\AppData\Local\Temp\ccTyLy6m.s 			page 8


 340:Generated_Source\PSoC4/CapSense_SensingCSD_LL.c ****                     break;
  59              		.loc 1 340 0
  60 0012 01E0     		b	.L2
  61              	.L9:
 331:Generated_Source\PSoC4/CapSense_SensingCSD_LL.c ****                     break;
  62              		.loc 1 331 0
  63 0014 0024     		movs	r4, #0
 330:Generated_Source\PSoC4/CapSense_SensingCSD_LL.c ****                     newPinHsiomVal = CapSense_HSIOM_SEL_GPIO;
  64              		.loc 1 330 0
  65 0016 0625     		movs	r5, #6
  66              	.L2:
  67              	.LVL3:
 341:Generated_Source\PSoC4/CapSense_SensingCSD_LL.c ****                 default:
 342:Generated_Source\PSoC4/CapSense_SensingCSD_LL.c ****                     newPinPcVal = CY_SYS_PINS_DM_STRONG;
 343:Generated_Source\PSoC4/CapSense_SensingCSD_LL.c ****                     newPinHsiomVal = CapSense_HSIOM_SEL_GPIO;
 344:Generated_Source\PSoC4/CapSense_SensingCSD_LL.c ****                     break;
 345:Generated_Source\PSoC4/CapSense_SensingCSD_LL.c ****             }
 346:Generated_Source\PSoC4/CapSense_SensingCSD_LL.c **** 
 347:Generated_Source\PSoC4/CapSense_SensingCSD_LL.c ****             shieldIoPtr = &CapSense_shieldIoList[0u];
 348:Generated_Source\PSoC4/CapSense_SensingCSD_LL.c ****             for (loopIndex = 0u; loopIndex < CapSense_CSD_TOTAL_SHIELD_COUNT; loopIndex++)
 349:Generated_Source\PSoC4/CapSense_SensingCSD_LL.c ****             {
 350:Generated_Source\PSoC4/CapSense_SensingCSD_LL.c ****                 interruptState = CyEnterCriticalSection();
  68              		.loc 1 350 0
  69 0018 FFF7FEFF 		bl	CyEnterCriticalSection
  70              	.LVL4:
 351:Generated_Source\PSoC4/CapSense_SensingCSD_LL.c **** 
 352:Generated_Source\PSoC4/CapSense_SensingCSD_LL.c ****                 tmpHsiomRegValue = CY_GET_REG32 (shieldIoPtr->hsiomPtr);
  71              		.loc 1 352 0
  72 001c 114B     		ldr	r3, .L10
 353:Generated_Source\PSoC4/CapSense_SensingCSD_LL.c ****                 tmpHsiomRegValue &= ~(shieldIoPtr->hsiomMask);
 354:Generated_Source\PSoC4/CapSense_SensingCSD_LL.c ****                 CY_SET_REG32 (shieldIoPtr->hsiomPtr, tmpHsiomRegValue);
 355:Generated_Source\PSoC4/CapSense_SensingCSD_LL.c **** 
 356:Generated_Source\PSoC4/CapSense_SensingCSD_LL.c ****                 tmpPcDrRegValue = CY_GET_REG32 (shieldIoPtr->pcPtr);
 357:Generated_Source\PSoC4/CapSense_SensingCSD_LL.c ****                 tmpPcDrRegValue &= ~(CapSense_GPIO_PC_MASK << shieldIoPtr->shift);
 358:Generated_Source\PSoC4/CapSense_SensingCSD_LL.c ****                 tmpPcDrRegValue |=  (newPinPcVal << shieldIoPtr->shift);
 359:Generated_Source\PSoC4/CapSense_SensingCSD_LL.c ****                 CY_SET_REG32 (shieldIoPtr->pcPtr, tmpPcDrRegValue);
 360:Generated_Source\PSoC4/CapSense_SensingCSD_LL.c **** 
 361:Generated_Source\PSoC4/CapSense_SensingCSD_LL.c ****                 tmpHsiomRegValue |=  (newPinHsiomVal << shieldIoPtr->hsiomShift);
 362:Generated_Source\PSoC4/CapSense_SensingCSD_LL.c ****                 CY_SET_REG32 (shieldIoPtr->hsiomPtr, tmpHsiomRegValue);
 363:Generated_Source\PSoC4/CapSense_SensingCSD_LL.c **** 
 364:Generated_Source\PSoC4/CapSense_SensingCSD_LL.c ****                 tmpPcDrRegValue = CY_GET_REG32 (shieldIoPtr->drPtr);
 365:Generated_Source\PSoC4/CapSense_SensingCSD_LL.c ****                 tmpPcDrRegValue &= ~(1uL << shieldIoPtr->drShift);
 366:Generated_Source\PSoC4/CapSense_SensingCSD_LL.c ****                 CY_SET_REG32 (shieldIoPtr->drPtr, tmpPcDrRegValue);
 367:Generated_Source\PSoC4/CapSense_SensingCSD_LL.c **** 
 368:Generated_Source\PSoC4/CapSense_SensingCSD_LL.c ****                 CyExitCriticalSection(interruptState);
 369:Generated_Source\PSoC4/CapSense_SensingCSD_LL.c **** 
 370:Generated_Source\PSoC4/CapSense_SensingCSD_LL.c ****                 /* Get next electrode */
 371:Generated_Source\PSoC4/CapSense_SensingCSD_LL.c ****                 shieldIoPtr++;
 372:Generated_Source\PSoC4/CapSense_SensingCSD_LL.c ****             }
 373:Generated_Source\PSoC4/CapSense_SensingCSD_LL.c ****         }
  73              		.loc 1 373 0
  74              		@ sp needed
 357:Generated_Source\PSoC4/CapSense_SensingCSD_LL.c ****                 tmpPcDrRegValue |=  (newPinPcVal << shieldIoPtr->shift);
  75              		.loc 1 357 0
  76 001e 9F7C     		ldrb	r7, [r3, #18]
 352:Generated_Source\PSoC4/CapSense_SensingCSD_LL.c ****                 tmpHsiomRegValue &= ~(shieldIoPtr->hsiomMask);
  77              		.loc 1 352 0
ARM GAS  C:\Users\zack.li\AppData\Local\Temp\ccTyLy6m.s 			page 9


  78 0020 1E68     		ldr	r6, [r3]
 357:Generated_Source\PSoC4/CapSense_SensingCSD_LL.c ****                 tmpPcDrRegValue |=  (newPinPcVal << shieldIoPtr->shift);
  79              		.loc 1 357 0
  80 0022 BC46     		mov	ip, r7
 352:Generated_Source\PSoC4/CapSense_SensingCSD_LL.c ****                 tmpHsiomRegValue &= ~(shieldIoPtr->hsiomMask);
  81              		.loc 1 352 0
  82 0024 3268     		ldr	r2, [r6]
  83              	.LVL5:
 353:Generated_Source\PSoC4/CapSense_SensingCSD_LL.c ****                 tmpHsiomRegValue &= ~(shieldIoPtr->hsiomMask);
  84              		.loc 1 353 0
  85 0026 D968     		ldr	r1, [r3, #12]
 357:Generated_Source\PSoC4/CapSense_SensingCSD_LL.c ****                 tmpPcDrRegValue |=  (newPinPcVal << shieldIoPtr->shift);
  86              		.loc 1 357 0
  87 0028 0727     		movs	r7, #7
 353:Generated_Source\PSoC4/CapSense_SensingCSD_LL.c ****                 tmpHsiomRegValue &= ~(shieldIoPtr->hsiomMask);
  88              		.loc 1 353 0
  89 002a 8A43     		bics	r2, r1
  90              	.LVL6:
 356:Generated_Source\PSoC4/CapSense_SensingCSD_LL.c ****                 tmpPcDrRegValue &= ~(CapSense_GPIO_PC_MASK << shieldIoPtr->shift);
  91              		.loc 1 356 0
  92 002c 5968     		ldr	r1, [r3, #4]
 354:Generated_Source\PSoC4/CapSense_SensingCSD_LL.c **** 
  93              		.loc 1 354 0
  94 002e 3260     		str	r2, [r6]
 356:Generated_Source\PSoC4/CapSense_SensingCSD_LL.c ****                 tmpPcDrRegValue &= ~(CapSense_GPIO_PC_MASK << shieldIoPtr->shift);
  95              		.loc 1 356 0
  96 0030 0091     		str	r1, [sp]
  97 0032 0968     		ldr	r1, [r1]
  98 0034 0191     		str	r1, [sp, #4]
  99              	.LVL7:
 357:Generated_Source\PSoC4/CapSense_SensingCSD_LL.c ****                 tmpPcDrRegValue |=  (newPinPcVal << shieldIoPtr->shift);
 100              		.loc 1 357 0
 101 0036 6146     		mov	r1, ip
 102              	.LVL8:
 103 0038 8F40     		lsls	r7, r7, r1
 104 003a 0199     		ldr	r1, [sp, #4]
 105 003c B943     		bics	r1, r7
 106              	.LVL9:
 358:Generated_Source\PSoC4/CapSense_SensingCSD_LL.c ****                 CY_SET_REG32 (shieldIoPtr->pcPtr, tmpPcDrRegValue);
 107              		.loc 1 358 0
 108 003e 6746     		mov	r7, ip
 109 0040 BD40     		lsls	r5, r5, r7
 110              	.LVL10:
 111 0042 2943     		orrs	r1, r5
 112              	.LVL11:
 359:Generated_Source\PSoC4/CapSense_SensingCSD_LL.c **** 
 113              		.loc 1 359 0
 114 0044 009D     		ldr	r5, [sp]
 115 0046 2960     		str	r1, [r5]
 361:Generated_Source\PSoC4/CapSense_SensingCSD_LL.c ****                 CY_SET_REG32 (shieldIoPtr->hsiomPtr, tmpHsiomRegValue);
 116              		.loc 1 361 0
 117 0048 197C     		ldrb	r1, [r3, #16]
 118              	.LVL12:
 119 004a 8C40     		lsls	r4, r4, r1
 120              	.LVL13:
 121 004c 1443     		orrs	r4, r2
 122              	.LVL14:
ARM GAS  C:\Users\zack.li\AppData\Local\Temp\ccTyLy6m.s 			page 10


 362:Generated_Source\PSoC4/CapSense_SensingCSD_LL.c **** 
 123              		.loc 1 362 0
 124 004e 3460     		str	r4, [r6]
 125              	.LVL15:
 364:Generated_Source\PSoC4/CapSense_SensingCSD_LL.c ****                 tmpPcDrRegValue &= ~(1uL << shieldIoPtr->drShift);
 126              		.loc 1 364 0
 127 0050 9968     		ldr	r1, [r3, #8]
 365:Generated_Source\PSoC4/CapSense_SensingCSD_LL.c ****                 CY_SET_REG32 (shieldIoPtr->drPtr, tmpPcDrRegValue);
 128              		.loc 1 365 0
 129 0052 5C7C     		ldrb	r4, [r3, #17]
 130              	.LVL16:
 131 0054 0123     		movs	r3, #1
 132 0056 A340     		lsls	r3, r3, r4
 364:Generated_Source\PSoC4/CapSense_SensingCSD_LL.c ****                 tmpPcDrRegValue &= ~(1uL << shieldIoPtr->drShift);
 133              		.loc 1 364 0
 134 0058 0A68     		ldr	r2, [r1]
 135              	.LVL17:
 365:Generated_Source\PSoC4/CapSense_SensingCSD_LL.c ****                 CY_SET_REG32 (shieldIoPtr->drPtr, tmpPcDrRegValue);
 136              		.loc 1 365 0
 137 005a 9A43     		bics	r2, r3
 138              	.LVL18:
 366:Generated_Source\PSoC4/CapSense_SensingCSD_LL.c **** 
 139              		.loc 1 366 0
 140 005c 0A60     		str	r2, [r1]
 141              	.LVL19:
 368:Generated_Source\PSoC4/CapSense_SensingCSD_LL.c **** 
 142              		.loc 1 368 0
 143 005e FFF7FEFF 		bl	CyExitCriticalSection
 144              	.LVL20:
 145              		.loc 1 373 0
 146 0062 F7BD     		pop	{r0, r1, r2, r4, r5, r6, r7, pc}
 147              	.L11:
 148              		.align	2
 149              	.L10:
 150 0064 00000000 		.word	CapSense_shieldIoList
 151              		.cfi_endproc
 152              	.LFE4:
 153              		.size	CapSense_SsCSDSetShieldElectrodesState, .-CapSense_SsCSDSetShieldElectrodesState
 154              		.section	.text.CapSense_SsCSDEnableShieldElectrodes,"ax",%progbits
 155              		.align	1
 156              		.global	CapSense_SsCSDEnableShieldElectrodes
 157              		.code	16
 158              		.thumb_func
 159              		.type	CapSense_SsCSDEnableShieldElectrodes, %function
 160              	CapSense_SsCSDEnableShieldElectrodes:
 161              	.LFB2:
 260:Generated_Source\PSoC4/CapSense_SensingCSD_LL.c ****             CapSense_SsCSDSetShieldElectrodesState(CapSense_SNS_CONNECTION_SHIELD);
 162              		.loc 1 260 0
 163              		.cfi_startproc
 164              		@ args = 0, pretend = 0, frame = 0
 165              		@ frame_needed = 0, uses_anonymous_args = 0
 166 0000 10B5     		push	{r4, lr}
 167              		.cfi_def_cfa_offset 8
 168              		.cfi_offset 4, -8
 169              		.cfi_offset 14, -4
 261:Generated_Source\PSoC4/CapSense_SensingCSD_LL.c ****         }
 170              		.loc 1 261 0
ARM GAS  C:\Users\zack.li\AppData\Local\Temp\ccTyLy6m.s 			page 11


 171 0002 0220     		movs	r0, #2
 172 0004 FFF7FEFF 		bl	CapSense_SsCSDSetShieldElectrodesState
 173              	.LVL21:
 262:Generated_Source\PSoC4/CapSense_SensingCSD_LL.c **** 
 174              		.loc 1 262 0
 175              		@ sp needed
 176 0008 10BD     		pop	{r4, pc}
 177              		.cfi_endproc
 178              	.LFE2:
 179              		.size	CapSense_SsCSDEnableShieldElectrodes, .-CapSense_SsCSDEnableShieldElectrodes
 180              		.section	.text.CapSense_SsCSDDisableShieldElectrodes,"ax",%progbits
 181              		.align	1
 182              		.global	CapSense_SsCSDDisableShieldElectrodes
 183              		.code	16
 184              		.thumb_func
 185              		.type	CapSense_SsCSDDisableShieldElectrodes, %function
 186              	CapSense_SsCSDDisableShieldElectrodes:
 187              	.LFB3:
 279:Generated_Source\PSoC4/CapSense_SensingCSD_LL.c ****             CapSense_SsCSDSetShieldElectrodesState(CapSense_SNS_CONNECTION_GROUND);
 188              		.loc 1 279 0
 189              		.cfi_startproc
 190              		@ args = 0, pretend = 0, frame = 0
 191              		@ frame_needed = 0, uses_anonymous_args = 0
 192 0000 10B5     		push	{r4, lr}
 193              		.cfi_def_cfa_offset 8
 194              		.cfi_offset 4, -8
 195              		.cfi_offset 14, -4
 280:Generated_Source\PSoC4/CapSense_SensingCSD_LL.c ****         }
 196              		.loc 1 280 0
 197 0002 0020     		movs	r0, #0
 198 0004 FFF7FEFF 		bl	CapSense_SsCSDSetShieldElectrodesState
 199              	.LVL22:
 281:Generated_Source\PSoC4/CapSense_SensingCSD_LL.c **** 
 200              		.loc 1 281 0
 201              		@ sp needed
 202 0008 10BD     		pop	{r4, pc}
 203              		.cfi_endproc
 204              	.LFE3:
 205              		.size	CapSense_SsCSDDisableShieldElectrodes, .-CapSense_SsCSDDisableShieldElectrodes
 206              		.global	__aeabi_uidiv
 207              		.section	.text.CapSense_SsCSDInitialize,"ax",%progbits
 208              		.align	1
 209              		.global	CapSense_SsCSDInitialize
 210              		.code	16
 211              		.thumb_func
 212              		.type	CapSense_SsCSDInitialize, %function
 213              	CapSense_SsCSDInitialize:
 214              	.LFB8:
 374:Generated_Source\PSoC4/CapSense_SensingCSD_LL.c ****     #endif /* (0u != CapSense_CSD_TOTAL_SHIELD_COUNT) */
 375:Generated_Source\PSoC4/CapSense_SensingCSD_LL.c **** #endif /* (CapSense_ENABLE == CapSense_CSD_SHIELD_EN) */
 376:Generated_Source\PSoC4/CapSense_SensingCSD_LL.c **** 
 377:Generated_Source\PSoC4/CapSense_SensingCSD_LL.c **** 
 378:Generated_Source\PSoC4/CapSense_SensingCSD_LL.c **** /*******************************************************************************
 379:Generated_Source\PSoC4/CapSense_SensingCSD_LL.c **** * Function Name: CapSense_SsCSDSetModeSnsClockDivider
 380:Generated_Source\PSoC4/CapSense_SensingCSD_LL.c **** ****************************************************************************//**
 381:Generated_Source\PSoC4/CapSense_SensingCSD_LL.c **** *
 382:Generated_Source\PSoC4/CapSense_SensingCSD_LL.c **** * \brief
ARM GAS  C:\Users\zack.li\AppData\Local\Temp\ccTyLy6m.s 			page 12


 383:Generated_Source\PSoC4/CapSense_SensingCSD_LL.c **** *   Sets sense source and Sense Clock Divider
 384:Generated_Source\PSoC4/CapSense_SensingCSD_LL.c **** *
 385:Generated_Source\PSoC4/CapSense_SensingCSD_LL.c **** * \details
 386:Generated_Source\PSoC4/CapSense_SensingCSD_LL.c **** *   For Fourth-generation HW block: Updates CapSense_SENSE_PERIOD register with
 387:Generated_Source\PSoC4/CapSense_SensingCSD_LL.c **** *   sense source and Sense Clock Divider.
 388:Generated_Source\PSoC4/CapSense_SensingCSD_LL.c **** *   For Third-generation HW block: Updates CapSense_configCsd variable with
 389:Generated_Source\PSoC4/CapSense_SensingCSD_LL.c **** *   sense source and sets sense clock divider.
 390:Generated_Source\PSoC4/CapSense_SensingCSD_LL.c **** *
 391:Generated_Source\PSoC4/CapSense_SensingCSD_LL.c **** * \param
 392:Generated_Source\PSoC4/CapSense_SensingCSD_LL.c **** *   snsClkSource The sense source for the sense clock.
 393:Generated_Source\PSoC4/CapSense_SensingCSD_LL.c **** * \param
 394:Generated_Source\PSoC4/CapSense_SensingCSD_LL.c **** *   snsClkDivider The divider value for the sense clock.
 395:Generated_Source\PSoC4/CapSense_SensingCSD_LL.c **** *
 396:Generated_Source\PSoC4/CapSense_SensingCSD_LL.c **** *******************************************************************************/
 397:Generated_Source\PSoC4/CapSense_SensingCSD_LL.c **** static void CapSense_SsCSDSetModeSnsClockDivider(uint32 snsClkSource, uint32 snsClkDivider)
 398:Generated_Source\PSoC4/CapSense_SensingCSD_LL.c **** {
 399:Generated_Source\PSoC4/CapSense_SensingCSD_LL.c ****     #if (CapSense_ENABLE == CapSense_CSDV2)
 400:Generated_Source\PSoC4/CapSense_SensingCSD_LL.c ****         /* Update reg value with divider and configuration */
 401:Generated_Source\PSoC4/CapSense_SensingCSD_LL.c ****         CY_SET_REG32(CapSense_SENSE_PERIOD_PTR, snsClkSource | (snsClkDivider - 1u));
 402:Generated_Source\PSoC4/CapSense_SensingCSD_LL.c ****     #else
 403:Generated_Source\PSoC4/CapSense_SensingCSD_LL.c ****         /* Set configuration */
 404:Generated_Source\PSoC4/CapSense_SensingCSD_LL.c ****         CapSense_configCsd &= ~(CapSense_CONFIG_PRS_SELECT_MASK | CapSense_CSD_PRS_12_BIT);
 405:Generated_Source\PSoC4/CapSense_SensingCSD_LL.c ****         CapSense_configCsd |= snsClkSource;
 406:Generated_Source\PSoC4/CapSense_SensingCSD_LL.c **** 
 407:Generated_Source\PSoC4/CapSense_SensingCSD_LL.c ****         /* Set sense clock divider */
 408:Generated_Source\PSoC4/CapSense_SensingCSD_LL.c ****         CapSense_SsSetSnsClockDivider(snsClkDivider);
 409:Generated_Source\PSoC4/CapSense_SensingCSD_LL.c ****     #endif /* (CapSense_ENABLE == CapSense_CSDV2) */
 410:Generated_Source\PSoC4/CapSense_SensingCSD_LL.c **** }
 411:Generated_Source\PSoC4/CapSense_SensingCSD_LL.c **** 
 412:Generated_Source\PSoC4/CapSense_SensingCSD_LL.c **** 
 413:Generated_Source\PSoC4/CapSense_SensingCSD_LL.c **** #if (CapSense_ENABLE == CapSense_CSDV2)
 414:Generated_Source\PSoC4/CapSense_SensingCSD_LL.c ****     /*******************************************************************************
 415:Generated_Source\PSoC4/CapSense_SensingCSD_LL.c ****     * Function Name: CapSense_SsCSDSetFilterDelay
 416:Generated_Source\PSoC4/CapSense_SensingCSD_LL.c ****     ****************************************************************************//**
 417:Generated_Source\PSoC4/CapSense_SensingCSD_LL.c ****     *
 418:Generated_Source\PSoC4/CapSense_SensingCSD_LL.c ****     * \brief
 419:Generated_Source\PSoC4/CapSense_SensingCSD_LL.c ****     *   Sets the filter delay for Fourth-generation HW block.
 420:Generated_Source\PSoC4/CapSense_SensingCSD_LL.c ****     *
 421:Generated_Source\PSoC4/CapSense_SensingCSD_LL.c ****     * \details
 422:Generated_Source\PSoC4/CapSense_SensingCSD_LL.c ****     *   This function updates Fourth-generation HW block configuration
 423:Generated_Source\PSoC4/CapSense_SensingCSD_LL.c ****     *   variable CapSense_configCsd
 424:Generated_Source\PSoC4/CapSense_SensingCSD_LL.c ****     *   with the filter delay which depends on the sample clock frequency.
 425:Generated_Source\PSoC4/CapSense_SensingCSD_LL.c ****     *   This variable is written into register during enabling
 426:Generated_Source\PSoC4/CapSense_SensingCSD_LL.c ****     *   Fourth-generation HW block .
 427:Generated_Source\PSoC4/CapSense_SensingCSD_LL.c ****     *
 428:Generated_Source\PSoC4/CapSense_SensingCSD_LL.c ****     *******************************************************************************/
 429:Generated_Source\PSoC4/CapSense_SensingCSD_LL.c ****     static void CapSense_SsCSDSetFilterDelay(void)
 430:Generated_Source\PSoC4/CapSense_SensingCSD_LL.c ****     {
 431:Generated_Source\PSoC4/CapSense_SensingCSD_LL.c ****         #if (CapSense_MOD_CSD_CLK_12MHZ < CYDEV_BCLK__HFCLK__HZ)
 432:Generated_Source\PSoC4/CapSense_SensingCSD_LL.c ****             uint32 sampleClkFreqHz;
 433:Generated_Source\PSoC4/CapSense_SensingCSD_LL.c ****         #endif /* (CapSense_MOD_CSD_CLK_12MHZ < CYDEV_BCLK__HFCLK__HZ) */
 434:Generated_Source\PSoC4/CapSense_SensingCSD_LL.c **** 
 435:Generated_Source\PSoC4/CapSense_SensingCSD_LL.c ****         CapSense_configCsd &= ~CapSense_CONFIG_FILTER_DELAY_MASK;
 436:Generated_Source\PSoC4/CapSense_SensingCSD_LL.c **** 
 437:Generated_Source\PSoC4/CapSense_SensingCSD_LL.c ****         #if (CapSense_MOD_CSD_CLK_12MHZ < CYDEV_BCLK__HFCLK__HZ)
 438:Generated_Source\PSoC4/CapSense_SensingCSD_LL.c ****             sampleClkFreqHz = CYDEV_BCLK__HFCLK__HZ / (uint32)CapSense_dsRam.modCsdClk;
 439:Generated_Source\PSoC4/CapSense_SensingCSD_LL.c ****             if(sampleClkFreqHz <= CapSense_MOD_CSD_CLK_12MHZ)
ARM GAS  C:\Users\zack.li\AppData\Local\Temp\ccTyLy6m.s 			page 13


 440:Generated_Source\PSoC4/CapSense_SensingCSD_LL.c ****             {
 441:Generated_Source\PSoC4/CapSense_SensingCSD_LL.c ****                 CapSense_configCsd |= CapSense_CONFIG_FILTER_DELAY_12MHZ;
 442:Generated_Source\PSoC4/CapSense_SensingCSD_LL.c ****             }
 443:Generated_Source\PSoC4/CapSense_SensingCSD_LL.c ****             else if(sampleClkFreqHz <= CapSense_MOD_CSD_CLK_24MHZ)
 444:Generated_Source\PSoC4/CapSense_SensingCSD_LL.c ****             {
 445:Generated_Source\PSoC4/CapSense_SensingCSD_LL.c ****                 CapSense_configCsd |= CapSense_CONFIG_FILTER_DELAY_24MHZ;
 446:Generated_Source\PSoC4/CapSense_SensingCSD_LL.c ****             }
 447:Generated_Source\PSoC4/CapSense_SensingCSD_LL.c ****             else
 448:Generated_Source\PSoC4/CapSense_SensingCSD_LL.c ****             {
 449:Generated_Source\PSoC4/CapSense_SensingCSD_LL.c ****                 CapSense_configCsd |= CapSense_CONFIG_FILTER_DELAY_48MHZ;
 450:Generated_Source\PSoC4/CapSense_SensingCSD_LL.c ****             }
 451:Generated_Source\PSoC4/CapSense_SensingCSD_LL.c ****         #else
 452:Generated_Source\PSoC4/CapSense_SensingCSD_LL.c ****             CapSense_configCsd |= CapSense_CONFIG_FILTER_DELAY_12MHZ;
 453:Generated_Source\PSoC4/CapSense_SensingCSD_LL.c ****         #endif /* (CapSense_MOD_CSD_CLK_12MHZ < CYDEV_BCLK__HFCLK__HZ) */
 454:Generated_Source\PSoC4/CapSense_SensingCSD_LL.c ****     }
 455:Generated_Source\PSoC4/CapSense_SensingCSD_LL.c **** #endif /* (CapSense_ENABLE == CapSense_CSD_GANGED_SNS_EN)  */
 456:Generated_Source\PSoC4/CapSense_SensingCSD_LL.c **** 
 457:Generated_Source\PSoC4/CapSense_SensingCSD_LL.c **** 
 458:Generated_Source\PSoC4/CapSense_SensingCSD_LL.c **** /*******************************************************************************
 459:Generated_Source\PSoC4/CapSense_SensingCSD_LL.c **** * Function Name: CapSense_SsCSDConfigIDACs
 460:Generated_Source\PSoC4/CapSense_SensingCSD_LL.c **** ****************************************************************************//**
 461:Generated_Source\PSoC4/CapSense_SensingCSD_LL.c **** *
 462:Generated_Source\PSoC4/CapSense_SensingCSD_LL.c **** * \brief
 463:Generated_Source\PSoC4/CapSense_SensingCSD_LL.c **** *   Configures the mode for IDAC registers
 464:Generated_Source\PSoC4/CapSense_SensingCSD_LL.c **** *
 465:Generated_Source\PSoC4/CapSense_SensingCSD_LL.c **** * \details
 466:Generated_Source\PSoC4/CapSense_SensingCSD_LL.c **** *   This function configures the IDAC modes depend on Compensation IDAC
 467:Generated_Source\PSoC4/CapSense_SensingCSD_LL.c **** *   enabled or disabled.
 468:Generated_Source\PSoC4/CapSense_SensingCSD_LL.c **** *
 469:Generated_Source\PSoC4/CapSense_SensingCSD_LL.c **** *******************************************************************************/
 470:Generated_Source\PSoC4/CapSense_SensingCSD_LL.c **** static void CapSense_SsCSDConfigIDACs(void)
 471:Generated_Source\PSoC4/CapSense_SensingCSD_LL.c **** {
 472:Generated_Source\PSoC4/CapSense_SensingCSD_LL.c ****     #if (CapSense_ENABLE == CapSense_CSDV2)
 473:Generated_Source\PSoC4/CapSense_SensingCSD_LL.c ****         CY_SET_REG32(CapSense_CSD_IDACA_PTR, CapSense_IDAC_MOD_DEFAULT_CFG);
 474:Generated_Source\PSoC4/CapSense_SensingCSD_LL.c ****         #if (CapSense_ENABLE == CapSense_CSD_IDAC_COMP_EN)
 475:Generated_Source\PSoC4/CapSense_SensingCSD_LL.c ****             CY_SET_REG32(CapSense_CSD_IDACB_PTR, CapSense_IDAC_COMP_DEFAULT_CFG);
 476:Generated_Source\PSoC4/CapSense_SensingCSD_LL.c ****         #endif /* (CapSense_ENABLE == CapSense_CSD_IDAC_COMP_EN) */
 477:Generated_Source\PSoC4/CapSense_SensingCSD_LL.c ****     #else
 478:Generated_Source\PSoC4/CapSense_SensingCSD_LL.c ****         #if (CapSense_ENABLE == CapSense_CSD_IDAC_COMP_EN)
 479:Generated_Source\PSoC4/CapSense_SensingCSD_LL.c ****             CY_SET_REG32(CapSense_IDAC_PTR, CapSense_DEFAULT_CSD_IDAC_CONFIG);
 480:Generated_Source\PSoC4/CapSense_SensingCSD_LL.c ****         #else
 481:Generated_Source\PSoC4/CapSense_SensingCSD_LL.c ****             CY_SET_REG32(CapSense_IDAC_PTR, CY_GET_REG32(CapSense_IDAC_PTR) &
 482:Generated_Source\PSoC4/CapSense_SensingCSD_LL.c ****                                                                 ~(CapSense_IDAC_MOD_MODE_MASK |
 483:Generated_Source\PSoC4/CapSense_SensingCSD_LL.c ****                                                                   CapSense_IDAC_MOD_MASK));
 484:Generated_Source\PSoC4/CapSense_SensingCSD_LL.c ****             CY_SET_REG32(CapSense_IDAC_PTR, CY_GET_REG32(CapSense_IDAC_PTR) |
 485:Generated_Source\PSoC4/CapSense_SensingCSD_LL.c ****                                                                  CapSense_DEFAULT_CSD_IDAC_CONFIG);
 486:Generated_Source\PSoC4/CapSense_SensingCSD_LL.c ****         #endif /* (CapSense_ENABLE == CapSense_CSD_IDAC_COMP_EN) */
 487:Generated_Source\PSoC4/CapSense_SensingCSD_LL.c ****     #endif /* (CapSense_ENABLE == CapSense_CSDV2) */
 488:Generated_Source\PSoC4/CapSense_SensingCSD_LL.c **** }
 489:Generated_Source\PSoC4/CapSense_SensingCSD_LL.c **** 
 490:Generated_Source\PSoC4/CapSense_SensingCSD_LL.c **** 
 491:Generated_Source\PSoC4/CapSense_SensingCSD_LL.c **** /*******************************************************************************
 492:Generated_Source\PSoC4/CapSense_SensingCSD_LL.c **** * Function Name: CapSense_SsCSDInitialize
 493:Generated_Source\PSoC4/CapSense_SensingCSD_LL.c **** ****************************************************************************//**
 494:Generated_Source\PSoC4/CapSense_SensingCSD_LL.c **** *
 495:Generated_Source\PSoC4/CapSense_SensingCSD_LL.c **** * \brief
 496:Generated_Source\PSoC4/CapSense_SensingCSD_LL.c **** *   This API initializes the CSD module.
ARM GAS  C:\Users\zack.li\AppData\Local\Temp\ccTyLy6m.s 			page 14


 497:Generated_Source\PSoC4/CapSense_SensingCSD_LL.c **** *
 498:Generated_Source\PSoC4/CapSense_SensingCSD_LL.c **** * \details
 499:Generated_Source\PSoC4/CapSense_SensingCSD_LL.c **** *   The function performs the following steps for Fourth-generation HW block:
 500:Generated_Source\PSoC4/CapSense_SensingCSD_LL.c **** *   1) Sets GPIO output to "0" for all sensor pins;
 501:Generated_Source\PSoC4/CapSense_SensingCSD_LL.c **** *   2) Connects CMOD to AMUXBUS-A and to CSDBUS-A;
 502:Generated_Source\PSoC4/CapSense_SensingCSD_LL.c **** *   3) Connects CMOD to (sense path) to CSDCOMP;
 503:Generated_Source\PSoC4/CapSense_SensingCSD_LL.c **** *   4) Connects Csh_tank to AMUXBUS-B and to CSDBUS-B;
 504:Generated_Source\PSoC4/CapSense_SensingCSD_LL.c **** *   5) Connects VREF to REFGEN;
 505:Generated_Source\PSoC4/CapSense_SensingCSD_LL.c **** *   6) Configures REFGEN and sets the reference voltage;
 506:Generated_Source\PSoC4/CapSense_SensingCSD_LL.c **** *   7) Connects VREF to CSDCOMP and HSCOMP;
 507:Generated_Source\PSoC4/CapSense_SensingCSD_LL.c **** *   8) Configures IDAC and connect to CSDBUS-A (to drive CMOD);
 508:Generated_Source\PSoC4/CapSense_SensingCSD_LL.c **** *   9) Configures ModClk;
 509:Generated_Source\PSoC4/CapSense_SensingCSD_LL.c **** *   10) Configure SnsClk source;
 510:Generated_Source\PSoC4/CapSense_SensingCSD_LL.c **** *   11) Sets other CSD configurations (Csd Auto Zero time,
 511:Generated_Source\PSoC4/CapSense_SensingCSD_LL.c **** *       Sample Init period, interrupts,
 512:Generated_Source\PSoC4/CapSense_SensingCSD_LL.c **** *       CMOD and Csh_tank/shield initialization switch resistance).
 513:Generated_Source\PSoC4/CapSense_SensingCSD_LL.c **** *
 514:Generated_Source\PSoC4/CapSense_SensingCSD_LL.c **** *   The function performs the following steps for Third-generation HW block:
 515:Generated_Source\PSoC4/CapSense_SensingCSD_LL.c **** *   1) Sets all the sensors to the inactive state;
 516:Generated_Source\PSoC4/CapSense_SensingCSD_LL.c **** *   2) Enables Shield Electrodes;
 517:Generated_Source\PSoC4/CapSense_SensingCSD_LL.c **** *   3) Configures the CSD block and IDACs;
 518:Generated_Source\PSoC4/CapSense_SensingCSD_LL.c **** *   4) Connects Cmod to AMUXBUS-A;
 519:Generated_Source\PSoC4/CapSense_SensingCSD_LL.c **** *   5) Enables the clocks;
 520:Generated_Source\PSoC4/CapSense_SensingCSD_LL.c **** *   6) Sets the shield delay;
 521:Generated_Source\PSoC4/CapSense_SensingCSD_LL.c **** *   7) Enables the CSD block; connects Vref Buffer to the AMUX bus.
 522:Generated_Source\PSoC4/CapSense_SensingCSD_LL.c **** *
 523:Generated_Source\PSoC4/CapSense_SensingCSD_LL.c **** *******************************************************************************/
 524:Generated_Source\PSoC4/CapSense_SensingCSD_LL.c **** void CapSense_SsCSDInitialize(void)
 525:Generated_Source\PSoC4/CapSense_SensingCSD_LL.c **** {
 215              		.loc 1 525 0
 216              		.cfi_startproc
 217              		@ args = 0, pretend = 0, frame = 0
 218              		@ frame_needed = 0, uses_anonymous_args = 0
 219 0000 F8B5     		push	{r3, r4, r5, r6, r7, lr}
 220              		.cfi_def_cfa_offset 24
 221              		.cfi_offset 3, -24
 222              		.cfi_offset 4, -20
 223              		.cfi_offset 5, -16
 224              		.cfi_offset 6, -12
 225              		.cfi_offset 7, -8
 226              		.cfi_offset 14, -4
 526:Generated_Source\PSoC4/CapSense_SensingCSD_LL.c ****     #if (CapSense_ENABLE == CapSense_CSDV2)
 527:Generated_Source\PSoC4/CapSense_SensingCSD_LL.c ****         uint32 newRegValue;
 528:Generated_Source\PSoC4/CapSense_SensingCSD_LL.c ****     #endif
 529:Generated_Source\PSoC4/CapSense_SensingCSD_LL.c **** 
 530:Generated_Source\PSoC4/CapSense_SensingCSD_LL.c ****     /* Set all the sensors to inactive state */
 531:Generated_Source\PSoC4/CapSense_SensingCSD_LL.c ****     if(CapSense_dsRam.scanCurrentISC != CapSense_dsRam.scanCsdISC)
 227              		.loc 1 531 0
 228 0002 424C     		ldr	r4, .L19
 229 0004 2500     		movs	r5, r4
 230 0006 AD34     		adds	r4, r4, #173
 231 0008 AC35     		adds	r5, r5, #172
 232 000a 2878     		ldrb	r0, [r5]
 233 000c 2378     		ldrb	r3, [r4]
 234 000e 8342     		cmp	r3, r0
 235 0010 03D0     		beq	.L15
 532:Generated_Source\PSoC4/CapSense_SensingCSD_LL.c ****     {
ARM GAS  C:\Users\zack.li\AppData\Local\Temp\ccTyLy6m.s 			page 15


 533:Generated_Source\PSoC4/CapSense_SensingCSD_LL.c ****         CapSense_SsSetAllIOsState((uint32)CapSense_dsRam.scanCsdISC);
 236              		.loc 1 533 0
 237 0012 FFF7FEFF 		bl	CapSense_SsSetAllIOsState
 238              	.LVL23:
 534:Generated_Source\PSoC4/CapSense_SensingCSD_LL.c ****         CapSense_dsRam.scanCurrentISC = CapSense_dsRam.scanCsdISC;
 239              		.loc 1 534 0
 240 0016 2B78     		ldrb	r3, [r5]
 241 0018 2370     		strb	r3, [r4]
 242              	.L15:
 535:Generated_Source\PSoC4/CapSense_SensingCSD_LL.c ****     }
 536:Generated_Source\PSoC4/CapSense_SensingCSD_LL.c **** 
 537:Generated_Source\PSoC4/CapSense_SensingCSD_LL.c ****     #if (CapSense_ENABLE == CapSense_CSD_SHIELD_EN)
 538:Generated_Source\PSoC4/CapSense_SensingCSD_LL.c ****         /* Connect shields to AMUX-B bus (config HSIOM regs) */
 539:Generated_Source\PSoC4/CapSense_SensingCSD_LL.c ****         #if (0u != CapSense_CSD_TOTAL_SHIELD_COUNT)
 540:Generated_Source\PSoC4/CapSense_SensingCSD_LL.c ****             CapSense_SsCSDEnableShieldElectrodes();
 243              		.loc 1 540 0
 244 001a FFF7FEFF 		bl	CapSense_SsCSDEnableShieldElectrodes
 245              	.LVL24:
 541:Generated_Source\PSoC4/CapSense_SensingCSD_LL.c ****         #endif /* (0u != CapSense_CSD_TOTAL_SHIELD_COUNT) */
 542:Generated_Source\PSoC4/CapSense_SensingCSD_LL.c **** 
 543:Generated_Source\PSoC4/CapSense_SensingCSD_LL.c ****         #if (CapSense_ENABLE == CapSense_CSD_SHIELD_TANK_EN)
 544:Generated_Source\PSoC4/CapSense_SensingCSD_LL.c ****             /* Configure Csh */
 545:Generated_Source\PSoC4/CapSense_SensingCSD_LL.c ****             CapSense_SsCSDEnableShieldTank();
 546:Generated_Source\PSoC4/CapSense_SensingCSD_LL.c ****         #endif /* (CapSense_ENABLE == CapSense_CSD_SHIELD_TANK_EN) */
 547:Generated_Source\PSoC4/CapSense_SensingCSD_LL.c ****     #endif /* (CapSense_ENABLE == CapSense_CSD_SHIELD_EN) */
 548:Generated_Source\PSoC4/CapSense_SensingCSD_LL.c **** 
 549:Generated_Source\PSoC4/CapSense_SensingCSD_LL.c ****     #if (CapSense_ENABLE == CapSense_CSDV2)
 550:Generated_Source\PSoC4/CapSense_SensingCSD_LL.c **** 
 551:Generated_Source\PSoC4/CapSense_SensingCSD_LL.c ****         CapSense_DischargeExtCapacitors(CapSense_EXT_CAP_DISCHARGE_TIME);
 246              		.loc 1 551 0
 247 001e 0120     		movs	r0, #1
 248 0020 FFF7FEFF 		bl	CapSense_DischargeExtCapacitors
 249              	.LVL25:
 552:Generated_Source\PSoC4/CapSense_SensingCSD_LL.c **** 
 553:Generated_Source\PSoC4/CapSense_SensingCSD_LL.c ****         /* Initialize the unused CSD registers to defaut state */
 554:Generated_Source\PSoC4/CapSense_SensingCSD_LL.c ****         CY_SET_REG32(CapSense_SENSE_DUTY_PTR, CapSense_DEFAULT_SENSE_DUTY_SEL);
 250              		.loc 1 554 0
 251 0024 C022     		movs	r2, #192
 555:Generated_Source\PSoC4/CapSense_SensingCSD_LL.c **** 
 556:Generated_Source\PSoC4/CapSense_SensingCSD_LL.c ****         /* Configure VREF */
 557:Generated_Source\PSoC4/CapSense_SensingCSD_LL.c ****         newRegValue = CY_GET_REG32(CapSense_SW_REFGEN_SEL_PTR);
 558:Generated_Source\PSoC4/CapSense_SensingCSD_LL.c ****         newRegValue |= CapSense_DEFAULT_SW_REFGEN_SEL;
 559:Generated_Source\PSoC4/CapSense_SensingCSD_LL.c **** 
 560:Generated_Source\PSoC4/CapSense_SensingCSD_LL.c ****         CY_SET_REG32(CapSense_SW_REFGEN_SEL_PTR, newRegValue);
 561:Generated_Source\PSoC4/CapSense_SensingCSD_LL.c ****         CY_SET_REG32(CapSense_INTR_SET_PTR,         CapSense_DEFAULT_CSD_INTR_SET);
 252              		.loc 1 561 0
 253 0026 0024     		movs	r4, #0
 554:Generated_Source\PSoC4/CapSense_SensingCSD_LL.c **** 
 254              		.loc 1 554 0
 255 0028 394B     		ldr	r3, .L19+4
 557:Generated_Source\PSoC4/CapSense_SensingCSD_LL.c ****         newRegValue |= CapSense_DEFAULT_SW_REFGEN_SEL;
 256              		.loc 1 557 0
 257 002a 3A4D     		ldr	r5, .L19+8
 554:Generated_Source\PSoC4/CapSense_SensingCSD_LL.c **** 
 258              		.loc 1 554 0
 259 002c 1203     		lsls	r2, r2, #12
 260 002e 1A60     		str	r2, [r3]
ARM GAS  C:\Users\zack.li\AppData\Local\Temp\ccTyLy6m.s 			page 16


 557:Generated_Source\PSoC4/CapSense_SensingCSD_LL.c ****         newRegValue |= CapSense_DEFAULT_SW_REFGEN_SEL;
 261              		.loc 1 557 0
 262 0030 2B68     		ldr	r3, [r5]
 263              	.LVL26:
 558:Generated_Source\PSoC4/CapSense_SensingCSD_LL.c **** 
 264              		.loc 1 558 0
 265 0032 394A     		ldr	r2, .L19+12
 562:Generated_Source\PSoC4/CapSense_SensingCSD_LL.c ****         CY_SET_REG32(CapSense_SW_FW_TANK_SEL_PTR,   CapSense_DEFAULT_CSD_SW_FW_TANK_SEL);
 563:Generated_Source\PSoC4/CapSense_SensingCSD_LL.c ****         CY_SET_REG32(CapSense_SW_DSI_SEL_PTR,       CapSense_DEFAULT_CSD_SW_DSI_SEL);
 564:Generated_Source\PSoC4/CapSense_SensingCSD_LL.c ****         CY_SET_REG32(CapSense_ADC_CTL_PTR,          CapSense_DEFAULT_CSD_ADC_CTL);
 565:Generated_Source\PSoC4/CapSense_SensingCSD_LL.c ****         CY_SET_REG32(CapSense_AMBUF_PTR,            CapSense_AMBUF_PWR_MODE_OFF);
 266              		.loc 1 565 0
 267 0034 394E     		ldr	r6, .L19+16
 558:Generated_Source\PSoC4/CapSense_SensingCSD_LL.c **** 
 268              		.loc 1 558 0
 269 0036 1343     		orrs	r3, r2
 270              	.LVL27:
 560:Generated_Source\PSoC4/CapSense_SensingCSD_LL.c ****         CY_SET_REG32(CapSense_INTR_SET_PTR,         CapSense_DEFAULT_CSD_INTR_SET);
 271              		.loc 1 560 0
 272 0038 2B60     		str	r3, [r5]
 561:Generated_Source\PSoC4/CapSense_SensingCSD_LL.c ****         CY_SET_REG32(CapSense_SW_FW_TANK_SEL_PTR,   CapSense_DEFAULT_CSD_SW_FW_TANK_SEL);
 273              		.loc 1 561 0
 274 003a 394B     		ldr	r3, .L19+20
 275              	.LVL28:
 566:Generated_Source\PSoC4/CapSense_SensingCSD_LL.c ****         CY_SET_REG32(CapSense_SW_SHIELD_SEL_PTR,    CapSense_DEFAULT_SW_SHIELD_SEL);
 567:Generated_Source\PSoC4/CapSense_SensingCSD_LL.c ****         CY_SET_REG32(CapSense_SW_HS_P_SEL_PTR,      CapSense_DEFAULT_SW_HS_P_SEL);
 276              		.loc 1 567 0
 277 003c 394F     		ldr	r7, .L19+24
 561:Generated_Source\PSoC4/CapSense_SensingCSD_LL.c ****         CY_SET_REG32(CapSense_SW_FW_TANK_SEL_PTR,   CapSense_DEFAULT_CSD_SW_FW_TANK_SEL);
 278              		.loc 1 561 0
 279 003e 1C60     		str	r4, [r3]
 280              	.LVL29:
 562:Generated_Source\PSoC4/CapSense_SensingCSD_LL.c ****         CY_SET_REG32(CapSense_SW_DSI_SEL_PTR,       CapSense_DEFAULT_CSD_SW_DSI_SEL);
 281              		.loc 1 562 0
 282 0040 394B     		ldr	r3, .L19+28
 568:Generated_Source\PSoC4/CapSense_SensingCSD_LL.c ****         CY_SET_REG32(CapSense_SW_HS_N_SEL_PTR,      CapSense_DEFAULT_SW_HS_N_SEL);
 569:Generated_Source\PSoC4/CapSense_SensingCSD_LL.c ****         CY_SET_REG32(CapSense_HSCMP_PTR,            CapSense_DEFAULT_HSCMP_CFG);
 570:Generated_Source\PSoC4/CapSense_SensingCSD_LL.c **** 
 571:Generated_Source\PSoC4/CapSense_SensingCSD_LL.c ****         /* Connect CMOD to AMUXBUS-A */
 572:Generated_Source\PSoC4/CapSense_SensingCSD_LL.c ****         CapSense_WriteBitsSafe(CapSense_CMOD_HSIOM_PTR, CapSense_CMOD_HSIOM_MASK,
 283              		.loc 1 572 0
 284 0042 6022     		movs	r2, #96
 562:Generated_Source\PSoC4/CapSense_SensingCSD_LL.c ****         CY_SET_REG32(CapSense_SW_DSI_SEL_PTR,       CapSense_DEFAULT_CSD_SW_DSI_SEL);
 285              		.loc 1 562 0
 286 0044 1C60     		str	r4, [r3]
 563:Generated_Source\PSoC4/CapSense_SensingCSD_LL.c ****         CY_SET_REG32(CapSense_ADC_CTL_PTR,          CapSense_DEFAULT_CSD_ADC_CTL);
 287              		.loc 1 563 0
 288 0046 394B     		ldr	r3, .L19+32
 289              		.loc 1 572 0
 290 0048 F021     		movs	r1, #240
 563:Generated_Source\PSoC4/CapSense_SensingCSD_LL.c ****         CY_SET_REG32(CapSense_ADC_CTL_PTR,          CapSense_DEFAULT_CSD_ADC_CTL);
 291              		.loc 1 563 0
 292 004a 1C60     		str	r4, [r3]
 564:Generated_Source\PSoC4/CapSense_SensingCSD_LL.c ****         CY_SET_REG32(CapSense_AMBUF_PTR,            CapSense_AMBUF_PWR_MODE_OFF);
 293              		.loc 1 564 0
 294 004c 384B     		ldr	r3, .L19+36
 295              		.loc 1 572 0
ARM GAS  C:\Users\zack.li\AppData\Local\Temp\ccTyLy6m.s 			page 17


 296 004e 3948     		ldr	r0, .L19+40
 564:Generated_Source\PSoC4/CapSense_SensingCSD_LL.c ****         CY_SET_REG32(CapSense_AMBUF_PTR,            CapSense_AMBUF_PWR_MODE_OFF);
 297              		.loc 1 564 0
 298 0050 1C60     		str	r4, [r3]
 566:Generated_Source\PSoC4/CapSense_SensingCSD_LL.c ****         CY_SET_REG32(CapSense_SW_HS_P_SEL_PTR,      CapSense_DEFAULT_SW_HS_P_SEL);
 299              		.loc 1 566 0
 300 0052 394B     		ldr	r3, .L19+44
 565:Generated_Source\PSoC4/CapSense_SensingCSD_LL.c ****         CY_SET_REG32(CapSense_SW_SHIELD_SEL_PTR,    CapSense_DEFAULT_SW_SHIELD_SEL);
 301              		.loc 1 565 0
 302 0054 3460     		str	r4, [r6]
 566:Generated_Source\PSoC4/CapSense_SensingCSD_LL.c ****         CY_SET_REG32(CapSense_SW_HS_P_SEL_PTR,      CapSense_DEFAULT_SW_HS_P_SEL);
 303              		.loc 1 566 0
 304 0056 1C60     		str	r4, [r3]
 568:Generated_Source\PSoC4/CapSense_SensingCSD_LL.c ****         CY_SET_REG32(CapSense_HSCMP_PTR,            CapSense_DEFAULT_HSCMP_CFG);
 305              		.loc 1 568 0
 306 0058 384B     		ldr	r3, .L19+48
 567:Generated_Source\PSoC4/CapSense_SensingCSD_LL.c ****         CY_SET_REG32(CapSense_SW_HS_N_SEL_PTR,      CapSense_DEFAULT_SW_HS_N_SEL);
 307              		.loc 1 567 0
 308 005a 3C60     		str	r4, [r7]
 568:Generated_Source\PSoC4/CapSense_SensingCSD_LL.c ****         CY_SET_REG32(CapSense_HSCMP_PTR,            CapSense_DEFAULT_HSCMP_CFG);
 309              		.loc 1 568 0
 310 005c 1C60     		str	r4, [r3]
 569:Generated_Source\PSoC4/CapSense_SensingCSD_LL.c **** 
 311              		.loc 1 569 0
 312 005e 384B     		ldr	r3, .L19+52
 313 0060 1C60     		str	r4, [r3]
 314              		.loc 1 572 0
 315 0062 FFF7FEFF 		bl	CapSense_WriteBitsSafe
 316              	.LVL30:
 573:Generated_Source\PSoC4/CapSense_SensingCSD_LL.c ****                     (uint32)(CapSense_HSIOM_SEL_AMUXA << CapSense_CMOD_HSIOM_SHIFT));
 574:Generated_Source\PSoC4/CapSense_SensingCSD_LL.c **** 
 575:Generated_Source\PSoC4/CapSense_SensingCSD_LL.c ****         /* Set output port register to 0 to connect to GND */
 576:Generated_Source\PSoC4/CapSense_SensingCSD_LL.c ****         CapSense_WriteBitsSafe(CapSense_CMOD_DR_PTR, CapSense_Cmod__0__MASK, 0u);
 317              		.loc 1 576 0
 318 0066 2200     		movs	r2, r4
 319 0068 0221     		movs	r1, #2
 320 006a 3648     		ldr	r0, .L19+56
 321 006c FFF7FEFF 		bl	CapSense_WriteBitsSafe
 322              	.LVL31:
 577:Generated_Source\PSoC4/CapSense_SensingCSD_LL.c **** 
 578:Generated_Source\PSoC4/CapSense_SensingCSD_LL.c ****         /* Connect AMUXBUS-A to CSDBUS-A */
 579:Generated_Source\PSoC4/CapSense_SensingCSD_LL.c ****         newRegValue = CY_GET_REG32(CapSense_SW_BYP_SEL_PTR);
 580:Generated_Source\PSoC4/CapSense_SensingCSD_LL.c ****         newRegValue |= CapSense_SW_BYP_SEL_SW_BYA_MASK;
 323              		.loc 1 580 0
 324 0070 8021     		movs	r1, #128
 579:Generated_Source\PSoC4/CapSense_SensingCSD_LL.c ****         newRegValue |= CapSense_SW_BYP_SEL_SW_BYA_MASK;
 325              		.loc 1 579 0
 326 0072 354A     		ldr	r2, .L19+60
 327              		.loc 1 580 0
 328 0074 4901     		lsls	r1, r1, #5
 579:Generated_Source\PSoC4/CapSense_SensingCSD_LL.c ****         newRegValue |= CapSense_SW_BYP_SEL_SW_BYA_MASK;
 329              		.loc 1 579 0
 330 0076 1368     		ldr	r3, [r2]
 331              	.LVL32:
 332              		.loc 1 580 0
 333 0078 0B43     		orrs	r3, r1
 334              	.LVL33:
ARM GAS  C:\Users\zack.li\AppData\Local\Temp\ccTyLy6m.s 			page 18


 581:Generated_Source\PSoC4/CapSense_SensingCSD_LL.c ****         CY_SET_REG32(CapSense_SW_BYP_SEL_PTR, newRegValue);
 582:Generated_Source\PSoC4/CapSense_SensingCSD_LL.c **** 
 583:Generated_Source\PSoC4/CapSense_SensingCSD_LL.c ****         /* Connect CMOD to (sense path) to CSDCOMP */
 584:Generated_Source\PSoC4/CapSense_SensingCSD_LL.c ****         #if (CapSense_CSD__CMOD_PAD == CapSense_CMOD_CONNECTION)
 585:Generated_Source\PSoC4/CapSense_SensingCSD_LL.c ****             CY_SET_REG32(CapSense_SW_CMP_P_SEL_PTR, CapSense_SW_CMP_P_SEL_SW_SFPM_STATIC_CLOSE);
 586:Generated_Source\PSoC4/CapSense_SensingCSD_LL.c ****         #elif (CapSense_CSD__CSHIELD_PAD == CapSense_CMOD_CONNECTION)
 587:Generated_Source\PSoC4/CapSense_SensingCSD_LL.c ****             CY_SET_REG32(CapSense_SW_CMP_P_SEL_PTR, CapSense_SW_CMP_P_SEL_SW_SFPS_STATIC_CLOSE);
 335              		.loc 1 587 0
 336 007a 8021     		movs	r1, #128
 581:Generated_Source\PSoC4/CapSense_SensingCSD_LL.c ****         CY_SET_REG32(CapSense_SW_BYP_SEL_PTR, newRegValue);
 337              		.loc 1 581 0
 338 007c 1360     		str	r3, [r2]
 339              		.loc 1 587 0
 340 007e 334B     		ldr	r3, .L19+64
 341              	.LVL34:
 342 0080 4900     		lsls	r1, r1, #1
 343 0082 1960     		str	r1, [r3]
 344              	.LVL35:
 588:Generated_Source\PSoC4/CapSense_SensingCSD_LL.c ****         #else
 589:Generated_Source\PSoC4/CapSense_SensingCSD_LL.c ****             CY_SET_REG32(CapSense_SW_CMP_P_SEL_PTR, CapSense_SW_CMP_P_SEL_SW_SFPT_STATIC_CLOSE);
 590:Generated_Source\PSoC4/CapSense_SensingCSD_LL.c ****         #endif /* (CapSense_CSD__CMOD_PAD == CapSense_CMOD_CONNECTION) */
 591:Generated_Source\PSoC4/CapSense_SensingCSD_LL.c **** 
 592:Generated_Source\PSoC4/CapSense_SensingCSD_LL.c ****         /* Configure shield driving path */
 593:Generated_Source\PSoC4/CapSense_SensingCSD_LL.c ****         #if (CapSense_ENABLE == CapSense_CSD_SHIELD_EN)
 594:Generated_Source\PSoC4/CapSense_SensingCSD_LL.c ****             /* Connect AMUXBUS-B to CSDBUS-B (and AMUXBUS-A to CSDBUS-A ) */
 595:Generated_Source\PSoC4/CapSense_SensingCSD_LL.c ****             CY_SET_REG32(CapSense_SW_BYP_SEL_PTR, CapSense_SW_BYP_SEL_SW_BYA_MASK | CapSense_SW_BYP
 345              		.loc 1 595 0
 346 0084 8823     		movs	r3, #136
 347 0086 5B02     		lsls	r3, r3, #9
 348 0088 1360     		str	r3, [r2]
 596:Generated_Source\PSoC4/CapSense_SensingCSD_LL.c **** 
 597:Generated_Source\PSoC4/CapSense_SensingCSD_LL.c ****             /* Connect AMUXBUS-B to HSCMP positive input */
 598:Generated_Source\PSoC4/CapSense_SensingCSD_LL.c ****             CY_SET_REG32(CapSense_SW_HS_P_SEL_PTR, 0x00000000uL);
 349              		.loc 1 598 0
 350 008a 3C60     		str	r4, [r7]
 599:Generated_Source\PSoC4/CapSense_SensingCSD_LL.c ****         #endif /* (CapSense_ENABLE == CapSense_CSD_SHIELD_EN) */
 600:Generated_Source\PSoC4/CapSense_SensingCSD_LL.c **** 
 601:Generated_Source\PSoC4/CapSense_SensingCSD_LL.c ****         /* Configure VREF */
 602:Generated_Source\PSoC4/CapSense_SensingCSD_LL.c ****         #if (CapSense_ENABLE == CapSense_CSD_IDAC_COMP_EN)
 603:Generated_Source\PSoC4/CapSense_SensingCSD_LL.c ****             /* Connect VREF to REFGEN. Connect IDACB to CSDBUSA */
 604:Generated_Source\PSoC4/CapSense_SensingCSD_LL.c ****             newRegValue = CY_GET_REG32(CapSense_SW_REFGEN_SEL_PTR);
 351              		.loc 1 604 0
 352 008c 2B68     		ldr	r3, [r5]
 353              	.LVL36:
 605:Generated_Source\PSoC4/CapSense_SensingCSD_LL.c ****             newRegValue |= CapSense_SW_REFGEN_SEL_SW_SGR_MASK | CapSense_SW_REFGEN_SEL_SW_IAIB_MASK
 354              		.loc 1 605 0
 355 008e 224A     		ldr	r2, .L19+12
 606:Generated_Source\PSoC4/CapSense_SensingCSD_LL.c ****             CY_SET_REG32(CapSense_SW_REFGEN_SEL_PTR, newRegValue);
 607:Generated_Source\PSoC4/CapSense_SensingCSD_LL.c ****         #else
 608:Generated_Source\PSoC4/CapSense_SensingCSD_LL.c ****             /* Connect VREF to REFGEN (IAIB switch is open) */
 609:Generated_Source\PSoC4/CapSense_SensingCSD_LL.c ****             newRegValue = CY_GET_REG32(CapSense_SW_REFGEN_SEL_PTR);
 610:Generated_Source\PSoC4/CapSense_SensingCSD_LL.c ****             newRegValue |= CapSense_SW_REFGEN_SEL_SW_SGR_MASK;
 611:Generated_Source\PSoC4/CapSense_SensingCSD_LL.c ****             CY_SET_REG32(CapSense_SW_REFGEN_SEL_PTR, newRegValue);
 612:Generated_Source\PSoC4/CapSense_SensingCSD_LL.c ****         #endif /* (CapSense_ENABLE == CapSense_CSD_IDAC_COMP_EN) */
 613:Generated_Source\PSoC4/CapSense_SensingCSD_LL.c **** 
 614:Generated_Source\PSoC4/CapSense_SensingCSD_LL.c ****         /* Connect VREFHI (from RefGen) to CSDCOMP when Vdda >= 2 V */
 615:Generated_Source\PSoC4/CapSense_SensingCSD_LL.c ****         CY_SET_REG32(CapSense_SW_CMP_N_SEL_PTR, CapSense_SW_CMP_N_SEL_SW_SCRH_STATIC_CLOSE);
ARM GAS  C:\Users\zack.li\AppData\Local\Temp\ccTyLy6m.s 			page 19


 616:Generated_Source\PSoC4/CapSense_SensingCSD_LL.c **** 
 617:Generated_Source\PSoC4/CapSense_SensingCSD_LL.c ****         #if (CapSense_2000_MV > CapSense_CYDEV_VDDA_MV)
 618:Generated_Source\PSoC4/CapSense_SensingCSD_LL.c **** 
 619:Generated_Source\PSoC4/CapSense_SensingCSD_LL.c ****             /* Configure REFGEN. Set reference voltage when Vdda < 2 V */
 620:Generated_Source\PSoC4/CapSense_SensingCSD_LL.c ****             CY_SET_REG32(CapSense_REFGEN_PTR, CapSense_REFGEN_LV);
 621:Generated_Source\PSoC4/CapSense_SensingCSD_LL.c **** 
 622:Generated_Source\PSoC4/CapSense_SensingCSD_LL.c ****             /* Connect Vrefhi to AMUBUF positive input when Vdaa < 2V
 623:Generated_Source\PSoC4/CapSense_SensingCSD_LL.c ****              *  Connect AMUBUF to SCDCMP negative input when Vdaa < 2V
 624:Generated_Source\PSoC4/CapSense_SensingCSD_LL.c ****              */
 625:Generated_Source\PSoC4/CapSense_SensingCSD_LL.c ****             #if (CapSense_ENABLE == CapSense_CSD_SHIELD_EN)
 626:Generated_Source\PSoC4/CapSense_SensingCSD_LL.c ****                 #if (CapSense_IDAC_SINKING == CapSense_CSD_IDAC_CONFIG)
 627:Generated_Source\PSoC4/CapSense_SensingCSD_LL.c ****                     CY_SET_REG32(CapSense_SW_AMUXBUF_SEL_PTR, CapSense_SW_AMUXBUF_SEL_SW_IRH_STATIC
 628:Generated_Source\PSoC4/CapSense_SensingCSD_LL.c ****                                                                           CapSense_SW_AMUXBUF_SEL_S
 629:Generated_Source\PSoC4/CapSense_SensingCSD_LL.c ****                 #else
 630:Generated_Source\PSoC4/CapSense_SensingCSD_LL.c ****                     CY_SET_REG32(CapSense_SW_AMUXBUF_SEL_PTR, CapSense_SW_AMUXBUF_SEL_SW_DEFAULT);
 631:Generated_Source\PSoC4/CapSense_SensingCSD_LL.c ****                 #endif /* (CapSense_ENABLE == CapSense_CSD_SHIELD_EN) */
 632:Generated_Source\PSoC4/CapSense_SensingCSD_LL.c ****                 CY_SET_REG32(CapSense_AMBUF_PTR, CapSense_AMBUF_PWR_MODE_NORM);
 633:Generated_Source\PSoC4/CapSense_SensingCSD_LL.c ****             #else
 634:Generated_Source\PSoC4/CapSense_SensingCSD_LL.c ****                 CY_SET_REG32(CapSense_AMBUF_PTR, CapSense_AMBUF_PWR_MODE_OFF);
 635:Generated_Source\PSoC4/CapSense_SensingCSD_LL.c ****             #endif /* (CapSense_ENABLE == CapSense_CSD_SHIELD_EN) */
 636:Generated_Source\PSoC4/CapSense_SensingCSD_LL.c **** 
 637:Generated_Source\PSoC4/CapSense_SensingCSD_LL.c ****             /* Connect VREFHI to HSCOMP */
 638:Generated_Source\PSoC4/CapSense_SensingCSD_LL.c ****             CY_SET_REG32(CapSense_SW_HS_N_SEL_PTR, CapSense_SW_HS_N_SEL_SW_HCRH_STATIC_CLOSE);
 639:Generated_Source\PSoC4/CapSense_SensingCSD_LL.c ****         #else
 640:Generated_Source\PSoC4/CapSense_SensingCSD_LL.c **** 
 641:Generated_Source\PSoC4/CapSense_SensingCSD_LL.c ****             /* Configure REFGEN. Set reference voltage when Vdda >= 2 V */
 642:Generated_Source\PSoC4/CapSense_SensingCSD_LL.c ****             CY_SET_REG32(CapSense_REFGEN_PTR, CapSense_REFGEN_HV);
 356              		.loc 1 642 0
 357 0090 2F49     		ldr	r1, .L19+68
 605:Generated_Source\PSoC4/CapSense_SensingCSD_LL.c ****             newRegValue |= CapSense_SW_REFGEN_SEL_SW_SGR_MASK | CapSense_SW_REFGEN_SEL_SW_IAIB_MASK
 358              		.loc 1 605 0
 359 0092 1343     		orrs	r3, r2
 360              	.LVL37:
 606:Generated_Source\PSoC4/CapSense_SensingCSD_LL.c ****             CY_SET_REG32(CapSense_SW_REFGEN_SEL_PTR, newRegValue);
 361              		.loc 1 606 0
 362 0094 2B60     		str	r3, [r5]
 615:Generated_Source\PSoC4/CapSense_SensingCSD_LL.c **** 
 363              		.loc 1 615 0
 364 0096 8023     		movs	r3, #128
 365              	.LVL38:
 366 0098 2E4A     		ldr	r2, .L19+72
 367 009a 5B04     		lsls	r3, r3, #17
 368 009c 1360     		str	r3, [r2]
 369              	.LVL39:
 370              		.loc 1 642 0
 371 009e 2E4A     		ldr	r2, .L19+76
 372 00a0 2E4D     		ldr	r5, .L19+80
 373 00a2 1160     		str	r1, [r2]
 643:Generated_Source\PSoC4/CapSense_SensingCSD_LL.c **** 
 644:Generated_Source\PSoC4/CapSense_SensingCSD_LL.c ****             #if (CapSense_ENABLE == CapSense_CSD_SHIELD_EN)
 645:Generated_Source\PSoC4/CapSense_SensingCSD_LL.c ****                 /* Turn on CSD_AMBUF high power level when Vdaa >= 2V */
 646:Generated_Source\PSoC4/CapSense_SensingCSD_LL.c ****                 CY_SET_REG32(CapSense_AMBUF_PTR, CapSense_AMBUF_PWR_MODE_HI);
 374              		.loc 1 646 0
 375 00a4 0222     		movs	r2, #2
 647:Generated_Source\PSoC4/CapSense_SensingCSD_LL.c **** 
 648:Generated_Source\PSoC4/CapSense_SensingCSD_LL.c ****                 #if (CapSense_IDAC_SINKING != CapSense_CSD_IDAC_CONFIG)
 649:Generated_Source\PSoC4/CapSense_SensingCSD_LL.c ****                     CY_SET_REG32(CapSense_SW_AMUXBUF_SEL_PTR, CapSense_SW_AMUXBUF_SEL_SW_IRH_STATIC
ARM GAS  C:\Users\zack.li\AppData\Local\Temp\ccTyLy6m.s 			page 20


 376              		.loc 1 649 0
 377 00a6 2E49     		ldr	r1, .L19+84
 646:Generated_Source\PSoC4/CapSense_SensingCSD_LL.c **** 
 378              		.loc 1 646 0
 379 00a8 3260     		str	r2, [r6]
 380              		.loc 1 649 0
 381 00aa 2E4A     		ldr	r2, .L19+88
 650:Generated_Source\PSoC4/CapSense_SensingCSD_LL.c ****                                                                           CapSense_SW_AMUXBUF_SEL_S
 651:Generated_Source\PSoC4/CapSense_SensingCSD_LL.c ****                 #else
 652:Generated_Source\PSoC4/CapSense_SensingCSD_LL.c ****                     CY_SET_REG32(CapSense_SW_AMUXBUF_SEL_PTR, CapSense_SW_AMUXBUF_SEL_SW_DEFAULT);
 653:Generated_Source\PSoC4/CapSense_SensingCSD_LL.c ****                 #endif /* (CapSense_IDAC_SINKING == CapSense_CSD_IDAC_CONFIG) */
 654:Generated_Source\PSoC4/CapSense_SensingCSD_LL.c ****             #else
 655:Generated_Source\PSoC4/CapSense_SensingCSD_LL.c ****                 CY_SET_REG32(CapSense_SW_AMUXBUF_SEL_PTR, CapSense_SW_AMUXBUF_SEL_SW_DEFAULT);
 656:Generated_Source\PSoC4/CapSense_SensingCSD_LL.c ****             #endif /* (CapSense_ENABLE == CapSense_CSD_SHIELD_EN) */
 657:Generated_Source\PSoC4/CapSense_SensingCSD_LL.c **** 
 658:Generated_Source\PSoC4/CapSense_SensingCSD_LL.c ****             /* Connect VREFHI to HSCOMP */
 659:Generated_Source\PSoC4/CapSense_SensingCSD_LL.c ****             CY_SET_REG32(CapSense_SW_HS_N_SEL_PTR, CapSense_SW_HS_N_SEL_SW_HCRH_STATIC_CLOSE);
 660:Generated_Source\PSoC4/CapSense_SensingCSD_LL.c ****         #endif /* (CapSense_2000_MV > CapSense_CYDEV_VDDA_MV) */
 661:Generated_Source\PSoC4/CapSense_SensingCSD_LL.c **** 
 662:Generated_Source\PSoC4/CapSense_SensingCSD_LL.c ****         /* Configure IDACs mode */
 663:Generated_Source\PSoC4/CapSense_SensingCSD_LL.c ****         CapSense_SsCSDConfigIDACs();
 664:Generated_Source\PSoC4/CapSense_SensingCSD_LL.c **** 
 665:Generated_Source\PSoC4/CapSense_SensingCSD_LL.c ****         /* Configure ModClk */
 666:Generated_Source\PSoC4/CapSense_SensingCSD_LL.c ****         CapSense_SsSetModClkClockDivider((uint32)CapSense_dsRam.modCsdClk);
 382              		.loc 1 666 0
 383 00ac 174E     		ldr	r6, .L19
 649:Generated_Source\PSoC4/CapSense_SensingCSD_LL.c ****                                                                           CapSense_SW_AMUXBUF_SEL_S
 384              		.loc 1 649 0
 385 00ae 1160     		str	r1, [r2]
 659:Generated_Source\PSoC4/CapSense_SensingCSD_LL.c ****         #endif /* (CapSense_2000_MV > CapSense_CYDEV_VDDA_MV) */
 386              		.loc 1 659 0
 387 00b0 224A     		ldr	r2, .L19+48
 388              		.loc 1 666 0
 389 00b2 0136     		adds	r6, r6, #1
 659:Generated_Source\PSoC4/CapSense_SensingCSD_LL.c ****         #endif /* (CapSense_2000_MV > CapSense_CYDEV_VDDA_MV) */
 390              		.loc 1 659 0
 391 00b4 1360     		str	r3, [r2]
 392              	.LBB10:
 393              	.LBB11:
 473:Generated_Source\PSoC4/CapSense_SensingCSD_LL.c ****         #if (CapSense_ENABLE == CapSense_CSD_IDAC_COMP_EN)
 394              		.loc 1 473 0
 395 00b6 2C4A     		ldr	r2, .L19+92
 396 00b8 2C4B     		ldr	r3, .L19+96
 397 00ba 1A60     		str	r2, [r3]
 475:Generated_Source\PSoC4/CapSense_SensingCSD_LL.c ****         #endif /* (CapSense_ENABLE == CapSense_CSD_IDAC_COMP_EN) */
 398              		.loc 1 475 0
 399 00bc C522     		movs	r2, #197
 400 00be 2C4B     		ldr	r3, .L19+100
 401 00c0 5204     		lsls	r2, r2, #17
 402 00c2 1A60     		str	r2, [r3]
 403              	.LBE11:
 404              	.LBE10:
 405              		.loc 1 666 0
 406 00c4 F07F     		ldrb	r0, [r6, #31]
 407 00c6 FFF7FEFF 		bl	CapSense_SsSetModClkClockDivider
 408              	.LVL40:
 409              	.LBB12:
ARM GAS  C:\Users\zack.li\AppData\Local\Temp\ccTyLy6m.s 			page 21


 410              	.LBB13:
 206:Generated_Source\PSoC4/CapSense_SensingCSD_LL.c ****         CapSense_configCsd |= (delay << CapSense_SHIELD_DELAY_SHIFT);
 411              		.loc 1 206 0
 412 00ca 2A4C     		ldr	r4, .L19+104
 413              	.LBE13:
 414              	.LBE12:
 415              	.LBB14:
 416              	.LBB15:
 439:Generated_Source\PSoC4/CapSense_SensingCSD_LL.c ****             {
 417              		.loc 1 439 0
 418 00cc F17F     		ldrb	r1, [r6, #31]
 419 00ce 2368     		ldr	r3, [r4]
 420 00d0 2948     		ldr	r0, .L19+108
 421 00d2 1D40     		ands	r5, r3
 422              	.LVL41:
 423 00d4 FFF7FEFF 		bl	__aeabi_uidiv
 424              	.LVL42:
 425 00d8 284A     		ldr	r2, .L19+112
 426 00da 2300     		movs	r3, r4
 427 00dc 9042     		cmp	r0, r2
 428 00de 01D8     		bhi	.L16
 441:Generated_Source\PSoC4/CapSense_SensingCSD_LL.c ****             }
 429              		.loc 1 441 0
 430 00e0 9022     		movs	r2, #144
 431 00e2 00E0     		b	.L18
 432              	.L16:
 445:Generated_Source\PSoC4/CapSense_SensingCSD_LL.c ****             }
 433              		.loc 1 445 0
 434 00e4 9822     		movs	r2, #152
 435              	.L18:
 436 00e6 5200     		lsls	r2, r2, #1
 437 00e8 1543     		orrs	r5, r2
 438 00ea 1D60     		str	r5, [r3]
 439              	.LBE15:
 440              	.LBE14:
 667:Generated_Source\PSoC4/CapSense_SensingCSD_LL.c **** 
 668:Generated_Source\PSoC4/CapSense_SensingCSD_LL.c ****         /* Set other CSD configurations */
 669:Generated_Source\PSoC4/CapSense_SensingCSD_LL.c ****         #if (CapSense_ENABLE == CapSense_CSD_SHIELD_EN)
 670:Generated_Source\PSoC4/CapSense_SensingCSD_LL.c ****             CapSense_SsSetShieldDelay(CapSense_CSD_SHIELD_DELAY);
 671:Generated_Source\PSoC4/CapSense_SensingCSD_LL.c ****         #endif /* (CapSense_ENABLE == CapSense_CSD_SHIELD_EN) */
 672:Generated_Source\PSoC4/CapSense_SensingCSD_LL.c **** 
 673:Generated_Source\PSoC4/CapSense_SensingCSD_LL.c ****         /* Configure HW block filter delay */
 674:Generated_Source\PSoC4/CapSense_SensingCSD_LL.c ****         CapSense_SsCSDSetFilterDelay();
 675:Generated_Source\PSoC4/CapSense_SensingCSD_LL.c **** 
 676:Generated_Source\PSoC4/CapSense_SensingCSD_LL.c ****         #if (CapSense_DISABLE == CapSense_BLOCK_OFF_AFTER_SCAN_EN)
 677:Generated_Source\PSoC4/CapSense_SensingCSD_LL.c ****             /* Enable power to sub-blocks */
 678:Generated_Source\PSoC4/CapSense_SensingCSD_LL.c ****             CY_SET_REG32(CapSense_CONFIG_PTR, CapSense_configCsd |
 441              		.loc 1 678 0
 442 00ec 1B68     		ldr	r3, [r3]
 443 00ee 244A     		ldr	r2, .L19+116
 679:Generated_Source\PSoC4/CapSense_SensingCSD_LL.c ****                                                       CapSense_CONFIG_SENSE_EN_MASK |
 680:Generated_Source\PSoC4/CapSense_SensingCSD_LL.c ****                                                       CapSense_CONFIG_ENABLE_MASK);
 681:Generated_Source\PSoC4/CapSense_SensingCSD_LL.c ****         #endif /* (CapSense_ENABLE == CapSense_BLOCK_OFF_AFTER_SCAN_EN) */
 682:Generated_Source\PSoC4/CapSense_SensingCSD_LL.c **** 
 683:Generated_Source\PSoC4/CapSense_SensingCSD_LL.c ****         /* Set Csd Auto Zero time (set AZ_TIME bitmask) */
 684:Generated_Source\PSoC4/CapSense_SensingCSD_LL.c ****         CY_SET_REG32(CapSense_SEQ_TIME_PTR, CapSense_CSD_AUTO_ZERO_TIME);
 685:Generated_Source\PSoC4/CapSense_SensingCSD_LL.c **** 
ARM GAS  C:\Users\zack.li\AppData\Local\Temp\ccTyLy6m.s 			page 22


 686:Generated_Source\PSoC4/CapSense_SensingCSD_LL.c ****         /* Select CMOD and Csh_tank/shield initialization switch resistance */
 687:Generated_Source\PSoC4/CapSense_SensingCSD_LL.c ****         CY_SET_REG32(CapSense_SW_RES_PTR, 0x00000000);
 688:Generated_Source\PSoC4/CapSense_SensingCSD_LL.c **** 
 689:Generated_Source\PSoC4/CapSense_SensingCSD_LL.c ****         /* Set the number of dummy fine initialization cycles */
 690:Generated_Source\PSoC4/CapSense_SensingCSD_LL.c ****         CY_SET_REG32(CapSense_SEQ_INIT_CNT_PTR, CapSense_CSD_FINE_INIT_TIME);
 691:Generated_Source\PSoC4/CapSense_SensingCSD_LL.c **** 
 692:Generated_Source\PSoC4/CapSense_SensingCSD_LL.c ****     #else
 693:Generated_Source\PSoC4/CapSense_SensingCSD_LL.c **** 
 694:Generated_Source\PSoC4/CapSense_SensingCSD_LL.c ****         /* Configure IDACs mode */
 695:Generated_Source\PSoC4/CapSense_SensingCSD_LL.c ****         CapSense_SsCSDConfigIDACs();
 696:Generated_Source\PSoC4/CapSense_SensingCSD_LL.c **** 
 697:Generated_Source\PSoC4/CapSense_SensingCSD_LL.c ****         /* Connect Cmod to AMUXBUS-A using HSIOM registers */
 698:Generated_Source\PSoC4/CapSense_SensingCSD_LL.c ****         CapSense_WriteBitsSafe(CapSense_CMOD_HSIOM_PTR, CapSense_CMOD_HSIOM_MASK,
 699:Generated_Source\PSoC4/CapSense_SensingCSD_LL.c ****                     (uint32)(CapSense_HSIOM_SEL_AMUXA << CapSense_CMOD_HSIOM_SHIFT));
 700:Generated_Source\PSoC4/CapSense_SensingCSD_LL.c **** 
 701:Generated_Source\PSoC4/CapSense_SensingCSD_LL.c ****         #if (CapSense_ENABLE == CapSense_CSD_SHIELD_EN)
 702:Generated_Source\PSoC4/CapSense_SensingCSD_LL.c ****             CapSense_SsSetShieldDelay(CapSense_CSD_SHIELD_DELAY);
 703:Generated_Source\PSoC4/CapSense_SensingCSD_LL.c ****         #endif /* (CapSense_ENABLE == CapSense_CSD_SHIELD_EN) */
 704:Generated_Source\PSoC4/CapSense_SensingCSD_LL.c **** 
 705:Generated_Source\PSoC4/CapSense_SensingCSD_LL.c ****         /* Enable CSD block. Connect Vref Buffer to AMUX bus to make sure that Cmod is charged befo
 706:Generated_Source\PSoC4/CapSense_SensingCSD_LL.c ****         #if (CapSense_ENABLE == CapSense_BLOCK_OFF_AFTER_SCAN_EN)
 707:Generated_Source\PSoC4/CapSense_SensingCSD_LL.c ****             CY_SET_REG32(CapSense_CONFIG_PTR, CapSense_configCsd);
 708:Generated_Source\PSoC4/CapSense_SensingCSD_LL.c ****         #else
 709:Generated_Source\PSoC4/CapSense_SensingCSD_LL.c ****             CY_SET_REG32(CapSense_CONFIG_PTR, CapSense_configCsd | CapSense_CTANK_PRECHARGE_CONFIG_
 710:Generated_Source\PSoC4/CapSense_SensingCSD_LL.c ****         #endif
 711:Generated_Source\PSoC4/CapSense_SensingCSD_LL.c ****     #endif /* (CapSense_ENABLE == CapSense_CSDV2) */
 712:Generated_Source\PSoC4/CapSense_SensingCSD_LL.c **** 
 713:Generated_Source\PSoC4/CapSense_SensingCSD_LL.c ****     #if ((CapSense_ENABLE == CapSense_CSD_COMMON_SNS_CLK_EN) &&\
 714:Generated_Source\PSoC4/CapSense_SensingCSD_LL.c ****          (CapSense_CLK_SOURCE_DIRECT == CapSense_CSD_SNS_CLK_SOURCE))
 715:Generated_Source\PSoC4/CapSense_SensingCSD_LL.c ****          /* Set clock dividers and clock source mode */
 716:Generated_Source\PSoC4/CapSense_SensingCSD_LL.c ****         CapSense_SsCSDConfigClock();
 717:Generated_Source\PSoC4/CapSense_SensingCSD_LL.c ****     #endif
 718:Generated_Source\PSoC4/CapSense_SensingCSD_LL.c **** }
 444              		.loc 1 718 0
 445              		@ sp needed
 678:Generated_Source\PSoC4/CapSense_SensingCSD_LL.c ****                                                       CapSense_CONFIG_SENSE_EN_MASK |
 446              		.loc 1 678 0
 447 00f0 1343     		orrs	r3, r2
 448 00f2 244A     		ldr	r2, .L19+120
 449 00f4 1360     		str	r3, [r2]
 684:Generated_Source\PSoC4/CapSense_SensingCSD_LL.c **** 
 450              		.loc 1 684 0
 451 00f6 0F22     		movs	r2, #15
 452 00f8 234B     		ldr	r3, .L19+124
 453 00fa 1A60     		str	r2, [r3]
 687:Generated_Source\PSoC4/CapSense_SensingCSD_LL.c **** 
 454              		.loc 1 687 0
 455 00fc 0022     		movs	r2, #0
 456 00fe 234B     		ldr	r3, .L19+128
 457 0100 1A60     		str	r2, [r3]
 690:Generated_Source\PSoC4/CapSense_SensingCSD_LL.c **** 
 458              		.loc 1 690 0
 459 0102 234B     		ldr	r3, .L19+132
 460 0104 0A32     		adds	r2, r2, #10
 461 0106 1A60     		str	r2, [r3]
 462              		.loc 1 718 0
 463 0108 F8BD     		pop	{r3, r4, r5, r6, r7, pc}
ARM GAS  C:\Users\zack.li\AppData\Local\Temp\ccTyLy6m.s 			page 23


 464              	.L20:
 465 010a C046     		.align	2
 466              	.L19:
 467 010c 00000000 		.word	CapSense_dsRam
 468 0110 04020B40 		.word	1074463236
 469 0114 A8020B40 		.word	1074463400
 470 0118 01000010 		.word	268435457
 471 011c 84010B40 		.word	1074463108
 472 0120 F4000B40 		.word	1074462964
 473 0124 80020B40 		.word	1074463360
 474 0128 B4020B40 		.word	1074463412
 475 012c C0020B40 		.word	1074463424
 476 0130 20030B40 		.word	1074463520
 477 0134 00040240 		.word	1073873920
 478 0138 88020B40 		.word	1074463368
 479 013c 84020B40 		.word	1074463364
 480 0140 80010B40 		.word	1074463104
 481 0144 00040440 		.word	1074004992
 482 0148 94020B40 		.word	1074463380
 483 014c A0020B40 		.word	1074463392
 484 0150 41120000 		.word	4673
 485 0154 A4020B40 		.word	1074463396
 486 0158 88010B40 		.word	1074463112
 487 015c 8FFCFFFF 		.word	-881
 488 0160 00000301 		.word	16973824
 489 0164 90020B40 		.word	1074463376
 490 0168 00008F01 		.word	26148864
 491 016c C0010B40 		.word	1074463168
 492 0170 C4010B40 		.word	1074463172
 493 0174 00000000 		.word	.LANCHOR0
 494 0178 00366E01 		.word	24000000
 495 017c 001BB700 		.word	12000000
 496 0180 00100080 		.word	-2147479552
 497 0184 00000B40 		.word	1074462720
 498 0188 00030B40 		.word	1074463488
 499 018c F0010B40 		.word	1074463216
 500 0190 10030B40 		.word	1074463504
 501              		.cfi_endproc
 502              	.LFE8:
 503              		.size	CapSense_SsCSDInitialize, .-CapSense_SsCSDInitialize
 504              		.section	.text.CapSense_SsCSDSetUpIdacs,"ax",%progbits
 505              		.align	1
 506              		.global	CapSense_SsCSDSetUpIdacs
 507              		.code	16
 508              		.thumb_func
 509              		.type	CapSense_SsCSDSetUpIdacs, %function
 510              	CapSense_SsCSDSetUpIdacs:
 511              	.LFB10:
 719:Generated_Source\PSoC4/CapSense_SensingCSD_LL.c **** 
 720:Generated_Source\PSoC4/CapSense_SensingCSD_LL.c **** 
 721:Generated_Source\PSoC4/CapSense_SensingCSD_LL.c **** /*******************************************************************************
 722:Generated_Source\PSoC4/CapSense_SensingCSD_LL.c **** * Function Name: CapSense_SsCSDElectrodeCheck
 723:Generated_Source\PSoC4/CapSense_SensingCSD_LL.c **** ****************************************************************************//**
 724:Generated_Source\PSoC4/CapSense_SensingCSD_LL.c **** *
 725:Generated_Source\PSoC4/CapSense_SensingCSD_LL.c **** * \brief
 726:Generated_Source\PSoC4/CapSense_SensingCSD_LL.c **** *   Checks if electrodes were previously connected using
 727:Generated_Source\PSoC4/CapSense_SensingCSD_LL.c ****  * CapSense_CSDSetupWidgetExt() API and if yes disconnects them.
ARM GAS  C:\Users\zack.li\AppData\Local\Temp\ccTyLy6m.s 			page 24


 728:Generated_Source\PSoC4/CapSense_SensingCSD_LL.c **** *
 729:Generated_Source\PSoC4/CapSense_SensingCSD_LL.c **** * \details
 730:Generated_Source\PSoC4/CapSense_SensingCSD_LL.c **** *   This function checks if CapSense_eleCsdDisconnectFlag is set.
 731:Generated_Source\PSoC4/CapSense_SensingCSD_LL.c **** *   If it set, the function disconnects the previously connected electrode.
 732:Generated_Source\PSoC4/CapSense_SensingCSD_LL.c **** *   The previous IO is contained in CapSense_curSnsIOPtr and
 733:Generated_Source\PSoC4/CapSense_SensingCSD_LL.c **** *   CapSense_curFlashSnsPtr contains the previous data for Ganged
 734:Generated_Source\PSoC4/CapSense_SensingCSD_LL.c **** *   sensors.
 735:Generated_Source\PSoC4/CapSense_SensingCSD_LL.c **** *
 736:Generated_Source\PSoC4/CapSense_SensingCSD_LL.c **** *******************************************************************************/
 737:Generated_Source\PSoC4/CapSense_SensingCSD_LL.c **** void CapSense_SsCSDElectrodeCheck(void)
 738:Generated_Source\PSoC4/CapSense_SensingCSD_LL.c **** {
 739:Generated_Source\PSoC4/CapSense_SensingCSD_LL.c ****     #if (CapSense_ENABLE == CapSense_CSD_GANGED_SNS_EN)
 740:Generated_Source\PSoC4/CapSense_SensingCSD_LL.c ****         uint32 tempVal;
 741:Generated_Source\PSoC4/CapSense_SensingCSD_LL.c ****     #endif /* (CapSense_ENABLE == CapSense_CSD_GANGED_SNS_EN) */
 742:Generated_Source\PSoC4/CapSense_SensingCSD_LL.c **** 
 743:Generated_Source\PSoC4/CapSense_SensingCSD_LL.c ****     if (CapSense_ENABLE == CapSense_eleCsdDisconnectFlag)
 744:Generated_Source\PSoC4/CapSense_SensingCSD_LL.c ****     {
 745:Generated_Source\PSoC4/CapSense_SensingCSD_LL.c ****         /* Disconnect if electrodes were previous connected by CSDSetupWidgetExt() API */
 746:Generated_Source\PSoC4/CapSense_SensingCSD_LL.c ****         #if (CapSense_ENABLE == CapSense_CSD_GANGED_SNS_EN)
 747:Generated_Source\PSoC4/CapSense_SensingCSD_LL.c ****             /* Check ganged sns flag  */
 748:Generated_Source\PSoC4/CapSense_SensingCSD_LL.c ****             if (CapSense_GANGED_SNS_MASK == (CapSense_curFlashWdgtPtr->staticConfig & CapSense_GANG
 749:Generated_Source\PSoC4/CapSense_SensingCSD_LL.c ****             {
 750:Generated_Source\PSoC4/CapSense_SensingCSD_LL.c ****                 /* Get number of ganged pins */
 751:Generated_Source\PSoC4/CapSense_SensingCSD_LL.c ****                 tempVal = CapSense_curFlashSnsPtr->numPins;
 752:Generated_Source\PSoC4/CapSense_SensingCSD_LL.c **** 
 753:Generated_Source\PSoC4/CapSense_SensingCSD_LL.c ****                 /* Get IO pointer  */
 754:Generated_Source\PSoC4/CapSense_SensingCSD_LL.c ****                 CapSense_curSnsIOPtr = &CapSense_ioList[CapSense_curFlashSnsPtr->firstPinId];
 755:Generated_Source\PSoC4/CapSense_SensingCSD_LL.c **** 
 756:Generated_Source\PSoC4/CapSense_SensingCSD_LL.c ****                 /* Disconnect all ganged sensors */
 757:Generated_Source\PSoC4/CapSense_SensingCSD_LL.c ****                 do
 758:Generated_Source\PSoC4/CapSense_SensingCSD_LL.c ****                 {
 759:Generated_Source\PSoC4/CapSense_SensingCSD_LL.c ****                     CapSense_CSDDisconnectSns(CapSense_curSnsIOPtr);
 760:Generated_Source\PSoC4/CapSense_SensingCSD_LL.c ****                     CapSense_curSnsIOPtr++;
 761:Generated_Source\PSoC4/CapSense_SensingCSD_LL.c ****                     tempVal--;
 762:Generated_Source\PSoC4/CapSense_SensingCSD_LL.c ****                 } while (0u != tempVal);
 763:Generated_Source\PSoC4/CapSense_SensingCSD_LL.c ****             }
 764:Generated_Source\PSoC4/CapSense_SensingCSD_LL.c ****             else
 765:Generated_Source\PSoC4/CapSense_SensingCSD_LL.c ****             {
 766:Generated_Source\PSoC4/CapSense_SensingCSD_LL.c ****                 /* Disconnect ganged sensor */
 767:Generated_Source\PSoC4/CapSense_SensingCSD_LL.c ****                 CapSense_CSDDisconnectSns(CapSense_curSnsIOPtr);
 768:Generated_Source\PSoC4/CapSense_SensingCSD_LL.c ****             }
 769:Generated_Source\PSoC4/CapSense_SensingCSD_LL.c ****         #else
 770:Generated_Source\PSoC4/CapSense_SensingCSD_LL.c ****             /* Disable sensor */
 771:Generated_Source\PSoC4/CapSense_SensingCSD_LL.c ****             CapSense_CSDDisconnectSns(CapSense_curSnsIOPtr);
 772:Generated_Source\PSoC4/CapSense_SensingCSD_LL.c ****         #endif /* (CapSense_ENABLE == CapSense_CSD_GANGED_SNS_EN)  */
 773:Generated_Source\PSoC4/CapSense_SensingCSD_LL.c **** 
 774:Generated_Source\PSoC4/CapSense_SensingCSD_LL.c ****         CapSense_eleCsdDisconnectFlag = 0u;
 775:Generated_Source\PSoC4/CapSense_SensingCSD_LL.c ****     }
 776:Generated_Source\PSoC4/CapSense_SensingCSD_LL.c **** }
 777:Generated_Source\PSoC4/CapSense_SensingCSD_LL.c **** 
 778:Generated_Source\PSoC4/CapSense_SensingCSD_LL.c **** 
 779:Generated_Source\PSoC4/CapSense_SensingCSD_LL.c **** /*******************************************************************************
 780:Generated_Source\PSoC4/CapSense_SensingCSD_LL.c **** * Function Name: CapSense_SsCSDSetUpIdacs
 781:Generated_Source\PSoC4/CapSense_SensingCSD_LL.c **** ****************************************************************************//**
 782:Generated_Source\PSoC4/CapSense_SensingCSD_LL.c **** *
 783:Generated_Source\PSoC4/CapSense_SensingCSD_LL.c **** * \brief
 784:Generated_Source\PSoC4/CapSense_SensingCSD_LL.c **** *  This internal function changes the IDACs values.
ARM GAS  C:\Users\zack.li\AppData\Local\Temp\ccTyLy6m.s 			page 25


 785:Generated_Source\PSoC4/CapSense_SensingCSD_LL.c **** *
 786:Generated_Source\PSoC4/CapSense_SensingCSD_LL.c **** * \details
 787:Generated_Source\PSoC4/CapSense_SensingCSD_LL.c **** *  If Compensation IDAC is enabled, it updates two IDACs.
 788:Generated_Source\PSoC4/CapSense_SensingCSD_LL.c **** *  The Modulator IDAC is common for all the sensors of the widget.
 789:Generated_Source\PSoC4/CapSense_SensingCSD_LL.c **** *  The Compensation IDAC is updated for the sensor of the widget which
 790:Generated_Source\PSoC4/CapSense_SensingCSD_LL.c **** *  is available in the RAM_SNS_STRUCT structure.
 791:Generated_Source\PSoC4/CapSense_SensingCSD_LL.c **** *  If the Compensation IDAC is disabled, the function updates the Modulator IDAC
 792:Generated_Source\PSoC4/CapSense_SensingCSD_LL.c **** *  value only in the RAM_WD_BASE_STRUCT structure.
 793:Generated_Source\PSoC4/CapSense_SensingCSD_LL.c **** *
 794:Generated_Source\PSoC4/CapSense_SensingCSD_LL.c **** * \param
 795:Generated_Source\PSoC4/CapSense_SensingCSD_LL.c **** *  ptrWdgt The pointer to the RAM_WD_BASE_STRUCT structure.
 796:Generated_Source\PSoC4/CapSense_SensingCSD_LL.c **** *
 797:Generated_Source\PSoC4/CapSense_SensingCSD_LL.c **** *******************************************************************************/
 798:Generated_Source\PSoC4/CapSense_SensingCSD_LL.c **** void CapSense_SsCSDSetUpIdacs(CapSense_RAM_WD_BASE_STRUCT const *ptrWdgt)
 799:Generated_Source\PSoC4/CapSense_SensingCSD_LL.c **** {
 512              		.loc 1 799 0
 513              		.cfi_startproc
 514              		@ args = 0, pretend = 0, frame = 0
 515              		@ frame_needed = 0, uses_anonymous_args = 0
 516              	.LVL43:
 517 0000 F8B5     		push	{r3, r4, r5, r6, r7, lr}
 518              		.cfi_def_cfa_offset 24
 519              		.cfi_offset 3, -24
 520              		.cfi_offset 4, -20
 521              		.cfi_offset 5, -16
 522              		.cfi_offset 6, -12
 523              		.cfi_offset 7, -8
 524              		.cfi_offset 14, -4
 525              		.loc 1 799 0
 526 0002 0700     		movs	r7, r0
 800:Generated_Source\PSoC4/CapSense_SensingCSD_LL.c ****     uint8 interruptState;
 801:Generated_Source\PSoC4/CapSense_SensingCSD_LL.c ****     uint32 idacGain;
 802:Generated_Source\PSoC4/CapSense_SensingCSD_LL.c **** 
 803:Generated_Source\PSoC4/CapSense_SensingCSD_LL.c ****     /* Getting IDAC gain */
 804:Generated_Source\PSoC4/CapSense_SensingCSD_LL.c ****     idacGain = CapSense_idacGainTable[ptrWdgt->idacGainIndex].gainReg;
 527              		.loc 1 804 0
 528 0004 837A     		ldrb	r3, [r0, #10]
 529 0006 104A     		ldr	r2, .L22
 530 0008 DB00     		lsls	r3, r3, #3
 531 000a 9C58     		ldr	r4, [r3, r2]
 532              	.LVL44:
 805:Generated_Source\PSoC4/CapSense_SensingCSD_LL.c **** 
 806:Generated_Source\PSoC4/CapSense_SensingCSD_LL.c ****     #if (CapSense_ENABLE == CapSense_CSDV2)
 807:Generated_Source\PSoC4/CapSense_SensingCSD_LL.c ****         uint32 idacARegValue;
 808:Generated_Source\PSoC4/CapSense_SensingCSD_LL.c ****         #if (CapSense_ENABLE == CapSense_CSD_IDAC_COMP_EN)
 809:Generated_Source\PSoC4/CapSense_SensingCSD_LL.c ****             uint32 idacBRegValue;
 810:Generated_Source\PSoC4/CapSense_SensingCSD_LL.c ****         #endif /* (CapSense_ENABLE == CapSense_CSD_IDAC_COMP_EN) */
 811:Generated_Source\PSoC4/CapSense_SensingCSD_LL.c **** 
 812:Generated_Source\PSoC4/CapSense_SensingCSD_LL.c ****         interruptState = CyEnterCriticalSection();
 533              		.loc 1 812 0
 534 000c FFF7FEFF 		bl	CyEnterCriticalSection
 535              	.LVL45:
 813:Generated_Source\PSoC4/CapSense_SensingCSD_LL.c **** 
 814:Generated_Source\PSoC4/CapSense_SensingCSD_LL.c ****         /* Get IDACA Value */
 815:Generated_Source\PSoC4/CapSense_SensingCSD_LL.c ****         idacARegValue = CY_GET_REG32(CapSense_CSD_IDACA_PTR);
 816:Generated_Source\PSoC4/CapSense_SensingCSD_LL.c **** 
 817:Generated_Source\PSoC4/CapSense_SensingCSD_LL.c ****         /* Clear IDACA value and gain */
ARM GAS  C:\Users\zack.li\AppData\Local\Temp\ccTyLy6m.s 			page 26


 818:Generated_Source\PSoC4/CapSense_SensingCSD_LL.c ****         idacARegValue &= ~(CapSense_IDAC_MOD_VAL_MASK | CapSense_IDAC_GAIN_MASK);
 819:Generated_Source\PSoC4/CapSense_SensingCSD_LL.c **** 
 820:Generated_Source\PSoC4/CapSense_SensingCSD_LL.c ****         /* Set IDACA value gain */
 821:Generated_Source\PSoC4/CapSense_SensingCSD_LL.c ****         #if (CapSense_CSD_MATRIX_WIDGET_EN || CapSense_CSD_TOUCHPAD_WIDGET_EN)
 822:Generated_Source\PSoC4/CapSense_SensingCSD_LL.c ****             if (CapSense_dsFlash.wdgtArray[(CapSense_widgetIndex)].numCols <= CapSense_sensorIndex)
 823:Generated_Source\PSoC4/CapSense_SensingCSD_LL.c ****             {
 824:Generated_Source\PSoC4/CapSense_SensingCSD_LL.c ****                 idacARegValue |= (uint32)ptrWdgt->rowIdacMod[CapSense_scanFreqIndex];
 825:Generated_Source\PSoC4/CapSense_SensingCSD_LL.c ****             }
 826:Generated_Source\PSoC4/CapSense_SensingCSD_LL.c ****             else
 827:Generated_Source\PSoC4/CapSense_SensingCSD_LL.c ****             {
 828:Generated_Source\PSoC4/CapSense_SensingCSD_LL.c ****                 idacARegValue |= (uint32)ptrWdgt->idacMod[CapSense_scanFreqIndex];
 829:Generated_Source\PSoC4/CapSense_SensingCSD_LL.c ****             }
 830:Generated_Source\PSoC4/CapSense_SensingCSD_LL.c ****         #else
 831:Generated_Source\PSoC4/CapSense_SensingCSD_LL.c ****             idacARegValue |= (uint32)ptrWdgt->idacMod[CapSense_scanFreqIndex];
 536              		.loc 1 831 0
 537 0010 0E49     		ldr	r1, .L22+4
 815:Generated_Source\PSoC4/CapSense_SensingCSD_LL.c **** 
 538              		.loc 1 815 0
 539 0012 0F4A     		ldr	r2, .L22+8
 540              		.loc 1 831 0
 541 0014 0D78     		ldrb	r5, [r1]
 815:Generated_Source\PSoC4/CapSense_SensingCSD_LL.c **** 
 542              		.loc 1 815 0
 543 0016 1368     		ldr	r3, [r2]
 544              	.LVL46:
 545 0018 0E4E     		ldr	r6, .L22+12
 546              		.loc 1 831 0
 547 001a 7F19     		adds	r7, r7, r5
 548              	.LVL47:
 832:Generated_Source\PSoC4/CapSense_SensingCSD_LL.c ****         #endif /* (CapSense_CSD_MATRIX_WIDGET_EN | CapSense_CSD_TOUCHPAD_WIDGET_EN) */
 833:Generated_Source\PSoC4/CapSense_SensingCSD_LL.c ****         idacARegValue |= idacGain;
 549              		.loc 1 833 0
 550 001c 797A     		ldrb	r1, [r7, #9]
 551 001e 3340     		ands	r3, r6
 552              	.LVL48:
 553 0020 2343     		orrs	r3, r4
 554              	.LVL49:
 555 0022 0B43     		orrs	r3, r1
 556              	.LVL50:
 834:Generated_Source\PSoC4/CapSense_SensingCSD_LL.c **** 
 835:Generated_Source\PSoC4/CapSense_SensingCSD_LL.c ****         /* Update IDACA register with new value */
 836:Generated_Source\PSoC4/CapSense_SensingCSD_LL.c ****         CY_SET_REG32(CapSense_CSD_IDACA_PTR, idacARegValue);
 557              		.loc 1 836 0
 558 0024 1360     		str	r3, [r2]
 837:Generated_Source\PSoC4/CapSense_SensingCSD_LL.c ****         CyExitCriticalSection(interruptState);
 559              		.loc 1 837 0
 560 0026 FFF7FEFF 		bl	CyExitCriticalSection
 561              	.LVL51:
 838:Generated_Source\PSoC4/CapSense_SensingCSD_LL.c **** 
 839:Generated_Source\PSoC4/CapSense_SensingCSD_LL.c ****         #if (CapSense_ENABLE == CapSense_CSD_IDAC_COMP_EN)
 840:Generated_Source\PSoC4/CapSense_SensingCSD_LL.c ****             interruptState = CyEnterCriticalSection();
 562              		.loc 1 840 0
 563 002a FFF7FEFF 		bl	CyEnterCriticalSection
 564              	.LVL52:
 841:Generated_Source\PSoC4/CapSense_SensingCSD_LL.c ****             /* Get IDACB Value */
 842:Generated_Source\PSoC4/CapSense_SensingCSD_LL.c ****             idacBRegValue = CY_GET_REG32(CapSense_CSD_IDACB_PTR);
 565              		.loc 1 842 0
ARM GAS  C:\Users\zack.li\AppData\Local\Temp\ccTyLy6m.s 			page 27


 566 002e 0A4B     		ldr	r3, .L22+16
 843:Generated_Source\PSoC4/CapSense_SensingCSD_LL.c **** 
 844:Generated_Source\PSoC4/CapSense_SensingCSD_LL.c ****             /* Clear IDACB value and gain */
 845:Generated_Source\PSoC4/CapSense_SensingCSD_LL.c ****             idacBRegValue &= ~(CapSense_IDAC_COMP_VAL_MASK | CapSense_IDAC_GAIN_MASK);
 846:Generated_Source\PSoC4/CapSense_SensingCSD_LL.c **** 
 847:Generated_Source\PSoC4/CapSense_SensingCSD_LL.c ****             /* Set IDACB value and gain */
 848:Generated_Source\PSoC4/CapSense_SensingCSD_LL.c ****             idacBRegValue |= (uint32)CapSense_curRamSnsPtr->idacComp[CapSense_scanFreqIndex];
 849:Generated_Source\PSoC4/CapSense_SensingCSD_LL.c ****             idacBRegValue |= idacGain;
 850:Generated_Source\PSoC4/CapSense_SensingCSD_LL.c **** 
 851:Generated_Source\PSoC4/CapSense_SensingCSD_LL.c ****             /* Update IDACA register with new value */
 852:Generated_Source\PSoC4/CapSense_SensingCSD_LL.c ****             CY_SET_REG32(CapSense_CSD_IDACB_PTR, idacBRegValue);
 853:Generated_Source\PSoC4/CapSense_SensingCSD_LL.c ****             CyExitCriticalSection(interruptState);
 854:Generated_Source\PSoC4/CapSense_SensingCSD_LL.c ****         #endif /* (CapSense_ENABLE == CapSense_CSD_IDAC_COMP_EN) */
 855:Generated_Source\PSoC4/CapSense_SensingCSD_LL.c **** 
 856:Generated_Source\PSoC4/CapSense_SensingCSD_LL.c ****     #else
 857:Generated_Source\PSoC4/CapSense_SensingCSD_LL.c **** 
 858:Generated_Source\PSoC4/CapSense_SensingCSD_LL.c ****         uint32 newRegValue;
 859:Generated_Source\PSoC4/CapSense_SensingCSD_LL.c ****         uint8 const *ptrIdacMod = ptrWdgt->idacMod;
 860:Generated_Source\PSoC4/CapSense_SensingCSD_LL.c **** 
 861:Generated_Source\PSoC4/CapSense_SensingCSD_LL.c ****         #if (CapSense_CSD_MATRIX_WIDGET_EN  | CapSense_CSD_TOUCHPAD_WIDGET_EN)
 862:Generated_Source\PSoC4/CapSense_SensingCSD_LL.c ****             if (CapSense_dsFlash.wdgtArray[(CapSense_widgetIndex)].numCols <= CapSense_sensorIndex)
 863:Generated_Source\PSoC4/CapSense_SensingCSD_LL.c ****             {
 864:Generated_Source\PSoC4/CapSense_SensingCSD_LL.c ****                 ptrIdacMod = &ptrWdgt->rowIdacMod[0u];
 865:Generated_Source\PSoC4/CapSense_SensingCSD_LL.c ****             }
 866:Generated_Source\PSoC4/CapSense_SensingCSD_LL.c ****         #endif /* (CapSense_CSD_MATRIX_WIDGET_EN  | CapSense_CSD_TOUCHPAD_WIDGET_EN) */
 867:Generated_Source\PSoC4/CapSense_SensingCSD_LL.c **** 
 868:Generated_Source\PSoC4/CapSense_SensingCSD_LL.c ****         interruptState = CyEnterCriticalSection();
 869:Generated_Source\PSoC4/CapSense_SensingCSD_LL.c **** 
 870:Generated_Source\PSoC4/CapSense_SensingCSD_LL.c ****         /* Get Idac Value */
 871:Generated_Source\PSoC4/CapSense_SensingCSD_LL.c ****         newRegValue = CY_GET_REG32(CapSense_IDAC_PTR);
 872:Generated_Source\PSoC4/CapSense_SensingCSD_LL.c **** 
 873:Generated_Source\PSoC4/CapSense_SensingCSD_LL.c ****         /* Clear Idac value and gain */
 874:Generated_Source\PSoC4/CapSense_SensingCSD_LL.c ****         #if (CapSense_ENABLE == CapSense_CSD_IDAC_COMP_EN)
 875:Generated_Source\PSoC4/CapSense_SensingCSD_LL.c ****             newRegValue &= ~(CapSense_IDAC_MOD_MASK | CapSense_IDAC_COMP_MASK |
 876:Generated_Source\PSoC4/CapSense_SensingCSD_LL.c ****                 CapSense_IDAC_GAIN_MASK | (CapSense_IDAC_GAIN_MASK << CapSense_IDAC_COMP_DATA_OFFSE
 877:Generated_Source\PSoC4/CapSense_SensingCSD_LL.c ****         #else
 878:Generated_Source\PSoC4/CapSense_SensingCSD_LL.c ****             newRegValue &= ~(CapSense_IDAC_MOD_MASK | CapSense_IDAC_GAIN_MASK);
 879:Generated_Source\PSoC4/CapSense_SensingCSD_LL.c ****         #endif /* (CapSense_ENABLE == CapSense_CSD_IDAC_COMP_EN) */
 880:Generated_Source\PSoC4/CapSense_SensingCSD_LL.c **** 
 881:Generated_Source\PSoC4/CapSense_SensingCSD_LL.c ****         /* Set Idac value and gain */
 882:Generated_Source\PSoC4/CapSense_SensingCSD_LL.c ****         #if (CapSense_ENABLE == CapSense_CSD_IDAC_COMP_EN)
 883:Generated_Source\PSoC4/CapSense_SensingCSD_LL.c ****             newRegValue |= (ptrIdacMod[CapSense_scanFreqIndex] |
 884:Generated_Source\PSoC4/CapSense_SensingCSD_LL.c ****                            (uint32)((uint32)CapSense_curRamSnsPtr->idacComp[CapSense_scanFreqIndex]
 885:Generated_Source\PSoC4/CapSense_SensingCSD_LL.c ****                            CapSense_IDAC_COMP_DATA_OFFSET));
 886:Generated_Source\PSoC4/CapSense_SensingCSD_LL.c ****             newRegValue |= idacGain;
 887:Generated_Source\PSoC4/CapSense_SensingCSD_LL.c ****             newRegValue |= (idacGain << CapSense_IDAC_COMP_DATA_OFFSET);
 888:Generated_Source\PSoC4/CapSense_SensingCSD_LL.c ****         #else
 889:Generated_Source\PSoC4/CapSense_SensingCSD_LL.c ****             newRegValue |= ptrIdacMod[CapSense_scanFreqIndex];
 890:Generated_Source\PSoC4/CapSense_SensingCSD_LL.c ****             newRegValue |= idacGain;
 891:Generated_Source\PSoC4/CapSense_SensingCSD_LL.c ****         #endif /* (CapSense_ENABLE == CapSense_CSD_IDAC_COMP_EN) */
 892:Generated_Source\PSoC4/CapSense_SensingCSD_LL.c ****         CY_SET_REG32(CapSense_IDAC_PTR, newRegValue);
 893:Generated_Source\PSoC4/CapSense_SensingCSD_LL.c **** 
 894:Generated_Source\PSoC4/CapSense_SensingCSD_LL.c ****         CyExitCriticalSection(interruptState);
 895:Generated_Source\PSoC4/CapSense_SensingCSD_LL.c **** 
 896:Generated_Source\PSoC4/CapSense_SensingCSD_LL.c ****     #endif /* (CapSense_ENABLE == CapSense_CSDV2) */
 897:Generated_Source\PSoC4/CapSense_SensingCSD_LL.c **** }
 567              		.loc 1 897 0
ARM GAS  C:\Users\zack.li\AppData\Local\Temp\ccTyLy6m.s 			page 28


 568              		@ sp needed
 842:Generated_Source\PSoC4/CapSense_SensingCSD_LL.c **** 
 569              		.loc 1 842 0
 570 0030 1A68     		ldr	r2, [r3]
 571              	.LVL53:
 572 0032 1640     		ands	r6, r2
 573              	.LVL54:
 848:Generated_Source\PSoC4/CapSense_SensingCSD_LL.c ****             idacBRegValue |= idacGain;
 574              		.loc 1 848 0
 575 0034 094A     		ldr	r2, .L22+20
 576 0036 3443     		orrs	r4, r6
 577              	.LVL55:
 578 0038 1268     		ldr	r2, [r2]
 579              	.LVL56:
 580 003a 5519     		adds	r5, r2, r5
 581              	.LVL57:
 849:Generated_Source\PSoC4/CapSense_SensingCSD_LL.c **** 
 582              		.loc 1 849 0
 583 003c 6E7A     		ldrb	r6, [r5, #9]
 584              	.LVL58:
 585 003e 3443     		orrs	r4, r6
 586              	.LVL59:
 852:Generated_Source\PSoC4/CapSense_SensingCSD_LL.c ****             CyExitCriticalSection(interruptState);
 587              		.loc 1 852 0
 588 0040 1C60     		str	r4, [r3]
 853:Generated_Source\PSoC4/CapSense_SensingCSD_LL.c ****         #endif /* (CapSense_ENABLE == CapSense_CSD_IDAC_COMP_EN) */
 589              		.loc 1 853 0
 590 0042 FFF7FEFF 		bl	CyExitCriticalSection
 591              	.LVL60:
 592              	.LVL61:
 593              		.loc 1 897 0
 594 0046 F8BD     		pop	{r3, r4, r5, r6, r7, pc}
 595              	.L23:
 596              		.align	2
 597              	.L22:
 598 0048 00000000 		.word	CapSense_idacGainTable
 599 004c 00000000 		.word	CapSense_scanFreqIndex
 600 0050 C0010B40 		.word	1074463168
 601 0054 80FF3FFC 		.word	-62914688
 602 0058 C4010B40 		.word	1074463172
 603 005c 00000000 		.word	CapSense_curRamSnsPtr
 604              		.cfi_endproc
 605              	.LFE10:
 606              		.size	CapSense_SsCSDSetUpIdacs, .-CapSense_SsCSDSetUpIdacs
 607              		.section	.text.CapSense_SsCSDGetNumberOfConversions,"ax",%progbits
 608              		.align	1
 609              		.global	CapSense_SsCSDGetNumberOfConversions
 610              		.code	16
 611              		.thumb_func
 612              		.type	CapSense_SsCSDGetNumberOfConversions, %function
 613              	CapSense_SsCSDGetNumberOfConversions:
 614              	.LFB11:
 898:Generated_Source\PSoC4/CapSense_SensingCSD_LL.c **** 
 899:Generated_Source\PSoC4/CapSense_SensingCSD_LL.c **** 
 900:Generated_Source\PSoC4/CapSense_SensingCSD_LL.c **** #if (CapSense_ENABLE == CapSense_CSDV2)
 901:Generated_Source\PSoC4/CapSense_SensingCSD_LL.c ****     /*******************************************************************************
 902:Generated_Source\PSoC4/CapSense_SensingCSD_LL.c ****     * Function Name: CapSense_SsCSDGetNumberOfConversions
ARM GAS  C:\Users\zack.li\AppData\Local\Temp\ccTyLy6m.s 			page 29


 903:Generated_Source\PSoC4/CapSense_SensingCSD_LL.c ****     ****************************************************************************//**
 904:Generated_Source\PSoC4/CapSense_SensingCSD_LL.c ****     *
 905:Generated_Source\PSoC4/CapSense_SensingCSD_LL.c ****     * \brief
 906:Generated_Source\PSoC4/CapSense_SensingCSD_LL.c ****     *  This function gets Number of conversions.
 907:Generated_Source\PSoC4/CapSense_SensingCSD_LL.c ****     *
 908:Generated_Source\PSoC4/CapSense_SensingCSD_LL.c ****     * \details
 909:Generated_Source\PSoC4/CapSense_SensingCSD_LL.c ****     *  This function gets Number of conversions using foll.owing equation:
 910:Generated_Source\PSoC4/CapSense_SensingCSD_LL.c ****     *   conversionsNum = (2^resolution - 1) / snsClkDivider.
 911:Generated_Source\PSoC4/CapSense_SensingCSD_LL.c ****     *
 912:Generated_Source\PSoC4/CapSense_SensingCSD_LL.c ****     * \param
 913:Generated_Source\PSoC4/CapSense_SensingCSD_LL.c ****     *  snsClkDivider The divider value for the sense clock.
 914:Generated_Source\PSoC4/CapSense_SensingCSD_LL.c ****     *  resolution The widget resolution.
 915:Generated_Source\PSoC4/CapSense_SensingCSD_LL.c ****     *  snsClkSrc The current Sense Clock Source.
 916:Generated_Source\PSoC4/CapSense_SensingCSD_LL.c ****     *
 917:Generated_Source\PSoC4/CapSense_SensingCSD_LL.c ****     * \return Returns the Number of conversions.
 918:Generated_Source\PSoC4/CapSense_SensingCSD_LL.c ****     *
 919:Generated_Source\PSoC4/CapSense_SensingCSD_LL.c ****     *******************************************************************************/
 920:Generated_Source\PSoC4/CapSense_SensingCSD_LL.c ****     uint32 CapSense_SsCSDGetNumberOfConversions(uint32 snsClkDivider, uint32 resolution, uint32 sns
 921:Generated_Source\PSoC4/CapSense_SensingCSD_LL.c ****     {
 615              		.loc 1 921 0
 616              		.cfi_startproc
 617              		@ args = 0, pretend = 0, frame = 0
 618              		@ frame_needed = 0, uses_anonymous_args = 0
 619              	.LVL62:
 922:Generated_Source\PSoC4/CapSense_SensingCSD_LL.c ****         uint32 conversionsNum;
 923:Generated_Source\PSoC4/CapSense_SensingCSD_LL.c ****         #if ((CapSense_MOD_CSD_CLK_12MHZ < CYDEV_BCLK__HFCLK__HZ) && (CapSense_ENABLE != CapSense_C
 924:Generated_Source\PSoC4/CapSense_SensingCSD_LL.c ****             uint32 sampleClkFreqHz;
 925:Generated_Source\PSoC4/CapSense_SensingCSD_LL.c ****         #endif /* ((CapSense_MOD_CSD_CLK_12MHZ < CYDEV_BCLK__HFCLK__HZ) && (CapSense_ENABLE != CapS
 926:Generated_Source\PSoC4/CapSense_SensingCSD_LL.c **** 
 927:Generated_Source\PSoC4/CapSense_SensingCSD_LL.c ****         /* Calculate scanning resolution value in register */
 928:Generated_Source\PSoC4/CapSense_SensingCSD_LL.c ****         conversionsNum = (uint32)(1uL << resolution);
 620              		.loc 1 928 0
 621 0000 0123     		movs	r3, #1
 622 0002 8B40     		lsls	r3, r3, r1
 921:Generated_Source\PSoC4/CapSense_SensingCSD_LL.c ****         uint32 conversionsNum;
 623              		.loc 1 921 0
 624 0004 70B5     		push	{r4, r5, r6, lr}
 625              		.cfi_def_cfa_offset 16
 626              		.cfi_offset 4, -16
 627              		.cfi_offset 5, -12
 628              		.cfi_offset 6, -8
 629              		.cfi_offset 14, -4
 921:Generated_Source\PSoC4/CapSense_SensingCSD_LL.c ****         uint32 conversionsNum;
 630              		.loc 1 921 0
 631 0006 0500     		movs	r5, r0
 632 0008 1400     		movs	r4, r2
 633              		.loc 1 928 0
 634 000a 1800     		movs	r0, r3
 635              	.LVL63:
 929:Generated_Source\PSoC4/CapSense_SensingCSD_LL.c **** 
 930:Generated_Source\PSoC4/CapSense_SensingCSD_LL.c ****         #if(CapSense_ENABLE != CapSense_CSDV2_REF9P6UA_EN)
 931:Generated_Source\PSoC4/CapSense_SensingCSD_LL.c ****             /* Apply correction to oveflow for 16 bit resolution */
 932:Generated_Source\PSoC4/CapSense_SensingCSD_LL.c ****             if (CapSense_RES16BIT == resolution)
 933:Generated_Source\PSoC4/CapSense_SensingCSD_LL.c ****             {
 934:Generated_Source\PSoC4/CapSense_SensingCSD_LL.c ****                 conversionsNum -= ((snsClkDivider + 1u) >> 1u);
 935:Generated_Source\PSoC4/CapSense_SensingCSD_LL.c **** 
 936:Generated_Source\PSoC4/CapSense_SensingCSD_LL.c ****                 #if (CapSense_MOD_CSD_CLK_12MHZ < CYDEV_BCLK__HFCLK__HZ)
ARM GAS  C:\Users\zack.li\AppData\Local\Temp\ccTyLy6m.s 			page 30


 937:Generated_Source\PSoC4/CapSense_SensingCSD_LL.c ****                     sampleClkFreqHz = CYDEV_BCLK__HFCLK__HZ / (uint32)CapSense_dsRam.modCsdClk;
 938:Generated_Source\PSoC4/CapSense_SensingCSD_LL.c **** 
 939:Generated_Source\PSoC4/CapSense_SensingCSD_LL.c ****                     if (sampleClkFreqHz <= CapSense_MOD_CSD_CLK_12MHZ)
 940:Generated_Source\PSoC4/CapSense_SensingCSD_LL.c ****                     {
 941:Generated_Source\PSoC4/CapSense_SensingCSD_LL.c ****                         conversionsNum -= CapSense_CONFIG_FILTER_DELAY_2_CYCLES;
 942:Generated_Source\PSoC4/CapSense_SensingCSD_LL.c ****                     }
 943:Generated_Source\PSoC4/CapSense_SensingCSD_LL.c ****                     else if (sampleClkFreqHz <= CapSense_MOD_CSD_CLK_24MHZ)
 944:Generated_Source\PSoC4/CapSense_SensingCSD_LL.c ****                     {
 945:Generated_Source\PSoC4/CapSense_SensingCSD_LL.c ****                         conversionsNum -= CapSense_CONFIG_FILTER_DELAY_3_CYCLES;
 946:Generated_Source\PSoC4/CapSense_SensingCSD_LL.c ****                     }
 947:Generated_Source\PSoC4/CapSense_SensingCSD_LL.c ****                     else
 948:Generated_Source\PSoC4/CapSense_SensingCSD_LL.c ****                     {
 949:Generated_Source\PSoC4/CapSense_SensingCSD_LL.c ****                         conversionsNum -= CapSense_CONFIG_FILTER_DELAY_4_CYCLES;
 950:Generated_Source\PSoC4/CapSense_SensingCSD_LL.c ****                     }
 951:Generated_Source\PSoC4/CapSense_SensingCSD_LL.c ****                 #else
 952:Generated_Source\PSoC4/CapSense_SensingCSD_LL.c ****                     conversionsNum -= CapSense_CONFIG_FILTER_DELAY_2_CYCLES;
 953:Generated_Source\PSoC4/CapSense_SensingCSD_LL.c ****                 #endif /* (INSTANCE_NAME`_MOD_CSD_CLK_12MHZ < CYDEV_BCLK__HFCLK__HZ) */
 954:Generated_Source\PSoC4/CapSense_SensingCSD_LL.c ****             }
 955:Generated_Source\PSoC4/CapSense_SensingCSD_LL.c ****         #else
 956:Generated_Source\PSoC4/CapSense_SensingCSD_LL.c ****             /* CY_ID285392: Apply correction to oveflow for 16 bit resolution */
 957:Generated_Source\PSoC4/CapSense_SensingCSD_LL.c ****             if (CapSense_RES16BIT == resolution)
 636              		.loc 1 957 0
 637 000c 1029     		cmp	r1, #16
 638 000e 00D1     		bne	.L25
 958:Generated_Source\PSoC4/CapSense_SensingCSD_LL.c ****             {
 959:Generated_Source\PSoC4/CapSense_SensingCSD_LL.c ****                 conversionsNum -= CapSense_EXTRA_COUNTS_MAX;
 639              		.loc 1 959 0
 640 0010 1D38     		subs	r0, r0, #29
 641              	.LVL64:
 642              	.L25:
 960:Generated_Source\PSoC4/CapSense_SensingCSD_LL.c ****             }
 961:Generated_Source\PSoC4/CapSense_SensingCSD_LL.c ****         #endif
 962:Generated_Source\PSoC4/CapSense_SensingCSD_LL.c **** 
 963:Generated_Source\PSoC4/CapSense_SensingCSD_LL.c ****         if (0u < snsClkDivider)
 643              		.loc 1 963 0
 644 0012 002D     		cmp	r5, #0
 645 0014 02D0     		beq	.L26
 964:Generated_Source\PSoC4/CapSense_SensingCSD_LL.c ****         {
 965:Generated_Source\PSoC4/CapSense_SensingCSD_LL.c ****             conversionsNum /= snsClkDivider;
 646              		.loc 1 965 0
 647 0016 2900     		movs	r1, r5
 648              	.LVL65:
 649 0018 FFF7FEFF 		bl	__aeabi_uidiv
 650              	.LVL66:
 651              	.L26:
 966:Generated_Source\PSoC4/CapSense_SensingCSD_LL.c ****         }
 967:Generated_Source\PSoC4/CapSense_SensingCSD_LL.c **** 
 968:Generated_Source\PSoC4/CapSense_SensingCSD_LL.c ****     #if((CapSense_CLK_SOURCE_PRS8  == CapSense_CSD_SNS_CLK_SOURCE) ||\
 969:Generated_Source\PSoC4/CapSense_SensingCSD_LL.c ****         (CapSense_CLK_SOURCE_PRS12 == CapSense_CSD_SNS_CLK_SOURCE) ||\
 970:Generated_Source\PSoC4/CapSense_SensingCSD_LL.c ****         (CapSense_CLK_SOURCE_PRSAUTO == CapSense_CSD_SNS_CLK_SOURCE))
 971:Generated_Source\PSoC4/CapSense_SensingCSD_LL.c ****         switch (snsClkSrc)
 652              		.loc 1 971 0
 653 001c 053C     		subs	r4, r4, #5
 654              	.LVL67:
 655 001e 012C     		cmp	r4, #1
 656 0020 00D8     		bhi	.L27
 972:Generated_Source\PSoC4/CapSense_SensingCSD_LL.c ****         {
ARM GAS  C:\Users\zack.li\AppData\Local\Temp\ccTyLy6m.s 			page 31


 973:Generated_Source\PSoC4/CapSense_SensingCSD_LL.c ****             case CapSense_CLK_SOURCE_PRS8:
 974:Generated_Source\PSoC4/CapSense_SensingCSD_LL.c ****             case CapSense_CLK_SOURCE_PRS12:
 975:Generated_Source\PSoC4/CapSense_SensingCSD_LL.c ****                 /* Divide by 2 for PRS8/PRS12 mode */
 976:Generated_Source\PSoC4/CapSense_SensingCSD_LL.c ****                 conversionsNum >>= 1u;
 657              		.loc 1 976 0
 658 0022 4008     		lsrs	r0, r0, #1
 659              	.LVL68:
 660              	.L27:
 977:Generated_Source\PSoC4/CapSense_SensingCSD_LL.c ****                 break;
 978:Generated_Source\PSoC4/CapSense_SensingCSD_LL.c **** 
 979:Generated_Source\PSoC4/CapSense_SensingCSD_LL.c ****             default:
 980:Generated_Source\PSoC4/CapSense_SensingCSD_LL.c ****                 break;
 981:Generated_Source\PSoC4/CapSense_SensingCSD_LL.c ****         }
 982:Generated_Source\PSoC4/CapSense_SensingCSD_LL.c ****     #else
 983:Generated_Source\PSoC4/CapSense_SensingCSD_LL.c ****         (void)snsClkSrc;
 984:Generated_Source\PSoC4/CapSense_SensingCSD_LL.c ****     #endif
 985:Generated_Source\PSoC4/CapSense_SensingCSD_LL.c **** 
 986:Generated_Source\PSoC4/CapSense_SensingCSD_LL.c ****     return((conversionsNum > 0uL) ? (conversionsNum) : 1uL);
 661              		.loc 1 986 0
 662 0024 0123     		movs	r3, #1
 663 0026 0028     		cmp	r0, #0
 664 0028 00D0     		beq	.L29
 665 002a 0300     		movs	r3, r0
 666              	.L29:
 987:Generated_Source\PSoC4/CapSense_SensingCSD_LL.c ****     }
 667              		.loc 1 987 0 discriminator 4
 668 002c 1800     		movs	r0, r3
 669              	.LVL69:
 670              		@ sp needed
 671              	.LVL70:
 672              	.LVL71:
 673 002e 70BD     		pop	{r4, r5, r6, pc}
 674              		.cfi_endproc
 675              	.LFE11:
 676              		.size	CapSense_SsCSDGetNumberOfConversions, .-CapSense_SsCSDGetNumberOfConversions
 677              		.section	.text.CapSense_SsCSDConfigClock,"ax",%progbits
 678              		.align	1
 679              		.global	CapSense_SsCSDConfigClock
 680              		.code	16
 681              		.thumb_func
 682              		.type	CapSense_SsCSDConfigClock, %function
 683              	CapSense_SsCSDConfigClock:
 684              	.LFB12:
 988:Generated_Source\PSoC4/CapSense_SensingCSD_LL.c **** #endif /* (CapSense_ENABLE == CapSense_CSDV2) */
 989:Generated_Source\PSoC4/CapSense_SensingCSD_LL.c **** 
 990:Generated_Source\PSoC4/CapSense_SensingCSD_LL.c **** 
 991:Generated_Source\PSoC4/CapSense_SensingCSD_LL.c **** /*******************************************************************************
 992:Generated_Source\PSoC4/CapSense_SensingCSD_LL.c **** * Function Name: CapSense_SsCSDConfigClock
 993:Generated_Source\PSoC4/CapSense_SensingCSD_LL.c **** ****************************************************************************//**
 994:Generated_Source\PSoC4/CapSense_SensingCSD_LL.c **** *
 995:Generated_Source\PSoC4/CapSense_SensingCSD_LL.c **** * \brief
 996:Generated_Source\PSoC4/CapSense_SensingCSD_LL.c **** *  This function configure sense clock for different modes.
 997:Generated_Source\PSoC4/CapSense_SensingCSD_LL.c **** *
 998:Generated_Source\PSoC4/CapSense_SensingCSD_LL.c **** * \details
 999:Generated_Source\PSoC4/CapSense_SensingCSD_LL.c **** *  Function sets the clock divider and configures the mode based on configuration.
1000:Generated_Source\PSoC4/CapSense_SensingCSD_LL.c **** *
1001:Generated_Source\PSoC4/CapSense_SensingCSD_LL.c **** *******************************************************************************/
ARM GAS  C:\Users\zack.li\AppData\Local\Temp\ccTyLy6m.s 			page 32


1002:Generated_Source\PSoC4/CapSense_SensingCSD_LL.c **** void CapSense_SsCSDConfigClock(void)
1003:Generated_Source\PSoC4/CapSense_SensingCSD_LL.c **** {
 685              		.loc 1 1003 0
 686              		.cfi_startproc
 687              		@ args = 0, pretend = 0, frame = 0
 688              		@ frame_needed = 0, uses_anonymous_args = 0
 689              		@ link register save eliminated.
1004:Generated_Source\PSoC4/CapSense_SensingCSD_LL.c ****     uint32 snsClkDivider;
1005:Generated_Source\PSoC4/CapSense_SensingCSD_LL.c ****     uint32 snsClkSrc;
1006:Generated_Source\PSoC4/CapSense_SensingCSD_LL.c ****     uint32 newRegValue;
1007:Generated_Source\PSoC4/CapSense_SensingCSD_LL.c **** 
1008:Generated_Source\PSoC4/CapSense_SensingCSD_LL.c ****     CapSense_RAM_WD_BASE_STRUCT const *ptrWdgt = (CapSense_RAM_WD_BASE_STRUCT *)
1009:Generated_Source\PSoC4/CapSense_SensingCSD_LL.c ****              CapSense_dsFlash.wdgtArray[CapSense_widgetIndex].ptr2WdgtRam;
 690              		.loc 1 1009 0
 691 0000 0D4B     		ldr	r3, .L39
 692 0002 1A78     		ldrb	r2, [r3]
1008:Generated_Source\PSoC4/CapSense_SensingCSD_LL.c ****              CapSense_dsFlash.wdgtArray[CapSense_widgetIndex].ptr2WdgtRam;
 693              		.loc 1 1008 0
 694 0004 1C23     		movs	r3, #28
 695 0006 5343     		muls	r3, r2
 696 0008 0C4A     		ldr	r2, .L39+4
 697 000a D318     		adds	r3, r2, r3
 698 000c 5A68     		ldr	r2, [r3, #4]
 699              	.LVL72:
1010:Generated_Source\PSoC4/CapSense_SensingCSD_LL.c **** 
1011:Generated_Source\PSoC4/CapSense_SensingCSD_LL.c ****     /* Get sense divider based on configuration */
1012:Generated_Source\PSoC4/CapSense_SensingCSD_LL.c ****     #if (CapSense_ENABLE == CapSense_CSD_COMMON_SNS_CLK_EN)
1013:Generated_Source\PSoC4/CapSense_SensingCSD_LL.c ****         snsClkDivider = (uint32)CapSense_dsRam.snsCsdClk;
1014:Generated_Source\PSoC4/CapSense_SensingCSD_LL.c ****     #else
1015:Generated_Source\PSoC4/CapSense_SensingCSD_LL.c ****         #if (CapSense_CSD_MATRIX_WIDGET_EN || CapSense_CSD_TOUCHPAD_WIDGET_EN)
1016:Generated_Source\PSoC4/CapSense_SensingCSD_LL.c ****             /* Get SnsClck divider for rows or columns */
1017:Generated_Source\PSoC4/CapSense_SensingCSD_LL.c ****             if (CapSense_dsFlash.wdgtArray[CapSense_widgetIndex].numCols <= CapSense_sensorIndex)
1018:Generated_Source\PSoC4/CapSense_SensingCSD_LL.c ****             {
1019:Generated_Source\PSoC4/CapSense_SensingCSD_LL.c ****                 snsClkDivider = (uint32)(ptrWdgt->rowSnsClk);
1020:Generated_Source\PSoC4/CapSense_SensingCSD_LL.c ****             }
1021:Generated_Source\PSoC4/CapSense_SensingCSD_LL.c ****             else
1022:Generated_Source\PSoC4/CapSense_SensingCSD_LL.c ****             {
1023:Generated_Source\PSoC4/CapSense_SensingCSD_LL.c ****                 snsClkDivider = (uint32)(ptrWdgt->snsClk);
1024:Generated_Source\PSoC4/CapSense_SensingCSD_LL.c ****             }
1025:Generated_Source\PSoC4/CapSense_SensingCSD_LL.c ****         #else
1026:Generated_Source\PSoC4/CapSense_SensingCSD_LL.c ****             snsClkDivider = (uint32)(ptrWdgt->snsClk);
 700              		.loc 1 1026 0
 701 000e 9389     		ldrh	r3, [r2, #12]
 702              	.LVL73:
1027:Generated_Source\PSoC4/CapSense_SensingCSD_LL.c ****         #endif /* (CapSense_CSD_MATRIX_WIDGET_EN || CapSense_CSD_TOUCHPAD_WIDGET_EN) */
1028:Generated_Source\PSoC4/CapSense_SensingCSD_LL.c ****     #endif /* (CapSense_ENABLE == CapSense_CSD_COMMON_SNS_CLK_EN) */
1029:Generated_Source\PSoC4/CapSense_SensingCSD_LL.c **** 
1030:Generated_Source\PSoC4/CapSense_SensingCSD_LL.c ****     /* Get sense clk source calculated in CapSense_SsCSDInitialize() before */
1031:Generated_Source\PSoC4/CapSense_SensingCSD_LL.c ****     #if (CapSense_CSD_MATRIX_WIDGET_EN || CapSense_CSD_TOUCHPAD_WIDGET_EN)
1032:Generated_Source\PSoC4/CapSense_SensingCSD_LL.c ****         /* Get SnsClc Source for rows or columns */
1033:Generated_Source\PSoC4/CapSense_SensingCSD_LL.c ****         if (CapSense_dsFlash.wdgtArray[CapSense_widgetIndex].numCols <= CapSense_sensorIndex)
1034:Generated_Source\PSoC4/CapSense_SensingCSD_LL.c ****         {
1035:Generated_Source\PSoC4/CapSense_SensingCSD_LL.c ****             snsClkSrc = (uint32)ptrWdgt->rowSnsClkSource;
1036:Generated_Source\PSoC4/CapSense_SensingCSD_LL.c ****         }
1037:Generated_Source\PSoC4/CapSense_SensingCSD_LL.c ****         else
1038:Generated_Source\PSoC4/CapSense_SensingCSD_LL.c ****         {
1039:Generated_Source\PSoC4/CapSense_SensingCSD_LL.c ****             snsClkSrc = (uint32)ptrWdgt->snsClkSource;
ARM GAS  C:\Users\zack.li\AppData\Local\Temp\ccTyLy6m.s 			page 33


1040:Generated_Source\PSoC4/CapSense_SensingCSD_LL.c ****         }
1041:Generated_Source\PSoC4/CapSense_SensingCSD_LL.c ****     #else
1042:Generated_Source\PSoC4/CapSense_SensingCSD_LL.c ****         snsClkSrc = (uint32)ptrWdgt->snsClkSource;
 703              		.loc 1 1042 0
 704 0010 927B     		ldrb	r2, [r2, #14]
 705              	.LVL74:
1043:Generated_Source\PSoC4/CapSense_SensingCSD_LL.c ****     #endif /* (CapSense_CSD_MATRIX_WIDGET_EN || CapSense_CSD_TOUCHPAD_WIDGET_EN) */
1044:Generated_Source\PSoC4/CapSense_SensingCSD_LL.c **** 
1045:Generated_Source\PSoC4/CapSense_SensingCSD_LL.c ****     #if (CapSense_ENABLE == CapSense_CSDV2)
1046:Generated_Source\PSoC4/CapSense_SensingCSD_LL.c ****         newRegValue = (snsClkSrc << CYFLD_CSD_LFSR_SIZE__OFFSET);
 706              		.loc 1 1046 0
 707 0012 1104     		lsls	r1, r2, #16
 708              	.LVL75:
1047:Generated_Source\PSoC4/CapSense_SensingCSD_LL.c **** 
1048:Generated_Source\PSoC4/CapSense_SensingCSD_LL.c ****         /* Configuring PRS SEL_BIT */
1049:Generated_Source\PSoC4/CapSense_SensingCSD_LL.c ****         if ((CapSense_CLK_SOURCE_PRS8 == snsClkSrc) ||
 709              		.loc 1 1049 0
 710 0014 053A     		subs	r2, r2, #5
 711              	.LVL76:
 712 0016 012A     		cmp	r2, #1
 713 0018 02D8     		bhi	.L36
1050:Generated_Source\PSoC4/CapSense_SensingCSD_LL.c ****             (CapSense_CLK_SOURCE_PRS12 == snsClkSrc))
1051:Generated_Source\PSoC4/CapSense_SensingCSD_LL.c ****         {
1052:Generated_Source\PSoC4/CapSense_SensingCSD_LL.c ****             newRegValue |= CapSense_SENSE_PERIOD_SEL_LFSR_MSB_MASK;
 714              		.loc 1 1052 0
 715 001a 8020     		movs	r0, #128
 716 001c 8004     		lsls	r0, r0, #18
 717 001e 0143     		orrs	r1, r0
 718              	.LVL77:
 719              	.L36:
1053:Generated_Source\PSoC4/CapSense_SensingCSD_LL.c ****         }
1054:Generated_Source\PSoC4/CapSense_SensingCSD_LL.c ****     #else
1055:Generated_Source\PSoC4/CapSense_SensingCSD_LL.c ****         newRegValue = snsClkSrc;
1056:Generated_Source\PSoC4/CapSense_SensingCSD_LL.c ****     #endif /* (CapSense_ENABLE == CapSense_CSDV2) */
1057:Generated_Source\PSoC4/CapSense_SensingCSD_LL.c **** 
1058:Generated_Source\PSoC4/CapSense_SensingCSD_LL.c ****     #if (CapSense_ENABLE == CapSense_CSDV2)
1059:Generated_Source\PSoC4/CapSense_SensingCSD_LL.c ****         #if((CapSense_CLK_SOURCE_PRS8  == CapSense_CSD_SNS_CLK_SOURCE) ||\
1060:Generated_Source\PSoC4/CapSense_SensingCSD_LL.c ****             (CapSense_CLK_SOURCE_PRS12 == CapSense_CSD_SNS_CLK_SOURCE) ||\
1061:Generated_Source\PSoC4/CapSense_SensingCSD_LL.c ****             (CapSense_CLK_SOURCE_PRSAUTO == CapSense_CSD_SNS_CLK_SOURCE))
1062:Generated_Source\PSoC4/CapSense_SensingCSD_LL.c ****             switch (snsClkSrc)
 720              		.loc 1 1062 0
 721 0020 D2B2     		uxtb	r2, r2
 722              	.LVL78:
 723 0022 012A     		cmp	r2, #1
 724 0024 02D8     		bhi	.L37
1063:Generated_Source\PSoC4/CapSense_SensingCSD_LL.c ****             {
1064:Generated_Source\PSoC4/CapSense_SensingCSD_LL.c ****             case CapSense_CLK_SOURCE_PRS8:
1065:Generated_Source\PSoC4/CapSense_SensingCSD_LL.c ****             case CapSense_CLK_SOURCE_PRS12:
1066:Generated_Source\PSoC4/CapSense_SensingCSD_LL.c ****                 /* Divide by 2 for PRS8/PRS12 mode */
1067:Generated_Source\PSoC4/CapSense_SensingCSD_LL.c ****                 snsClkDivider >>= 1;
 725              		.loc 1 1067 0
 726 0026 5B08     		lsrs	r3, r3, #1
 727              	.LVL79:
1068:Generated_Source\PSoC4/CapSense_SensingCSD_LL.c ****                 if (snsClkDivider == 0u)
 728              		.loc 1 1068 0
 729 0028 00D1     		bne	.L37
1069:Generated_Source\PSoC4/CapSense_SensingCSD_LL.c ****                 {
ARM GAS  C:\Users\zack.li\AppData\Local\Temp\ccTyLy6m.s 			page 34


1070:Generated_Source\PSoC4/CapSense_SensingCSD_LL.c ****                     snsClkDivider = 1u;
 730              		.loc 1 1070 0
 731 002a 0133     		adds	r3, r3, #1
 732              	.LVL80:
 733              	.L37:
 734              	.LBB16:
 735              	.LBB17:
 401:Generated_Source\PSoC4/CapSense_SensingCSD_LL.c ****     #else
 736              		.loc 1 401 0
 737 002c 044A     		ldr	r2, .L39+8
 738 002e 013B     		subs	r3, r3, #1
 739              	.LVL81:
 740 0030 0B43     		orrs	r3, r1
 741              	.LVL82:
 742 0032 1360     		str	r3, [r2]
 743              	.LVL83:
 744              	.LBE17:
 745              	.LBE16:
1071:Generated_Source\PSoC4/CapSense_SensingCSD_LL.c ****                 }
1072:Generated_Source\PSoC4/CapSense_SensingCSD_LL.c ****                 break;
1073:Generated_Source\PSoC4/CapSense_SensingCSD_LL.c **** 
1074:Generated_Source\PSoC4/CapSense_SensingCSD_LL.c ****             default:
1075:Generated_Source\PSoC4/CapSense_SensingCSD_LL.c ****                 break;
1076:Generated_Source\PSoC4/CapSense_SensingCSD_LL.c ****             }
1077:Generated_Source\PSoC4/CapSense_SensingCSD_LL.c ****         #endif /* ((CapSense_CLK_SOURCE_PRS8  == CapSense_CSD_SNS_CLK_SOURCE) ||\
1078:Generated_Source\PSoC4/CapSense_SensingCSD_LL.c ****                    (CapSense_CLK_SOURCE_PRS12 == CapSense_CSD_SNS_CLK_SOURCE) ||\
1079:Generated_Source\PSoC4/CapSense_SensingCSD_LL.c ****                    (CapSense_CLK_SOURCE_PRSAUTO == CapSense_CSD_SNS_CLK_SOURCE)) */
1080:Generated_Source\PSoC4/CapSense_SensingCSD_LL.c ****     #endif
1081:Generated_Source\PSoC4/CapSense_SensingCSD_LL.c ****     CapSense_SsCSDSetModeSnsClockDivider(newRegValue, snsClkDivider);
1082:Generated_Source\PSoC4/CapSense_SensingCSD_LL.c **** }
 746              		.loc 1 1082 0
 747              		@ sp needed
 748 0034 7047     		bx	lr
 749              	.L40:
 750 0036 C046     		.align	2
 751              	.L39:
 752 0038 00000000 		.word	CapSense_widgetIndex
 753 003c 00000000 		.word	CapSense_dsFlash
 754 0040 00020B40 		.word	1074463232
 755              		.cfi_endproc
 756              	.LFE12:
 757              		.size	CapSense_SsCSDConfigClock, .-CapSense_SsCSDConfigClock
 758              		.section	.text.CapSense_SsCSDCalculateScanDuration,"ax",%progbits
 759              		.align	1
 760              		.global	CapSense_SsCSDCalculateScanDuration
 761              		.code	16
 762              		.thumb_func
 763              		.type	CapSense_SsCSDCalculateScanDuration, %function
 764              	CapSense_SsCSDCalculateScanDuration:
 765              	.LFB13:
1083:Generated_Source\PSoC4/CapSense_SensingCSD_LL.c **** 
1084:Generated_Source\PSoC4/CapSense_SensingCSD_LL.c **** 
1085:Generated_Source\PSoC4/CapSense_SensingCSD_LL.c **** /*******************************************************************************
1086:Generated_Source\PSoC4/CapSense_SensingCSD_LL.c **** * Function Name: CapSense_SsCSDCalculateScanDuration
1087:Generated_Source\PSoC4/CapSense_SensingCSD_LL.c **** ****************************************************************************//**
1088:Generated_Source\PSoC4/CapSense_SensingCSD_LL.c **** *
1089:Generated_Source\PSoC4/CapSense_SensingCSD_LL.c **** * \brief
ARM GAS  C:\Users\zack.li\AppData\Local\Temp\ccTyLy6m.s 			page 35


1090:Generated_Source\PSoC4/CapSense_SensingCSD_LL.c **** *   Calculates Scan Duration which is defined by scan resolution
1091:Generated_Source\PSoC4/CapSense_SensingCSD_LL.c **** *
1092:Generated_Source\PSoC4/CapSense_SensingCSD_LL.c **** * \details
1093:Generated_Source\PSoC4/CapSense_SensingCSD_LL.c **** *   For Fourth-generation HW block: The function calculates the number of conversions and updates
1094:Generated_Source\PSoC4/CapSense_SensingCSD_LL.c **** *   SEQ_NORM_CNT register. The number of conversions depends on resolution and
1095:Generated_Source\PSoC4/CapSense_SensingCSD_LL.c **** *   snsClk divider.
1096:Generated_Source\PSoC4/CapSense_SensingCSD_LL.c **** *   For Third-generation HW block: The function recalculate the resolution using following equation
1097:Generated_Source\PSoC4/CapSense_SensingCSD_LL.c **** *   2^resolution - 1. The calculated value is contained in
1098:Generated_Source\PSoC4/CapSense_SensingCSD_LL.c **** *   CapSense_counterResolution global variable and used in
1099:Generated_Source\PSoC4/CapSense_SensingCSD_LL.c **** *   CapSense_SsCSDStartSample() function to trigger the scan process.
1100:Generated_Source\PSoC4/CapSense_SensingCSD_LL.c **** *
1101:Generated_Source\PSoC4/CapSense_SensingCSD_LL.c **** * \param wdgtIndex
1102:Generated_Source\PSoC4/CapSense_SensingCSD_LL.c **** *  ptrWdgt The pointer to the RAM_WD_BASE_STRUCT structure.
1103:Generated_Source\PSoC4/CapSense_SensingCSD_LL.c **** *
1104:Generated_Source\PSoC4/CapSense_SensingCSD_LL.c **** *******************************************************************************/
1105:Generated_Source\PSoC4/CapSense_SensingCSD_LL.c **** void CapSense_SsCSDCalculateScanDuration(CapSense_RAM_WD_BASE_STRUCT const *ptrWdgt)
1106:Generated_Source\PSoC4/CapSense_SensingCSD_LL.c **** {
 766              		.loc 1 1106 0
 767              		.cfi_startproc
 768              		@ args = 0, pretend = 0, frame = 0
 769              		@ frame_needed = 0, uses_anonymous_args = 0
 770              	.LVL84:
 771 0000 10B5     		push	{r4, lr}
 772              		.cfi_def_cfa_offset 8
 773              		.cfi_offset 4, -8
 774              		.cfi_offset 14, -4
1107:Generated_Source\PSoC4/CapSense_SensingCSD_LL.c ****     #if (CapSense_ENABLE == CapSense_CSDV2)
1108:Generated_Source\PSoC4/CapSense_SensingCSD_LL.c ****         uint32 conversionsNum;
1109:Generated_Source\PSoC4/CapSense_SensingCSD_LL.c ****         uint32 snsClkDivider;
1110:Generated_Source\PSoC4/CapSense_SensingCSD_LL.c **** 
1111:Generated_Source\PSoC4/CapSense_SensingCSD_LL.c ****         /* Get Number Of Conversions */
1112:Generated_Source\PSoC4/CapSense_SensingCSD_LL.c ****         #if (CapSense_ENABLE == CapSense_CSD_COMMON_SNS_CLK_EN)
1113:Generated_Source\PSoC4/CapSense_SensingCSD_LL.c ****             snsClkDivider = CapSense_dsRam.snsCsdClk;
1114:Generated_Source\PSoC4/CapSense_SensingCSD_LL.c ****         #else
1115:Generated_Source\PSoC4/CapSense_SensingCSD_LL.c ****             #if (CapSense_CSD_MATRIX_WIDGET_EN || CapSense_CSD_TOUCHPAD_WIDGET_EN)
1116:Generated_Source\PSoC4/CapSense_SensingCSD_LL.c ****                 /* Get SnsClck divider for rows or columns */
1117:Generated_Source\PSoC4/CapSense_SensingCSD_LL.c ****                 if (CapSense_dsFlash.wdgtArray[CapSense_widgetIndex].numCols <= CapSense_sensorInde
1118:Generated_Source\PSoC4/CapSense_SensingCSD_LL.c ****                 {
1119:Generated_Source\PSoC4/CapSense_SensingCSD_LL.c ****                     snsClkDivider = (uint32)(ptrWdgt->rowSnsClk);
1120:Generated_Source\PSoC4/CapSense_SensingCSD_LL.c ****                 }
1121:Generated_Source\PSoC4/CapSense_SensingCSD_LL.c ****                 else
1122:Generated_Source\PSoC4/CapSense_SensingCSD_LL.c ****                 {
1123:Generated_Source\PSoC4/CapSense_SensingCSD_LL.c ****                     snsClkDivider = (uint32)(ptrWdgt->snsClk);
1124:Generated_Source\PSoC4/CapSense_SensingCSD_LL.c ****                 }
1125:Generated_Source\PSoC4/CapSense_SensingCSD_LL.c ****             #else
1126:Generated_Source\PSoC4/CapSense_SensingCSD_LL.c ****                 snsClkDivider = (uint32)(ptrWdgt->snsClk);
1127:Generated_Source\PSoC4/CapSense_SensingCSD_LL.c ****             #endif /* (CapSense_CSD_MATRIX_WIDGET_EN || CapSense_CSD_TOUCHPAD_WIDGET_EN) */
1128:Generated_Source\PSoC4/CapSense_SensingCSD_LL.c ****         #endif /* (CapSense_ENABLE == CapSense_CSD_COMMON_SNS_CLK_EN) */
1129:Generated_Source\PSoC4/CapSense_SensingCSD_LL.c **** 
1130:Generated_Source\PSoC4/CapSense_SensingCSD_LL.c ****         conversionsNum = CapSense_SsCSDGetNumberOfConversions(snsClkDivider, (uint32)ptrWdgt->resol
 775              		.loc 1 1130 0
 776 0002 827B     		ldrb	r2, [r0, #14]
 777 0004 0188     		ldrh	r1, [r0]
 778 0006 8089     		ldrh	r0, [r0, #12]
 779              	.LVL85:
 780 0008 FFF7FEFF 		bl	CapSense_SsCSDGetNumberOfConversions
 781              	.LVL86:
ARM GAS  C:\Users\zack.li\AppData\Local\Temp\ccTyLy6m.s 			page 36


1131:Generated_Source\PSoC4/CapSense_SensingCSD_LL.c **** 
1132:Generated_Source\PSoC4/CapSense_SensingCSD_LL.c ****         /* Set Number Of Conversions based on scanning resolution */
1133:Generated_Source\PSoC4/CapSense_SensingCSD_LL.c ****         CY_SET_REG32(CapSense_SEQ_NORM_CNT_PTR, (conversionsNum & CapSense_SEQ_NORM_CNT_CONV_CNT_MA
 782              		.loc 1 1133 0
 783 000c 014B     		ldr	r3, .L42
 784 000e 80B2     		uxth	r0, r0
 785              	.LVL87:
 786 0010 1860     		str	r0, [r3]
1134:Generated_Source\PSoC4/CapSense_SensingCSD_LL.c ****     #else
1135:Generated_Source\PSoC4/CapSense_SensingCSD_LL.c ****         /* Set up scanning resolution  */
1136:Generated_Source\PSoC4/CapSense_SensingCSD_LL.c ****         CapSense_counterResolution = (uint32)((0x00000001Lu << ptrWdgt->resolution) - 1u) << CapSen
1137:Generated_Source\PSoC4/CapSense_SensingCSD_LL.c ****     #endif /* (CapSense_ENABLE == CapSense_CSDV2) */
1138:Generated_Source\PSoC4/CapSense_SensingCSD_LL.c **** }
 787              		.loc 1 1138 0
 788              		@ sp needed
 789 0012 10BD     		pop	{r4, pc}
 790              	.L43:
 791              		.align	2
 792              	.L42:
 793 0014 14030B40 		.word	1074463508
 794              		.cfi_endproc
 795              	.LFE13:
 796              		.size	CapSense_SsCSDCalculateScanDuration, .-CapSense_SsCSDCalculateScanDuration
 797              		.section	.text.CapSense_SsCSDStartSample,"ax",%progbits
 798              		.align	1
 799              		.global	CapSense_SsCSDStartSample
 800              		.code	16
 801              		.thumb_func
 802              		.type	CapSense_SsCSDStartSample, %function
 803              	CapSense_SsCSDStartSample:
 804              	.LFB16:
1139:Generated_Source\PSoC4/CapSense_SensingCSD_LL.c **** 
1140:Generated_Source\PSoC4/CapSense_SensingCSD_LL.c **** 
1141:Generated_Source\PSoC4/CapSense_SensingCSD_LL.c **** /*******************************************************************************
1142:Generated_Source\PSoC4/CapSense_SensingCSD_LL.c **** * Function Name: CapSense_CSDSetupWidget
1143:Generated_Source\PSoC4/CapSense_SensingCSD_LL.c **** ****************************************************************************//**
1144:Generated_Source\PSoC4/CapSense_SensingCSD_LL.c **** *
1145:Generated_Source\PSoC4/CapSense_SensingCSD_LL.c **** * \brief
1146:Generated_Source\PSoC4/CapSense_SensingCSD_LL.c **** *  Performs hardware and firmware initialization required for scanning sensors
1147:Generated_Source\PSoC4/CapSense_SensingCSD_LL.c **** *  in a specific widget using the CSD sensing method. This function requires using
1148:Generated_Source\PSoC4/CapSense_SensingCSD_LL.c **** *  the CapSense_CSDScan() function to start scanning.
1149:Generated_Source\PSoC4/CapSense_SensingCSD_LL.c **** *
1150:Generated_Source\PSoC4/CapSense_SensingCSD_LL.c **** * \details
1151:Generated_Source\PSoC4/CapSense_SensingCSD_LL.c **** *  \note This function is obsolete and kept for backward compatibility only.
1152:Generated_Source\PSoC4/CapSense_SensingCSD_LL.c **** *  The CapSense_SetupWidget() function should be used instead.
1153:Generated_Source\PSoC4/CapSense_SensingCSD_LL.c **** *
1154:Generated_Source\PSoC4/CapSense_SensingCSD_LL.c **** *  This function initializes the specific widget common parameters to perform
1155:Generated_Source\PSoC4/CapSense_SensingCSD_LL.c **** *  the CSD scanning. The initialization includes setting up a Modulator and
1156:Generated_Source\PSoC4/CapSense_SensingCSD_LL.c **** *  Sense clock frequency and scanning resolution.
1157:Generated_Source\PSoC4/CapSense_SensingCSD_LL.c **** *
1158:Generated_Source\PSoC4/CapSense_SensingCSD_LL.c **** *  This function does not connect any specific sensors to the scanning hardware,
1159:Generated_Source\PSoC4/CapSense_SensingCSD_LL.c **** *  neither does it start a scanning process. The CapSense_CSDScan()
1160:Generated_Source\PSoC4/CapSense_SensingCSD_LL.c **** *  API must be called after initializing the widget to start scanning.
1161:Generated_Source\PSoC4/CapSense_SensingCSD_LL.c **** *
1162:Generated_Source\PSoC4/CapSense_SensingCSD_LL.c **** *  This function is called when no scanning is in progress. I.e.
1163:Generated_Source\PSoC4/CapSense_SensingCSD_LL.c **** *  CapSense_IsBusy() returns a non-busy status.
1164:Generated_Source\PSoC4/CapSense_SensingCSD_LL.c **** *
ARM GAS  C:\Users\zack.li\AppData\Local\Temp\ccTyLy6m.s 			page 37


1165:Generated_Source\PSoC4/CapSense_SensingCSD_LL.c **** *  This function is called by the CapSense_SetupWidget() API if the
1166:Generated_Source\PSoC4/CapSense_SensingCSD_LL.c **** *  given widget uses the CSD sensing method.
1167:Generated_Source\PSoC4/CapSense_SensingCSD_LL.c **** *
1168:Generated_Source\PSoC4/CapSense_SensingCSD_LL.c **** *  Calling this function directly from the application layer is not
1169:Generated_Source\PSoC4/CapSense_SensingCSD_LL.c **** *  recommended. This function is used to implement only the user's specific
1170:Generated_Source\PSoC4/CapSense_SensingCSD_LL.c **** *  use cases (for faster execution time or pipeline scanning for example).
1171:Generated_Source\PSoC4/CapSense_SensingCSD_LL.c **** *
1172:Generated_Source\PSoC4/CapSense_SensingCSD_LL.c **** * \param  widgetId
1173:Generated_Source\PSoC4/CapSense_SensingCSD_LL.c **** *  Specifies the ID number of the widget to perform hardware and firmware
1174:Generated_Source\PSoC4/CapSense_SensingCSD_LL.c **** *  initialization required for scanning sensors in the specific widget.
1175:Generated_Source\PSoC4/CapSense_SensingCSD_LL.c **** *  A macro for the widget ID can be found in the CapSense Configuration header
1176:Generated_Source\PSoC4/CapSense_SensingCSD_LL.c **** *  file defined as CapSense_<WidgetName>_WDGT_ID.
1177:Generated_Source\PSoC4/CapSense_SensingCSD_LL.c **** *
1178:Generated_Source\PSoC4/CapSense_SensingCSD_LL.c **** *******************************************************************************/
1179:Generated_Source\PSoC4/CapSense_SensingCSD_LL.c **** void CapSense_CSDSetupWidget(uint32 widgetId)
1180:Generated_Source\PSoC4/CapSense_SensingCSD_LL.c **** {
1181:Generated_Source\PSoC4/CapSense_SensingCSD_LL.c ****     CapSense_RAM_WD_BASE_STRUCT const *ptrWdgt = (CapSense_RAM_WD_BASE_STRUCT *)
1182:Generated_Source\PSoC4/CapSense_SensingCSD_LL.c ****                                                 CapSense_dsFlash.wdgtArray[widgetId].ptr2WdgtRam;
1183:Generated_Source\PSoC4/CapSense_SensingCSD_LL.c **** 
1184:Generated_Source\PSoC4/CapSense_SensingCSD_LL.c ****     /* Save widget Id to have assess to it after scanning  */
1185:Generated_Source\PSoC4/CapSense_SensingCSD_LL.c ****     CapSense_widgetIndex = (uint8)widgetId;
1186:Generated_Source\PSoC4/CapSense_SensingCSD_LL.c **** 
1187:Generated_Source\PSoC4/CapSense_SensingCSD_LL.c ****     CapSense_SsSwitchSensingMode(CapSense_SENSE_METHOD_CSD_E);
1188:Generated_Source\PSoC4/CapSense_SensingCSD_LL.c **** 
1189:Generated_Source\PSoC4/CapSense_SensingCSD_LL.c ****     #if (CapSense_ENABLE == CapSense_MULTI_FREQ_SCAN_EN)
1190:Generated_Source\PSoC4/CapSense_SensingCSD_LL.c ****         /* Reset the frequency scan channel if enabled */
1191:Generated_Source\PSoC4/CapSense_SensingCSD_LL.c ****         CapSense_scanFreqIndex = CapSense_FREQ_CHANNEL_0;
1192:Generated_Source\PSoC4/CapSense_SensingCSD_LL.c ****     #endif /* (CapSense_ENABLE == CapSense_MULTI_FREQ_SCAN_EN) */
1193:Generated_Source\PSoC4/CapSense_SensingCSD_LL.c **** 
1194:Generated_Source\PSoC4/CapSense_SensingCSD_LL.c ****     /* Disconnect previous electrode if it has been connected */
1195:Generated_Source\PSoC4/CapSense_SensingCSD_LL.c ****     CapSense_SsCSDElectrodeCheck();
1196:Generated_Source\PSoC4/CapSense_SensingCSD_LL.c **** 
1197:Generated_Source\PSoC4/CapSense_SensingCSD_LL.c ****     /* Initialize IO Sns electrode structure pointer to current widget */
1198:Generated_Source\PSoC4/CapSense_SensingCSD_LL.c ****     CapSense_curSnsIOPtr = (CapSense_FLASH_IO_STRUCT const *)
1199:Generated_Source\PSoC4/CapSense_SensingCSD_LL.c ****                                     CapSense_dsFlash.wdgtArray[CapSense_widgetIndex].ptr2SnsFlash;
1200:Generated_Source\PSoC4/CapSense_SensingCSD_LL.c **** 
1201:Generated_Source\PSoC4/CapSense_SensingCSD_LL.c ****     /* Update status register in Data structure */
1202:Generated_Source\PSoC4/CapSense_SensingCSD_LL.c ****     CapSense_dsRam.status &= ~CapSense_STATUS_WDGT0_MASK;
1203:Generated_Source\PSoC4/CapSense_SensingCSD_LL.c ****     CapSense_dsRam.status |= CapSense_widgetIndex;
1204:Generated_Source\PSoC4/CapSense_SensingCSD_LL.c **** 
1205:Generated_Source\PSoC4/CapSense_SensingCSD_LL.c ****     CapSense_SsCSDCalculateScanDuration(ptrWdgt);
1206:Generated_Source\PSoC4/CapSense_SensingCSD_LL.c ****     #if (((CapSense_DISABLE == CapSense_CSD_COMMON_SNS_CLK_EN) || \
1207:Generated_Source\PSoC4/CapSense_SensingCSD_LL.c ****           (CapSense_CLK_SOURCE_DIRECT != CapSense_CSD_SNS_CLK_SOURCE)) && \
1208:Generated_Source\PSoC4/CapSense_SensingCSD_LL.c ****          ((!(CapSense_CSD_MATRIX_WIDGET_EN || CapSense_CSD_TOUCHPAD_WIDGET_EN)) || \
1209:Generated_Source\PSoC4/CapSense_SensingCSD_LL.c ****           (CapSense_ENABLE == CapSense_CSD_COMMON_SNS_CLK_EN)))
1210:Generated_Source\PSoC4/CapSense_SensingCSD_LL.c ****         CapSense_SsCSDConfigClock();
1211:Generated_Source\PSoC4/CapSense_SensingCSD_LL.c ****     #endif
1212:Generated_Source\PSoC4/CapSense_SensingCSD_LL.c **** }
1213:Generated_Source\PSoC4/CapSense_SensingCSD_LL.c **** 
1214:Generated_Source\PSoC4/CapSense_SensingCSD_LL.c **** 
1215:Generated_Source\PSoC4/CapSense_SensingCSD_LL.c **** /*******************************************************************************
1216:Generated_Source\PSoC4/CapSense_SensingCSD_LL.c **** * Function Name: CapSense_CSDSetupWidgetExt
1217:Generated_Source\PSoC4/CapSense_SensingCSD_LL.c **** ****************************************************************************//**
1218:Generated_Source\PSoC4/CapSense_SensingCSD_LL.c **** *
1219:Generated_Source\PSoC4/CapSense_SensingCSD_LL.c **** * \brief
1220:Generated_Source\PSoC4/CapSense_SensingCSD_LL.c **** *  Performs extended initialization for the CSD widget and also performs
1221:Generated_Source\PSoC4/CapSense_SensingCSD_LL.c **** *  initialization required for a specific sensor in the widget. This function
ARM GAS  C:\Users\zack.li\AppData\Local\Temp\ccTyLy6m.s 			page 38


1222:Generated_Source\PSoC4/CapSense_SensingCSD_LL.c **** *  requires using the CapSense_CSDScanExt() function to initiate a scan.
1223:Generated_Source\PSoC4/CapSense_SensingCSD_LL.c **** *
1224:Generated_Source\PSoC4/CapSense_SensingCSD_LL.c **** * \details
1225:Generated_Source\PSoC4/CapSense_SensingCSD_LL.c **** *  Performs extended initialization for the CSD widget and also performs
1226:Generated_Source\PSoC4/CapSense_SensingCSD_LL.c **** *  initialization required for a specific sensor in the widget. This function
1227:Generated_Source\PSoC4/CapSense_SensingCSD_LL.c **** *  requires using the CapSense_CSDScanExt() function to initiate a scan.
1228:Generated_Source\PSoC4/CapSense_SensingCSD_LL.c **** *
1229:Generated_Source\PSoC4/CapSense_SensingCSD_LL.c **** *  \note This function is obsolete and kept for backward compatibility only.
1230:Generated_Source\PSoC4/CapSense_SensingCSD_LL.c **** *  The CapSense_SetupWidgetExt() function should be used instead.
1231:Generated_Source\PSoC4/CapSense_SensingCSD_LL.c **** *
1232:Generated_Source\PSoC4/CapSense_SensingCSD_LL.c **** *  This function does the same as CapSense_CSDSetupWidget() and also
1233:Generated_Source\PSoC4/CapSense_SensingCSD_LL.c **** *  does the following tasks:
1234:Generated_Source\PSoC4/CapSense_SensingCSD_LL.c **** *    1. Connects the first sensor of the widget.
1235:Generated_Source\PSoC4/CapSense_SensingCSD_LL.c **** *    2. Configures the IDAC value.
1236:Generated_Source\PSoC4/CapSense_SensingCSD_LL.c **** *    3. Initializes an interrupt callback function to initialize a scan of the
1237:Generated_Source\PSoC4/CapSense_SensingCSD_LL.c **** *  next sensors in a widget.
1238:Generated_Source\PSoC4/CapSense_SensingCSD_LL.c **** *
1239:Generated_Source\PSoC4/CapSense_SensingCSD_LL.c **** *  Once this function is called to initialize a widget and a sensor, the
1240:Generated_Source\PSoC4/CapSense_SensingCSD_LL.c **** *  CapSense_CSDScanExt() function is called to scan the sensor.
1241:Generated_Source\PSoC4/CapSense_SensingCSD_LL.c **** *
1242:Generated_Source\PSoC4/CapSense_SensingCSD_LL.c **** *  This function is called when no scanning is in progress. I.e.
1243:Generated_Source\PSoC4/CapSense_SensingCSD_LL.c **** *  CapSense_IsBusy() returns a non-busy status.
1244:Generated_Source\PSoC4/CapSense_SensingCSD_LL.c **** *
1245:Generated_Source\PSoC4/CapSense_SensingCSD_LL.c **** *  Calling this function directly from the application layer is not
1246:Generated_Source\PSoC4/CapSense_SensingCSD_LL.c **** *  recommended. This function is used to implement only the user's specific
1247:Generated_Source\PSoC4/CapSense_SensingCSD_LL.c **** *  use cases (for faster execution time or pipeline scanning for example).
1248:Generated_Source\PSoC4/CapSense_SensingCSD_LL.c **** *
1249:Generated_Source\PSoC4/CapSense_SensingCSD_LL.c **** * \param widgetId
1250:Generated_Source\PSoC4/CapSense_SensingCSD_LL.c **** *  Specifies the ID number of the widget to perform hardware and firmware
1251:Generated_Source\PSoC4/CapSense_SensingCSD_LL.c **** *  initialization required for scanning the specific sensor in the specific
1252:Generated_Source\PSoC4/CapSense_SensingCSD_LL.c **** *  widget.
1253:Generated_Source\PSoC4/CapSense_SensingCSD_LL.c **** *  A macro for the widget ID can be found in the CapSense Configuration header
1254:Generated_Source\PSoC4/CapSense_SensingCSD_LL.c **** *  file defined as CapSense_<WidgetName>_WDGT_ID.
1255:Generated_Source\PSoC4/CapSense_SensingCSD_LL.c **** *
1256:Generated_Source\PSoC4/CapSense_SensingCSD_LL.c **** * \param sensorId
1257:Generated_Source\PSoC4/CapSense_SensingCSD_LL.c **** *  Specifies the ID number of the sensor within the widget to perform hardware
1258:Generated_Source\PSoC4/CapSense_SensingCSD_LL.c **** *  and firmware initialization required for scanning a specific sensor in a
1259:Generated_Source\PSoC4/CapSense_SensingCSD_LL.c **** *  specific widget.
1260:Generated_Source\PSoC4/CapSense_SensingCSD_LL.c **** *  A macro for the sensor ID within a specified widget can be found in the
1261:Generated_Source\PSoC4/CapSense_SensingCSD_LL.c **** *  CapSense Configuration header file defined as
1262:Generated_Source\PSoC4/CapSense_SensingCSD_LL.c **** *  CapSense_<WidgetName>_SNS<SensorNumber>_ID
1263:Generated_Source\PSoC4/CapSense_SensingCSD_LL.c **** *
1264:Generated_Source\PSoC4/CapSense_SensingCSD_LL.c **** *******************************************************************************/
1265:Generated_Source\PSoC4/CapSense_SensingCSD_LL.c **** void CapSense_CSDSetupWidgetExt(uint32 widgetId, uint32 sensorId)
1266:Generated_Source\PSoC4/CapSense_SensingCSD_LL.c **** {
1267:Generated_Source\PSoC4/CapSense_SensingCSD_LL.c ****     CapSense_RAM_WD_BASE_STRUCT const *ptrWdgt = (CapSense_RAM_WD_BASE_STRUCT *)
1268:Generated_Source\PSoC4/CapSense_SensingCSD_LL.c ****                                                     CapSense_dsFlash.wdgtArray[widgetId].ptr2WdgtRa
1269:Generated_Source\PSoC4/CapSense_SensingCSD_LL.c **** 
1270:Generated_Source\PSoC4/CapSense_SensingCSD_LL.c ****     /* Save widget and sensor Ids to have access to it after scanning  */
1271:Generated_Source\PSoC4/CapSense_SensingCSD_LL.c ****     CapSense_sensorIndex = (uint8)sensorId;
1272:Generated_Source\PSoC4/CapSense_SensingCSD_LL.c **** 
1273:Generated_Source\PSoC4/CapSense_SensingCSD_LL.c ****     /* Update global pointer to CapSense_RAM_SNS_STRUCT to current sensor  */
1274:Generated_Source\PSoC4/CapSense_SensingCSD_LL.c ****     CapSense_curRamSnsPtr = (CapSense_RAM_SNS_STRUCT *)
1275:Generated_Source\PSoC4/CapSense_SensingCSD_LL.c ****                                               CapSense_dsFlash.wdgtArray[widgetId].ptr2SnsRam
1276:Generated_Source\PSoC4/CapSense_SensingCSD_LL.c ****                                               + CapSense_sensorIndex;
1277:Generated_Source\PSoC4/CapSense_SensingCSD_LL.c **** 
1278:Generated_Source\PSoC4/CapSense_SensingCSD_LL.c ****     CapSense_CSDSetupWidget(widgetId);
ARM GAS  C:\Users\zack.li\AppData\Local\Temp\ccTyLy6m.s 			page 39


1279:Generated_Source\PSoC4/CapSense_SensingCSD_LL.c **** 
1280:Generated_Source\PSoC4/CapSense_SensingCSD_LL.c ****      /* Setup Idac Value */
1281:Generated_Source\PSoC4/CapSense_SensingCSD_LL.c ****     CapSense_SsCSDSetUpIdacs(ptrWdgt);
1282:Generated_Source\PSoC4/CapSense_SensingCSD_LL.c **** 
1283:Generated_Source\PSoC4/CapSense_SensingCSD_LL.c ****     #if (CapSense_ENABLE == CapSense_CSD_GANGED_SNS_EN)
1284:Generated_Source\PSoC4/CapSense_SensingCSD_LL.c ****         /* initialize access pointers for current pointer to widget configuration in Flash */
1285:Generated_Source\PSoC4/CapSense_SensingCSD_LL.c ****         CapSense_curFlashWdgtPtr = &CapSense_dsFlash.wdgtArray[widgetId];
1286:Generated_Source\PSoC4/CapSense_SensingCSD_LL.c ****     #endif /* (CapSense_ENABLE == CapSense_CSD_GANGED_SNS_EN)  */
1287:Generated_Source\PSoC4/CapSense_SensingCSD_LL.c **** 
1288:Generated_Source\PSoC4/CapSense_SensingCSD_LL.c ****     #if (CapSense_ENABLE == CapSense_CSD_GANGED_SNS_EN)
1289:Generated_Source\PSoC4/CapSense_SensingCSD_LL.c ****         CapSense_SsCSDConnectSensorExt(widgetId, sensorId);
1290:Generated_Source\PSoC4/CapSense_SensingCSD_LL.c ****     #else
1291:Generated_Source\PSoC4/CapSense_SensingCSD_LL.c ****         /* Enable sensor */
1292:Generated_Source\PSoC4/CapSense_SensingCSD_LL.c ****         CapSense_curSnsIOPtr += CapSense_sensorIndex;
1293:Generated_Source\PSoC4/CapSense_SensingCSD_LL.c ****         CapSense_CSDConnectSns(CapSense_curSnsIOPtr);
1294:Generated_Source\PSoC4/CapSense_SensingCSD_LL.c ****     #endif /* (CapSense_ENABLE == CapSense_CSD_GANGED_SNS_EN)  */
1295:Generated_Source\PSoC4/CapSense_SensingCSD_LL.c **** 
1296:Generated_Source\PSoC4/CapSense_SensingCSD_LL.c ****     #if (CapSense_ENABLE == CapSense_CSD_GANGED_SNS_EN)
1297:Generated_Source\PSoC4/CapSense_SensingCSD_LL.c ****         /* Save sns pointer */
1298:Generated_Source\PSoC4/CapSense_SensingCSD_LL.c ****         CapSense_curFlashSnsPtr = (CapSense_FLASH_SNS_STRUCT const *)
1299:Generated_Source\PSoC4/CapSense_SensingCSD_LL.c ****                                            CapSense_dsFlash.wdgtArray[CapSense_widgetIndex].ptr2Sns
1300:Generated_Source\PSoC4/CapSense_SensingCSD_LL.c ****                                            CapSense_sensorIndex;
1301:Generated_Source\PSoC4/CapSense_SensingCSD_LL.c ****     #endif /* (CapSense_ENABLE == CapSense_CSD_GANGED_SNS_EN) */
1302:Generated_Source\PSoC4/CapSense_SensingCSD_LL.c **** 
1303:Generated_Source\PSoC4/CapSense_SensingCSD_LL.c ****     CapSense_eleCsdDisconnectFlag = CapSense_DISCONNECT_IO_FLAG;
1304:Generated_Source\PSoC4/CapSense_SensingCSD_LL.c **** 
1305:Generated_Source\PSoC4/CapSense_SensingCSD_LL.c ****     /* Setup ISR handler to single-sensor scan function */
1306:Generated_Source\PSoC4/CapSense_SensingCSD_LL.c ****     CapSense_ISR_StartEx(&CapSense_CSDPostSingleScan);
1307:Generated_Source\PSoC4/CapSense_SensingCSD_LL.c **** }
1308:Generated_Source\PSoC4/CapSense_SensingCSD_LL.c **** 
1309:Generated_Source\PSoC4/CapSense_SensingCSD_LL.c **** /*******************************************************************************
1310:Generated_Source\PSoC4/CapSense_SensingCSD_LL.c **** * Function Name: CapSense_SsCSDStartSample
1311:Generated_Source\PSoC4/CapSense_SensingCSD_LL.c **** ****************************************************************************//**
1312:Generated_Source\PSoC4/CapSense_SensingCSD_LL.c **** *
1313:Generated_Source\PSoC4/CapSense_SensingCSD_LL.c **** * \brief
1314:Generated_Source\PSoC4/CapSense_SensingCSD_LL.c **** *   Starts the CSD conversion.
1315:Generated_Source\PSoC4/CapSense_SensingCSD_LL.c **** *
1316:Generated_Source\PSoC4/CapSense_SensingCSD_LL.c **** * \details
1317:Generated_Source\PSoC4/CapSense_SensingCSD_LL.c **** *   This function assumes that the CSD block is already set up using
1318:Generated_Source\PSoC4/CapSense_SensingCSD_LL.c **** *   the CapSense_CSDSetupWidget API and the sensor port-pin is connected to the CSD
1319:Generated_Source\PSoC4/CapSense_SensingCSD_LL.c **** *   block using CapSense_CSDConnectSns.
1320:Generated_Source\PSoC4/CapSense_SensingCSD_LL.c **** *   For Third-generation HW block the function performs the following tasks:
1321:Generated_Source\PSoC4/CapSense_SensingCSD_LL.c **** *   1. Disconnects the Vref buffer from AMUX;
1322:Generated_Source\PSoC4/CapSense_SensingCSD_LL.c **** *   2. Precharges Cmod;
1323:Generated_Source\PSoC4/CapSense_SensingCSD_LL.c **** *   3. Makes the PreSettling delay to have a stable Vref voltage;
1324:Generated_Source\PSoC4/CapSense_SensingCSD_LL.c **** *   4. Sets the resolution to the Counter register to start scanning.
1325:Generated_Source\PSoC4/CapSense_SensingCSD_LL.c **** *
1326:Generated_Source\PSoC4/CapSense_SensingCSD_LL.c **** *******************************************************************************/
1327:Generated_Source\PSoC4/CapSense_SensingCSD_LL.c **** void CapSense_SsCSDStartSample(void)
1328:Generated_Source\PSoC4/CapSense_SensingCSD_LL.c **** {
 805              		.loc 1 1328 0
 806              		.cfi_startproc
 807              		@ args = 0, pretend = 0, frame = 24
 808              		@ frame_needed = 0, uses_anonymous_args = 0
 809 0000 F0B5     		push	{r4, r5, r6, r7, lr}
 810              		.cfi_def_cfa_offset 20
 811              		.cfi_offset 4, -20
ARM GAS  C:\Users\zack.li\AppData\Local\Temp\ccTyLy6m.s 			page 40


 812              		.cfi_offset 5, -16
 813              		.cfi_offset 6, -12
 814              		.cfi_offset 7, -8
 815              		.cfi_offset 14, -4
1329:Generated_Source\PSoC4/CapSense_SensingCSD_LL.c ****     #if (CapSense_ENABLE != CapSense_CSDV2)
1330:Generated_Source\PSoC4/CapSense_SensingCSD_LL.c ****         uint8 interruptState;
1331:Generated_Source\PSoC4/CapSense_SensingCSD_LL.c ****     #endif
1332:Generated_Source\PSoC4/CapSense_SensingCSD_LL.c **** 
1333:Generated_Source\PSoC4/CapSense_SensingCSD_LL.c ****     #ifdef CapSense_START_SAMPLE_CALLBACK
1334:Generated_Source\PSoC4/CapSense_SensingCSD_LL.c ****         CapSense_StartSampleCallback(CapSense_widgetIndex, CapSense_sensorIndex);
1335:Generated_Source\PSoC4/CapSense_SensingCSD_LL.c ****     #endif /* CapSense_START_SAMPLE_CALLBACK */
1336:Generated_Source\PSoC4/CapSense_SensingCSD_LL.c **** 
1337:Generated_Source\PSoC4/CapSense_SensingCSD_LL.c ****     #if (CapSense_ENABLE == CapSense_CSDV2)
1338:Generated_Source\PSoC4/CapSense_SensingCSD_LL.c ****         /* Fourth-generation HW block section */
1339:Generated_Source\PSoC4/CapSense_SensingCSD_LL.c **** 
1340:Generated_Source\PSoC4/CapSense_SensingCSD_LL.c ****         /* Disable CSD interrupt to prevent it during coarse initialization */
1341:Generated_Source\PSoC4/CapSense_SensingCSD_LL.c ****         CyIntDisable(CapSense_ISR_NUMBER);
 816              		.loc 1 1341 0
 817 0002 0A20     		movs	r0, #10
1328:Generated_Source\PSoC4/CapSense_SensingCSD_LL.c ****     #if (CapSense_ENABLE != CapSense_CSDV2)
 818              		.loc 1 1328 0
 819 0004 87B0     		sub	sp, sp, #28
 820              		.cfi_def_cfa_offset 48
 821              		.loc 1 1341 0
 822 0006 FFF7FEFF 		bl	CyIntDisable
 823              	.LVL88:
1342:Generated_Source\PSoC4/CapSense_SensingCSD_LL.c **** 
1343:Generated_Source\PSoC4/CapSense_SensingCSD_LL.c ****         /* Enable power to sub-blocks */
1344:Generated_Source\PSoC4/CapSense_SensingCSD_LL.c ****         CY_SET_REG32(CapSense_HSCMP_PTR, CapSense_HSCMP_INIT_MASK);
 824              		.loc 1 1344 0
 825 000a 0123     		movs	r3, #1
 826 000c 334F     		ldr	r7, .L56
 827 000e 9C46     		mov	ip, r3
 828 0010 3B60     		str	r3, [r7]
 829              	.LBB22:
 830              	.LBB23:
1345:Generated_Source\PSoC4/CapSense_SensingCSD_LL.c **** 
1346:Generated_Source\PSoC4/CapSense_SensingCSD_LL.c ****         #if (CapSense_ENABLE == CapSense_BLOCK_OFF_AFTER_SCAN_EN)
1347:Generated_Source\PSoC4/CapSense_SensingCSD_LL.c ****             CY_SET_REG32(CapSense_CONFIG_PTR, CapSense_configCsd |
1348:Generated_Source\PSoC4/CapSense_SensingCSD_LL.c ****                                                       CapSense_CONFIG_SENSE_EN_MASK |
1349:Generated_Source\PSoC4/CapSense_SensingCSD_LL.c ****                                                       CapSense_CONFIG_ENABLE_MASK);
1350:Generated_Source\PSoC4/CapSense_SensingCSD_LL.c ****             #if(CapSense_CSD_ANALOG_STARTUP_DELAY_US > 0uL)
1351:Generated_Source\PSoC4/CapSense_SensingCSD_LL.c ****                 CyDelayUs(CapSense_CSD_ANALOG_STARTUP_DELAY_US);
1352:Generated_Source\PSoC4/CapSense_SensingCSD_LL.c ****             #endif /* (CapSense_CSD_ANALOG_STARTUP_DELAY_US > 0uL) */
1353:Generated_Source\PSoC4/CapSense_SensingCSD_LL.c ****         #endif /* (CapSense_ENABLE == CapSense_BLOCK_OFF_AFTER_SCAN_EN) */
1354:Generated_Source\PSoC4/CapSense_SensingCSD_LL.c **** 
1355:Generated_Source\PSoC4/CapSense_SensingCSD_LL.c ****         /* Precharging Cmod and Csh */
1356:Generated_Source\PSoC4/CapSense_SensingCSD_LL.c ****         CapSense_SsCSDCmodPrecharge();
1357:Generated_Source\PSoC4/CapSense_SensingCSD_LL.c **** 
1358:Generated_Source\PSoC4/CapSense_SensingCSD_LL.c ****         /* Trigger Scan */
1359:Generated_Source\PSoC4/CapSense_SensingCSD_LL.c ****         CapSense_SsCSDTriggerScan();
1360:Generated_Source\PSoC4/CapSense_SensingCSD_LL.c **** 
1361:Generated_Source\PSoC4/CapSense_SensingCSD_LL.c ****     #else
1362:Generated_Source\PSoC4/CapSense_SensingCSD_LL.c ****         /* Third-generation HW block section */
1363:Generated_Source\PSoC4/CapSense_SensingCSD_LL.c ****         interruptState = CyEnterCriticalSection();
1364:Generated_Source\PSoC4/CapSense_SensingCSD_LL.c **** 
1365:Generated_Source\PSoC4/CapSense_SensingCSD_LL.c ****         /* Enable CSD block. Disconnect Vref Buffer from AMUX */
ARM GAS  C:\Users\zack.li\AppData\Local\Temp\ccTyLy6m.s 			page 41


1366:Generated_Source\PSoC4/CapSense_SensingCSD_LL.c ****         #if ((CapSense_CSH_PRECHARGE_IO_BUF == CapSense_CSD_CSH_PRECHARGE_SRC) &&\
1367:Generated_Source\PSoC4/CapSense_SensingCSD_LL.c ****              (CapSense_ENABLE == CapSense_CSD_SHIELD_TANK_EN))
1368:Generated_Source\PSoC4/CapSense_SensingCSD_LL.c ****             CY_SET_REG32(CapSense_CONFIG_PTR, CapSense_configCsd | CapSense_CMOD_PRECHARGE_CONFIG_C
1369:Generated_Source\PSoC4/CapSense_SensingCSD_LL.c ****         #else
1370:Generated_Source\PSoC4/CapSense_SensingCSD_LL.c ****             CY_SET_REG32(CapSense_CONFIG_PTR, CapSense_configCsd | CapSense_CTANK_PRECHARGE_CONFIG_
1371:Generated_Source\PSoC4/CapSense_SensingCSD_LL.c ****         #endif
1372:Generated_Source\PSoC4/CapSense_SensingCSD_LL.c **** 
1373:Generated_Source\PSoC4/CapSense_SensingCSD_LL.c ****         /* Restart the clocks. Scan one cycle to reset the flip-flop for Direct clock mode */
1374:Generated_Source\PSoC4/CapSense_SensingCSD_LL.c ****         CapSense_SsCSDClockRestart();
1375:Generated_Source\PSoC4/CapSense_SensingCSD_LL.c **** 
1376:Generated_Source\PSoC4/CapSense_SensingCSD_LL.c ****         /* Precharging Cmod to Vref */
1377:Generated_Source\PSoC4/CapSense_SensingCSD_LL.c ****         CapSense_SsCSDCmodPrecharge();
1378:Generated_Source\PSoC4/CapSense_SensingCSD_LL.c **** 
1379:Generated_Source\PSoC4/CapSense_SensingCSD_LL.c ****         #if (CapSense_CLK_SOURCE_DIRECT != CapSense_CSD_SNS_CLK_SOURCE)
1380:Generated_Source\PSoC4/CapSense_SensingCSD_LL.c ****             /* Set PreSettling delay to skip IDAC glitch before scanning */
1381:Generated_Source\PSoC4/CapSense_SensingCSD_LL.c ****             CyDelayCycles(CapSense_GLITCH_ELIMINATION_CYCLES);
1382:Generated_Source\PSoC4/CapSense_SensingCSD_LL.c ****         #endif /* (CapSense_CSD_SNS_CLK_SOURCE != CapSense_CLK_SOURCE_DIRECT) */
1383:Generated_Source\PSoC4/CapSense_SensingCSD_LL.c **** 
1384:Generated_Source\PSoC4/CapSense_SensingCSD_LL.c ****         /* Trigger Scan */
1385:Generated_Source\PSoC4/CapSense_SensingCSD_LL.c ****         CapSense_SsCSDTriggerScan();
1386:Generated_Source\PSoC4/CapSense_SensingCSD_LL.c **** 
1387:Generated_Source\PSoC4/CapSense_SensingCSD_LL.c ****         CyExitCriticalSection(interruptState);
1388:Generated_Source\PSoC4/CapSense_SensingCSD_LL.c ****     #endif /* (CapSense_ENABLE == CapSense_CSDV2) */
1389:Generated_Source\PSoC4/CapSense_SensingCSD_LL.c **** }
1390:Generated_Source\PSoC4/CapSense_SensingCSD_LL.c **** 
1391:Generated_Source\PSoC4/CapSense_SensingCSD_LL.c **** 
1392:Generated_Source\PSoC4/CapSense_SensingCSD_LL.c **** /*******************************************************************************
1393:Generated_Source\PSoC4/CapSense_SensingCSD_LL.c **** * Function Name: CapSense_CSDScanExt
1394:Generated_Source\PSoC4/CapSense_SensingCSD_LL.c **** ****************************************************************************//**
1395:Generated_Source\PSoC4/CapSense_SensingCSD_LL.c **** *
1396:Generated_Source\PSoC4/CapSense_SensingCSD_LL.c **** * \brief
1397:Generated_Source\PSoC4/CapSense_SensingCSD_LL.c **** *  Starts the CSD conversion on the preconfigured sensor. This function requires
1398:Generated_Source\PSoC4/CapSense_SensingCSD_LL.c **** *  using the CapSense_CSDSetupWidgetExt() function to set up the a
1399:Generated_Source\PSoC4/CapSense_SensingCSD_LL.c **** *  widget.
1400:Generated_Source\PSoC4/CapSense_SensingCSD_LL.c **** *
1401:Generated_Source\PSoC4/CapSense_SensingCSD_LL.c **** * \details
1402:Generated_Source\PSoC4/CapSense_SensingCSD_LL.c **** *  Starts the CSD conversion on the preconfigured sensor. This function requires
1403:Generated_Source\PSoC4/CapSense_SensingCSD_LL.c **** *  using the CapSense_CSDSetupWidgetExt() function to set up the a
1404:Generated_Source\PSoC4/CapSense_SensingCSD_LL.c **** *  widget.
1405:Generated_Source\PSoC4/CapSense_SensingCSD_LL.c **** *
1406:Generated_Source\PSoC4/CapSense_SensingCSD_LL.c **** *  \note This function is obsolete and kept for backward compatibility only.
1407:Generated_Source\PSoC4/CapSense_SensingCSD_LL.c **** *  The CapSense_ScanExt() function should be used instead.
1408:Generated_Source\PSoC4/CapSense_SensingCSD_LL.c **** *
1409:Generated_Source\PSoC4/CapSense_SensingCSD_LL.c **** *  This function performs single scanning of one sensor in the widget configured
1410:Generated_Source\PSoC4/CapSense_SensingCSD_LL.c **** *  by the CapSense_CSDSetupWidgetExt() function. It does the following
1411:Generated_Source\PSoC4/CapSense_SensingCSD_LL.c **** *  tasks:
1412:Generated_Source\PSoC4/CapSense_SensingCSD_LL.c **** *    1. Sets the busy flag in the CapSense_dsRam structure.
1413:Generated_Source\PSoC4/CapSense_SensingCSD_LL.c **** *    2. Performs the clock-phase alignment of the sense and modulator clocks.
1414:Generated_Source\PSoC4/CapSense_SensingCSD_LL.c **** *    3. Performs the Cmod pre-charging.
1415:Generated_Source\PSoC4/CapSense_SensingCSD_LL.c **** *    4. Starts single scanning.
1416:Generated_Source\PSoC4/CapSense_SensingCSD_LL.c **** *
1417:Generated_Source\PSoC4/CapSense_SensingCSD_LL.c **** *  Calling this function directly from the application layer is not
1418:Generated_Source\PSoC4/CapSense_SensingCSD_LL.c **** *  recommended. This function is used to implement only the user's specific
1419:Generated_Source\PSoC4/CapSense_SensingCSD_LL.c **** *  use cases (for faster execution time or pipeline scanning for example).
1420:Generated_Source\PSoC4/CapSense_SensingCSD_LL.c **** *  This function is called when no scanning is in progress. I.e.
1421:Generated_Source\PSoC4/CapSense_SensingCSD_LL.c **** *  CapSense_IsBusy() returns a non-busy status.
1422:Generated_Source\PSoC4/CapSense_SensingCSD_LL.c **** *
ARM GAS  C:\Users\zack.li\AppData\Local\Temp\ccTyLy6m.s 			page 42


1423:Generated_Source\PSoC4/CapSense_SensingCSD_LL.c **** *  The sensor must be preconfigured by using the
1424:Generated_Source\PSoC4/CapSense_SensingCSD_LL.c **** *  CapSense_CSDSetupWidgetExt() API prior to calling this function.
1425:Generated_Source\PSoC4/CapSense_SensingCSD_LL.c **** *  The sensor remains ready for a next scan if a previous scan was triggered
1426:Generated_Source\PSoC4/CapSense_SensingCSD_LL.c **** *  by using the CapSense_CSDScanExt() function. In this case, calling
1427:Generated_Source\PSoC4/CapSense_SensingCSD_LL.c **** *  CapSense_CSDSetupWidgetExt() is not required every time before the
1428:Generated_Source\PSoC4/CapSense_SensingCSD_LL.c **** *  CapSense_CSDScanExt() function. If a previous scan was triggered in
1429:Generated_Source\PSoC4/CapSense_SensingCSD_LL.c **** *  any other way - CapSense_Scan(), CapSense_ScanAllWidgets() or
1430:Generated_Source\PSoC4/CapSense_SensingCSD_LL.c **** *  CapSense_RunTuner() - (see the CapSense_RunTuner() function
1431:Generated_Source\PSoC4/CapSense_SensingCSD_LL.c **** *  description for more details), the sensor must be preconfigured again by
1432:Generated_Source\PSoC4/CapSense_SensingCSD_LL.c **** *  using the CapSense_CSDSetupWidgetExt() API prior to calling the
1433:Generated_Source\PSoC4/CapSense_SensingCSD_LL.c **** *  CapSense_CSDScanExt() function.
1434:Generated_Source\PSoC4/CapSense_SensingCSD_LL.c **** *
1435:Generated_Source\PSoC4/CapSense_SensingCSD_LL.c **** *  If disconnection of the sensors is required after calling
1436:Generated_Source\PSoC4/CapSense_SensingCSD_LL.c **** *  CapSense_CSDScanExt(), the CapSense_CSDDisconnectSns()
1437:Generated_Source\PSoC4/CapSense_SensingCSD_LL.c **** *  function can be used.
1438:Generated_Source\PSoC4/CapSense_SensingCSD_LL.c **** *
1439:Generated_Source\PSoC4/CapSense_SensingCSD_LL.c **** *******************************************************************************/
1440:Generated_Source\PSoC4/CapSense_SensingCSD_LL.c **** void CapSense_CSDScanExt(void)
1441:Generated_Source\PSoC4/CapSense_SensingCSD_LL.c **** {
1442:Generated_Source\PSoC4/CapSense_SensingCSD_LL.c ****     #if ((CapSense_DISABLE == CapSense_CSD_COMMON_SNS_CLK_EN) && \
1443:Generated_Source\PSoC4/CapSense_SensingCSD_LL.c ****          (CapSense_CSD_MATRIX_WIDGET_EN || CapSense_CSD_TOUCHPAD_WIDGET_EN))
1444:Generated_Source\PSoC4/CapSense_SensingCSD_LL.c ****         CapSense_RAM_WD_BASE_STRUCT const *ptrWdgt = (CapSense_RAM_WD_BASE_STRUCT *)
1445:Generated_Source\PSoC4/CapSense_SensingCSD_LL.c ****                                                         CapSense_dsFlash.wdgtArray[CapSense_widgetI
1446:Generated_Source\PSoC4/CapSense_SensingCSD_LL.c **** 
1447:Generated_Source\PSoC4/CapSense_SensingCSD_LL.c ****         CapSense_SsCSDCalculateScanDuration(ptrWdgt);
1448:Generated_Source\PSoC4/CapSense_SensingCSD_LL.c ****         CapSense_SsCSDConfigClock();
1449:Generated_Source\PSoC4/CapSense_SensingCSD_LL.c ****     #endif
1450:Generated_Source\PSoC4/CapSense_SensingCSD_LL.c **** 
1451:Generated_Source\PSoC4/CapSense_SensingCSD_LL.c ****     /* Set Start of sensor scan flag */
1452:Generated_Source\PSoC4/CapSense_SensingCSD_LL.c ****     CapSense_dsRam.status |= (CapSense_SW_STS_BUSY | CapSense_WDGT_SW_STS_BUSY);
1453:Generated_Source\PSoC4/CapSense_SensingCSD_LL.c **** 
1454:Generated_Source\PSoC4/CapSense_SensingCSD_LL.c ****     #if (CapSense_ENABLE == CapSense_MULTI_FREQ_SCAN_EN)
1455:Generated_Source\PSoC4/CapSense_SensingCSD_LL.c ****         /* Reset the frequency scan channel if enabled */
1456:Generated_Source\PSoC4/CapSense_SensingCSD_LL.c ****         CapSense_scanFreqIndex = CapSense_FREQ_CHANNEL_0;
1457:Generated_Source\PSoC4/CapSense_SensingCSD_LL.c ****     #endif /* (CapSense_ENABLE == CapSense_MULTI_FREQ_SCAN_EN) */
1458:Generated_Source\PSoC4/CapSense_SensingCSD_LL.c **** 
1459:Generated_Source\PSoC4/CapSense_SensingCSD_LL.c ****     #if (CapSense_ENABLE != CapSense_BLOCK_OFF_AFTER_SCAN_EN) &&\
1460:Generated_Source\PSoC4/CapSense_SensingCSD_LL.c ****         (CapSense_ENABLE == CapSense_CSDV2)
1461:Generated_Source\PSoC4/CapSense_SensingCSD_LL.c ****         #if(CapSense_CSD_ANALOG_STARTUP_DELAY_US > 0uL)
1462:Generated_Source\PSoC4/CapSense_SensingCSD_LL.c ****             CyDelayUs(CapSense_CSD_ANALOG_STARTUP_DELAY_US);
1463:Generated_Source\PSoC4/CapSense_SensingCSD_LL.c ****         #endif /* (CapSense_CSD_ANALOG_STARTUP_DELAY_US > 0uL) */
1464:Generated_Source\PSoC4/CapSense_SensingCSD_LL.c ****     #endif /* (CapSense_ENABLE != CapSense_BLOCK_OFF_AFTER_SCAN_EN) &&\
1465:Generated_Source\PSoC4/CapSense_SensingCSD_LL.c ****               (CapSense_ENABLE == CapSense_CSDV2)*/
1466:Generated_Source\PSoC4/CapSense_SensingCSD_LL.c **** 
1467:Generated_Source\PSoC4/CapSense_SensingCSD_LL.c ****     CapSense_SsCSDStartSample();
1468:Generated_Source\PSoC4/CapSense_SensingCSD_LL.c **** }
1469:Generated_Source\PSoC4/CapSense_SensingCSD_LL.c **** 
1470:Generated_Source\PSoC4/CapSense_SensingCSD_LL.c **** 
1471:Generated_Source\PSoC4/CapSense_SensingCSD_LL.c **** /*******************************************************************************
1472:Generated_Source\PSoC4/CapSense_SensingCSD_LL.c **** * Function Name: CapSense_CSDScan
1473:Generated_Source\PSoC4/CapSense_SensingCSD_LL.c **** ****************************************************************************//**
1474:Generated_Source\PSoC4/CapSense_SensingCSD_LL.c **** *
1475:Generated_Source\PSoC4/CapSense_SensingCSD_LL.c **** * \brief
1476:Generated_Source\PSoC4/CapSense_SensingCSD_LL.c **** *  This function initiates a scan for the sensors of the widget initialized by the
1477:Generated_Source\PSoC4/CapSense_SensingCSD_LL.c **** *  CapSense_CSDSetupWidget() function.
1478:Generated_Source\PSoC4/CapSense_SensingCSD_LL.c **** *
1479:Generated_Source\PSoC4/CapSense_SensingCSD_LL.c **** * \details
ARM GAS  C:\Users\zack.li\AppData\Local\Temp\ccTyLy6m.s 			page 43


1480:Generated_Source\PSoC4/CapSense_SensingCSD_LL.c **** *  This function initiates a scan for the sensors of the widget initialized by the
1481:Generated_Source\PSoC4/CapSense_SensingCSD_LL.c **** *  CapSense_CSDSetupWidget() function.
1482:Generated_Source\PSoC4/CapSense_SensingCSD_LL.c **** *
1483:Generated_Source\PSoC4/CapSense_SensingCSD_LL.c **** *  \note This function is obsolete and kept for backward compatibility only.
1484:Generated_Source\PSoC4/CapSense_SensingCSD_LL.c **** *  The CapSense_Scan() function should be used instead.
1485:Generated_Source\PSoC4/CapSense_SensingCSD_LL.c **** *
1486:Generated_Source\PSoC4/CapSense_SensingCSD_LL.c **** *  This function performs scanning of all the sensors in the widget configured by
1487:Generated_Source\PSoC4/CapSense_SensingCSD_LL.c **** *  the CapSense_CSDSetupWidget() function. It does the following tasks:
1488:Generated_Source\PSoC4/CapSense_SensingCSD_LL.c **** *    1. Connects the first sensor of the widget.
1489:Generated_Source\PSoC4/CapSense_SensingCSD_LL.c **** *    2. Configures the IDAC value.
1490:Generated_Source\PSoC4/CapSense_SensingCSD_LL.c **** *    3. Initializes the interrupt callback function to initialize a scan of
1491:Generated_Source\PSoC4/CapSense_SensingCSD_LL.c **** *       the next sensors in a widget.
1492:Generated_Source\PSoC4/CapSense_SensingCSD_LL.c **** *    4. Starts scanning for the first sensor in the widget.
1493:Generated_Source\PSoC4/CapSense_SensingCSD_LL.c **** *
1494:Generated_Source\PSoC4/CapSense_SensingCSD_LL.c **** *  This function is called by the CapSense_Scan() API if the given
1495:Generated_Source\PSoC4/CapSense_SensingCSD_LL.c **** *  widget uses the CSD sensing method.
1496:Generated_Source\PSoC4/CapSense_SensingCSD_LL.c **** *
1497:Generated_Source\PSoC4/CapSense_SensingCSD_LL.c **** *  Calling this function directly from the application layer is not
1498:Generated_Source\PSoC4/CapSense_SensingCSD_LL.c **** *  recommended. This function is used to implement only the user's specific
1499:Generated_Source\PSoC4/CapSense_SensingCSD_LL.c **** *  use cases (for faster execution time or pipeline scanning for example).
1500:Generated_Source\PSoC4/CapSense_SensingCSD_LL.c **** *
1501:Generated_Source\PSoC4/CapSense_SensingCSD_LL.c **** *  This function is called when no scanning is in progress. I.e.
1502:Generated_Source\PSoC4/CapSense_SensingCSD_LL.c **** *  CapSense_IsBusy() returns a non-busy status. The widget must be
1503:Generated_Source\PSoC4/CapSense_SensingCSD_LL.c **** *  preconfigured by the CapSense_CSDSetupWidget() function if any other
1504:Generated_Source\PSoC4/CapSense_SensingCSD_LL.c **** *  widget was previously scanned or any other type of the scan functions was used.
1505:Generated_Source\PSoC4/CapSense_SensingCSD_LL.c **** *
1506:Generated_Source\PSoC4/CapSense_SensingCSD_LL.c **** *******************************************************************************/
1507:Generated_Source\PSoC4/CapSense_SensingCSD_LL.c **** void CapSense_CSDScan(void)
1508:Generated_Source\PSoC4/CapSense_SensingCSD_LL.c **** {
1509:Generated_Source\PSoC4/CapSense_SensingCSD_LL.c ****     CapSense_RAM_WD_BASE_STRUCT const *ptrWdgt = (CapSense_RAM_WD_BASE_STRUCT *)
1510:Generated_Source\PSoC4/CapSense_SensingCSD_LL.c ****                                                     CapSense_dsFlash.wdgtArray[CapSense_widgetIndex
1511:Generated_Source\PSoC4/CapSense_SensingCSD_LL.c **** 
1512:Generated_Source\PSoC4/CapSense_SensingCSD_LL.c ****     /* Set all the sensors to inactive state */
1513:Generated_Source\PSoC4/CapSense_SensingCSD_LL.c ****     if(CapSense_dsRam.scanCurrentISC != CapSense_dsRam.scanCsdISC)
1514:Generated_Source\PSoC4/CapSense_SensingCSD_LL.c ****     {
1515:Generated_Source\PSoC4/CapSense_SensingCSD_LL.c ****         CapSense_SsSetAllIOsState((uint32)CapSense_dsRam.scanCsdISC);
1516:Generated_Source\PSoC4/CapSense_SensingCSD_LL.c ****         CapSense_dsRam.scanCurrentISC = CapSense_dsRam.scanCsdISC;
1517:Generated_Source\PSoC4/CapSense_SensingCSD_LL.c ****     }
1518:Generated_Source\PSoC4/CapSense_SensingCSD_LL.c **** 
1519:Generated_Source\PSoC4/CapSense_SensingCSD_LL.c ****      /*
1520:Generated_Source\PSoC4/CapSense_SensingCSD_LL.c ****       * Update CapSense_sensorIndex with the first sensor in
1521:Generated_Source\PSoC4/CapSense_SensingCSD_LL.c ****       * widget to use it in ISR handler to configure the next sensor
1522:Generated_Source\PSoC4/CapSense_SensingCSD_LL.c ****       */
1523:Generated_Source\PSoC4/CapSense_SensingCSD_LL.c ****     CapSense_sensorIndex = 0u;
1524:Generated_Source\PSoC4/CapSense_SensingCSD_LL.c **** 
1525:Generated_Source\PSoC4/CapSense_SensingCSD_LL.c ****     /* Update global pointer to CapSense_RAM_SNS_STRUCT to current sensor  */
1526:Generated_Source\PSoC4/CapSense_SensingCSD_LL.c ****     CapSense_curRamSnsPtr = (CapSense_RAM_SNS_STRUCT *)
1527:Generated_Source\PSoC4/CapSense_SensingCSD_LL.c ****                                               CapSense_dsFlash.wdgtArray[CapSense_widgetIndex].ptr2
1528:Generated_Source\PSoC4/CapSense_SensingCSD_LL.c ****                                               + CapSense_sensorIndex;
1529:Generated_Source\PSoC4/CapSense_SensingCSD_LL.c **** 
1530:Generated_Source\PSoC4/CapSense_SensingCSD_LL.c ****     #if (CapSense_ENABLE == CapSense_MULTI_FREQ_SCAN_EN)
1531:Generated_Source\PSoC4/CapSense_SensingCSD_LL.c ****         /* Reset the frequency scan channel if enabled */
1532:Generated_Source\PSoC4/CapSense_SensingCSD_LL.c ****         CapSense_scanFreqIndex = CapSense_FREQ_CHANNEL_0;
1533:Generated_Source\PSoC4/CapSense_SensingCSD_LL.c ****     #endif /* (CapSense_ENABLE == CapSense_MULTI_FREQ_SCAN_EN) */
1534:Generated_Source\PSoC4/CapSense_SensingCSD_LL.c **** 
1535:Generated_Source\PSoC4/CapSense_SensingCSD_LL.c ****     /* Setup Idac Value */
1536:Generated_Source\PSoC4/CapSense_SensingCSD_LL.c ****    CapSense_SsCSDSetUpIdacs(ptrWdgt);
ARM GAS  C:\Users\zack.li\AppData\Local\Temp\ccTyLy6m.s 			page 44


1537:Generated_Source\PSoC4/CapSense_SensingCSD_LL.c **** 
1538:Generated_Source\PSoC4/CapSense_SensingCSD_LL.c ****     #if (CapSense_ENABLE == CapSense_CSD_GANGED_SNS_EN)
1539:Generated_Source\PSoC4/CapSense_SensingCSD_LL.c ****         /* Check ganged sns flag  */
1540:Generated_Source\PSoC4/CapSense_SensingCSD_LL.c ****         if (CapSense_GANGED_SNS_MASK == (CapSense_dsFlash.wdgtArray[CapSense_widgetIndex].staticCon
1541:Generated_Source\PSoC4/CapSense_SensingCSD_LL.c ****             CapSense_GANGED_SNS_MASK))
1542:Generated_Source\PSoC4/CapSense_SensingCSD_LL.c ****         {
1543:Generated_Source\PSoC4/CapSense_SensingCSD_LL.c ****             /* Setup ISR handler to multiple-sensor scan function with ganged sensors */
1544:Generated_Source\PSoC4/CapSense_SensingCSD_LL.c ****             CapSense_ISR_StartEx(&CapSense_CSDPostMultiScanGanged);
1545:Generated_Source\PSoC4/CapSense_SensingCSD_LL.c ****         }
1546:Generated_Source\PSoC4/CapSense_SensingCSD_LL.c ****         else
1547:Generated_Source\PSoC4/CapSense_SensingCSD_LL.c ****         {
1548:Generated_Source\PSoC4/CapSense_SensingCSD_LL.c ****             /* Set up ISR handler to multiple-sensor scan function without ganged sensors */
1549:Generated_Source\PSoC4/CapSense_SensingCSD_LL.c ****             CapSense_ISR_StartEx(&CapSense_CSDPostMultiScan);
1550:Generated_Source\PSoC4/CapSense_SensingCSD_LL.c ****         }
1551:Generated_Source\PSoC4/CapSense_SensingCSD_LL.c **** 
1552:Generated_Source\PSoC4/CapSense_SensingCSD_LL.c ****         CapSense_SsCSDConnectSensorExt((uint32)CapSense_widgetIndex, (uint32)CapSense_sensorIndex);
1553:Generated_Source\PSoC4/CapSense_SensingCSD_LL.c ****     #else
1554:Generated_Source\PSoC4/CapSense_SensingCSD_LL.c ****         /* initialize ptr to sensor IO structure to appropriate address */
1555:Generated_Source\PSoC4/CapSense_SensingCSD_LL.c ****         CapSense_curSnsIOPtr = (CapSense_FLASH_IO_STRUCT const *)
1556:Generated_Source\PSoC4/CapSense_SensingCSD_LL.c ****                                         CapSense_dsFlash.wdgtArray[CapSense_widgetIndex].ptr2SnsFla
1557:Generated_Source\PSoC4/CapSense_SensingCSD_LL.c ****                                         + CapSense_sensorIndex;
1558:Generated_Source\PSoC4/CapSense_SensingCSD_LL.c **** 
1559:Generated_Source\PSoC4/CapSense_SensingCSD_LL.c ****         /* Enable sensor */
1560:Generated_Source\PSoC4/CapSense_SensingCSD_LL.c ****         CapSense_CSDConnectSns(CapSense_curSnsIOPtr);
1561:Generated_Source\PSoC4/CapSense_SensingCSD_LL.c **** 
1562:Generated_Source\PSoC4/CapSense_SensingCSD_LL.c ****         /* Set-up ISR handler to multiple-sensor scan function without ganged sensors */
1563:Generated_Source\PSoC4/CapSense_SensingCSD_LL.c ****         CapSense_ISR_StartEx(&CapSense_CSDPostMultiScan);
1564:Generated_Source\PSoC4/CapSense_SensingCSD_LL.c ****     #endif /* (CapSense_ENABLE == CapSense_CSD_GANGED_SNS_EN)  */
1565:Generated_Source\PSoC4/CapSense_SensingCSD_LL.c **** 
1566:Generated_Source\PSoC4/CapSense_SensingCSD_LL.c ****     /* Start scanning */
1567:Generated_Source\PSoC4/CapSense_SensingCSD_LL.c ****     CapSense_CSDScanExt();
1568:Generated_Source\PSoC4/CapSense_SensingCSD_LL.c **** }
1569:Generated_Source\PSoC4/CapSense_SensingCSD_LL.c **** 
1570:Generated_Source\PSoC4/CapSense_SensingCSD_LL.c **** 
1571:Generated_Source\PSoC4/CapSense_SensingCSD_LL.c **** /*******************************************************************************
1572:Generated_Source\PSoC4/CapSense_SensingCSD_LL.c **** * Function Name: CapSense_SsCSDConnectSensorExt
1573:Generated_Source\PSoC4/CapSense_SensingCSD_LL.c **** ****************************************************************************//**
1574:Generated_Source\PSoC4/CapSense_SensingCSD_LL.c **** *
1575:Generated_Source\PSoC4/CapSense_SensingCSD_LL.c **** * \brief
1576:Generated_Source\PSoC4/CapSense_SensingCSD_LL.c **** *  Connects a ganged sensor port-pin to the sensing HW block via the AMUX bus.
1577:Generated_Source\PSoC4/CapSense_SensingCSD_LL.c **** *
1578:Generated_Source\PSoC4/CapSense_SensingCSD_LL.c **** * \details
1579:Generated_Source\PSoC4/CapSense_SensingCSD_LL.c **** *   The function gets the IO configuration registers addresses, their shifts and
1580:Generated_Source\PSoC4/CapSense_SensingCSD_LL.c **** *   masks from the FLASH_IO_STRUCT object. Basing on this data, it updates the HSIOM and
1581:Generated_Source\PSoC4/CapSense_SensingCSD_LL.c **** *   PC registers.
1582:Generated_Source\PSoC4/CapSense_SensingCSD_LL.c **** *
1583:Generated_Source\PSoC4/CapSense_SensingCSD_LL.c **** * \param widgetId
1584:Generated_Source\PSoC4/CapSense_SensingCSD_LL.c **** *  Specifies ID of the widget.
1585:Generated_Source\PSoC4/CapSense_SensingCSD_LL.c **** *
1586:Generated_Source\PSoC4/CapSense_SensingCSD_LL.c **** * \param sensorId
1587:Generated_Source\PSoC4/CapSense_SensingCSD_LL.c **** *  Specifies ID of the sensor in the widget.
1588:Generated_Source\PSoC4/CapSense_SensingCSD_LL.c **** *
1589:Generated_Source\PSoC4/CapSense_SensingCSD_LL.c **** *******************************************************************************/
1590:Generated_Source\PSoC4/CapSense_SensingCSD_LL.c **** void CapSense_SsCSDConnectSensorExt(uint32 widgetId, uint32 sensorId)
1591:Generated_Source\PSoC4/CapSense_SensingCSD_LL.c **** {
1592:Generated_Source\PSoC4/CapSense_SensingCSD_LL.c ****     #if (CapSense_ENABLE == CapSense_CSD_GANGED_SNS_EN)
1593:Generated_Source\PSoC4/CapSense_SensingCSD_LL.c ****         uint32 tempVal;
ARM GAS  C:\Users\zack.li\AppData\Local\Temp\ccTyLy6m.s 			page 45


1594:Generated_Source\PSoC4/CapSense_SensingCSD_LL.c ****     #endif /* (CapSense_ENABLE == CapSense_CSD_GANGED_SNS_EN) */
1595:Generated_Source\PSoC4/CapSense_SensingCSD_LL.c **** 
1596:Generated_Source\PSoC4/CapSense_SensingCSD_LL.c ****     /* initialize ptr to sensor IO structure to appropriate address */
1597:Generated_Source\PSoC4/CapSense_SensingCSD_LL.c ****     CapSense_curSnsIOPtr = (CapSense_FLASH_IO_STRUCT const *)
1598:Generated_Source\PSoC4/CapSense_SensingCSD_LL.c ****                                                       CapSense_dsFlash.wdgtArray[widgetId].ptr2SnsF
1599:Generated_Source\PSoC4/CapSense_SensingCSD_LL.c ****                                                       + sensorId;
1600:Generated_Source\PSoC4/CapSense_SensingCSD_LL.c **** 
1601:Generated_Source\PSoC4/CapSense_SensingCSD_LL.c ****     #if (CapSense_ENABLE == CapSense_CSD_GANGED_SNS_EN)
1602:Generated_Source\PSoC4/CapSense_SensingCSD_LL.c ****         /* Check ganged sns flag  */
1603:Generated_Source\PSoC4/CapSense_SensingCSD_LL.c ****         if (CapSense_GANGED_SNS_MASK ==
1604:Generated_Source\PSoC4/CapSense_SensingCSD_LL.c ****            (CapSense_dsFlash.wdgtArray[widgetId].staticConfig &
1605:Generated_Source\PSoC4/CapSense_SensingCSD_LL.c ****             CapSense_GANGED_SNS_MASK))
1606:Generated_Source\PSoC4/CapSense_SensingCSD_LL.c ****         {
1607:Generated_Source\PSoC4/CapSense_SensingCSD_LL.c ****             /* Get sns pointer */
1608:Generated_Source\PSoC4/CapSense_SensingCSD_LL.c ****             CapSense_curFlashSnsPtr = (CapSense_FLASH_SNS_STRUCT const *)
1609:Generated_Source\PSoC4/CapSense_SensingCSD_LL.c ****                                                CapSense_dsFlash.wdgtArray[widgetId].ptr2SnsFlash +
1610:Generated_Source\PSoC4/CapSense_SensingCSD_LL.c ****                                                sensorId;
1611:Generated_Source\PSoC4/CapSense_SensingCSD_LL.c **** 
1612:Generated_Source\PSoC4/CapSense_SensingCSD_LL.c ****             /* Get number of ganged pins */
1613:Generated_Source\PSoC4/CapSense_SensingCSD_LL.c ****             tempVal = CapSense_curFlashSnsPtr->numPins;
1614:Generated_Source\PSoC4/CapSense_SensingCSD_LL.c **** 
1615:Generated_Source\PSoC4/CapSense_SensingCSD_LL.c ****             /* Get IO pointer  */
1616:Generated_Source\PSoC4/CapSense_SensingCSD_LL.c ****             CapSense_curSnsIOPtr = &CapSense_ioList[CapSense_curFlashSnsPtr->firstPinId];
1617:Generated_Source\PSoC4/CapSense_SensingCSD_LL.c **** 
1618:Generated_Source\PSoC4/CapSense_SensingCSD_LL.c ****             /* Connect all ganged sensors  */
1619:Generated_Source\PSoC4/CapSense_SensingCSD_LL.c ****             do
1620:Generated_Source\PSoC4/CapSense_SensingCSD_LL.c ****             {
1621:Generated_Source\PSoC4/CapSense_SensingCSD_LL.c ****                 CapSense_CSDConnectSns(CapSense_curSnsIOPtr);
1622:Generated_Source\PSoC4/CapSense_SensingCSD_LL.c ****                 CapSense_curSnsIOPtr++;
1623:Generated_Source\PSoC4/CapSense_SensingCSD_LL.c ****                 tempVal--;
1624:Generated_Source\PSoC4/CapSense_SensingCSD_LL.c ****             } while (0u != tempVal);
1625:Generated_Source\PSoC4/CapSense_SensingCSD_LL.c ****         }
1626:Generated_Source\PSoC4/CapSense_SensingCSD_LL.c ****         else
1627:Generated_Source\PSoC4/CapSense_SensingCSD_LL.c ****         {
1628:Generated_Source\PSoC4/CapSense_SensingCSD_LL.c ****             /* Connect sensor */
1629:Generated_Source\PSoC4/CapSense_SensingCSD_LL.c ****             CapSense_CSDConnectSns(CapSense_curSnsIOPtr);
1630:Generated_Source\PSoC4/CapSense_SensingCSD_LL.c ****         }
1631:Generated_Source\PSoC4/CapSense_SensingCSD_LL.c ****     #else
1632:Generated_Source\PSoC4/CapSense_SensingCSD_LL.c ****         /* Connect sensor */
1633:Generated_Source\PSoC4/CapSense_SensingCSD_LL.c ****         CapSense_CSDConnectSns(CapSense_curSnsIOPtr);
1634:Generated_Source\PSoC4/CapSense_SensingCSD_LL.c ****     #endif /* (CapSense_ENABLE == CapSense_CSD_GANGED_SNS_EN) */
1635:Generated_Source\PSoC4/CapSense_SensingCSD_LL.c **** }
1636:Generated_Source\PSoC4/CapSense_SensingCSD_LL.c **** 
1637:Generated_Source\PSoC4/CapSense_SensingCSD_LL.c **** 
1638:Generated_Source\PSoC4/CapSense_SensingCSD_LL.c **** /*******************************************************************************
1639:Generated_Source\PSoC4/CapSense_SensingCSD_LL.c **** * Function Name: CapSense_SsCSDDisconnectSnsExt
1640:Generated_Source\PSoC4/CapSense_SensingCSD_LL.c **** ****************************************************************************//**
1641:Generated_Source\PSoC4/CapSense_SensingCSD_LL.c **** *
1642:Generated_Source\PSoC4/CapSense_SensingCSD_LL.c **** * \brief
1643:Generated_Source\PSoC4/CapSense_SensingCSD_LL.c **** *  Disconnects a ganged sensor port-pin from the sensing HW block and AMUX bus.
1644:Generated_Source\PSoC4/CapSense_SensingCSD_LL.c **** *  Sets the default state of the un-scanned sensor.
1645:Generated_Source\PSoC4/CapSense_SensingCSD_LL.c **** *
1646:Generated_Source\PSoC4/CapSense_SensingCSD_LL.c **** * \details
1647:Generated_Source\PSoC4/CapSense_SensingCSD_LL.c **** *   The function gets the IO configuration registers addresses, their shifts and
1648:Generated_Source\PSoC4/CapSense_SensingCSD_LL.c **** *   masks from the FLASH_IO_STRUCT object. Basing on this data and Inactive sensor
1649:Generated_Source\PSoC4/CapSense_SensingCSD_LL.c **** *   connection parameter, it updates the HSIOM, PC and DR registers.
1650:Generated_Source\PSoC4/CapSense_SensingCSD_LL.c **** *   The HSIOM register is updated only when the Inactive sensor connection parameter
ARM GAS  C:\Users\zack.li\AppData\Local\Temp\ccTyLy6m.s 			page 46


1651:Generated_Source\PSoC4/CapSense_SensingCSD_LL.c **** *   is set to Shield.
1652:Generated_Source\PSoC4/CapSense_SensingCSD_LL.c **** *
1653:Generated_Source\PSoC4/CapSense_SensingCSD_LL.c **** * \param widgetId
1654:Generated_Source\PSoC4/CapSense_SensingCSD_LL.c **** *  Specifies ID of the widget.
1655:Generated_Source\PSoC4/CapSense_SensingCSD_LL.c **** *
1656:Generated_Source\PSoC4/CapSense_SensingCSD_LL.c **** * \param sensorId
1657:Generated_Source\PSoC4/CapSense_SensingCSD_LL.c **** *  Specifies ID of the sensor in the widget.
1658:Generated_Source\PSoC4/CapSense_SensingCSD_LL.c **** *
1659:Generated_Source\PSoC4/CapSense_SensingCSD_LL.c **** *******************************************************************************/
1660:Generated_Source\PSoC4/CapSense_SensingCSD_LL.c **** void CapSense_SsCSDDisconnectSnsExt(uint32 widgetId, uint32 sensorId)
1661:Generated_Source\PSoC4/CapSense_SensingCSD_LL.c **** {
1662:Generated_Source\PSoC4/CapSense_SensingCSD_LL.c ****     #if (CapSense_ENABLE == CapSense_CSD_GANGED_SNS_EN)
1663:Generated_Source\PSoC4/CapSense_SensingCSD_LL.c ****         uint32 tempVal;
1664:Generated_Source\PSoC4/CapSense_SensingCSD_LL.c ****     #endif /* (CapSense_ENABLE == CapSense_CSD_GANGED_SNS_EN) */
1665:Generated_Source\PSoC4/CapSense_SensingCSD_LL.c **** 
1666:Generated_Source\PSoC4/CapSense_SensingCSD_LL.c ****     /* initialize ptr to sensor IO structure to appropriate address        */
1667:Generated_Source\PSoC4/CapSense_SensingCSD_LL.c ****     CapSense_curSnsIOPtr = (CapSense_FLASH_IO_STRUCT const *)
1668:Generated_Source\PSoC4/CapSense_SensingCSD_LL.c ****                                                       CapSense_dsFlash.wdgtArray[widgetId].ptr2SnsF
1669:Generated_Source\PSoC4/CapSense_SensingCSD_LL.c ****                                                       + sensorId;
1670:Generated_Source\PSoC4/CapSense_SensingCSD_LL.c **** 
1671:Generated_Source\PSoC4/CapSense_SensingCSD_LL.c ****     #if (CapSense_ENABLE == CapSense_CSD_GANGED_SNS_EN)
1672:Generated_Source\PSoC4/CapSense_SensingCSD_LL.c ****         /* Check ganged sns flag  */
1673:Generated_Source\PSoC4/CapSense_SensingCSD_LL.c ****         if ((CapSense_dsFlash.wdgtArray[widgetId].staticConfig &
1674:Generated_Source\PSoC4/CapSense_SensingCSD_LL.c ****             CapSense_GANGED_SNS_MASK) == CapSense_GANGED_SNS_MASK)
1675:Generated_Source\PSoC4/CapSense_SensingCSD_LL.c ****         {
1676:Generated_Source\PSoC4/CapSense_SensingCSD_LL.c ****             /* Get sns pointer */
1677:Generated_Source\PSoC4/CapSense_SensingCSD_LL.c ****             CapSense_curFlashSnsPtr = (CapSense_FLASH_SNS_STRUCT const *)
1678:Generated_Source\PSoC4/CapSense_SensingCSD_LL.c ****                                                CapSense_dsFlash.wdgtArray[widgetId].ptr2SnsFlash +
1679:Generated_Source\PSoC4/CapSense_SensingCSD_LL.c ****                                                sensorId;
1680:Generated_Source\PSoC4/CapSense_SensingCSD_LL.c **** 
1681:Generated_Source\PSoC4/CapSense_SensingCSD_LL.c ****             /* Get number of ganged pins */
1682:Generated_Source\PSoC4/CapSense_SensingCSD_LL.c ****             tempVal = CapSense_curFlashSnsPtr->numPins;
1683:Generated_Source\PSoC4/CapSense_SensingCSD_LL.c **** 
1684:Generated_Source\PSoC4/CapSense_SensingCSD_LL.c ****             /* Get IO pointer  */
1685:Generated_Source\PSoC4/CapSense_SensingCSD_LL.c ****             CapSense_curSnsIOPtr = &CapSense_ioList[CapSense_curFlashSnsPtr->firstPinId];
1686:Generated_Source\PSoC4/CapSense_SensingCSD_LL.c **** 
1687:Generated_Source\PSoC4/CapSense_SensingCSD_LL.c ****             /* Disconnect all ganged sensors */
1688:Generated_Source\PSoC4/CapSense_SensingCSD_LL.c ****             do
1689:Generated_Source\PSoC4/CapSense_SensingCSD_LL.c ****             {
1690:Generated_Source\PSoC4/CapSense_SensingCSD_LL.c ****                 CapSense_CSDDisconnectSns(CapSense_curSnsIOPtr);
1691:Generated_Source\PSoC4/CapSense_SensingCSD_LL.c ****                 CapSense_curSnsIOPtr++;
1692:Generated_Source\PSoC4/CapSense_SensingCSD_LL.c ****                 tempVal--;
1693:Generated_Source\PSoC4/CapSense_SensingCSD_LL.c ****             } while (0u != tempVal);
1694:Generated_Source\PSoC4/CapSense_SensingCSD_LL.c ****         }
1695:Generated_Source\PSoC4/CapSense_SensingCSD_LL.c ****         else
1696:Generated_Source\PSoC4/CapSense_SensingCSD_LL.c ****         {
1697:Generated_Source\PSoC4/CapSense_SensingCSD_LL.c ****             /* Disconnect ganged sensor */
1698:Generated_Source\PSoC4/CapSense_SensingCSD_LL.c ****             CapSense_CSDDisconnectSns(CapSense_curSnsIOPtr);
1699:Generated_Source\PSoC4/CapSense_SensingCSD_LL.c ****         }
1700:Generated_Source\PSoC4/CapSense_SensingCSD_LL.c ****     #else
1701:Generated_Source\PSoC4/CapSense_SensingCSD_LL.c ****         /* Disconnect ganged sensor */
1702:Generated_Source\PSoC4/CapSense_SensingCSD_LL.c ****         CapSense_CSDDisconnectSns(CapSense_curSnsIOPtr);
1703:Generated_Source\PSoC4/CapSense_SensingCSD_LL.c ****     #endif /* (CapSense_ENABLE == CapSense_CSD_GANGED_SNS_EN) */
1704:Generated_Source\PSoC4/CapSense_SensingCSD_LL.c **** }
1705:Generated_Source\PSoC4/CapSense_SensingCSD_LL.c **** 
1706:Generated_Source\PSoC4/CapSense_SensingCSD_LL.c **** 
1707:Generated_Source\PSoC4/CapSense_SensingCSD_LL.c **** /*******************************************************************************
ARM GAS  C:\Users\zack.li\AppData\Local\Temp\ccTyLy6m.s 			page 47


1708:Generated_Source\PSoC4/CapSense_SensingCSD_LL.c **** * Function Name: CapSense_CSDConnectSns
1709:Generated_Source\PSoC4/CapSense_SensingCSD_LL.c **** ****************************************************************************//**
1710:Generated_Source\PSoC4/CapSense_SensingCSD_LL.c **** *
1711:Generated_Source\PSoC4/CapSense_SensingCSD_LL.c **** * \brief
1712:Generated_Source\PSoC4/CapSense_SensingCSD_LL.c **** *  Connects a port pin used by the sensor to the AMUX bus of the sensing HW block.
1713:Generated_Source\PSoC4/CapSense_SensingCSD_LL.c **** *
1714:Generated_Source\PSoC4/CapSense_SensingCSD_LL.c **** * \details
1715:Generated_Source\PSoC4/CapSense_SensingCSD_LL.c **** *  Connects a port pin used by the sensor to the AMUX bus of the sensing HW block
1716:Generated_Source\PSoC4/CapSense_SensingCSD_LL.c **** *  while a sensor is being scanned. The function ignores the fact if
1717:Generated_Source\PSoC4/CapSense_SensingCSD_LL.c **** *  the sensor is a ganged sensor and connects only a specified pin.
1718:Generated_Source\PSoC4/CapSense_SensingCSD_LL.c **** *
1719:Generated_Source\PSoC4/CapSense_SensingCSD_LL.c **** *  Scanning should be completed before calling this API.
1720:Generated_Source\PSoC4/CapSense_SensingCSD_LL.c **** *
1721:Generated_Source\PSoC4/CapSense_SensingCSD_LL.c **** *  Calling this function directly from the application layer is not
1722:Generated_Source\PSoC4/CapSense_SensingCSD_LL.c **** *  recommended. This function is used to implement only the user's specific
1723:Generated_Source\PSoC4/CapSense_SensingCSD_LL.c **** *  use cases. Functions that perform a setup and scan of a sensor/widget,
1724:Generated_Source\PSoC4/CapSense_SensingCSD_LL.c **** *  automatically set the required pin states and perform the sensor connection.
1725:Generated_Source\PSoC4/CapSense_SensingCSD_LL.c **** *  They do not take into account changes in the design made by the
1726:Generated_Source\PSoC4/CapSense_SensingCSD_LL.c **** *  CapSense_CSDConnectSns() function.
1727:Generated_Source\PSoC4/CapSense_SensingCSD_LL.c **** *
1728:Generated_Source\PSoC4/CapSense_SensingCSD_LL.c **** * \param  snsAddrPtr
1729:Generated_Source\PSoC4/CapSense_SensingCSD_LL.c **** *  Specifies the pointer to the FLASH_IO_STRUCT object belonging to a sensor
1730:Generated_Source\PSoC4/CapSense_SensingCSD_LL.c **** *  which to be connected to the sensing HW block.
1731:Generated_Source\PSoC4/CapSense_SensingCSD_LL.c **** *
1732:Generated_Source\PSoC4/CapSense_SensingCSD_LL.c **** *******************************************************************************/
1733:Generated_Source\PSoC4/CapSense_SensingCSD_LL.c **** void CapSense_CSDConnectSns(CapSense_FLASH_IO_STRUCT const *snsAddrPtr)
1734:Generated_Source\PSoC4/CapSense_SensingCSD_LL.c **** {
1735:Generated_Source\PSoC4/CapSense_SensingCSD_LL.c ****     uint32 newRegisterValue;
1736:Generated_Source\PSoC4/CapSense_SensingCSD_LL.c ****     uint8  interruptState;
1737:Generated_Source\PSoC4/CapSense_SensingCSD_LL.c ****     uint32 pinModeShift;
1738:Generated_Source\PSoC4/CapSense_SensingCSD_LL.c ****     uint32 pinHSIOMShift;
1739:Generated_Source\PSoC4/CapSense_SensingCSD_LL.c **** 
1740:Generated_Source\PSoC4/CapSense_SensingCSD_LL.c ****     /* Get offsets for sensor */
1741:Generated_Source\PSoC4/CapSense_SensingCSD_LL.c ****     pinModeShift = (uint32)snsAddrPtr->shift;
1742:Generated_Source\PSoC4/CapSense_SensingCSD_LL.c ****     pinHSIOMShift = (uint32)snsAddrPtr->hsiomShift;
1743:Generated_Source\PSoC4/CapSense_SensingCSD_LL.c **** 
1744:Generated_Source\PSoC4/CapSense_SensingCSD_LL.c ****     interruptState = CyEnterCriticalSection();
1745:Generated_Source\PSoC4/CapSense_SensingCSD_LL.c **** 
1746:Generated_Source\PSoC4/CapSense_SensingCSD_LL.c ****     /* Use temporary variable to update registers without multiple writings to them */
1747:Generated_Source\PSoC4/CapSense_SensingCSD_LL.c ****     newRegisterValue = CY_GET_REG32(snsAddrPtr->hsiomPtr);
1748:Generated_Source\PSoC4/CapSense_SensingCSD_LL.c ****     newRegisterValue &= ~(CapSense_HSIOM_SEL_MASK << pinHSIOMShift);
1749:Generated_Source\PSoC4/CapSense_SensingCSD_LL.c ****     newRegisterValue |= (uint32)((uint32)CapSense_HSIOM_SEL_CSD_SENSE << pinHSIOMShift);
1750:Generated_Source\PSoC4/CapSense_SensingCSD_LL.c **** 
1751:Generated_Source\PSoC4/CapSense_SensingCSD_LL.c ****     /* Update port configuration register (drive mode) for sensor */
1752:Generated_Source\PSoC4/CapSense_SensingCSD_LL.c ****     CY_SET_REG32(snsAddrPtr->pcPtr, CY_GET_REG32(snsAddrPtr->pcPtr) & (uint32)~((uint32)CapSense_GP
1753:Generated_Source\PSoC4/CapSense_SensingCSD_LL.c **** 
1754:Generated_Source\PSoC4/CapSense_SensingCSD_LL.c ****     /* Update HSIOM register for sensor */
1755:Generated_Source\PSoC4/CapSense_SensingCSD_LL.c ****     CY_SET_REG32(snsAddrPtr->hsiomPtr, newRegisterValue);
1756:Generated_Source\PSoC4/CapSense_SensingCSD_LL.c **** 
1757:Generated_Source\PSoC4/CapSense_SensingCSD_LL.c ****     CyExitCriticalSection(interruptState);
1758:Generated_Source\PSoC4/CapSense_SensingCSD_LL.c **** }
1759:Generated_Source\PSoC4/CapSense_SensingCSD_LL.c **** 
1760:Generated_Source\PSoC4/CapSense_SensingCSD_LL.c **** 
1761:Generated_Source\PSoC4/CapSense_SensingCSD_LL.c **** /*******************************************************************************
1762:Generated_Source\PSoC4/CapSense_SensingCSD_LL.c **** * Function Name: CapSense_CSDDisconnectSns
1763:Generated_Source\PSoC4/CapSense_SensingCSD_LL.c **** ****************************************************************************//**
1764:Generated_Source\PSoC4/CapSense_SensingCSD_LL.c **** *
ARM GAS  C:\Users\zack.li\AppData\Local\Temp\ccTyLy6m.s 			page 48


1765:Generated_Source\PSoC4/CapSense_SensingCSD_LL.c **** * \brief
1766:Generated_Source\PSoC4/CapSense_SensingCSD_LL.c **** *  Disconnects a sensor port pin from the sensing HW block and the AMUX bus. Sets
1767:Generated_Source\PSoC4/CapSense_SensingCSD_LL.c **** *  the default state of the un-scanned sensor.
1768:Generated_Source\PSoC4/CapSense_SensingCSD_LL.c **** *
1769:Generated_Source\PSoC4/CapSense_SensingCSD_LL.c **** * \details
1770:Generated_Source\PSoC4/CapSense_SensingCSD_LL.c **** *  This function works identically to CapSense_CSDConnectSns() except
1771:Generated_Source\PSoC4/CapSense_SensingCSD_LL.c **** *  it disconnects the specified port-pin used by the sensor.
1772:Generated_Source\PSoC4/CapSense_SensingCSD_LL.c **** *
1773:Generated_Source\PSoC4/CapSense_SensingCSD_LL.c **** *  Calling this function directly from the application layer is not
1774:Generated_Source\PSoC4/CapSense_SensingCSD_LL.c **** *  recommended. This function is used to implement only the user's specific
1775:Generated_Source\PSoC4/CapSense_SensingCSD_LL.c **** *  use cases. Functions that perform a setup and scan of sensor/widget
1776:Generated_Source\PSoC4/CapSense_SensingCSD_LL.c **** *  automatically set the required pin states and perform the sensor connection.
1777:Generated_Source\PSoC4/CapSense_SensingCSD_LL.c **** *  They ignore changes in the design made by the
1778:Generated_Source\PSoC4/CapSense_SensingCSD_LL.c **** *  CapSense_CSDDisconnectSns() function.
1779:Generated_Source\PSoC4/CapSense_SensingCSD_LL.c **** *
1780:Generated_Source\PSoC4/CapSense_SensingCSD_LL.c **** * \param  snsAddrPtr
1781:Generated_Source\PSoC4/CapSense_SensingCSD_LL.c **** *  Specifies the pointer to the FLASH_IO_STRUCT object belonging to a sensor
1782:Generated_Source\PSoC4/CapSense_SensingCSD_LL.c **** *  which should be disconnected from the sensing HW block.
1783:Generated_Source\PSoC4/CapSense_SensingCSD_LL.c **** *
1784:Generated_Source\PSoC4/CapSense_SensingCSD_LL.c **** *******************************************************************************/
1785:Generated_Source\PSoC4/CapSense_SensingCSD_LL.c **** void CapSense_CSDDisconnectSns(CapSense_FLASH_IO_STRUCT const *snsAddrPtr)
1786:Generated_Source\PSoC4/CapSense_SensingCSD_LL.c **** {
1787:Generated_Source\PSoC4/CapSense_SensingCSD_LL.c ****     uint8  interruptState;
1788:Generated_Source\PSoC4/CapSense_SensingCSD_LL.c ****     uint32 pinHSIOMShift;
1789:Generated_Source\PSoC4/CapSense_SensingCSD_LL.c ****     uint32 pinModeShift;
1790:Generated_Source\PSoC4/CapSense_SensingCSD_LL.c ****     uint32 newPcRegValue;
1791:Generated_Source\PSoC4/CapSense_SensingCSD_LL.c ****     uint32 newHsiomRegValue;
1792:Generated_Source\PSoC4/CapSense_SensingCSD_LL.c **** 
1793:Generated_Source\PSoC4/CapSense_SensingCSD_LL.c ****     pinHSIOMShift = (uint32)snsAddrPtr->hsiomShift;
1794:Generated_Source\PSoC4/CapSense_SensingCSD_LL.c ****     pinModeShift = (uint32)snsAddrPtr->shift;
1795:Generated_Source\PSoC4/CapSense_SensingCSD_LL.c **** 
1796:Generated_Source\PSoC4/CapSense_SensingCSD_LL.c ****     interruptState = CyEnterCriticalSection();
1797:Generated_Source\PSoC4/CapSense_SensingCSD_LL.c **** 
1798:Generated_Source\PSoC4/CapSense_SensingCSD_LL.c ****     newPcRegValue  = CY_GET_REG32(snsAddrPtr->pcPtr);
1799:Generated_Source\PSoC4/CapSense_SensingCSD_LL.c ****     newPcRegValue &= ~(CapSense_GPIO_PC_MASK << pinModeShift);
1800:Generated_Source\PSoC4/CapSense_SensingCSD_LL.c **** 
1801:Generated_Source\PSoC4/CapSense_SensingCSD_LL.c ****     newHsiomRegValue  = CY_GET_REG32(snsAddrPtr->hsiomPtr);
1802:Generated_Source\PSoC4/CapSense_SensingCSD_LL.c ****     newHsiomRegValue &= ~(CapSense_HSIOM_SEL_MASK << pinHSIOMShift);
1803:Generated_Source\PSoC4/CapSense_SensingCSD_LL.c ****     CY_SET_REG32(snsAddrPtr->hsiomPtr, newHsiomRegValue);
1804:Generated_Source\PSoC4/CapSense_SensingCSD_LL.c **** 
1805:Generated_Source\PSoC4/CapSense_SensingCSD_LL.c ****     if(CapSense_SNS_CONNECTION_GROUND == CapSense_dsRam.scanCurrentISC)
1806:Generated_Source\PSoC4/CapSense_SensingCSD_LL.c ****     {
1807:Generated_Source\PSoC4/CapSense_SensingCSD_LL.c ****         newPcRegValue |= (CY_SYS_PINS_DM_STRONG << pinModeShift);
1808:Generated_Source\PSoC4/CapSense_SensingCSD_LL.c ****         CY_SET_REG32(snsAddrPtr->pcPtr, newPcRegValue);
1809:Generated_Source\PSoC4/CapSense_SensingCSD_LL.c ****     }
1810:Generated_Source\PSoC4/CapSense_SensingCSD_LL.c ****     else
1811:Generated_Source\PSoC4/CapSense_SensingCSD_LL.c ****     {
1812:Generated_Source\PSoC4/CapSense_SensingCSD_LL.c ****         newPcRegValue |= (CY_SYS_PINS_DM_ALG_HIZ << pinModeShift);
1813:Generated_Source\PSoC4/CapSense_SensingCSD_LL.c ****         if(CapSense_SNS_CONNECTION_SHIELD == CapSense_dsRam.scanCurrentISC)
1814:Generated_Source\PSoC4/CapSense_SensingCSD_LL.c ****         {
1815:Generated_Source\PSoC4/CapSense_SensingCSD_LL.c ****             /* Connect to Shield */
1816:Generated_Source\PSoC4/CapSense_SensingCSD_LL.c ****             newHsiomRegValue |= (CapSense_HSIOM_SEL_CSD_SHIELD << pinHSIOMShift);
1817:Generated_Source\PSoC4/CapSense_SensingCSD_LL.c ****             CY_SET_REG32(snsAddrPtr->pcPtr, newPcRegValue);
1818:Generated_Source\PSoC4/CapSense_SensingCSD_LL.c ****             CY_SET_REG32(snsAddrPtr->hsiomPtr, newHsiomRegValue);
1819:Generated_Source\PSoC4/CapSense_SensingCSD_LL.c ****         }
1820:Generated_Source\PSoC4/CapSense_SensingCSD_LL.c ****     }
1821:Generated_Source\PSoC4/CapSense_SensingCSD_LL.c ****     /* Set logic 0 to port data register */
ARM GAS  C:\Users\zack.li\AppData\Local\Temp\ccTyLy6m.s 			page 49


1822:Generated_Source\PSoC4/CapSense_SensingCSD_LL.c ****     CY_SET_REG32(snsAddrPtr->drPtr, CY_GET_REG32(snsAddrPtr->drPtr) & (uint32)~(uint32)((uint32)1u 
1823:Generated_Source\PSoC4/CapSense_SensingCSD_LL.c **** 
1824:Generated_Source\PSoC4/CapSense_SensingCSD_LL.c ****     CyExitCriticalSection(interruptState);
1825:Generated_Source\PSoC4/CapSense_SensingCSD_LL.c **** }
1826:Generated_Source\PSoC4/CapSense_SensingCSD_LL.c **** 
1827:Generated_Source\PSoC4/CapSense_SensingCSD_LL.c **** #if ((CapSense_CSD_SS_DIS != CapSense_CSD_AUTOTUNE) || \
1828:Generated_Source\PSoC4/CapSense_SensingCSD_LL.c ****      (CapSense_ENABLE == CapSense_CSD_IDAC_AUTOCAL_EN))
1829:Generated_Source\PSoC4/CapSense_SensingCSD_LL.c ****     /*******************************************************************************
1830:Generated_Source\PSoC4/CapSense_SensingCSD_LL.c ****     * Function Name: CapSense_SsCSDCalibrateCheck
1831:Generated_Source\PSoC4/CapSense_SensingCSD_LL.c ****     ****************************************************************************//**
1832:Generated_Source\PSoC4/CapSense_SensingCSD_LL.c ****     *
1833:Generated_Source\PSoC4/CapSense_SensingCSD_LL.c ****     * \brief
1834:Generated_Source\PSoC4/CapSense_SensingCSD_LL.c ****     *  This internal function checks if the calibration is performed successfully.
1835:Generated_Source\PSoC4/CapSense_SensingCSD_LL.c ****     *
1836:Generated_Source\PSoC4/CapSense_SensingCSD_LL.c ****     * \details
1837:Generated_Source\PSoC4/CapSense_SensingCSD_LL.c ****     *  The function verifies that raw counts are within acceptable range
1838:Generated_Source\PSoC4/CapSense_SensingCSD_LL.c ****     *  defined by target and calibration error parameters.
1839:Generated_Source\PSoC4/CapSense_SensingCSD_LL.c ****     *
1840:Generated_Source\PSoC4/CapSense_SensingCSD_LL.c ****     * \param widgetId
1841:Generated_Source\PSoC4/CapSense_SensingCSD_LL.c ****     *  The desired widget ID.
1842:Generated_Source\PSoC4/CapSense_SensingCSD_LL.c ****     *
1843:Generated_Source\PSoC4/CapSense_SensingCSD_LL.c ****     * \param target
1844:Generated_Source\PSoC4/CapSense_SensingCSD_LL.c ****     *  Raw count target in percentage.
1845:Generated_Source\PSoC4/CapSense_SensingCSD_LL.c ****     *
1846:Generated_Source\PSoC4/CapSense_SensingCSD_LL.c ****     * \return Returns the status of the operation:
1847:Generated_Source\PSoC4/CapSense_SensingCSD_LL.c ****     *   - Zero     - All the sensors in the widget are calibrated successfully.
1848:Generated_Source\PSoC4/CapSense_SensingCSD_LL.c ****     *   - Non-Zero - Calibration failed for any sensor in the widget.
1849:Generated_Source\PSoC4/CapSense_SensingCSD_LL.c ****     *
1850:Generated_Source\PSoC4/CapSense_SensingCSD_LL.c ****     *******************************************************************************/
1851:Generated_Source\PSoC4/CapSense_SensingCSD_LL.c ****     static cystatus CapSense_SsCSDCalibrateCheck(uint32 widgetId, uint32 target)
1852:Generated_Source\PSoC4/CapSense_SensingCSD_LL.c ****     {
1853:Generated_Source\PSoC4/CapSense_SensingCSD_LL.c ****         cystatus calibrateStatus = CYRET_SUCCESS;
1854:Generated_Source\PSoC4/CapSense_SensingCSD_LL.c ****         uint32 rawcount;
1855:Generated_Source\PSoC4/CapSense_SensingCSD_LL.c ****         uint32 snsIndex;
1856:Generated_Source\PSoC4/CapSense_SensingCSD_LL.c ****         uint32 freqChannel;
1857:Generated_Source\PSoC4/CapSense_SensingCSD_LL.c ****         uint32 upperLimit;
1858:Generated_Source\PSoC4/CapSense_SensingCSD_LL.c ****         uint32 lowerLimit;
1859:Generated_Source\PSoC4/CapSense_SensingCSD_LL.c **** 
1860:Generated_Source\PSoC4/CapSense_SensingCSD_LL.c ****         CapSense_FLASH_WD_STRUCT const *ptrFlashWidget = &CapSense_dsFlash.wdgtArray[widgetId];
1861:Generated_Source\PSoC4/CapSense_SensingCSD_LL.c ****         CapSense_RAM_WD_BASE_STRUCT *ptrRamWidget = (CapSense_RAM_WD_BASE_STRUCT *)ptrFlashWidget->
1862:Generated_Source\PSoC4/CapSense_SensingCSD_LL.c ****         CapSense_RAM_SNS_STRUCT *ptrRamSensor = ptrFlashWidget->ptr2SnsRam;
1863:Generated_Source\PSoC4/CapSense_SensingCSD_LL.c **** 
1864:Generated_Source\PSoC4/CapSense_SensingCSD_LL.c ****         /* Calculate acceptable raw count range based on the resolution, target and error */
1865:Generated_Source\PSoC4/CapSense_SensingCSD_LL.c ****         rawcount = (0x00000001Lu << ptrRamWidget->resolution) - 1u;
1866:Generated_Source\PSoC4/CapSense_SensingCSD_LL.c ****         lowerLimit = 0u;
1867:Generated_Source\PSoC4/CapSense_SensingCSD_LL.c ****         if (target > CapSense_CSD_CALIBRATION_ERROR)
1868:Generated_Source\PSoC4/CapSense_SensingCSD_LL.c ****         {
1869:Generated_Source\PSoC4/CapSense_SensingCSD_LL.c ****             lowerLimit = target - CapSense_CSD_CALIBRATION_ERROR;
1870:Generated_Source\PSoC4/CapSense_SensingCSD_LL.c ****         }
1871:Generated_Source\PSoC4/CapSense_SensingCSD_LL.c ****         upperLimit = target + CapSense_CSD_CALIBRATION_ERROR;
1872:Generated_Source\PSoC4/CapSense_SensingCSD_LL.c ****         if (upperLimit > CapSense_PERCENTAGE_100)
1873:Generated_Source\PSoC4/CapSense_SensingCSD_LL.c ****         {
1874:Generated_Source\PSoC4/CapSense_SensingCSD_LL.c ****             upperLimit = CapSense_PERCENTAGE_100;
1875:Generated_Source\PSoC4/CapSense_SensingCSD_LL.c ****         }
1876:Generated_Source\PSoC4/CapSense_SensingCSD_LL.c ****         lowerLimit = (rawcount * lowerLimit) / CapSense_PERCENTAGE_100;
1877:Generated_Source\PSoC4/CapSense_SensingCSD_LL.c ****         upperLimit = (rawcount * upperLimit) / CapSense_PERCENTAGE_100;
1878:Generated_Source\PSoC4/CapSense_SensingCSD_LL.c **** 
ARM GAS  C:\Users\zack.li\AppData\Local\Temp\ccTyLy6m.s 			page 50


1879:Generated_Source\PSoC4/CapSense_SensingCSD_LL.c ****         /* Check if raw count is in the defined range */
1880:Generated_Source\PSoC4/CapSense_SensingCSD_LL.c ****         for(snsIndex = 0u; snsIndex < ptrFlashWidget->totalNumSns; snsIndex++)
1881:Generated_Source\PSoC4/CapSense_SensingCSD_LL.c ****         {
1882:Generated_Source\PSoC4/CapSense_SensingCSD_LL.c ****             for(freqChannel = CapSense_NUM_SCAN_FREQS; freqChannel-- > 0u;)
1883:Generated_Source\PSoC4/CapSense_SensingCSD_LL.c ****             {
1884:Generated_Source\PSoC4/CapSense_SensingCSD_LL.c ****                 rawcount = ptrRamSensor->raw[freqChannel];
1885:Generated_Source\PSoC4/CapSense_SensingCSD_LL.c ****                 if ((rawcount < lowerLimit) || (rawcount > upperLimit))
1886:Generated_Source\PSoC4/CapSense_SensingCSD_LL.c ****                 {
1887:Generated_Source\PSoC4/CapSense_SensingCSD_LL.c ****                     calibrateStatus = CYRET_BAD_DATA;
1888:Generated_Source\PSoC4/CapSense_SensingCSD_LL.c ****                     break;
1889:Generated_Source\PSoC4/CapSense_SensingCSD_LL.c ****                 }
1890:Generated_Source\PSoC4/CapSense_SensingCSD_LL.c ****             }
1891:Generated_Source\PSoC4/CapSense_SensingCSD_LL.c ****             ptrRamSensor++;
1892:Generated_Source\PSoC4/CapSense_SensingCSD_LL.c ****         }
1893:Generated_Source\PSoC4/CapSense_SensingCSD_LL.c ****         return (calibrateStatus);
1894:Generated_Source\PSoC4/CapSense_SensingCSD_LL.c ****     }
1895:Generated_Source\PSoC4/CapSense_SensingCSD_LL.c **** 
1896:Generated_Source\PSoC4/CapSense_SensingCSD_LL.c **** 
1897:Generated_Source\PSoC4/CapSense_SensingCSD_LL.c ****     #if (CapSense_ENABLE == CapSense_CSD_IDAC_AUTO_GAIN_EN)
1898:Generated_Source\PSoC4/CapSense_SensingCSD_LL.c ****         /*******************************************************************************
1899:Generated_Source\PSoC4/CapSense_SensingCSD_LL.c ****         * Function Name: CapSense_SsCSDSwitchIdacGain
1900:Generated_Source\PSoC4/CapSense_SensingCSD_LL.c ****         ****************************************************************************//**
1901:Generated_Source\PSoC4/CapSense_SensingCSD_LL.c ****         *
1902:Generated_Source\PSoC4/CapSense_SensingCSD_LL.c ****         * \brief
1903:Generated_Source\PSoC4/CapSense_SensingCSD_LL.c ****         *  This internal function switches to the lower IDAC gain is possible.
1904:Generated_Source\PSoC4/CapSense_SensingCSD_LL.c ****         *
1905:Generated_Source\PSoC4/CapSense_SensingCSD_LL.c ****         * \details
1906:Generated_Source\PSoC4/CapSense_SensingCSD_LL.c ****         *  This internal function switches to the lower IDAC gain is possible.
1907:Generated_Source\PSoC4/CapSense_SensingCSD_LL.c ****         *  Conditions of switching to the lower IDAC gains:
1908:Generated_Source\PSoC4/CapSense_SensingCSD_LL.c ****         *  1. The current IDAC gain is not the lowest one.
1909:Generated_Source\PSoC4/CapSense_SensingCSD_LL.c ****         *  2. The maximum IDAC at gain switching will not be out of range.
1910:Generated_Source\PSoC4/CapSense_SensingCSD_LL.c ****         *  3. The minimum IDAC is still below the acceptable range.
1911:Generated_Source\PSoC4/CapSense_SensingCSD_LL.c ****         *
1912:Generated_Source\PSoC4/CapSense_SensingCSD_LL.c ****         * \param ptrFlashWidget
1913:Generated_Source\PSoC4/CapSense_SensingCSD_LL.c ****         *  Specifies the pointer to a widget.
1914:Generated_Source\PSoC4/CapSense_SensingCSD_LL.c ****         *
1915:Generated_Source\PSoC4/CapSense_SensingCSD_LL.c ****         * \return Returns the status of the operation:
1916:Generated_Source\PSoC4/CapSense_SensingCSD_LL.c ****         *   - Zero     - Gain switching is not needed.
1917:Generated_Source\PSoC4/CapSense_SensingCSD_LL.c ****         *   - Non-Zero - Gain was switched to the lower one.
1918:Generated_Source\PSoC4/CapSense_SensingCSD_LL.c ****         *
1919:Generated_Source\PSoC4/CapSense_SensingCSD_LL.c ****         *******************************************************************************/
1920:Generated_Source\PSoC4/CapSense_SensingCSD_LL.c ****         static uint32 CapSense_SsCSDSwitchIdacGain(CapSense_FLASH_WD_STRUCT const *ptrFlashWidget)
1921:Generated_Source\PSoC4/CapSense_SensingCSD_LL.c ****         {
1922:Generated_Source\PSoC4/CapSense_SensingCSD_LL.c ****             uint32 ratio;
1923:Generated_Source\PSoC4/CapSense_SensingCSD_LL.c ****             uint32 maxIdac;
1924:Generated_Source\PSoC4/CapSense_SensingCSD_LL.c ****             uint32 minIdac;
1925:Generated_Source\PSoC4/CapSense_SensingCSD_LL.c ****             uint32 status = 0u;
1926:Generated_Source\PSoC4/CapSense_SensingCSD_LL.c ****             uint32 freqChannel;
1927:Generated_Source\PSoC4/CapSense_SensingCSD_LL.c ****             uint32 gainIndex;
1928:Generated_Source\PSoC4/CapSense_SensingCSD_LL.c **** 
1929:Generated_Source\PSoC4/CapSense_SensingCSD_LL.c ****             CapSense_RAM_WD_BASE_STRUCT *ptrRamWidget = (CapSense_RAM_WD_BASE_STRUCT *)ptrFlashWidg
1930:Generated_Source\PSoC4/CapSense_SensingCSD_LL.c ****             #if (CapSense_ENABLE == CapSense_CSD_IDAC_COMP_EN)
1931:Generated_Source\PSoC4/CapSense_SensingCSD_LL.c ****                 uint32 snsIndex;
1932:Generated_Source\PSoC4/CapSense_SensingCSD_LL.c ****                 CapSense_RAM_SNS_STRUCT *ptrRamSensor = ptrFlashWidget->ptr2SnsRam;
1933:Generated_Source\PSoC4/CapSense_SensingCSD_LL.c ****             #endif
1934:Generated_Source\PSoC4/CapSense_SensingCSD_LL.c **** 
1935:Generated_Source\PSoC4/CapSense_SensingCSD_LL.c ****             gainIndex = ptrRamWidget->idacGainIndex;
ARM GAS  C:\Users\zack.li\AppData\Local\Temp\ccTyLy6m.s 			page 51


1936:Generated_Source\PSoC4/CapSense_SensingCSD_LL.c **** 
1937:Generated_Source\PSoC4/CapSense_SensingCSD_LL.c ****             /* Find maximum and minimum IDACs */
1938:Generated_Source\PSoC4/CapSense_SensingCSD_LL.c ****             maxIdac = 0u;
1939:Generated_Source\PSoC4/CapSense_SensingCSD_LL.c ****             minIdac = CapSense_CSD_CAL_IDAC_MAX_VALUE;
1940:Generated_Source\PSoC4/CapSense_SensingCSD_LL.c ****             for(freqChannel = CapSense_NUM_SCAN_FREQS; freqChannel-- > 0u;)
1941:Generated_Source\PSoC4/CapSense_SensingCSD_LL.c ****             {
1942:Generated_Source\PSoC4/CapSense_SensingCSD_LL.c ****                 if (maxIdac < ptrRamWidget->idacMod[freqChannel])
1943:Generated_Source\PSoC4/CapSense_SensingCSD_LL.c ****                 {
1944:Generated_Source\PSoC4/CapSense_SensingCSD_LL.c ****                     maxIdac = ptrRamWidget->idacMod[freqChannel];
1945:Generated_Source\PSoC4/CapSense_SensingCSD_LL.c ****                 }
1946:Generated_Source\PSoC4/CapSense_SensingCSD_LL.c ****                 if (minIdac > ptrRamWidget->idacMod[freqChannel])
1947:Generated_Source\PSoC4/CapSense_SensingCSD_LL.c ****                 {
1948:Generated_Source\PSoC4/CapSense_SensingCSD_LL.c ****                     minIdac = ptrRamWidget->idacMod[freqChannel];
1949:Generated_Source\PSoC4/CapSense_SensingCSD_LL.c ****                 }
1950:Generated_Source\PSoC4/CapSense_SensingCSD_LL.c ****                 #if (CapSense_CSD_MATRIX_WIDGET_EN || CapSense_CSD_TOUCHPAD_WIDGET_EN)
1951:Generated_Source\PSoC4/CapSense_SensingCSD_LL.c ****                     if ((CapSense_WD_TOUCHPAD_E == CapSense_GET_WIDGET_TYPE(ptrFlashWidget)) ||
1952:Generated_Source\PSoC4/CapSense_SensingCSD_LL.c ****                         (CapSense_WD_MATRIX_BUTTON_E == CapSense_GET_WIDGET_TYPE(ptrFlashWidget)))
1953:Generated_Source\PSoC4/CapSense_SensingCSD_LL.c ****                     {
1954:Generated_Source\PSoC4/CapSense_SensingCSD_LL.c ****                         if (maxIdac < ptrRamWidget->rowIdacMod[freqChannel])
1955:Generated_Source\PSoC4/CapSense_SensingCSD_LL.c ****                         {
1956:Generated_Source\PSoC4/CapSense_SensingCSD_LL.c ****                             maxIdac = ptrRamWidget->rowIdacMod[freqChannel];
1957:Generated_Source\PSoC4/CapSense_SensingCSD_LL.c ****                         }
1958:Generated_Source\PSoC4/CapSense_SensingCSD_LL.c ****                         if (minIdac > ptrRamWidget->rowIdacMod[freqChannel])
1959:Generated_Source\PSoC4/CapSense_SensingCSD_LL.c ****                         {
1960:Generated_Source\PSoC4/CapSense_SensingCSD_LL.c ****                             minIdac = ptrRamWidget->rowIdacMod[freqChannel];
1961:Generated_Source\PSoC4/CapSense_SensingCSD_LL.c ****                         }
1962:Generated_Source\PSoC4/CapSense_SensingCSD_LL.c ****                     }
1963:Generated_Source\PSoC4/CapSense_SensingCSD_LL.c ****                 #endif
1964:Generated_Source\PSoC4/CapSense_SensingCSD_LL.c ****             }
1965:Generated_Source\PSoC4/CapSense_SensingCSD_LL.c ****             #if (CapSense_ENABLE == CapSense_CSD_IDAC_COMP_EN)
1966:Generated_Source\PSoC4/CapSense_SensingCSD_LL.c ****                 for(snsIndex = 0u; snsIndex < ptrFlashWidget->totalNumSns; snsIndex++)
1967:Generated_Source\PSoC4/CapSense_SensingCSD_LL.c ****                 {
1968:Generated_Source\PSoC4/CapSense_SensingCSD_LL.c ****                     for(freqChannel = CapSense_NUM_SCAN_FREQS; freqChannel-- > 0u;)
1969:Generated_Source\PSoC4/CapSense_SensingCSD_LL.c ****                     {
1970:Generated_Source\PSoC4/CapSense_SensingCSD_LL.c ****                         if (minIdac > ptrRamSensor->idacComp[freqChannel])
1971:Generated_Source\PSoC4/CapSense_SensingCSD_LL.c ****                         {
1972:Generated_Source\PSoC4/CapSense_SensingCSD_LL.c ****                             minIdac = ptrRamSensor->idacComp[freqChannel];
1973:Generated_Source\PSoC4/CapSense_SensingCSD_LL.c ****                         }
1974:Generated_Source\PSoC4/CapSense_SensingCSD_LL.c ****                     }
1975:Generated_Source\PSoC4/CapSense_SensingCSD_LL.c ****                     ptrRamSensor++;
1976:Generated_Source\PSoC4/CapSense_SensingCSD_LL.c ****                 }
1977:Generated_Source\PSoC4/CapSense_SensingCSD_LL.c ****             #endif
1978:Generated_Source\PSoC4/CapSense_SensingCSD_LL.c **** 
1979:Generated_Source\PSoC4/CapSense_SensingCSD_LL.c ****             /* Check gain switch conditions */
1980:Generated_Source\PSoC4/CapSense_SensingCSD_LL.c ****             if (gainIndex != 0u)
1981:Generated_Source\PSoC4/CapSense_SensingCSD_LL.c ****             {
1982:Generated_Source\PSoC4/CapSense_SensingCSD_LL.c ****                 if (minIdac < CapSense_CSD_IDAC_MIN)
1983:Generated_Source\PSoC4/CapSense_SensingCSD_LL.c ****                 {
1984:Generated_Source\PSoC4/CapSense_SensingCSD_LL.c ****                     ratio = CapSense_idacGainTable[gainIndex].gainValue /
1985:Generated_Source\PSoC4/CapSense_SensingCSD_LL.c ****                             CapSense_idacGainTable[gainIndex - 1u].gainValue;
1986:Generated_Source\PSoC4/CapSense_SensingCSD_LL.c ****                     if ((maxIdac * ratio) < CapSense_CSD_CAL_IDAC_MAX_VALUE)
1987:Generated_Source\PSoC4/CapSense_SensingCSD_LL.c ****                     {
1988:Generated_Source\PSoC4/CapSense_SensingCSD_LL.c ****                         /* Switch to lower idac gain */
1989:Generated_Source\PSoC4/CapSense_SensingCSD_LL.c ****                         ptrRamWidget->idacGainIndex--;
1990:Generated_Source\PSoC4/CapSense_SensingCSD_LL.c ****                         status = 1u;
1991:Generated_Source\PSoC4/CapSense_SensingCSD_LL.c ****                     }
1992:Generated_Source\PSoC4/CapSense_SensingCSD_LL.c ****                 }
ARM GAS  C:\Users\zack.li\AppData\Local\Temp\ccTyLy6m.s 			page 52


1993:Generated_Source\PSoC4/CapSense_SensingCSD_LL.c ****             }
1994:Generated_Source\PSoC4/CapSense_SensingCSD_LL.c **** 
1995:Generated_Source\PSoC4/CapSense_SensingCSD_LL.c ****             return (status);
1996:Generated_Source\PSoC4/CapSense_SensingCSD_LL.c ****         }
1997:Generated_Source\PSoC4/CapSense_SensingCSD_LL.c ****     #endif /* (CapSense_ENABLE == CapSense_CSD_IDAC_AUTO_GAIN_EN) */
1998:Generated_Source\PSoC4/CapSense_SensingCSD_LL.c **** 
1999:Generated_Source\PSoC4/CapSense_SensingCSD_LL.c **** 
2000:Generated_Source\PSoC4/CapSense_SensingCSD_LL.c ****     #if (CapSense_ENABLE == CapSense_CSD_IDAC_COMP_EN)
2001:Generated_Source\PSoC4/CapSense_SensingCSD_LL.c ****         /*******************************************************************************
2002:Generated_Source\PSoC4/CapSense_SensingCSD_LL.c ****         * Function Name: CapSense_SsCSDNormalizeIdac
2003:Generated_Source\PSoC4/CapSense_SensingCSD_LL.c ****         ****************************************************************************//**
2004:Generated_Source\PSoC4/CapSense_SensingCSD_LL.c ****         *
2005:Generated_Source\PSoC4/CapSense_SensingCSD_LL.c ****         * \brief
2006:Generated_Source\PSoC4/CapSense_SensingCSD_LL.c ****         *  This function normalizes compensation IDAC.
2007:Generated_Source\PSoC4/CapSense_SensingCSD_LL.c ****         *
2008:Generated_Source\PSoC4/CapSense_SensingCSD_LL.c ****         * \details
2009:Generated_Source\PSoC4/CapSense_SensingCSD_LL.c ****         *  This function normalizes compensation IDAC.
2010:Generated_Source\PSoC4/CapSense_SensingCSD_LL.c ****         *
2011:Generated_Source\PSoC4/CapSense_SensingCSD_LL.c ****         * \param ptrFlashWidget
2012:Generated_Source\PSoC4/CapSense_SensingCSD_LL.c ****         *  Specifies the pointer to a widget.
2013:Generated_Source\PSoC4/CapSense_SensingCSD_LL.c ****         *
2014:Generated_Source\PSoC4/CapSense_SensingCSD_LL.c ****         * \param target
2015:Generated_Source\PSoC4/CapSense_SensingCSD_LL.c ****         *  Raw count target in percentage.
2016:Generated_Source\PSoC4/CapSense_SensingCSD_LL.c ****         *
2017:Generated_Source\PSoC4/CapSense_SensingCSD_LL.c ****         *******************************************************************************/
2018:Generated_Source\PSoC4/CapSense_SensingCSD_LL.c ****         static void CapSense_SsCSDNormalizeIdac(CapSense_FLASH_WD_STRUCT const *ptrFlashWidget, uin
2019:Generated_Source\PSoC4/CapSense_SensingCSD_LL.c ****         {
2020:Generated_Source\PSoC4/CapSense_SensingCSD_LL.c ****             uint32 snsIndex;
2021:Generated_Source\PSoC4/CapSense_SensingCSD_LL.c ****             uint32 freqChannel;
2022:Generated_Source\PSoC4/CapSense_SensingCSD_LL.c ****             uint32 maxIdac;
2023:Generated_Source\PSoC4/CapSense_SensingCSD_LL.c ****             uint32 minIdac;
2024:Generated_Source\PSoC4/CapSense_SensingCSD_LL.c ****             uint32 minRaw;
2025:Generated_Source\PSoC4/CapSense_SensingCSD_LL.c ****             uint32 maxRawLevel;
2026:Generated_Source\PSoC4/CapSense_SensingCSD_LL.c ****             uint32 rawLevel;
2027:Generated_Source\PSoC4/CapSense_SensingCSD_LL.c ****             uint32 iMod;
2028:Generated_Source\PSoC4/CapSense_SensingCSD_LL.c **** 
2029:Generated_Source\PSoC4/CapSense_SensingCSD_LL.c ****             CapSense_RAM_WD_BASE_STRUCT *ptrRamWidget = (CapSense_RAM_WD_BASE_STRUCT *)ptrFlashWidg
2030:Generated_Source\PSoC4/CapSense_SensingCSD_LL.c ****             CapSense_RAM_SNS_STRUCT *ptrRamSensor;
2031:Generated_Source\PSoC4/CapSense_SensingCSD_LL.c **** 
2032:Generated_Source\PSoC4/CapSense_SensingCSD_LL.c ****             /* Calculate raw count level based on resolution and target */
2033:Generated_Source\PSoC4/CapSense_SensingCSD_LL.c ****             maxRawLevel = (0x00000001Lu << ptrRamWidget->resolution) - 1u;
2034:Generated_Source\PSoC4/CapSense_SensingCSD_LL.c **** 
2035:Generated_Source\PSoC4/CapSense_SensingCSD_LL.c ****             /*
2036:Generated_Source\PSoC4/CapSense_SensingCSD_LL.c ****             * IDAC Normalization is performed separately for each multi-frequency channel
2037:Generated_Source\PSoC4/CapSense_SensingCSD_LL.c ****             * and separately for row and column
2038:Generated_Source\PSoC4/CapSense_SensingCSD_LL.c ****             */
2039:Generated_Source\PSoC4/CapSense_SensingCSD_LL.c ****             for(freqChannel = CapSense_NUM_SCAN_FREQS; freqChannel-- > 0u;)
2040:Generated_Source\PSoC4/CapSense_SensingCSD_LL.c ****             {
2041:Generated_Source\PSoC4/CapSense_SensingCSD_LL.c ****                 /* Find maximum and minimum IDACs */
2042:Generated_Source\PSoC4/CapSense_SensingCSD_LL.c ****                 maxIdac = ptrRamWidget->idacMod[freqChannel];
2043:Generated_Source\PSoC4/CapSense_SensingCSD_LL.c ****                 minIdac = ptrRamWidget->idacMod[freqChannel];
2044:Generated_Source\PSoC4/CapSense_SensingCSD_LL.c ****                 ptrRamSensor = ptrFlashWidget->ptr2SnsRam;
