ARM GAS  C:\Users\zack.li\AppData\Local\Temp\cca17dhZ.s 			page 1


   1              		.syntax unified
   2              		.cpu cortex-m0plus
   3              		.fpu softvfp
   4              		.eabi_attribute 20, 1
   5              		.eabi_attribute 21, 1
   6              		.eabi_attribute 23, 3
   7              		.eabi_attribute 24, 1
   8              		.eabi_attribute 25, 1
   9              		.eabi_attribute 26, 1
  10              		.eabi_attribute 30, 4
  11              		.eabi_attribute 34, 0
  12              		.eabi_attribute 18, 4
  13              		.thumb
  14              		.syntax unified
  15              		.file	"main.c"
  16              		.text
  17              	.Ltext0:
  18              		.cfi_sections	.debug_frame
  19              		.section	.text.TC_InterruptHandler,"ax",%progbits
  20              		.align	1
  21              		.global	TC_InterruptHandler
  22              		.code	16
  23              		.thumb_func
  24              		.type	TC_InterruptHandler, %function
  25              	TC_InterruptHandler:
  26              	.LFB38:
  27              		.file 1 "main.c"
   1:main.c        **** /* ========================================
   2:main.c        ****  *
   3:main.c        ****  * Copyright YOUR COMPANY, THE YEAR
   4:main.c        ****  * All Rights Reserved
   5:main.c        ****  * UNPUBLISHED, LICENSED SOFTWARE.
   6:main.c        ****  *
   7:main.c        ****  * CONFIDENTIAL AND PROPRIETARY INFORMATION
   8:main.c        ****  * WHICH IS THE PROPERTY OF your company.
   9:main.c        ****  *
  10:main.c        ****  * ========================================
  11:main.c        **** */
  12:main.c        **** #include "project.h"
  13:main.c        **** #include "string.h"
  14:main.c        **** #include "stdio.h"
  15:main.c        **** 
  16:main.c        **** 
  17:main.c        **** 
  18:main.c        **** /* button event */
  19:main.c        **** #define NOT_TOUCH		 0
  20:main.c        **** #define PROX      	   	 16
  21:main.c        **** #define VOL_UP        	 17
  22:main.c        **** #define VOL_DOWN         18
  23:main.c        **** #define FORMATION     	 24
  24:main.c        **** #define PLAY_PAUSE    	 20
  25:main.c        **** 
  26:main.c        **** 
  27:main.c        **** #define SW_FRONT_PROXIMITY		 0x0b
  28:main.c        **** #define KEY_VOLUMEUP      	   	 115
  29:main.c        **** #define KEY_VOLUMEDOWN        	 114
  30:main.c        **** #define KEY_PLAYPAUSE            164
ARM GAS  C:\Users\zack.li\AppData\Local\Temp\cca17dhZ.s 			page 2


  31:main.c        **** #define KEY_HOME     	         102
  32:main.c        **** 
  33:main.c        **** 
  34:main.c        **** 
  35:main.c        **** 
  36:main.c        **** #define SCAN_TIME_MS  10
  37:main.c        **** 
  38:main.c        **** #define RUN_UART_TUNER  0
  39:main.c        **** 
  40:main.c        **** #if RUN_UART_TUNER
  41:main.c        ****     /* Packet header and tail information */
  42:main.c        ****     static const uint8 header[]  = {0x0Du, 0x0Au};
  43:main.c        ****     static const uint8 tail[]    = {0x00u, 0xFFu, 0xFFu};
  44:main.c        **** #endif
  45:main.c        **** 
  46:main.c        **** // I2C COMMAND
  47:main.c        **** #define REG15_UPDATE_MCU_CMD  0x36
  48:main.c        **** 
  49:main.c        **** typedef union
  50:main.c        **** {
  51:main.c        ****     struct{
  52:main.c        ****         uint8_t reserve_reg[15]; // 0~14
  53:main.c        ****         uint8_t updat_posc;      // register 15
  54:main.c        ****     }reg;
  55:main.c        ****     uint8_t reg_array[16];
  56:main.c        **** } RW_I2C_REG;
  57:main.c        **** 
  58:main.c        **** // I2C registers
  59:main.c        **** // R : Read only, R/W : Read and Write
  60:main.c        **** typedef struct 
  61:main.c        **** {                               
  62:main.c        ****                              // reg number    | access right |      comment
  63:main.c        ****     RW_I2C_REG  rw;          //    0 ~ 15     |    R/W       |   reserved R/W
  64:main.c        ****     uint8  button_stat;      //    16         |    R         |   status of button 0 ~ 7 
  65:main.c        ****     uint8  button_value;
  66:main.c        ****   
  67:main.c        **** }__attribute__ ((packed)) I2C_REG;
  68:main.c        **** 
  69:main.c        **** /* EZI2C buffer */
  70:main.c        **** I2C_REG i2c;
  71:main.c        **** #define EZI2C_RW_SIZE     (sizeof(i2c.rw))
  72:main.c        **** #define EZI2C_SIZE        (sizeof(i2c))
  73:main.c        **** 
  74:main.c        **** uint8 CapSense_status = 0;
  75:main.c        **** uint8 send_status = 0;
  76:main.c        **** uint8 time_counts = 0;
  77:main.c        **** 
  78:main.c        **** uint8 last_capsense = 0;
  79:main.c        **** uint8 key_press = 0;
  80:main.c        **** uint8 default_flag = 0;
  81:main.c        **** 
  82:main.c        **** 
  83:main.c        **** #define UART_DEBUG 0
  84:main.c        **** 
  85:main.c        **** #if UART_DEBUG
  86:main.c        **** char uartString[1024u] = {' '};
  87:main.c        **** #endif
ARM GAS  C:\Users\zack.li\AppData\Local\Temp\cca17dhZ.s 			page 3


  88:main.c        **** 
  89:main.c        **** static void Init_I2C_Communication()
  90:main.c        **** {
  91:main.c        ****     // Zero ezi2cBuffer buffer
  92:main.c        ****     memset((void*)&i2c,0x00,EZI2C_SIZE);
  93:main.c        ****     EZI2C_Start(); // Start I2C (Address : 0x08 , Data Rate : 100k ) 
  94:main.c        ****     /* EZI2C buffer parameters: 
  95:main.c        ****     *  EZI2C_SIZE - is thesize of the memory exposed to the I2C interface.
  96:main.c        ****     *  EZI2C_RW_SIZE - sets the boundary between the read/write and read only areas.
  97:main.c        ****     *                  The read/write area is first, followed by the read only area.
  98:main.c        ****     *  (void *)ezi2cBuffer - is the pointer to the memory exposed to the I2C interface. */
  99:main.c        ****     EZI2C_EzI2CSetBuffer1(EZI2C_SIZE, EZI2C_RW_SIZE , (void *)&i2c);
 100:main.c        **** }
 101:main.c        **** 
 102:main.c        **** 
 103:main.c        **** void ProcessCapsenseEvent()
 104:main.c        **** {
 105:main.c        ****     // update button status
 106:main.c        ****     CapSense_status = (uint8_t)  CapSense_IsAnyWidgetActive();
 107:main.c        ****     if((CapSense_status == PROX) && (key_press == 1)){
 108:main.c        ****        key_press = 0;
 109:main.c        ****        i2c.button_stat = send_status;
 110:main.c        ****        i2c.button_value = 0;
 111:main.c        ****     }else if((CapSense_status == NOT_TOUCH) && (send_status == SW_FRONT_PROXIMITY)){
 112:main.c        ****        i2c.button_stat = send_status;
 113:main.c        ****        send_status = 0;
 114:main.c        ****        i2c.button_value = 0;
 115:main.c        ****     }else{
 116:main.c        ****         switch(CapSense_status){
 117:main.c        ****             case NOT_TOUCH:
 118:main.c        ****                 send_status = NOT_TOUCH;
 119:main.c        ****                 time_counts = 0;
 120:main.c        ****                 key_press = 0;
 121:main.c        ****                 default_flag = 0;
 122:main.c        ****                 break;
 123:main.c        ****             case PROX:
 124:main.c        ****                 if(time_counts > 10)
 125:main.c        ****                 {
 126:main.c        ****                     // reset baseline
 127:main.c        ****                     CapSense_InitializeSensorBaseline (CapSense_PROX_WDGT_ID,CapSense_PROX_SNS0_ID)
 128:main.c        ****                 }
 129:main.c        ****                 send_status = SW_FRONT_PROXIMITY;
 130:main.c        ****                 i2c.button_value = 1;
 131:main.c        ****                 default_flag = 0;
 132:main.c        ****                 break;
 133:main.c        ****             case VOL_UP:
 134:main.c        ****                 if(!default_flag){
 135:main.c        ****                     key_press = 1;   
 136:main.c        ****                 }
 137:main.c        ****                 send_status = KEY_VOLUMEUP;
 138:main.c        ****                 i2c.button_value = CapSense_dsRam.snsStatus[0];         
 139:main.c        ****                 time_counts = 0;
 140:main.c        ****                 break;
 141:main.c        ****             case VOL_DOWN:
 142:main.c        ****                 if(!default_flag){
 143:main.c        ****                     key_press = 1;      
 144:main.c        ****                 }
ARM GAS  C:\Users\zack.li\AppData\Local\Temp\cca17dhZ.s 			page 4


 145:main.c        ****                     send_status = KEY_VOLUMEDOWN;
 146:main.c        ****                     i2c.button_value = CapSense_dsRam.snsStatus[1];
 147:main.c        ****                     time_counts = 0; 
 148:main.c        ****                 break;
 149:main.c        ****             case PLAY_PAUSE:
 150:main.c        ****                 if(!default_flag){
 151:main.c        ****                     key_press = 1;   
 152:main.c        ****                 }
 153:main.c        ****                     send_status = KEY_PLAYPAUSE;
 154:main.c        ****                     i2c.button_value = CapSense_dsRam.snsStatus[2];
 155:main.c        ****                     time_counts = 0;
 156:main.c        ****                 break;
 157:main.c        ****             case FORMATION:
 158:main.c        ****                 if(!default_flag){
 159:main.c        ****                     key_press = 1;               
 160:main.c        ****                 }
 161:main.c        ****                     send_status = KEY_HOME;
 162:main.c        ****                     time_counts = 0;
 163:main.c        ****                     i2c.button_value = CapSense_dsRam.snsStatus[3];
 164:main.c        ****                 break;
 165:main.c        ****             default:
 166:main.c        ****                 key_press = 0;
 167:main.c        ****                 default_flag = 1;//误碰标志
 168:main.c        ****                 send_status = NOT_TOUCH;
 169:main.c        ****                 if(time_counts > 10)
 170:main.c        ****                 {
 171:main.c        ****                     // reset baseline
 172:main.c        ****                     CapSense_InitializeAllBaselines();
 173:main.c        ****                 }
 174:main.c        ****                 break;
 175:main.c        ****         }
 176:main.c        ****         i2c.button_stat = send_status;
 177:main.c        ****     }
 178:main.c        ****     //last_send_stat = send_status;
 179:main.c        ****     last_capsense = CapSense_status;
 180:main.c        ****     
 181:main.c        ****     // notify host mcu
 182:main.c        ****     (CapSense_dsRam.wdgtStatus[0] != 0) ? CAP_INT_Write(0) :  CAP_INT_Write(1);
 183:main.c        **** 
 184:main.c        **** #if UART_DEBUG   
 185:main.c        **** 
 186:main.c        **** #endif
 187:main.c        **** }
 188:main.c        **** 
 189:main.c        **** 
 190:main.c        **** void ProcessCapsenseEvent_1_1(){
 191:main.c        ****     // update button status
 192:main.c        ****     CapSense_status = (uint8_t)  CapSense_IsAnyWidgetActive();
 193:main.c        ****     
 194:main.c        ****     switch(CapSense_status){
 195:main.c        ****         case NOT_TOUCH:
 196:main.c        ****             send_status = NOT_TOUCH;
 197:main.c        ****             time_counts = 0;
 198:main.c        ****             key_press = 0;
 199:main.c        ****             default_flag = 0;
 200:main.c        ****             break;
 201:main.c        ****         case PROX:
ARM GAS  C:\Users\zack.li\AppData\Local\Temp\cca17dhZ.s 			page 5


 202:main.c        ****             if(time_counts > 10)
 203:main.c        ****             {
 204:main.c        ****                 // reset baseline
 205:main.c        ****                 CapSense_InitializeSensorBaseline (CapSense_PROX_WDGT_ID,CapSense_PROX_SNS0_ID);
 206:main.c        ****             }
 207:main.c        ****             send_status = SW_FRONT_PROXIMITY;
 208:main.c        ****             i2c.button_value = 1;
 209:main.c        ****             default_flag = 0;
 210:main.c        ****             break;
 211:main.c        ****         case VOL_UP:
 212:main.c        ****             if(!default_flag){
 213:main.c        ****                 key_press = 1;   
 214:main.c        ****             }
 215:main.c        ****             send_status = KEY_VOLUMEUP;
 216:main.c        ****             i2c.button_value = CapSense_dsRam.snsStatus[0];         
 217:main.c        ****             time_counts = 0;
 218:main.c        ****             break;
 219:main.c        ****         case VOL_DOWN:
 220:main.c        ****             if(!default_flag){
 221:main.c        ****                 key_press = 1;      
 222:main.c        ****             }
 223:main.c        ****                 send_status = KEY_VOLUMEDOWN;
 224:main.c        ****                 i2c.button_value = CapSense_dsRam.snsStatus[1];
 225:main.c        ****                 time_counts = 0; 
 226:main.c        ****             break;
 227:main.c        ****         case PLAY_PAUSE:
 228:main.c        ****             if(!default_flag){
 229:main.c        ****                 key_press = 1;   
 230:main.c        ****             }
 231:main.c        ****                 send_status = KEY_PLAYPAUSE;
 232:main.c        ****                 i2c.button_value = CapSense_dsRam.snsStatus[2];
 233:main.c        ****                 time_counts = 0;
 234:main.c        ****             break;
 235:main.c        ****         case FORMATION:
 236:main.c        ****             if(!default_flag){
 237:main.c        ****                 key_press = 1;               
 238:main.c        ****             }
 239:main.c        ****                 send_status = KEY_HOME;
 240:main.c        ****                 time_counts = 0;
 241:main.c        ****                 i2c.button_value = CapSense_dsRam.snsStatus[3];
 242:main.c        ****             break;
 243:main.c        ****         default:
 244:main.c        ****             key_press = 0;
 245:main.c        ****             default_flag = 1;//误碰标志
 246:main.c        ****             send_status = NOT_TOUCH;
 247:main.c        ****             if(time_counts > 10)
 248:main.c        ****             {
 249:main.c        ****                 // reset baseline
 250:main.c        ****                 CapSense_InitializeAllBaselines();
 251:main.c        ****             }
 252:main.c        ****             break;
 253:main.c        ****     }
 254:main.c        ****     
 255:main.c        ****     // notify host mcu
 256:main.c        ****     (CapSense_dsRam.wdgtStatus[0] != 0) ? CAP_INT_Write(0) :  CAP_INT_Write(1);    
 257:main.c        **** }
 258:main.c        **** 
ARM GAS  C:\Users\zack.li\AppData\Local\Temp\cca17dhZ.s 			page 6


 259:main.c        **** void ProcessI2CCommand()
 260:main.c        **** {
 261:main.c        ****     if (REG15_UPDATE_MCU_CMD == i2c.rw.reg.updat_posc)
 262:main.c        ****     {
 263:main.c        ****         /*
 264:main.c        ****         Schedules the Bootloader/Launcher to be launched and then performs a software reset to 
 265:main.c        ****         launch it.
 266:main.c        ****         Returns:
 267:main.c        ****         This method will never return. It will load a new application and reset the device.
 268:main.c        ****         */
 269:main.c        ****         // Bootloadable_Load();
 270:main.c        ****     }
 271:main.c        **** }
 272:main.c        **** 
 273:main.c        **** /***************************************************************************//**
 274:main.c        **** * Function Name: ISR_Timer
 275:main.c        **** ********************************************************************************
 276:main.c        **** *
 277:main.c        **** * Summary:
 278:main.c        **** * This function handles the Interrupt Service Routine for TCPWM Timer.
 279:main.c        **** * This ISR
 280:main.c        **** *   1. Clears the terminal count interrupt on Timer.
 281:main.c        **** *   2. Changes the LED state. Toggling ON and OFF.
 282:main.c        **** *
 283:main.c        **** * Parameters:
 284:main.c        **** *  None
 285:main.c        **** *
 286:main.c        **** * Return:
 287:main.c        **** *  None
 288:main.c        **** *
 289:main.c        **** *******************************************************************************/
 290:main.c        **** CY_ISR(TC_InterruptHandler)
 291:main.c        **** {
  28              		.loc 1 291 0
  29              		.cfi_startproc
  30              		@ args = 0, pretend = 0, frame = 0
  31              		@ frame_needed = 0, uses_anonymous_args = 0
  32 0000 10B5     		push	{r4, lr}
  33              		.cfi_def_cfa_offset 8
  34              		.cfi_offset 4, -8
  35              		.cfi_offset 14, -4
 292:main.c        ****     /* Clears the Timer terminal count interrupt */
 293:main.c        ****     Timer_ClearInterrupt(Timer_INTR_MASK_TC);
  36              		.loc 1 293 0
  37 0002 0120     		movs	r0, #1
  38 0004 FFF7FEFF 		bl	Timer_ClearInterrupt
  39              	.LVL0:
 294:main.c        ****     
 295:main.c        ****     /* Toggles the LED state */
 296:main.c        ****     time_counts ++;
  40              		.loc 1 296 0
  41 0008 024A     		ldr	r2, .L2
 297:main.c        **** }
  42              		.loc 1 297 0
  43              		@ sp needed
 296:main.c        **** }
  44              		.loc 1 296 0
ARM GAS  C:\Users\zack.li\AppData\Local\Temp\cca17dhZ.s 			page 7


  45 000a 1378     		ldrb	r3, [r2]
  46 000c 0133     		adds	r3, r3, #1
  47 000e 1370     		strb	r3, [r2]
  48              		.loc 1 297 0
  49 0010 10BD     		pop	{r4, pc}
  50              	.L3:
  51 0012 C046     		.align	2
  52              	.L2:
  53 0014 00000000 		.word	.LANCHOR0
  54              		.cfi_endproc
  55              	.LFE38:
  56              		.size	TC_InterruptHandler, .-TC_InterruptHandler
  57              		.section	.text.ProcessCapsenseEvent,"ax",%progbits
  58              		.align	1
  59              		.global	ProcessCapsenseEvent
  60              		.code	16
  61              		.thumb_func
  62              		.type	ProcessCapsenseEvent, %function
  63              	ProcessCapsenseEvent:
  64              	.LFB35:
 104:main.c        ****     // update button status
  65              		.loc 1 104 0
  66              		.cfi_startproc
  67              		@ args = 0, pretend = 0, frame = 0
  68              		@ frame_needed = 0, uses_anonymous_args = 0
  69 0000 70B5     		push	{r4, r5, r6, lr}
  70              		.cfi_def_cfa_offset 16
  71              		.cfi_offset 4, -16
  72              		.cfi_offset 5, -12
  73              		.cfi_offset 6, -8
  74              		.cfi_offset 14, -4
 106:main.c        ****     if((CapSense_status == PROX) && (key_press == 1)){
  75              		.loc 1 106 0
  76 0002 FFF7FEFF 		bl	CapSense_IsAnyWidgetActive
  77              	.LVL1:
  78 0006 3B4C     		ldr	r4, .L27
  79 0008 C0B2     		uxtb	r0, r0
  80 000a 6070     		strb	r0, [r4, #1]
  81 000c 3A4D     		ldr	r5, .L27+4
  82 000e 3B4E     		ldr	r6, .L27+8
 107:main.c        ****        key_press = 0;
  83              		.loc 1 107 0
  84 0010 1028     		cmp	r0, #16
  85 0012 08D1     		bne	.L5
 107:main.c        ****        key_press = 0;
  86              		.loc 1 107 0 is_stmt 0 discriminator 1
  87 0014 A378     		ldrb	r3, [r4, #2]
  88 0016 012B     		cmp	r3, #1
  89 0018 1DD1     		bne	.L6
 108:main.c        ****        i2c.button_stat = send_status;
  90              		.loc 1 108 0 is_stmt 1
  91 001a 0023     		movs	r3, #0
 109:main.c        ****        i2c.button_value = 0;
  92              		.loc 1 109 0
  93 001c E278     		ldrb	r2, [r4, #3]
 108:main.c        ****        i2c.button_stat = send_status;
  94              		.loc 1 108 0
ARM GAS  C:\Users\zack.li\AppData\Local\Temp\cca17dhZ.s 			page 8


  95 001e A370     		strb	r3, [r4, #2]
 109:main.c        ****        i2c.button_value = 0;
  96              		.loc 1 109 0
  97 0020 2A74     		strb	r2, [r5, #16]
 110:main.c        ****     }else if((CapSense_status == NOT_TOUCH) && (send_status == SW_FRONT_PROXIMITY)){
  98              		.loc 1 110 0
  99 0022 6B74     		strb	r3, [r5, #17]
 100 0024 5BE0     		b	.L7
 101              	.L5:
 111:main.c        ****        i2c.button_stat = send_status;
 102              		.loc 1 111 0
 103 0026 0028     		cmp	r0, #0
 104 0028 06D1     		bne	.L8
 111:main.c        ****        i2c.button_stat = send_status;
 105              		.loc 1 111 0 is_stmt 0 discriminator 1
 106 002a E378     		ldrb	r3, [r4, #3]
 107 002c 0B2B     		cmp	r3, #11
 108 002e 0DD1     		bne	.L9
 112:main.c        ****        send_status = 0;
 109              		.loc 1 112 0 is_stmt 1
 110 0030 2B74     		strb	r3, [r5, #16]
 113:main.c        ****        i2c.button_value = 0;
 111              		.loc 1 113 0
 112 0032 E070     		strb	r0, [r4, #3]
 114:main.c        ****     }else{
 113              		.loc 1 114 0
 114 0034 6874     		strb	r0, [r5, #17]
 115 0036 52E0     		b	.L7
 116              	.L8:
 116:main.c        ****             case NOT_TOUCH:
 117              		.loc 1 116 0
 118 0038 1038     		subs	r0, r0, #16
 119 003a 0828     		cmp	r0, #8
 120 003c 43D8     		bhi	.L10
 121 003e FFF7FEFF 		bl	__gnu_thumb1_case_uqi
 122              	.L11:
 123 0042 0A       		.byte	(.L6-.L11)/2
 124 0043 18       		.byte	(.L12-.L11)/2
 125 0044 21       		.byte	(.L13-.L11)/2
 126 0045 42       		.byte	(.L10-.L11)/2
 127 0046 2D       		.byte	(.L14-.L11)/2
 128 0047 42       		.byte	(.L10-.L11)/2
 129 0048 42       		.byte	(.L10-.L11)/2
 130 0049 42       		.byte	(.L10-.L11)/2
 131 004a 36       		.byte	(.L15-.L11)/2
 132 004b 00       		.p2align 1
 133              	.L9:
 118:main.c        ****                 time_counts = 0;
 134              		.loc 1 118 0
 135 004c E070     		strb	r0, [r4, #3]
 119:main.c        ****                 key_press = 0;
 136              		.loc 1 119 0
 137 004e 2070     		strb	r0, [r4]
 120:main.c        ****                 default_flag = 0;
 138              		.loc 1 120 0
 139 0050 A070     		strb	r0, [r4, #2]
 121:main.c        ****                 break;
ARM GAS  C:\Users\zack.li\AppData\Local\Temp\cca17dhZ.s 			page 9


 140              		.loc 1 121 0
 141 0052 2071     		strb	r0, [r4, #4]
 122:main.c        ****             case PROX:
 142              		.loc 1 122 0
 143 0054 41E0     		b	.L16
 144              	.L6:
 124:main.c        ****                 {
 145              		.loc 1 124 0
 146 0056 2378     		ldrb	r3, [r4]
 147 0058 0A2B     		cmp	r3, #10
 148 005a 03D9     		bls	.L17
 127:main.c        ****                 }
 149              		.loc 1 127 0
 150 005c 0021     		movs	r1, #0
 151 005e 0420     		movs	r0, #4
 152 0060 FFF7FEFF 		bl	CapSense_InitializeSensorBaseline
 153              	.LVL2:
 154              	.L17:
 129:main.c        ****                 i2c.button_value = 1;
 155              		.loc 1 129 0
 156 0064 0B23     		movs	r3, #11
 157 0066 E370     		strb	r3, [r4, #3]
 130:main.c        ****                 default_flag = 0;
 158              		.loc 1 130 0
 159 0068 0A3B     		subs	r3, r3, #10
 160 006a 6B74     		strb	r3, [r5, #17]
 131:main.c        ****                 break;
 161              		.loc 1 131 0
 162 006c 0023     		movs	r3, #0
 163 006e 2371     		strb	r3, [r4, #4]
 132:main.c        ****             case VOL_UP:
 164              		.loc 1 132 0
 165 0070 33E0     		b	.L16
 166              	.L12:
 134:main.c        ****                     key_press = 1;   
 167              		.loc 1 134 0
 168 0072 2379     		ldrb	r3, [r4, #4]
 169 0074 002B     		cmp	r3, #0
 170 0076 01D1     		bne	.L18
 135:main.c        ****                 }
 171              		.loc 1 135 0
 172 0078 0133     		adds	r3, r3, #1
 173 007a A370     		strb	r3, [r4, #2]
 174              	.L18:
 137:main.c        ****                 i2c.button_value = CapSense_dsRam.snsStatus[0];         
 175              		.loc 1 137 0
 176 007c 7323     		movs	r3, #115
 177 007e E370     		strb	r3, [r4, #3]
 138:main.c        ****                 time_counts = 0;
 178              		.loc 1 138 0
 179 0080 337E     		ldrb	r3, [r6, #24]
 180 0082 07E0     		b	.L24
 181              	.L13:
 142:main.c        ****                     key_press = 1;      
 182              		.loc 1 142 0
 183 0084 2379     		ldrb	r3, [r4, #4]
 184 0086 002B     		cmp	r3, #0
ARM GAS  C:\Users\zack.li\AppData\Local\Temp\cca17dhZ.s 			page 10


 185 0088 01D1     		bne	.L19
 143:main.c        ****                 }
 186              		.loc 1 143 0
 187 008a 0133     		adds	r3, r3, #1
 188 008c A370     		strb	r3, [r4, #2]
 189              	.L19:
 145:main.c        ****                     i2c.button_value = CapSense_dsRam.snsStatus[1];
 190              		.loc 1 145 0
 191 008e 7223     		movs	r3, #114
 192 0090 E370     		strb	r3, [r4, #3]
 146:main.c        ****                     time_counts = 0; 
 193              		.loc 1 146 0
 194 0092 737E     		ldrb	r3, [r6, #25]
 195              	.L24:
 196 0094 6B74     		strb	r3, [r5, #17]
 147:main.c        ****                 break;
 197              		.loc 1 147 0
 198 0096 0023     		movs	r3, #0
 199 0098 2370     		strb	r3, [r4]
 148:main.c        ****             case PLAY_PAUSE:
 200              		.loc 1 148 0
 201 009a 1EE0     		b	.L16
 202              	.L14:
 150:main.c        ****                     key_press = 1;   
 203              		.loc 1 150 0
 204 009c 2379     		ldrb	r3, [r4, #4]
 205 009e 002B     		cmp	r3, #0
 206 00a0 01D1     		bne	.L20
 151:main.c        ****                 }
 207              		.loc 1 151 0
 208 00a2 0133     		adds	r3, r3, #1
 209 00a4 A370     		strb	r3, [r4, #2]
 210              	.L20:
 153:main.c        ****                     i2c.button_value = CapSense_dsRam.snsStatus[2];
 211              		.loc 1 153 0
 212 00a6 A423     		movs	r3, #164
 213 00a8 E370     		strb	r3, [r4, #3]
 154:main.c        ****                     time_counts = 0;
 214              		.loc 1 154 0
 215 00aa B37E     		ldrb	r3, [r6, #26]
 216 00ac F2E7     		b	.L24
 217              	.L15:
 158:main.c        ****                     key_press = 1;               
 218              		.loc 1 158 0
 219 00ae 2379     		ldrb	r3, [r4, #4]
 220 00b0 002B     		cmp	r3, #0
 221 00b2 01D1     		bne	.L21
 159:main.c        ****                 }
 222              		.loc 1 159 0
 223 00b4 0133     		adds	r3, r3, #1
 224 00b6 A370     		strb	r3, [r4, #2]
 225              	.L21:
 161:main.c        ****                     time_counts = 0;
 226              		.loc 1 161 0
 227 00b8 6623     		movs	r3, #102
 228 00ba E370     		strb	r3, [r4, #3]
 162:main.c        ****                     i2c.button_value = CapSense_dsRam.snsStatus[3];
ARM GAS  C:\Users\zack.li\AppData\Local\Temp\cca17dhZ.s 			page 11


 229              		.loc 1 162 0
 230 00bc 0023     		movs	r3, #0
 231 00be 2370     		strb	r3, [r4]
 163:main.c        ****                 break;
 232              		.loc 1 163 0
 233 00c0 F37E     		ldrb	r3, [r6, #27]
 234 00c2 6B74     		strb	r3, [r5, #17]
 164:main.c        ****             default:
 235              		.loc 1 164 0
 236 00c4 09E0     		b	.L16
 237              	.L10:
 166:main.c        ****                 default_flag = 1;//误碰标志
 238              		.loc 1 166 0
 239 00c6 0023     		movs	r3, #0
 167:main.c        ****                 send_status = NOT_TOUCH;
 240              		.loc 1 167 0
 241 00c8 0122     		movs	r2, #1
 166:main.c        ****                 default_flag = 1;//误碰标志
 242              		.loc 1 166 0
 243 00ca A370     		strb	r3, [r4, #2]
 168:main.c        ****                 if(time_counts > 10)
 244              		.loc 1 168 0
 245 00cc E370     		strb	r3, [r4, #3]
 169:main.c        ****                 {
 246              		.loc 1 169 0
 247 00ce 2378     		ldrb	r3, [r4]
 167:main.c        ****                 send_status = NOT_TOUCH;
 248              		.loc 1 167 0
 249 00d0 2271     		strb	r2, [r4, #4]
 169:main.c        ****                 {
 250              		.loc 1 169 0
 251 00d2 0A2B     		cmp	r3, #10
 252 00d4 01D9     		bls	.L16
 172:main.c        ****                 }
 253              		.loc 1 172 0
 254 00d6 FFF7FEFF 		bl	CapSense_InitializeAllBaselines
 255              	.LVL3:
 256              	.L16:
 176:main.c        ****     }
 257              		.loc 1 176 0
 258 00da E378     		ldrb	r3, [r4, #3]
 259 00dc 2B74     		strb	r3, [r5, #16]
 260              	.L7:
 179:main.c        ****     
 261              		.loc 1 179 0
 262 00de 6378     		ldrb	r3, [r4, #1]
 182:main.c        **** 
 263              		.loc 1 182 0
 264 00e0 0020     		movs	r0, #0
 179:main.c        ****     
 265              		.loc 1 179 0
 266 00e2 6371     		strb	r3, [r4, #5]
 182:main.c        **** 
 267              		.loc 1 182 0
 268 00e4 7369     		ldr	r3, [r6, #20]
 269 00e6 002B     		cmp	r3, #0
 270 00e8 00D1     		bne	.L25
ARM GAS  C:\Users\zack.li\AppData\Local\Temp\cca17dhZ.s 			page 12


 182:main.c        **** 
 271              		.loc 1 182 0 is_stmt 0 discriminator 2
 272 00ea 0120     		movs	r0, #1
 273              	.L25:
 274 00ec FFF7FEFF 		bl	CAP_INT_Write
 275              	.LVL4:
 187:main.c        **** 
 276              		.loc 1 187 0 is_stmt 1 discriminator 2
 277              		@ sp needed
 278 00f0 70BD     		pop	{r4, r5, r6, pc}
 279              	.L28:
 280 00f2 C046     		.align	2
 281              	.L27:
 282 00f4 00000000 		.word	.LANCHOR0
 283 00f8 00000000 		.word	i2c
 284 00fc 00000000 		.word	CapSense_dsRam
 285              		.cfi_endproc
 286              	.LFE35:
 287              		.size	ProcessCapsenseEvent, .-ProcessCapsenseEvent
 288              		.section	.text.ProcessCapsenseEvent_1_1,"ax",%progbits
 289              		.align	1
 290              		.global	ProcessCapsenseEvent_1_1
 291              		.code	16
 292              		.thumb_func
 293              		.type	ProcessCapsenseEvent_1_1, %function
 294              	ProcessCapsenseEvent_1_1:
 295              	.LFB36:
 190:main.c        ****     // update button status
 296              		.loc 1 190 0
 297              		.cfi_startproc
 298              		@ args = 0, pretend = 0, frame = 0
 299              		@ frame_needed = 0, uses_anonymous_args = 0
 300 0000 70B5     		push	{r4, r5, r6, lr}
 301              		.cfi_def_cfa_offset 16
 302              		.cfi_offset 4, -16
 303              		.cfi_offset 5, -12
 304              		.cfi_offset 6, -8
 305              		.cfi_offset 14, -4
 192:main.c        ****     
 306              		.loc 1 192 0
 307 0002 FFF7FEFF 		bl	CapSense_IsAnyWidgetActive
 308              	.LVL5:
 309 0006 334B     		ldr	r3, .L49
 310 0008 C0B2     		uxtb	r0, r0
 311 000a 5870     		strb	r0, [r3, #1]
 312 000c 1C00     		movs	r4, r3
 313 000e 324D     		ldr	r5, .L49+4
 194:main.c        ****         case NOT_TOUCH:
 314              		.loc 1 194 0
 315 0010 1128     		cmp	r0, #17
 316 0012 20D0     		beq	.L31
 317 0014 04D8     		bhi	.L32
 318 0016 0028     		cmp	r0, #0
 319 0018 09D0     		beq	.L33
 320 001a 1028     		cmp	r0, #16
 321 001c 0CD0     		beq	.L34
 322 001e 46E0     		b	.L30
ARM GAS  C:\Users\zack.li\AppData\Local\Temp\cca17dhZ.s 			page 13


 323              	.L32:
 324 0020 1428     		cmp	r0, #20
 325 0022 2ED0     		beq	.L35
 326 0024 1828     		cmp	r0, #24
 327 0026 35D0     		beq	.L36
 328 0028 1228     		cmp	r0, #18
 329 002a 40D1     		bne	.L30
 330 002c 1CE0     		b	.L48
 331              	.L33:
 196:main.c        ****             time_counts = 0;
 332              		.loc 1 196 0
 333 002e D870     		strb	r0, [r3, #3]
 197:main.c        ****             key_press = 0;
 334              		.loc 1 197 0
 335 0030 1870     		strb	r0, [r3]
 198:main.c        ****             default_flag = 0;
 336              		.loc 1 198 0
 337 0032 9870     		strb	r0, [r3, #2]
 199:main.c        ****             break;
 338              		.loc 1 199 0
 339 0034 1871     		strb	r0, [r3, #4]
 200:main.c        ****         case PROX:
 340              		.loc 1 200 0
 341 0036 44E0     		b	.L38
 342              	.L34:
 202:main.c        ****             {
 343              		.loc 1 202 0
 344 0038 1B78     		ldrb	r3, [r3]
 345 003a 0A2B     		cmp	r3, #10
 346 003c 03D9     		bls	.L39
 205:main.c        ****             }
 347              		.loc 1 205 0
 348 003e 0021     		movs	r1, #0
 349 0040 0420     		movs	r0, #4
 350 0042 FFF7FEFF 		bl	CapSense_InitializeSensorBaseline
 351              	.LVL6:
 352              	.L39:
 207:main.c        ****             i2c.button_value = 1;
 353              		.loc 1 207 0
 354 0046 0B23     		movs	r3, #11
 208:main.c        ****             default_flag = 0;
 355              		.loc 1 208 0
 356 0048 0122     		movs	r2, #1
 207:main.c        ****             i2c.button_value = 1;
 357              		.loc 1 207 0
 358 004a E370     		strb	r3, [r4, #3]
 208:main.c        ****             default_flag = 0;
 359              		.loc 1 208 0
 360 004c 234B     		ldr	r3, .L49+8
 361 004e 5A74     		strb	r2, [r3, #17]
 209:main.c        ****             break;
 362              		.loc 1 209 0
 363 0050 0023     		movs	r3, #0
 364 0052 2371     		strb	r3, [r4, #4]
 210:main.c        ****         case VOL_UP:
 365              		.loc 1 210 0
 366 0054 35E0     		b	.L38
ARM GAS  C:\Users\zack.li\AppData\Local\Temp\cca17dhZ.s 			page 14


 367              	.L31:
 212:main.c        ****                 key_press = 1;   
 368              		.loc 1 212 0
 369 0056 1B79     		ldrb	r3, [r3, #4]
 370 0058 002B     		cmp	r3, #0
 371 005a 01D1     		bne	.L40
 213:main.c        ****             }
 372              		.loc 1 213 0
 373 005c 0133     		adds	r3, r3, #1
 374 005e A370     		strb	r3, [r4, #2]
 375              	.L40:
 215:main.c        ****             i2c.button_value = CapSense_dsRam.snsStatus[0];         
 376              		.loc 1 215 0
 377 0060 7323     		movs	r3, #115
 378 0062 E370     		strb	r3, [r4, #3]
 216:main.c        ****             time_counts = 0;
 379              		.loc 1 216 0
 380 0064 2A7E     		ldrb	r2, [r5, #24]
 381 0066 07E0     		b	.L46
 382              	.L48:
 220:main.c        ****                 key_press = 1;      
 383              		.loc 1 220 0
 384 0068 1B79     		ldrb	r3, [r3, #4]
 385 006a 002B     		cmp	r3, #0
 386 006c 01D1     		bne	.L41
 221:main.c        ****             }
 387              		.loc 1 221 0
 388 006e 0133     		adds	r3, r3, #1
 389 0070 A370     		strb	r3, [r4, #2]
 390              	.L41:
 223:main.c        ****                 i2c.button_value = CapSense_dsRam.snsStatus[1];
 391              		.loc 1 223 0
 392 0072 7223     		movs	r3, #114
 393 0074 E370     		strb	r3, [r4, #3]
 224:main.c        ****                 time_counts = 0; 
 394              		.loc 1 224 0
 395 0076 6A7E     		ldrb	r2, [r5, #25]
 396              	.L46:
 397 0078 184B     		ldr	r3, .L49+8
 398 007a 5A74     		strb	r2, [r3, #17]
 225:main.c        ****             break;
 399              		.loc 1 225 0
 400 007c 0023     		movs	r3, #0
 401 007e 2370     		strb	r3, [r4]
 226:main.c        ****         case PLAY_PAUSE:
 402              		.loc 1 226 0
 403 0080 1FE0     		b	.L38
 404              	.L35:
 228:main.c        ****                 key_press = 1;   
 405              		.loc 1 228 0
 406 0082 1B79     		ldrb	r3, [r3, #4]
 407 0084 002B     		cmp	r3, #0
 408 0086 01D1     		bne	.L42
 229:main.c        ****             }
 409              		.loc 1 229 0
 410 0088 0133     		adds	r3, r3, #1
 411 008a A370     		strb	r3, [r4, #2]
ARM GAS  C:\Users\zack.li\AppData\Local\Temp\cca17dhZ.s 			page 15


 412              	.L42:
 231:main.c        ****                 i2c.button_value = CapSense_dsRam.snsStatus[2];
 413              		.loc 1 231 0
 414 008c A423     		movs	r3, #164
 415 008e E370     		strb	r3, [r4, #3]
 232:main.c        ****                 time_counts = 0;
 416              		.loc 1 232 0
 417 0090 AA7E     		ldrb	r2, [r5, #26]
 418 0092 F1E7     		b	.L46
 419              	.L36:
 236:main.c        ****                 key_press = 1;               
 420              		.loc 1 236 0
 421 0094 1B79     		ldrb	r3, [r3, #4]
 422 0096 002B     		cmp	r3, #0
 423 0098 01D1     		bne	.L43
 237:main.c        ****             }
 424              		.loc 1 237 0
 425 009a 0133     		adds	r3, r3, #1
 426 009c A370     		strb	r3, [r4, #2]
 427              	.L43:
 239:main.c        ****                 time_counts = 0;
 428              		.loc 1 239 0
 429 009e 6623     		movs	r3, #102
 430 00a0 E370     		strb	r3, [r4, #3]
 240:main.c        ****                 i2c.button_value = CapSense_dsRam.snsStatus[3];
 431              		.loc 1 240 0
 432 00a2 0023     		movs	r3, #0
 433 00a4 2370     		strb	r3, [r4]
 241:main.c        ****             break;
 434              		.loc 1 241 0
 435 00a6 EA7E     		ldrb	r2, [r5, #27]
 436 00a8 0C4B     		ldr	r3, .L49+8
 437 00aa 5A74     		strb	r2, [r3, #17]
 242:main.c        ****         default:
 438              		.loc 1 242 0
 439 00ac 09E0     		b	.L38
 440              	.L30:
 244:main.c        ****             default_flag = 1;//误碰标志
 441              		.loc 1 244 0
 442 00ae 0023     		movs	r3, #0
 245:main.c        ****             send_status = NOT_TOUCH;
 443              		.loc 1 245 0
 444 00b0 0122     		movs	r2, #1
 244:main.c        ****             default_flag = 1;//误碰标志
 445              		.loc 1 244 0
 446 00b2 A370     		strb	r3, [r4, #2]
 246:main.c        ****             if(time_counts > 10)
 447              		.loc 1 246 0
 448 00b4 E370     		strb	r3, [r4, #3]
 247:main.c        ****             {
 449              		.loc 1 247 0
 450 00b6 2378     		ldrb	r3, [r4]
 245:main.c        ****             send_status = NOT_TOUCH;
 451              		.loc 1 245 0
 452 00b8 2271     		strb	r2, [r4, #4]
 247:main.c        ****             {
 453              		.loc 1 247 0
ARM GAS  C:\Users\zack.li\AppData\Local\Temp\cca17dhZ.s 			page 16


 454 00ba 0A2B     		cmp	r3, #10
 455 00bc 01D9     		bls	.L38
 250:main.c        ****             }
 456              		.loc 1 250 0
 457 00be FFF7FEFF 		bl	CapSense_InitializeAllBaselines
 458              	.LVL7:
 459              	.L38:
 256:main.c        **** }
 460              		.loc 1 256 0
 461 00c2 6B69     		ldr	r3, [r5, #20]
 462 00c4 0020     		movs	r0, #0
 463 00c6 002B     		cmp	r3, #0
 464 00c8 00D1     		bne	.L47
 256:main.c        **** }
 465              		.loc 1 256 0 is_stmt 0 discriminator 2
 466 00ca 0120     		movs	r0, #1
 467              	.L47:
 468 00cc FFF7FEFF 		bl	CAP_INT_Write
 469              	.LVL8:
 257:main.c        **** 
 470              		.loc 1 257 0 is_stmt 1 discriminator 2
 471              		@ sp needed
 472 00d0 70BD     		pop	{r4, r5, r6, pc}
 473              	.L50:
 474 00d2 C046     		.align	2
 475              	.L49:
 476 00d4 00000000 		.word	.LANCHOR0
 477 00d8 00000000 		.word	CapSense_dsRam
 478 00dc 00000000 		.word	i2c
 479              		.cfi_endproc
 480              	.LFE36:
 481              		.size	ProcessCapsenseEvent_1_1, .-ProcessCapsenseEvent_1_1
 482              		.section	.text.ProcessI2CCommand,"ax",%progbits
 483              		.align	1
 484              		.global	ProcessI2CCommand
 485              		.code	16
 486              		.thumb_func
 487              		.type	ProcessI2CCommand, %function
 488              	ProcessI2CCommand:
 489              	.LFB37:
 260:main.c        ****     if (REG15_UPDATE_MCU_CMD == i2c.rw.reg.updat_posc)
 490              		.loc 1 260 0
 491              		.cfi_startproc
 492              		@ args = 0, pretend = 0, frame = 0
 493              		@ frame_needed = 0, uses_anonymous_args = 0
 494              		@ link register save eliminated.
 271:main.c        **** 
 495              		.loc 1 271 0
 496              		@ sp needed
 497 0000 7047     		bx	lr
 498              		.cfi_endproc
 499              	.LFE37:
 500              		.size	ProcessI2CCommand, .-ProcessI2CCommand
 501              		.section	.text.startup.main,"ax",%progbits
 502              		.align	1
 503              		.global	main
 504              		.code	16
ARM GAS  C:\Users\zack.li\AppData\Local\Temp\cca17dhZ.s 			page 17


 505              		.thumb_func
 506              		.type	main, %function
 507              	main:
 508              	.LFB39:
 298:main.c        **** 
 299:main.c        **** 
 300:main.c        **** int main(void)
 301:main.c        **** {
 509              		.loc 1 301 0
 510              		.cfi_startproc
 511              		@ Volatile: function does not return.
 512              		@ args = 0, pretend = 0, frame = 0
 513              		@ frame_needed = 0, uses_anonymous_args = 0
 514 0000 10B5     		push	{r4, lr}
 515              		.cfi_def_cfa_offset 8
 516              		.cfi_offset 4, -8
 517              		.cfi_offset 14, -4
 302:main.c        ****     CyGlobalIntEnable; /* Enable global interrupts. */
 518              		.loc 1 302 0
 519              		.syntax divided
 520              	@ 302 "main.c" 1
 521 0002 62B6     		CPSIE   i
 522              	@ 0 "" 2
 303:main.c        ****     
 304:main.c        ****     /* Starts the timer */
 305:main.c        ****     Timer_Start();
 523              		.loc 1 305 0
 524              		.thumb
 525              		.syntax unified
 526 0004 FFF7FEFF 		bl	Timer_Start
 527              	.LVL9:
 306:main.c        ****     
 307:main.c        ****     UART_Start();
 528              		.loc 1 307 0
 529 0008 FFF7FEFF 		bl	UART_Start
 530              	.LVL10:
 531              	.LBB6:
 532              	.LBB7:
  92:main.c        ****     EZI2C_Start(); // Start I2C (Address : 0x08 , Data Rate : 100k ) 
 533              		.loc 1 92 0
 534 000c 114C     		ldr	r4, .L55
 535 000e 1222     		movs	r2, #18
 536 0010 0021     		movs	r1, #0
 537 0012 2000     		movs	r0, r4
 538 0014 FFF7FEFF 		bl	memset
 539              	.LVL11:
  93:main.c        ****     /* EZI2C buffer parameters: 
 540              		.loc 1 93 0
 541 0018 FFF7FEFF 		bl	EZI2C_Start
 542              	.LVL12:
  99:main.c        **** }
 543              		.loc 1 99 0
 544 001c 2200     		movs	r2, r4
 545 001e 1021     		movs	r1, #16
 546 0020 1220     		movs	r0, #18
 547 0022 FFF7FEFF 		bl	EZI2C_EzI2CSetBuffer1
 548              	.LVL13:
ARM GAS  C:\Users\zack.li\AppData\Local\Temp\cca17dhZ.s 			page 18


 549              	.LBE7:
 550              	.LBE6:
 308:main.c        ****     Init_I2C_Communication();
 309:main.c        ****     
 310:main.c        ****     /* Start CapSense Component */
 311:main.c        ****     CapSense_Start();
 551              		.loc 1 311 0
 552 0026 FFF7FEFF 		bl	CapSense_Start
 553              	.LVL14:
 312:main.c        **** #if RUN_UART_TUNER    
 313:main.c        ****     CapSense_TuInitialize();
 314:main.c        **** #endif    
 315:main.c        **** 
 316:main.c        ****     CapSense_InitializeAllBaselines();
 554              		.loc 1 316 0
 555 002a FFF7FEFF 		bl	CapSense_InitializeAllBaselines
 556              	.LVL15:
 317:main.c        ****     /* Start initial scan */
 318:main.c        ****     CapSense_ScanAllWidgets();
 557              		.loc 1 318 0
 558 002e FFF7FEFF 		bl	CapSense_ScanAllWidgets
 559              	.LVL16:
 319:main.c        ****     
 320:main.c        ****     /* Enable interrupt component and set up handler */
 321:main.c        ****     TC_Interrupt_StartEx(TC_InterruptHandler);
 560              		.loc 1 321 0
 561 0032 0948     		ldr	r0, .L55+4
 562 0034 FFF7FEFF 		bl	TC_Interrupt_StartEx
 563              	.LVL17:
 564              	.L54:
 322:main.c        ****     
 323:main.c        ****     for(;;)
 324:main.c        ****     {
 325:main.c        **** 
 326:main.c        ****         /* Do this only when a scan is done */
 327:main.c        ****         if(CapSense_NOT_BUSY == CapSense_IsBusy())
 565              		.loc 1 327 0
 566 0038 FFF7FEFF 		bl	CapSense_IsBusy
 567              	.LVL18:
 568 003c 0028     		cmp	r0, #0
 569 003e 05D1     		bne	.L53
 328:main.c        ****         {
 329:main.c        ****             /* Process all widgets */
 330:main.c        ****             CapSense_ProcessAllWidgets();
 570              		.loc 1 330 0
 571 0040 FFF7FEFF 		bl	CapSense_ProcessAllWidgets
 572              	.LVL19:
 331:main.c        ****             
 332:main.c        **** #if  RUN_UART_TUNER           
 333:main.c        ****             /* To sync with Tuner application */
 334:main.c        ****             CapSense_RunTuner();
 335:main.c        ****             
 336:main.c        ****              /* Send packet header */
 337:main.c        ****             UART_SpiUartPutArray((uint8 *)(&header), sizeof(header));
 338:main.c        ****             /* Send packet with CapSense data */
 339:main.c        ****             UART_SpiUartPutArray((uint8 *)(&CapSense_dsRam), sizeof(CapSense_dsRam));
 340:main.c        ****             /* Send packet tail */
ARM GAS  C:\Users\zack.li\AppData\Local\Temp\cca17dhZ.s 			page 19


 341:main.c        ****             UART_SpiUartPutArray((uint8 *)(&tail), sizeof(tail));
 342:main.c        **** #endif            
 343:main.c        ****             /* process capsnese event and host interrupt */
 344:main.c        ****             ProcessCapsenseEvent();
 573              		.loc 1 344 0
 574 0044 FFF7FEFF 		bl	ProcessCapsenseEvent
 575              	.LVL20:
 345:main.c        ****             /* Start next scan */
 346:main.c        ****             CapSense_ScanAllWidgets();
 576              		.loc 1 346 0
 577 0048 FFF7FEFF 		bl	CapSense_ScanAllWidgets
 578              	.LVL21:
 579              	.L53:
 347:main.c        ****         }
 348:main.c        ****         ProcessI2CCommand();
 349:main.c        ****         
 350:main.c        ****         CyDelay(SCAN_TIME_MS);
 580              		.loc 1 350 0
 581 004c 0A20     		movs	r0, #10
 582 004e FFF7FEFF 		bl	CyDelay
 583              	.LVL22:
 351:main.c        ****     }
 584              		.loc 1 351 0
 585 0052 F1E7     		b	.L54
 586              	.L56:
 587              		.align	2
 588              	.L55:
 589 0054 00000000 		.word	i2c
 590 0058 00000000 		.word	TC_InterruptHandler
 591              		.cfi_endproc
 592              	.LFE39:
 593              		.size	main, .-main
 594              		.global	default_flag
 595              		.global	key_press
 596              		.global	last_capsense
 597              		.global	time_counts
 598              		.global	send_status
 599              		.global	CapSense_status
 600              		.comm	i2c,18,1
 601              		.bss
 602              		.set	.LANCHOR0,. + 0
 603              		.type	time_counts, %object
 604              		.size	time_counts, 1
 605              	time_counts:
 606 0000 00       		.space	1
 607              		.type	CapSense_status, %object
 608              		.size	CapSense_status, 1
 609              	CapSense_status:
 610 0001 00       		.space	1
 611              		.type	key_press, %object
 612              		.size	key_press, 1
 613              	key_press:
 614 0002 00       		.space	1
 615              		.type	send_status, %object
 616              		.size	send_status, 1
 617              	send_status:
 618 0003 00       		.space	1
ARM GAS  C:\Users\zack.li\AppData\Local\Temp\cca17dhZ.s 			page 20


 619              		.type	default_flag, %object
 620              		.size	default_flag, 1
 621              	default_flag:
 622 0004 00       		.space	1
 623              		.type	last_capsense, %object
 624              		.size	last_capsense, 1
 625              	last_capsense:
 626 0005 00       		.space	1
 627              		.text
 628              	.Letext0:
 629              		.file 2 "c:\\program files (x86)\\cypress\\psoc creator\\4.2\\psoc creator\\import\\gnu\\arm\\5.4.
 630              		.file 3 "c:\\program files (x86)\\cypress\\psoc creator\\4.2\\psoc creator\\import\\gnu\\arm\\5.4.
 631              		.file 4 "Generated_Source\\PSoC4/cytypes.h"
 632              		.file 5 "Generated_Source\\PSoC4/CapSense_Configuration.h"
 633              		.file 6 "Generated_Source\\PSoC4/CapSense_Structure.h"
 634              		.file 7 "Generated_Source\\PSoC4/Timer.h"
 635              		.file 8 "Generated_Source\\PSoC4/CapSense_Filter.h"
 636              		.file 9 "Generated_Source\\PSoC4/CAP_INT.h"
 637              		.file 10 "Generated_Source\\PSoC4/EZI2C.h"
 638              		.file 11 "Generated_Source\\PSoC4/EZI2C_EZI2C.h"
 639              		.file 12 "Generated_Source\\PSoC4/UART.h"
 640              		.file 13 "Generated_Source\\PSoC4/CapSense_Control.h"
 641              		.file 14 "Generated_Source\\PSoC4/CapSense_Sensing.h"
 642              		.file 15 "Generated_Source\\PSoC4/TC_Interrupt.h"
 643              		.file 16 "Generated_Source\\PSoC4/CyLib.h"