ARM GAS  C:\Users\zack.li\AppData\Local\Temp\ccXMkTut.s 			page 1


   1              		.syntax unified
   2              		.cpu cortex-m0plus
   3              		.fpu softvfp
   4              		.eabi_attribute 20, 1
   5              		.eabi_attribute 21, 1
   6              		.eabi_attribute 23, 3
   7              		.eabi_attribute 24, 1
   8              		.eabi_attribute 25, 1
   9              		.eabi_attribute 26, 1
  10              		.eabi_attribute 30, 1
  11              		.eabi_attribute 34, 0
  12              		.eabi_attribute 18, 4
  13              		.thumb
  14              		.syntax unified
  15              		.file	"CapSense_Structure.c"
  16              		.text
  17              	.Ltext0:
  18              		.cfi_sections	.debug_frame
  19              		.section	.text.DsParseParamId,"ax",%progbits
  20              		.align	2
  21              		.code	16
  22              		.thumb_func
  23              		.type	DsParseParamId, %function
  24              	DsParseParamId:
  25              	.LFB2:
  26              		.file 1 "Generated_Source\\PSoC4\\CapSense_Structure.c"
   1:Generated_Source\PSoC4/CapSense_Structure.c **** /***************************************************************************//**
   2:Generated_Source\PSoC4/CapSense_Structure.c **** * \file CapSense_Structure.c
   3:Generated_Source\PSoC4/CapSense_Structure.c **** * \version 7.0
   4:Generated_Source\PSoC4/CapSense_Structure.c **** *
   5:Generated_Source\PSoC4/CapSense_Structure.c **** * \brief
   6:Generated_Source\PSoC4/CapSense_Structure.c **** *   This file defines the data structure global variables and provides implementation
   7:Generated_Source\PSoC4/CapSense_Structure.c **** *   for the high-level and low-level APIs of the Data Structure module.
   8:Generated_Source\PSoC4/CapSense_Structure.c **** *
   9:Generated_Source\PSoC4/CapSense_Structure.c **** * \see CapSense v7.0 Datasheet
  10:Generated_Source\PSoC4/CapSense_Structure.c **** *
  11:Generated_Source\PSoC4/CapSense_Structure.c **** *//*****************************************************************************
  12:Generated_Source\PSoC4/CapSense_Structure.c **** * Copyright (2016-2019), Cypress Semiconductor Corporation.
  13:Generated_Source\PSoC4/CapSense_Structure.c **** ********************************************************************************
  14:Generated_Source\PSoC4/CapSense_Structure.c **** * This software is owned by Cypress Semiconductor Corporation (Cypress) and is
  15:Generated_Source\PSoC4/CapSense_Structure.c **** * protected by and subject to worldwide patent protection (United States and
  16:Generated_Source\PSoC4/CapSense_Structure.c **** * foreign), United States copyright laws and international treaty provisions.
  17:Generated_Source\PSoC4/CapSense_Structure.c **** * Cypress hereby grants to licensee a personal, non-exclusive, non-transferable
  18:Generated_Source\PSoC4/CapSense_Structure.c **** * license to copy, use, modify, create derivative works of, and compile the
  19:Generated_Source\PSoC4/CapSense_Structure.c **** * Cypress Source Code and derivative works for the sole purpose of creating
  20:Generated_Source\PSoC4/CapSense_Structure.c **** * custom software in support of licensee product to be used only in conjunction
  21:Generated_Source\PSoC4/CapSense_Structure.c **** * with a Cypress integrated circuit as specified in the applicable agreement.
  22:Generated_Source\PSoC4/CapSense_Structure.c **** * Any reproduction, modification, translation, compilation, or representation of
  23:Generated_Source\PSoC4/CapSense_Structure.c **** * this software except as specified above is prohibited without the express
  24:Generated_Source\PSoC4/CapSense_Structure.c **** * written permission of Cypress.
  25:Generated_Source\PSoC4/CapSense_Structure.c **** *
  26:Generated_Source\PSoC4/CapSense_Structure.c **** * Disclaimer: CYPRESS MAKES NO WARRANTY OF ANY KIND, EXPRESS OR IMPLIED, WITH
  27:Generated_Source\PSoC4/CapSense_Structure.c **** * REGARD TO THIS MATERIAL, INCLUDING, BUT NOT LIMITED TO, THE IMPLIED
  28:Generated_Source\PSoC4/CapSense_Structure.c **** * WARRANTIES OF MERCHANTABILITY AND FITNESS FOR A PARTICULAR PURPOSE.
  29:Generated_Source\PSoC4/CapSense_Structure.c **** * Cypress reserves the right to make changes without further notice to the
  30:Generated_Source\PSoC4/CapSense_Structure.c **** * materials described herein. Cypress does not assume any liability arising out
  31:Generated_Source\PSoC4/CapSense_Structure.c **** * of the application or use of any product or circuit described herein. Cypress
ARM GAS  C:\Users\zack.li\AppData\Local\Temp\ccXMkTut.s 			page 2


  32:Generated_Source\PSoC4/CapSense_Structure.c **** * does not authorize its products for use as critical components in life-support
  33:Generated_Source\PSoC4/CapSense_Structure.c **** * systems where a malfunction or failure may reasonably be expected to result in
  34:Generated_Source\PSoC4/CapSense_Structure.c **** * significant injury to the user. The inclusion of Cypress' product in a life-
  35:Generated_Source\PSoC4/CapSense_Structure.c **** * support systems application implies that the manufacturer assumes all risk of
  36:Generated_Source\PSoC4/CapSense_Structure.c **** * such use and in doing so indemnifies Cypress against all charges. Use may be
  37:Generated_Source\PSoC4/CapSense_Structure.c **** * limited by and subject to the applicable Cypress software license agreement.
  38:Generated_Source\PSoC4/CapSense_Structure.c **** *******************************************************************************/
  39:Generated_Source\PSoC4/CapSense_Structure.c **** 
  40:Generated_Source\PSoC4/CapSense_Structure.c **** #include <cytypes.h>
  41:Generated_Source\PSoC4/CapSense_Structure.c **** #include "CyLib.h"
  42:Generated_Source\PSoC4/CapSense_Structure.c **** #include "CapSense_Structure.h"
  43:Generated_Source\PSoC4/CapSense_Structure.c **** #include "CapSense_Configuration.h"
  44:Generated_Source\PSoC4/CapSense_Structure.c **** 
  45:Generated_Source\PSoC4/CapSense_Structure.c **** #if (0u != CapSense_ADC_EN)
  46:Generated_Source\PSoC4/CapSense_Structure.c ****     #include "CapSense_Adc.h"
  47:Generated_Source\PSoC4/CapSense_Structure.c **** #endif /* (0u != CapSense_ADC_EN) */
  48:Generated_Source\PSoC4/CapSense_Structure.c **** 
  49:Generated_Source\PSoC4/CapSense_Structure.c **** #if (CapSense_ENABLE == CapSense_SELF_TEST_EN)
  50:Generated_Source\PSoC4/CapSense_Structure.c ****     #include "CapSense_SelfTest.h"
  51:Generated_Source\PSoC4/CapSense_Structure.c **** #endif
  52:Generated_Source\PSoC4/CapSense_Structure.c **** 
  53:Generated_Source\PSoC4/CapSense_Structure.c **** #if (CapSense_ENABLE == CapSense_CENTROID_5X5_CSD_EN)
  54:Generated_Source\PSoC4/CapSense_Structure.c ****     #include "CapSense_AdvancedCentroid_LL.h"
  55:Generated_Source\PSoC4/CapSense_Structure.c **** #endif
  56:Generated_Source\PSoC4/CapSense_Structure.c **** 
  57:Generated_Source\PSoC4/CapSense_Structure.c **** #if (CapSense_ENABLE == CapSense_GES_GLOBAL_EN)
  58:Generated_Source\PSoC4/CapSense_Structure.c ****     #include "CapSense_Gesture.h"
  59:Generated_Source\PSoC4/CapSense_Structure.c **** #endif /* (CapSense_ENABLE == CapSense_GES_GLOBAL_EN) */
  60:Generated_Source\PSoC4/CapSense_Structure.c **** 
  61:Generated_Source\PSoC4/CapSense_Structure.c **** /*******************************************************************************
  62:Generated_Source\PSoC4/CapSense_Structure.c **** * Defines the RAM Data Structure variables and their init data in flash
  63:Generated_Source\PSoC4/CapSense_Structure.c **** *******************************************************************************/
  64:Generated_Source\PSoC4/CapSense_Structure.c **** /**
  65:Generated_Source\PSoC4/CapSense_Structure.c **** * \cond SECTION_GLOBAL_VARIABLES
  66:Generated_Source\PSoC4/CapSense_Structure.c **** * \addtogroup group_global_variables
  67:Generated_Source\PSoC4/CapSense_Structure.c **** * \{
  68:Generated_Source\PSoC4/CapSense_Structure.c **** */
  69:Generated_Source\PSoC4/CapSense_Structure.c **** 
  70:Generated_Source\PSoC4/CapSense_Structure.c **** /**
  71:Generated_Source\PSoC4/CapSense_Structure.c **** * The variable that contains the CapSense configuration, settings and
  72:Generated_Source\PSoC4/CapSense_Structure.c **** * scanning results. CapSense_dsRam represents RAM Data Structure.
  73:Generated_Source\PSoC4/CapSense_Structure.c **** */
  74:Generated_Source\PSoC4/CapSense_Structure.c **** CapSense_RAM_STRUCT CapSense_dsRam;
  75:Generated_Source\PSoC4/CapSense_Structure.c **** /** \}
  76:Generated_Source\PSoC4/CapSense_Structure.c **** * \endcond */
  77:Generated_Source\PSoC4/CapSense_Structure.c **** 
  78:Generated_Source\PSoC4/CapSense_Structure.c **** /*******************************************************************************
  79:Generated_Source\PSoC4/CapSense_Structure.c **** * Declares Widget's De-bounce Counters
  80:Generated_Source\PSoC4/CapSense_Structure.c **** *******************************************************************************/
  81:Generated_Source\PSoC4/CapSense_Structure.c **** static uint8 CapSense_debounceVOL_UP[CapSense_VOL_UP_NUM_SENSORS];
  82:Generated_Source\PSoC4/CapSense_Structure.c **** static uint8 CapSense_debounceVOL_DOWN[CapSense_VOL_DOWN_NUM_SENSORS];
  83:Generated_Source\PSoC4/CapSense_Structure.c **** static uint8 CapSense_debouncePLAY_PAUSE[CapSense_PLAY_PAUSE_NUM_SENSORS];
  84:Generated_Source\PSoC4/CapSense_Structure.c **** static uint8 CapSense_debounceLIBERTY_PULL[CapSense_LIBERTY_PULL_NUM_SENSORS];
  85:Generated_Source\PSoC4/CapSense_Structure.c **** static uint8 CapSense_debounceFORMATION[CapSense_FORMATION_NUM_SENSORS];
  86:Generated_Source\PSoC4/CapSense_Structure.c **** static uint8 CapSense_debouncePROX[CapSense_PROX_NUM_SENSORS * 2u];
  87:Generated_Source\PSoC4/CapSense_Structure.c **** 
  88:Generated_Source\PSoC4/CapSense_Structure.c **** 
ARM GAS  C:\Users\zack.li\AppData\Local\Temp\ccXMkTut.s 			page 3


  89:Generated_Source\PSoC4/CapSense_Structure.c **** /***************************************************************************//**
  90:Generated_Source\PSoC4/CapSense_Structure.c **** * Declares Filter History Objects
  91:Generated_Source\PSoC4/CapSense_Structure.c **** *******************************************************************************/
  92:Generated_Source\PSoC4/CapSense_Structure.c **** static CapSense_REGULAR_FLTR_STRUCT CapSense_fltrHistoryVOL_UP[CapSense_VOL_UP_NUM_SENSORS];
  93:Generated_Source\PSoC4/CapSense_Structure.c **** static CapSense_REGULAR_FLTR_STRUCT CapSense_fltrHistoryVOL_DOWN[CapSense_VOL_DOWN_NUM_SENSORS];
  94:Generated_Source\PSoC4/CapSense_Structure.c **** static CapSense_REGULAR_FLTR_STRUCT CapSense_fltrHistoryPLAY_PAUSE[CapSense_PLAY_PAUSE_NUM_SENSORS]
  95:Generated_Source\PSoC4/CapSense_Structure.c **** static CapSense_REGULAR_FLTR_STRUCT CapSense_fltrHistoryLIBERTY_PULL[CapSense_LIBERTY_PULL_NUM_SENS
  96:Generated_Source\PSoC4/CapSense_Structure.c **** static CapSense_REGULAR_FLTR_STRUCT CapSense_fltrHistoryFORMATION[CapSense_FORMATION_NUM_SENSORS];
  97:Generated_Source\PSoC4/CapSense_Structure.c **** static CapSense_PROX_FLTR_STRUCT CapSense_fltrHistoryPROX[CapSense_PROX_NUM_SENSORS];
  98:Generated_Source\PSoC4/CapSense_Structure.c **** 
  99:Generated_Source\PSoC4/CapSense_Structure.c **** /*******************************************************************************
 100:Generated_Source\PSoC4/CapSense_Structure.c **** * Defines and initializes the Flash Data Structure
 101:Generated_Source\PSoC4/CapSense_Structure.c **** *******************************************************************************/
 102:Generated_Source\PSoC4/CapSense_Structure.c **** 
 103:Generated_Source\PSoC4/CapSense_Structure.c **** 
 104:Generated_Source\PSoC4/CapSense_Structure.c **** 
 105:Generated_Source\PSoC4/CapSense_Structure.c **** /**
 106:Generated_Source\PSoC4/CapSense_Structure.c **** * \cond SECTION_API_CONSTANTS
 107:Generated_Source\PSoC4/CapSense_Structure.c **** * \addtogroup group_api_constants
 108:Generated_Source\PSoC4/CapSense_Structure.c **** * \{
 109:Generated_Source\PSoC4/CapSense_Structure.c **** */
 110:Generated_Source\PSoC4/CapSense_Structure.c **** /**
 111:Generated_Source\PSoC4/CapSense_Structure.c **** * Constant for the FLASH Data Structure
 112:Generated_Source\PSoC4/CapSense_Structure.c **** */
 113:Generated_Source\PSoC4/CapSense_Structure.c **** const CapSense_FLASH_STRUCT CapSense_dsFlash =
 114:Generated_Source\PSoC4/CapSense_Structure.c **** {
 115:Generated_Source\PSoC4/CapSense_Structure.c ****     /* Flash Widget Initialization Data */
 116:Generated_Source\PSoC4/CapSense_Structure.c ****     {
 117:Generated_Source\PSoC4/CapSense_Structure.c ****         { /* VOL_UP */
 118:Generated_Source\PSoC4/CapSense_Structure.c ****             &CapSense_ioList[0u],
 119:Generated_Source\PSoC4/CapSense_Structure.c ****             (void *)&CapSense_dsRam.wdgtList.vol_up,
 120:Generated_Source\PSoC4/CapSense_Structure.c ****             CapSense_dsRam.snsList.vol_up,
 121:Generated_Source\PSoC4/CapSense_Structure.c ****             (void *)CapSense_fltrHistoryVOL_UP,
 122:Generated_Source\PSoC4/CapSense_Structure.c ****             CapSense_debounceVOL_UP,
 123:Generated_Source\PSoC4/CapSense_Structure.c ****             CapSense_VOL_UP_STATIC_CONFIG,
 124:Generated_Source\PSoC4/CapSense_Structure.c ****             CapSense_VOL_UP_NUM_SENSORS,
 125:Generated_Source\PSoC4/CapSense_Structure.c ****             (uint8)CapSense_WD_BUTTON_E,
 126:Generated_Source\PSoC4/CapSense_Structure.c ****             CapSense_VOL_UP_NUM_SENSORS,
 127:Generated_Source\PSoC4/CapSense_Structure.c ****         },
 128:Generated_Source\PSoC4/CapSense_Structure.c ****         { /* VOL_DOWN */
 129:Generated_Source\PSoC4/CapSense_Structure.c ****             &CapSense_ioList[1u],
 130:Generated_Source\PSoC4/CapSense_Structure.c ****             (void *)&CapSense_dsRam.wdgtList.vol_down,
 131:Generated_Source\PSoC4/CapSense_Structure.c ****             CapSense_dsRam.snsList.vol_down,
 132:Generated_Source\PSoC4/CapSense_Structure.c ****             (void *)CapSense_fltrHistoryVOL_DOWN,
 133:Generated_Source\PSoC4/CapSense_Structure.c ****             CapSense_debounceVOL_DOWN,
 134:Generated_Source\PSoC4/CapSense_Structure.c ****             CapSense_VOL_DOWN_STATIC_CONFIG,
 135:Generated_Source\PSoC4/CapSense_Structure.c ****             CapSense_VOL_DOWN_NUM_SENSORS,
 136:Generated_Source\PSoC4/CapSense_Structure.c ****             (uint8)CapSense_WD_BUTTON_E,
 137:Generated_Source\PSoC4/CapSense_Structure.c ****             CapSense_VOL_DOWN_NUM_SENSORS,
 138:Generated_Source\PSoC4/CapSense_Structure.c ****         },
 139:Generated_Source\PSoC4/CapSense_Structure.c ****         { /* PLAY_PAUSE */
 140:Generated_Source\PSoC4/CapSense_Structure.c ****             &CapSense_ioList[2u],
 141:Generated_Source\PSoC4/CapSense_Structure.c ****             (void *)&CapSense_dsRam.wdgtList.play_pause,
 142:Generated_Source\PSoC4/CapSense_Structure.c ****             CapSense_dsRam.snsList.play_pause,
 143:Generated_Source\PSoC4/CapSense_Structure.c ****             (void *)CapSense_fltrHistoryPLAY_PAUSE,
 144:Generated_Source\PSoC4/CapSense_Structure.c ****             CapSense_debouncePLAY_PAUSE,
 145:Generated_Source\PSoC4/CapSense_Structure.c ****             CapSense_PLAY_PAUSE_STATIC_CONFIG,
ARM GAS  C:\Users\zack.li\AppData\Local\Temp\ccXMkTut.s 			page 4


 146:Generated_Source\PSoC4/CapSense_Structure.c ****             CapSense_PLAY_PAUSE_NUM_SENSORS,
 147:Generated_Source\PSoC4/CapSense_Structure.c ****             (uint8)CapSense_WD_BUTTON_E,
 148:Generated_Source\PSoC4/CapSense_Structure.c ****             CapSense_PLAY_PAUSE_NUM_SENSORS,
 149:Generated_Source\PSoC4/CapSense_Structure.c ****         },
 150:Generated_Source\PSoC4/CapSense_Structure.c ****         { /* LIBERTY_PULL */
 151:Generated_Source\PSoC4/CapSense_Structure.c ****             &CapSense_ioList[3u],
 152:Generated_Source\PSoC4/CapSense_Structure.c ****             (void *)&CapSense_dsRam.wdgtList.liberty_pull,
 153:Generated_Source\PSoC4/CapSense_Structure.c ****             CapSense_dsRam.snsList.liberty_pull,
 154:Generated_Source\PSoC4/CapSense_Structure.c ****             (void *)CapSense_fltrHistoryLIBERTY_PULL,
 155:Generated_Source\PSoC4/CapSense_Structure.c ****             CapSense_debounceLIBERTY_PULL,
 156:Generated_Source\PSoC4/CapSense_Structure.c ****             CapSense_LIBERTY_PULL_STATIC_CONFIG,
 157:Generated_Source\PSoC4/CapSense_Structure.c ****             CapSense_LIBERTY_PULL_NUM_SENSORS,
 158:Generated_Source\PSoC4/CapSense_Structure.c ****             (uint8)CapSense_WD_BUTTON_E,
 159:Generated_Source\PSoC4/CapSense_Structure.c ****             CapSense_LIBERTY_PULL_NUM_SENSORS,
 160:Generated_Source\PSoC4/CapSense_Structure.c ****         },
 161:Generated_Source\PSoC4/CapSense_Structure.c ****         { /* FORMATION */
 162:Generated_Source\PSoC4/CapSense_Structure.c ****             &CapSense_ioList[4u],
 163:Generated_Source\PSoC4/CapSense_Structure.c ****             (void *)&CapSense_dsRam.wdgtList.formation,
 164:Generated_Source\PSoC4/CapSense_Structure.c ****             CapSense_dsRam.snsList.formation,
 165:Generated_Source\PSoC4/CapSense_Structure.c ****             (void *)CapSense_fltrHistoryFORMATION,
 166:Generated_Source\PSoC4/CapSense_Structure.c ****             CapSense_debounceFORMATION,
 167:Generated_Source\PSoC4/CapSense_Structure.c ****             CapSense_FORMATION_STATIC_CONFIG,
 168:Generated_Source\PSoC4/CapSense_Structure.c ****             CapSense_FORMATION_NUM_SENSORS,
 169:Generated_Source\PSoC4/CapSense_Structure.c ****             (uint8)CapSense_WD_BUTTON_E,
 170:Generated_Source\PSoC4/CapSense_Structure.c ****             CapSense_FORMATION_NUM_SENSORS,
 171:Generated_Source\PSoC4/CapSense_Structure.c ****         },
 172:Generated_Source\PSoC4/CapSense_Structure.c ****         { /* PROX */
 173:Generated_Source\PSoC4/CapSense_Structure.c ****             &CapSense_ioList[5u],
 174:Generated_Source\PSoC4/CapSense_Structure.c ****             (void *)&CapSense_dsRam.wdgtList.prox,
 175:Generated_Source\PSoC4/CapSense_Structure.c ****             CapSense_dsRam.snsList.prox,
 176:Generated_Source\PSoC4/CapSense_Structure.c ****             (void *)CapSense_fltrHistoryPROX,
 177:Generated_Source\PSoC4/CapSense_Structure.c ****             CapSense_debouncePROX,
 178:Generated_Source\PSoC4/CapSense_Structure.c ****             CapSense_PROX_STATIC_CONFIG,
 179:Generated_Source\PSoC4/CapSense_Structure.c ****             CapSense_PROX_NUM_SENSORS,
 180:Generated_Source\PSoC4/CapSense_Structure.c ****             (uint8)CapSense_WD_PROXIMITY_E,
 181:Generated_Source\PSoC4/CapSense_Structure.c ****             CapSense_PROX_NUM_SENSORS,
 182:Generated_Source\PSoC4/CapSense_Structure.c ****         },
 183:Generated_Source\PSoC4/CapSense_Structure.c ****     },
 184:Generated_Source\PSoC4/CapSense_Structure.c **** };
 185:Generated_Source\PSoC4/CapSense_Structure.c **** 
 186:Generated_Source\PSoC4/CapSense_Structure.c **** /**
 187:Generated_Source\PSoC4/CapSense_Structure.c **** * The array of the pointers to the electrode specific register.
 188:Generated_Source\PSoC4/CapSense_Structure.c **** */
 189:Generated_Source\PSoC4/CapSense_Structure.c **** const CapSense_FLASH_IO_STRUCT CapSense_ioList[CapSense_TOTAL_ELECTRODES] =
 190:Generated_Source\PSoC4/CapSense_Structure.c **** {
 191:Generated_Source\PSoC4/CapSense_Structure.c ****     { /* 0: VOL_UP_Sns0 */
 192:Generated_Source\PSoC4/CapSense_Structure.c ****         (reg32 *)CapSense_Sns__0__HSIOM,
 193:Generated_Source\PSoC4/CapSense_Structure.c ****         (reg32 *)CapSense_Sns__0__PC,
 194:Generated_Source\PSoC4/CapSense_Structure.c ****         (reg32 *)CapSense_Sns__0__DR,
 195:Generated_Source\PSoC4/CapSense_Structure.c ****         (reg32 *)CapSense_Sns__0__PS,
 196:Generated_Source\PSoC4/CapSense_Structure.c ****         CapSense_Sns__0__HSIOM_MASK,
 197:Generated_Source\PSoC4/CapSense_Structure.c ****         CapSense_Sns__0__MASK,
 198:Generated_Source\PSoC4/CapSense_Structure.c ****         CapSense_Sns__0__HSIOM_SHIFT,
 199:Generated_Source\PSoC4/CapSense_Structure.c ****         (uint8)CapSense_Sns__0__SHIFT,
 200:Generated_Source\PSoC4/CapSense_Structure.c ****         (uint8)CapSense_Sns__0__SHIFT * 3u,
 201:Generated_Source\PSoC4/CapSense_Structure.c ****     },
 202:Generated_Source\PSoC4/CapSense_Structure.c ****     { /* 1: VOL_DOWN_Sns0 */
ARM GAS  C:\Users\zack.li\AppData\Local\Temp\ccXMkTut.s 			page 5


 203:Generated_Source\PSoC4/CapSense_Structure.c ****         (reg32 *)CapSense_Sns__1__HSIOM,
 204:Generated_Source\PSoC4/CapSense_Structure.c ****         (reg32 *)CapSense_Sns__1__PC,
 205:Generated_Source\PSoC4/CapSense_Structure.c ****         (reg32 *)CapSense_Sns__1__DR,
 206:Generated_Source\PSoC4/CapSense_Structure.c ****         (reg32 *)CapSense_Sns__1__PS,
 207:Generated_Source\PSoC4/CapSense_Structure.c ****         CapSense_Sns__1__HSIOM_MASK,
 208:Generated_Source\PSoC4/CapSense_Structure.c ****         CapSense_Sns__1__MASK,
 209:Generated_Source\PSoC4/CapSense_Structure.c ****         CapSense_Sns__1__HSIOM_SHIFT,
 210:Generated_Source\PSoC4/CapSense_Structure.c ****         (uint8)CapSense_Sns__1__SHIFT,
 211:Generated_Source\PSoC4/CapSense_Structure.c ****         (uint8)CapSense_Sns__1__SHIFT * 3u,
 212:Generated_Source\PSoC4/CapSense_Structure.c ****     },
 213:Generated_Source\PSoC4/CapSense_Structure.c ****     { /* 2: PLAY_PAUSE_Sns0 */
 214:Generated_Source\PSoC4/CapSense_Structure.c ****         (reg32 *)CapSense_Sns__2__HSIOM,
 215:Generated_Source\PSoC4/CapSense_Structure.c ****         (reg32 *)CapSense_Sns__2__PC,
 216:Generated_Source\PSoC4/CapSense_Structure.c ****         (reg32 *)CapSense_Sns__2__DR,
 217:Generated_Source\PSoC4/CapSense_Structure.c ****         (reg32 *)CapSense_Sns__2__PS,
 218:Generated_Source\PSoC4/CapSense_Structure.c ****         CapSense_Sns__2__HSIOM_MASK,
 219:Generated_Source\PSoC4/CapSense_Structure.c ****         CapSense_Sns__2__MASK,
 220:Generated_Source\PSoC4/CapSense_Structure.c ****         CapSense_Sns__2__HSIOM_SHIFT,
 221:Generated_Source\PSoC4/CapSense_Structure.c ****         (uint8)CapSense_Sns__2__SHIFT,
 222:Generated_Source\PSoC4/CapSense_Structure.c ****         (uint8)CapSense_Sns__2__SHIFT * 3u,
 223:Generated_Source\PSoC4/CapSense_Structure.c ****     },
 224:Generated_Source\PSoC4/CapSense_Structure.c ****     { /* 3: LIBERTY_PULL_Sns0 */
 225:Generated_Source\PSoC4/CapSense_Structure.c ****         (reg32 *)CapSense_Sns__3__HSIOM,
 226:Generated_Source\PSoC4/CapSense_Structure.c ****         (reg32 *)CapSense_Sns__3__PC,
 227:Generated_Source\PSoC4/CapSense_Structure.c ****         (reg32 *)CapSense_Sns__3__DR,
 228:Generated_Source\PSoC4/CapSense_Structure.c ****         (reg32 *)CapSense_Sns__3__PS,
 229:Generated_Source\PSoC4/CapSense_Structure.c ****         CapSense_Sns__3__HSIOM_MASK,
 230:Generated_Source\PSoC4/CapSense_Structure.c ****         CapSense_Sns__3__MASK,
 231:Generated_Source\PSoC4/CapSense_Structure.c ****         CapSense_Sns__3__HSIOM_SHIFT,
 232:Generated_Source\PSoC4/CapSense_Structure.c ****         (uint8)CapSense_Sns__3__SHIFT,
 233:Generated_Source\PSoC4/CapSense_Structure.c ****         (uint8)CapSense_Sns__3__SHIFT * 3u,
 234:Generated_Source\PSoC4/CapSense_Structure.c ****     },
 235:Generated_Source\PSoC4/CapSense_Structure.c ****     { /* 4: FORMATION_Sns0 */
 236:Generated_Source\PSoC4/CapSense_Structure.c ****         (reg32 *)CapSense_Sns__4__HSIOM,
 237:Generated_Source\PSoC4/CapSense_Structure.c ****         (reg32 *)CapSense_Sns__4__PC,
 238:Generated_Source\PSoC4/CapSense_Structure.c ****         (reg32 *)CapSense_Sns__4__DR,
 239:Generated_Source\PSoC4/CapSense_Structure.c ****         (reg32 *)CapSense_Sns__4__PS,
 240:Generated_Source\PSoC4/CapSense_Structure.c ****         CapSense_Sns__4__HSIOM_MASK,
 241:Generated_Source\PSoC4/CapSense_Structure.c ****         CapSense_Sns__4__MASK,
 242:Generated_Source\PSoC4/CapSense_Structure.c ****         CapSense_Sns__4__HSIOM_SHIFT,
 243:Generated_Source\PSoC4/CapSense_Structure.c ****         (uint8)CapSense_Sns__4__SHIFT,
 244:Generated_Source\PSoC4/CapSense_Structure.c ****         (uint8)CapSense_Sns__4__SHIFT * 3u,
 245:Generated_Source\PSoC4/CapSense_Structure.c ****     },
 246:Generated_Source\PSoC4/CapSense_Structure.c ****     { /* 5: PROX_Sns0 */
 247:Generated_Source\PSoC4/CapSense_Structure.c ****         (reg32 *)CapSense_Sns__5__HSIOM,
 248:Generated_Source\PSoC4/CapSense_Structure.c ****         (reg32 *)CapSense_Sns__5__PC,
 249:Generated_Source\PSoC4/CapSense_Structure.c ****         (reg32 *)CapSense_Sns__5__DR,
 250:Generated_Source\PSoC4/CapSense_Structure.c ****         (reg32 *)CapSense_Sns__5__PS,
 251:Generated_Source\PSoC4/CapSense_Structure.c ****         CapSense_Sns__5__HSIOM_MASK,
 252:Generated_Source\PSoC4/CapSense_Structure.c ****         CapSense_Sns__5__MASK,
 253:Generated_Source\PSoC4/CapSense_Structure.c ****         CapSense_Sns__5__HSIOM_SHIFT,
 254:Generated_Source\PSoC4/CapSense_Structure.c ****         (uint8)CapSense_Sns__5__SHIFT,
 255:Generated_Source\PSoC4/CapSense_Structure.c ****         (uint8)CapSense_Sns__5__SHIFT * 3u,
 256:Generated_Source\PSoC4/CapSense_Structure.c ****     },
 257:Generated_Source\PSoC4/CapSense_Structure.c **** };
 258:Generated_Source\PSoC4/CapSense_Structure.c **** 
 259:Generated_Source\PSoC4/CapSense_Structure.c **** /**
ARM GAS  C:\Users\zack.li\AppData\Local\Temp\ccXMkTut.s 			page 6


 260:Generated_Source\PSoC4/CapSense_Structure.c ****  *  The array of the pointers to the shield electrode specific register.
 261:Generated_Source\PSoC4/CapSense_Structure.c ****  */
 262:Generated_Source\PSoC4/CapSense_Structure.c **** const CapSense_SHIELD_IO_STRUCT CapSense_shieldIoList[CapSense_CSD_TOTAL_SHIELD_COUNT] =
 263:Generated_Source\PSoC4/CapSense_Structure.c **** {
 264:Generated_Source\PSoC4/CapSense_Structure.c ****     {
 265:Generated_Source\PSoC4/CapSense_Structure.c ****         (reg32 *)CapSense_Shield__0__HSIOM,
 266:Generated_Source\PSoC4/CapSense_Structure.c ****         (reg32 *)CapSense_Shield__0__PC,
 267:Generated_Source\PSoC4/CapSense_Structure.c ****         (reg32 *)CapSense_Shield__0__DR,
 268:Generated_Source\PSoC4/CapSense_Structure.c ****         CapSense_Shield__0__HSIOM_MASK,
 269:Generated_Source\PSoC4/CapSense_Structure.c ****         CapSense_Shield__0__HSIOM_SHIFT,
 270:Generated_Source\PSoC4/CapSense_Structure.c ****         (uint8)CapSense_Shield__0__SHIFT,
 271:Generated_Source\PSoC4/CapSense_Structure.c ****         (uint8)CapSense_Shield__0__SHIFT * 3u,
 272:Generated_Source\PSoC4/CapSense_Structure.c ****     },
 273:Generated_Source\PSoC4/CapSense_Structure.c **** };
 274:Generated_Source\PSoC4/CapSense_Structure.c **** 
 275:Generated_Source\PSoC4/CapSense_Structure.c **** 
 276:Generated_Source\PSoC4/CapSense_Structure.c **** /** \}
 277:Generated_Source\PSoC4/CapSense_Structure.c **** * \endcond */
 278:Generated_Source\PSoC4/CapSense_Structure.c **** 
 279:Generated_Source\PSoC4/CapSense_Structure.c **** /* Initialization data for RAM widget list */
 280:Generated_Source\PSoC4/CapSense_Structure.c **** const CapSense_RAM_WD_LIST_STRUCT CapSense_ramWidgetInit =
 281:Generated_Source\PSoC4/CapSense_Structure.c **** {
 282:Generated_Source\PSoC4/CapSense_Structure.c ****     { /* VOL_UP */
 283:Generated_Source\PSoC4/CapSense_Structure.c ****         CapSense_VOL_UP_RESOLUTION,
 284:Generated_Source\PSoC4/CapSense_Structure.c ****         CapSense_VOL_UP_FINGER_TH,
 285:Generated_Source\PSoC4/CapSense_Structure.c ****         CapSense_VOL_UP_NOISE_TH,
 286:Generated_Source\PSoC4/CapSense_Structure.c ****         CapSense_VOL_UP_NNOISE_TH,
 287:Generated_Source\PSoC4/CapSense_Structure.c ****         CapSense_VOL_UP_HYSTERESIS,
 288:Generated_Source\PSoC4/CapSense_Structure.c ****         CapSense_VOL_UP_ON_DEBOUNCE,
 289:Generated_Source\PSoC4/CapSense_Structure.c ****         CapSense_VOL_UP_LOW_BSLN_RST,
 290:Generated_Source\PSoC4/CapSense_Structure.c ****         {
 291:Generated_Source\PSoC4/CapSense_Structure.c ****             CapSense_VOL_UP_IDAC_MOD0,
 292:Generated_Source\PSoC4/CapSense_Structure.c ****         },
 293:Generated_Source\PSoC4/CapSense_Structure.c ****         CapSense_VOL_UP_IDAC_GAIN_INDEX,
 294:Generated_Source\PSoC4/CapSense_Structure.c ****         CapSense_VOL_UP_SNS_CLK,
 295:Generated_Source\PSoC4/CapSense_Structure.c ****         CapSense_VOL_UP_SNS_CLK_SOURCE,
 296:Generated_Source\PSoC4/CapSense_Structure.c ****     },
 297:Generated_Source\PSoC4/CapSense_Structure.c ****     { /* VOL_DOWN */
 298:Generated_Source\PSoC4/CapSense_Structure.c ****         CapSense_VOL_DOWN_RESOLUTION,
 299:Generated_Source\PSoC4/CapSense_Structure.c ****         CapSense_VOL_DOWN_FINGER_TH,
 300:Generated_Source\PSoC4/CapSense_Structure.c ****         CapSense_VOL_DOWN_NOISE_TH,
 301:Generated_Source\PSoC4/CapSense_Structure.c ****         CapSense_VOL_DOWN_NNOISE_TH,
 302:Generated_Source\PSoC4/CapSense_Structure.c ****         CapSense_VOL_DOWN_HYSTERESIS,
 303:Generated_Source\PSoC4/CapSense_Structure.c ****         CapSense_VOL_DOWN_ON_DEBOUNCE,
 304:Generated_Source\PSoC4/CapSense_Structure.c ****         CapSense_VOL_DOWN_LOW_BSLN_RST,
 305:Generated_Source\PSoC4/CapSense_Structure.c ****         {
 306:Generated_Source\PSoC4/CapSense_Structure.c ****             CapSense_VOL_DOWN_IDAC_MOD0,
 307:Generated_Source\PSoC4/CapSense_Structure.c ****         },
 308:Generated_Source\PSoC4/CapSense_Structure.c ****         CapSense_VOL_DOWN_IDAC_GAIN_INDEX,
 309:Generated_Source\PSoC4/CapSense_Structure.c ****         CapSense_VOL_DOWN_SNS_CLK,
 310:Generated_Source\PSoC4/CapSense_Structure.c ****         CapSense_VOL_DOWN_SNS_CLK_SOURCE,
 311:Generated_Source\PSoC4/CapSense_Structure.c ****     },
 312:Generated_Source\PSoC4/CapSense_Structure.c ****     { /* PLAY_PAUSE */
 313:Generated_Source\PSoC4/CapSense_Structure.c ****         CapSense_PLAY_PAUSE_RESOLUTION,
 314:Generated_Source\PSoC4/CapSense_Structure.c ****         CapSense_PLAY_PAUSE_FINGER_TH,
 315:Generated_Source\PSoC4/CapSense_Structure.c ****         CapSense_PLAY_PAUSE_NOISE_TH,
 316:Generated_Source\PSoC4/CapSense_Structure.c ****         CapSense_PLAY_PAUSE_NNOISE_TH,
ARM GAS  C:\Users\zack.li\AppData\Local\Temp\ccXMkTut.s 			page 7


 317:Generated_Source\PSoC4/CapSense_Structure.c ****         CapSense_PLAY_PAUSE_HYSTERESIS,
 318:Generated_Source\PSoC4/CapSense_Structure.c ****         CapSense_PLAY_PAUSE_ON_DEBOUNCE,
 319:Generated_Source\PSoC4/CapSense_Structure.c ****         CapSense_PLAY_PAUSE_LOW_BSLN_RST,
 320:Generated_Source\PSoC4/CapSense_Structure.c ****         {
 321:Generated_Source\PSoC4/CapSense_Structure.c ****             CapSense_PLAY_PAUSE_IDAC_MOD0,
 322:Generated_Source\PSoC4/CapSense_Structure.c ****         },
 323:Generated_Source\PSoC4/CapSense_Structure.c ****         CapSense_PLAY_PAUSE_IDAC_GAIN_INDEX,
 324:Generated_Source\PSoC4/CapSense_Structure.c ****         CapSense_PLAY_PAUSE_SNS_CLK,
 325:Generated_Source\PSoC4/CapSense_Structure.c ****         CapSense_PLAY_PAUSE_SNS_CLK_SOURCE,
 326:Generated_Source\PSoC4/CapSense_Structure.c ****     },
 327:Generated_Source\PSoC4/CapSense_Structure.c ****     { /* LIBERTY_PULL */
 328:Generated_Source\PSoC4/CapSense_Structure.c ****         CapSense_LIBERTY_PULL_RESOLUTION,
 329:Generated_Source\PSoC4/CapSense_Structure.c ****         CapSense_LIBERTY_PULL_FINGER_TH,
 330:Generated_Source\PSoC4/CapSense_Structure.c ****         CapSense_LIBERTY_PULL_NOISE_TH,
 331:Generated_Source\PSoC4/CapSense_Structure.c ****         CapSense_LIBERTY_PULL_NNOISE_TH,
 332:Generated_Source\PSoC4/CapSense_Structure.c ****         CapSense_LIBERTY_PULL_HYSTERESIS,
 333:Generated_Source\PSoC4/CapSense_Structure.c ****         CapSense_LIBERTY_PULL_ON_DEBOUNCE,
 334:Generated_Source\PSoC4/CapSense_Structure.c ****         CapSense_LIBERTY_PULL_LOW_BSLN_RST,
 335:Generated_Source\PSoC4/CapSense_Structure.c ****         {
 336:Generated_Source\PSoC4/CapSense_Structure.c ****             CapSense_LIBERTY_PULL_IDAC_MOD0,
 337:Generated_Source\PSoC4/CapSense_Structure.c ****         },
 338:Generated_Source\PSoC4/CapSense_Structure.c ****         CapSense_LIBERTY_PULL_IDAC_GAIN_INDEX,
 339:Generated_Source\PSoC4/CapSense_Structure.c ****         CapSense_LIBERTY_PULL_SNS_CLK,
 340:Generated_Source\PSoC4/CapSense_Structure.c ****         CapSense_LIBERTY_PULL_SNS_CLK_SOURCE,
 341:Generated_Source\PSoC4/CapSense_Structure.c ****     },
 342:Generated_Source\PSoC4/CapSense_Structure.c ****     { /* FORMATION */
 343:Generated_Source\PSoC4/CapSense_Structure.c ****         CapSense_FORMATION_RESOLUTION,
 344:Generated_Source\PSoC4/CapSense_Structure.c ****         CapSense_FORMATION_FINGER_TH,
 345:Generated_Source\PSoC4/CapSense_Structure.c ****         CapSense_FORMATION_NOISE_TH,
 346:Generated_Source\PSoC4/CapSense_Structure.c ****         CapSense_FORMATION_NNOISE_TH,
 347:Generated_Source\PSoC4/CapSense_Structure.c ****         CapSense_FORMATION_HYSTERESIS,
 348:Generated_Source\PSoC4/CapSense_Structure.c ****         CapSense_FORMATION_ON_DEBOUNCE,
 349:Generated_Source\PSoC4/CapSense_Structure.c ****         CapSense_FORMATION_LOW_BSLN_RST,
 350:Generated_Source\PSoC4/CapSense_Structure.c ****         {
 351:Generated_Source\PSoC4/CapSense_Structure.c ****             CapSense_FORMATION_IDAC_MOD0,
 352:Generated_Source\PSoC4/CapSense_Structure.c ****         },
 353:Generated_Source\PSoC4/CapSense_Structure.c ****         CapSense_FORMATION_IDAC_GAIN_INDEX,
 354:Generated_Source\PSoC4/CapSense_Structure.c ****         CapSense_FORMATION_SNS_CLK,
 355:Generated_Source\PSoC4/CapSense_Structure.c ****         CapSense_FORMATION_SNS_CLK_SOURCE,
 356:Generated_Source\PSoC4/CapSense_Structure.c ****     },
 357:Generated_Source\PSoC4/CapSense_Structure.c ****     { /* PROX */
 358:Generated_Source\PSoC4/CapSense_Structure.c ****         CapSense_PROX_RESOLUTION,
 359:Generated_Source\PSoC4/CapSense_Structure.c ****         CapSense_PROX_FINGER_TH,
 360:Generated_Source\PSoC4/CapSense_Structure.c ****         CapSense_PROX_NOISE_TH,
 361:Generated_Source\PSoC4/CapSense_Structure.c ****         CapSense_PROX_NNOISE_TH,
 362:Generated_Source\PSoC4/CapSense_Structure.c ****         CapSense_PROX_HYSTERESIS,
 363:Generated_Source\PSoC4/CapSense_Structure.c ****         CapSense_PROX_ON_DEBOUNCE,
 364:Generated_Source\PSoC4/CapSense_Structure.c ****         CapSense_PROX_LOW_BSLN_RST,
 365:Generated_Source\PSoC4/CapSense_Structure.c ****         {
 366:Generated_Source\PSoC4/CapSense_Structure.c ****             CapSense_PROX_IDAC_MOD0,
 367:Generated_Source\PSoC4/CapSense_Structure.c ****         },
 368:Generated_Source\PSoC4/CapSense_Structure.c ****         CapSense_PROX_IDAC_GAIN_INDEX,
 369:Generated_Source\PSoC4/CapSense_Structure.c ****         CapSense_PROX_SNS_CLK,
 370:Generated_Source\PSoC4/CapSense_Structure.c ****         CapSense_PROX_SNS_CLK_SOURCE,
 371:Generated_Source\PSoC4/CapSense_Structure.c ****         CapSense_PROX_PROX_TOUCH_TH,
 372:Generated_Source\PSoC4/CapSense_Structure.c ****     },
 373:Generated_Source\PSoC4/CapSense_Structure.c **** };
ARM GAS  C:\Users\zack.li\AppData\Local\Temp\ccXMkTut.s 			page 8


 374:Generated_Source\PSoC4/CapSense_Structure.c **** 
 375:Generated_Source\PSoC4/CapSense_Structure.c **** 
 376:Generated_Source\PSoC4/CapSense_Structure.c **** /* IDAC Initialization Data */
 377:Generated_Source\PSoC4/CapSense_Structure.c **** const uint8 CapSense_ramIdacInit[CapSense_TOTAL_SENSORS] =
 378:Generated_Source\PSoC4/CapSense_Structure.c **** {
 379:Generated_Source\PSoC4/CapSense_Structure.c ****     /* VOL_UP */
 380:Generated_Source\PSoC4/CapSense_Structure.c ****     CapSense_VOL_UP_SNS0_IDAC_COMP0,
 381:Generated_Source\PSoC4/CapSense_Structure.c **** 
 382:Generated_Source\PSoC4/CapSense_Structure.c ****     /* VOL_DOWN */
 383:Generated_Source\PSoC4/CapSense_Structure.c ****     CapSense_VOL_DOWN_SNS0_IDAC_COMP0,
 384:Generated_Source\PSoC4/CapSense_Structure.c **** 
 385:Generated_Source\PSoC4/CapSense_Structure.c ****     /* PLAY_PAUSE */
 386:Generated_Source\PSoC4/CapSense_Structure.c ****     CapSense_PLAY_PAUSE_SNS0_IDAC_COMP0,
 387:Generated_Source\PSoC4/CapSense_Structure.c **** 
 388:Generated_Source\PSoC4/CapSense_Structure.c ****     /* LIBERTY_PULL */
 389:Generated_Source\PSoC4/CapSense_Structure.c ****     CapSense_LIBERTY_PULL_SNS0_IDAC_COMP0,
 390:Generated_Source\PSoC4/CapSense_Structure.c **** 
 391:Generated_Source\PSoC4/CapSense_Structure.c ****     /* FORMATION */
 392:Generated_Source\PSoC4/CapSense_Structure.c ****     CapSense_FORMATION_SNS0_IDAC_COMP0,
 393:Generated_Source\PSoC4/CapSense_Structure.c **** 
 394:Generated_Source\PSoC4/CapSense_Structure.c ****     /* PROX */
 395:Generated_Source\PSoC4/CapSense_Structure.c ****     CapSense_PROX_SNS0_IDAC_COMP0,
 396:Generated_Source\PSoC4/CapSense_Structure.c **** };
 397:Generated_Source\PSoC4/CapSense_Structure.c **** 
 398:Generated_Source\PSoC4/CapSense_Structure.c **** 
 399:Generated_Source\PSoC4/CapSense_Structure.c **** 
 400:Generated_Source\PSoC4/CapSense_Structure.c **** 
 401:Generated_Source\PSoC4/CapSense_Structure.c **** 
 402:Generated_Source\PSoC4/CapSense_Structure.c **** /*******************************************************************************
 403:Generated_Source\PSoC4/CapSense_Structure.c **** * Defines internal data types and statements
 404:Generated_Source\PSoC4/CapSense_Structure.c **** *******************************************************************************/
 405:Generated_Source\PSoC4/CapSense_Structure.c **** #define PARAM_TYPE_OFFSET       (30u)
 406:Generated_Source\PSoC4/CapSense_Structure.c **** #define PARAM_TYPE_MASK         (3Lu << PARAM_TYPE_OFFSET)
 407:Generated_Source\PSoC4/CapSense_Structure.c **** #define PARAM_RWBIT_OFFSET      (29u)
 408:Generated_Source\PSoC4/CapSense_Structure.c **** #define PARAM_RWBIT_MASK        (1Lu << PARAM_RWBIT_OFFSET)
 409:Generated_Source\PSoC4/CapSense_Structure.c **** #define PARAM_FBIT_OFFSET       (28u)
 410:Generated_Source\PSoC4/CapSense_Structure.c **** #define PARAM_FBIT_MASK         (1Lu << PARAM_FBIT_OFFSET)
 411:Generated_Source\PSoC4/CapSense_Structure.c **** #define PARAM_UBIT_OFFSET       (23u)
 412:Generated_Source\PSoC4/CapSense_Structure.c **** #define PARAM_UBIT_MASK         (1Lu << PARAM_UBIT_OFFSET)
 413:Generated_Source\PSoC4/CapSense_Structure.c **** #define PARAM_WDID_OFFSET       (16u)
 414:Generated_Source\PSoC4/CapSense_Structure.c **** #define PARAM_WDID_MASK         (0x7FLu << PARAM_WDID_OFFSET)
 415:Generated_Source\PSoC4/CapSense_Structure.c **** #define PARAM_CRC_OFFSET        (24u)
 416:Generated_Source\PSoC4/CapSense_Structure.c **** #define PARAM_CRC_MASK          (0x0FLu << PARAM_CRC_OFFSET)
 417:Generated_Source\PSoC4/CapSense_Structure.c **** 
 418:Generated_Source\PSoC4/CapSense_Structure.c **** /* Defines align masks for uint16 and uint32 */
 419:Generated_Source\PSoC4/CapSense_Structure.c **** #define UINT16_ALIGN_MASK       (1Lu)
 420:Generated_Source\PSoC4/CapSense_Structure.c **** #define UINT32_ALIGN_MASK       (3Lu)
 421:Generated_Source\PSoC4/CapSense_Structure.c **** 
 422:Generated_Source\PSoC4/CapSense_Structure.c **** /* Defines supported parameter types */
 423:Generated_Source\PSoC4/CapSense_Structure.c **** #define DS_PARAM_TYPE_UINT8     (0x01u)
 424:Generated_Source\PSoC4/CapSense_Structure.c **** #define DS_PARAM_TYPE_UINT16    (0x02u)
 425:Generated_Source\PSoC4/CapSense_Structure.c **** #define DS_PARAM_TYPE_UINT32    (0x03u)
 426:Generated_Source\PSoC4/CapSense_Structure.c **** 
 427:Generated_Source\PSoC4/CapSense_Structure.c **** 
 428:Generated_Source\PSoC4/CapSense_Structure.c **** /* Defines PARAM_ID structure */
 429:Generated_Source\PSoC4/CapSense_Structure.c **** typedef struct
 430:Generated_Source\PSoC4/CapSense_Structure.c **** {
ARM GAS  C:\Users\zack.li\AppData\Local\Temp\ccXMkTut.s 			page 9


 431:Generated_Source\PSoC4/CapSense_Structure.c ****     uint16 offset;      /* parameter offset */
 432:Generated_Source\PSoC4/CapSense_Structure.c ****     uint8  widgetId;    /* widget Id parameter belongs to */
 433:Generated_Source\PSoC4/CapSense_Structure.c ****     uint8  affectsCrc;  /* parameter affects widget CRC */
 434:Generated_Source\PSoC4/CapSense_Structure.c ****     uint8  crc;         /* parameter CRC */
 435:Generated_Source\PSoC4/CapSense_Structure.c ****     uint8  flash;       /* parameter located in FLASH flag */
 436:Generated_Source\PSoC4/CapSense_Structure.c ****     uint8  rw;          /* parameter is read/write flag */
 437:Generated_Source\PSoC4/CapSense_Structure.c ****     uint8  type;        /* parameter type: uint8/uint16/uint32 */
 438:Generated_Source\PSoC4/CapSense_Structure.c **** } PARAM_ID_STRUCT;
 439:Generated_Source\PSoC4/CapSense_Structure.c **** 
 440:Generated_Source\PSoC4/CapSense_Structure.c **** 
 441:Generated_Source\PSoC4/CapSense_Structure.c **** /*******************************************************************************
 442:Generated_Source\PSoC4/CapSense_Structure.c **** * Static Function Prototypes
 443:Generated_Source\PSoC4/CapSense_Structure.c **** *******************************************************************************/
 444:Generated_Source\PSoC4/CapSense_Structure.c **** /**
 445:Generated_Source\PSoC4/CapSense_Structure.c **** * \cond SECTION_C_INTERNAL
 446:Generated_Source\PSoC4/CapSense_Structure.c **** * \addtogroup group_c_internal
 447:Generated_Source\PSoC4/CapSense_Structure.c **** * \{
 448:Generated_Source\PSoC4/CapSense_Structure.c **** */
 449:Generated_Source\PSoC4/CapSense_Structure.c **** 
 450:Generated_Source\PSoC4/CapSense_Structure.c **** 
 451:Generated_Source\PSoC4/CapSense_Structure.c **** 
 452:Generated_Source\PSoC4/CapSense_Structure.c **** static cystatus DsParseParamId(uint32 paramId, PARAM_ID_STRUCT *pData);
 453:Generated_Source\PSoC4/CapSense_Structure.c **** 
 454:Generated_Source\PSoC4/CapSense_Structure.c **** /** \}
 455:Generated_Source\PSoC4/CapSense_Structure.c **** * \endcond */
 456:Generated_Source\PSoC4/CapSense_Structure.c **** 
 457:Generated_Source\PSoC4/CapSense_Structure.c **** 
 458:Generated_Source\PSoC4/CapSense_Structure.c **** /*******************************************************************************
 459:Generated_Source\PSoC4/CapSense_Structure.c **** * Function Name: CapSense_DsInitialize
 460:Generated_Source\PSoC4/CapSense_Structure.c **** ****************************************************************************//**
 461:Generated_Source\PSoC4/CapSense_Structure.c **** *
 462:Generated_Source\PSoC4/CapSense_Structure.c **** * \brief
 463:Generated_Source\PSoC4/CapSense_Structure.c **** *   This function initializes the Data Structure storage.
 464:Generated_Source\PSoC4/CapSense_Structure.c **** *
 465:Generated_Source\PSoC4/CapSense_Structure.c **** * \details
 466:Generated_Source\PSoC4/CapSense_Structure.c **** *   This function copies the default widget configuration parameters
 467:Generated_Source\PSoC4/CapSense_Structure.c **** *   from the Flash storage into the RAM Data Structure.
 468:Generated_Source\PSoC4/CapSense_Structure.c **** *
 469:Generated_Source\PSoC4/CapSense_Structure.c **** *******************************************************************************/
 470:Generated_Source\PSoC4/CapSense_Structure.c **** void CapSense_DsInitialize(void)
 471:Generated_Source\PSoC4/CapSense_Structure.c **** {
 472:Generated_Source\PSoC4/CapSense_Structure.c ****     #if ((CapSense_ENABLE == CapSense_CSX_EN) || \
 473:Generated_Source\PSoC4/CapSense_Structure.c ****          (CapSense_ENABLE == CapSense_CSD_IDAC_COMP_EN) || \
 474:Generated_Source\PSoC4/CapSense_Structure.c ****         ((CapSense_ENABLE == CapSense_CSX_EN) && \
 475:Generated_Source\PSoC4/CapSense_Structure.c ****          (CapSense_ENABLE == CapSense_CSX_SKIP_OVSMPL_SPECIFIC_NODES)))
 476:Generated_Source\PSoC4/CapSense_Structure.c ****         uint32 snsId;
 477:Generated_Source\PSoC4/CapSense_Structure.c ****         uint32 wdgtId;
 478:Generated_Source\PSoC4/CapSense_Structure.c ****         CapSense_RAM_SNS_STRUCT * ptrSnsTmp;
 479:Generated_Source\PSoC4/CapSense_Structure.c ****         CapSense_FLASH_WD_STRUCT const * ptrFlashWdgt;
 480:Generated_Source\PSoC4/CapSense_Structure.c ****     #endif
 481:Generated_Source\PSoC4/CapSense_Structure.c **** 
 482:Generated_Source\PSoC4/CapSense_Structure.c ****     #if ((CapSense_ENABLE == CapSense_CSX_EN) && \
 483:Generated_Source\PSoC4/CapSense_Structure.c ****          (CapSense_ENABLE == CapSense_CSX_SKIP_OVSMPL_SPECIFIC_NODES))
 484:Generated_Source\PSoC4/CapSense_Structure.c ****         uint16 subConvNumber;
 485:Generated_Source\PSoC4/CapSense_Structure.c ****     #endif
 486:Generated_Source\PSoC4/CapSense_Structure.c **** 
 487:Generated_Source\PSoC4/CapSense_Structure.c ****     #if ((0u != CapSense_CSX_EN) || (0 != CapSense_CSD_IDAC_COMP_EN))
ARM GAS  C:\Users\zack.li\AppData\Local\Temp\ccXMkTut.s 			page 10


 488:Generated_Source\PSoC4/CapSense_Structure.c ****         uint8 const * ptrIdacInit = CapSense_ramIdacInit;
 489:Generated_Source\PSoC4/CapSense_Structure.c ****     #endif
 490:Generated_Source\PSoC4/CapSense_Structure.c **** 
 491:Generated_Source\PSoC4/CapSense_Structure.c ****     /* Reset RAM data structure content */
 492:Generated_Source\PSoC4/CapSense_Structure.c ****     (void)memset(&CapSense_dsRam, 0, sizeof(CapSense_dsRam));
 493:Generated_Source\PSoC4/CapSense_Structure.c **** 
 494:Generated_Source\PSoC4/CapSense_Structure.c ****     /* Initialize configId, deviceId and hwClock registers */
 495:Generated_Source\PSoC4/CapSense_Structure.c ****     CapSense_dsRam.configId = CapSense_CONFIG_ID;
 496:Generated_Source\PSoC4/CapSense_Structure.c ****     CapSense_dsRam.deviceId = CapSense_DEVICE_ID;
 497:Generated_Source\PSoC4/CapSense_Structure.c ****     CapSense_dsRam.hwClock = CapSense_HW_CLOCK;
 498:Generated_Source\PSoC4/CapSense_Structure.c **** 
 499:Generated_Source\PSoC4/CapSense_Structure.c ****     /* Initialize global RAM data */
 500:Generated_Source\PSoC4/CapSense_Structure.c ****     CapSense_dsRam.csd0Config = CapSense_CSD0_CONFIG;
 501:Generated_Source\PSoC4/CapSense_Structure.c **** 
 502:Generated_Source\PSoC4/CapSense_Structure.c ****     CapSense_dsRam.scanCurrentISC = CapSense_SNS_CONNECTION_UNDEFINED;
 503:Generated_Source\PSoC4/CapSense_Structure.c ****     #if (0u != CapSense_TOTAL_CSD_WIDGETS)
 504:Generated_Source\PSoC4/CapSense_Structure.c ****         CapSense_dsRam.modCsdClk = CapSense_CSD_SCANSPEED_DIVIDER;
 505:Generated_Source\PSoC4/CapSense_Structure.c ****         CapSense_dsRam.scanCsdISC = CapSense_CSD_INACTIVE_SNS_CONNECTION;
 506:Generated_Source\PSoC4/CapSense_Structure.c **** 
 507:Generated_Source\PSoC4/CapSense_Structure.c ****         #if (0u != CapSense_CSD_COMMON_SNS_CLK_EN)
 508:Generated_Source\PSoC4/CapSense_Structure.c ****             CapSense_dsRam.snsCsdClk = CapSense_CSD_SNS_CLK_DIVIDER;
 509:Generated_Source\PSoC4/CapSense_Structure.c ****         #endif /* #if (0u != CapSense_CSD_COMMON_SNS_CLK_EN) */
 510:Generated_Source\PSoC4/CapSense_Structure.c ****     #endif /* #if (0u != CapSense_TOTAL_CSD_WIDGETS) */
 511:Generated_Source\PSoC4/CapSense_Structure.c **** 
 512:Generated_Source\PSoC4/CapSense_Structure.c ****     #if (CapSense_ENABLE == CapSense_CSX_EN)
 513:Generated_Source\PSoC4/CapSense_Structure.c ****         CapSense_dsRam.modCsxClk = CapSense_CSX_SCANSPEED_DIVIDER;
 514:Generated_Source\PSoC4/CapSense_Structure.c ****         CapSense_dsRam.scanCsxISC = CapSense_CSX_INACTIVE_SNS_CONNECTION;
 515:Generated_Source\PSoC4/CapSense_Structure.c **** 
 516:Generated_Source\PSoC4/CapSense_Structure.c ****         #if (0u != CapSense_CSX_COMMON_TX_CLK_EN)
 517:Generated_Source\PSoC4/CapSense_Structure.c ****             CapSense_dsRam.snsCsxClk = CapSense_CSX_TX_CLK_DIVIDER;
 518:Generated_Source\PSoC4/CapSense_Structure.c ****         #endif /* #if (0u != CapSense_CSX_COMMON_TX_CLK_EN) */
 519:Generated_Source\PSoC4/CapSense_Structure.c ****     #endif /* #if (CapSense_ENABLE == CapSense_CSX_EN) */
 520:Generated_Source\PSoC4/CapSense_Structure.c **** 
 521:Generated_Source\PSoC4/CapSense_Structure.c ****     #if (CapSense_ENABLE == CapSense_ISX_EN)
 522:Generated_Source\PSoC4/CapSense_Structure.c ****         CapSense_dsRam.modIsxClk = CapSense_ISX_SCANSPEED_DIVIDER;
 523:Generated_Source\PSoC4/CapSense_Structure.c ****     #endif /* #if (0u != CapSense_ISX_EN) */
 524:Generated_Source\PSoC4/CapSense_Structure.c **** 
 525:Generated_Source\PSoC4/CapSense_Structure.c ****     #if (0u != CapSense_SELF_TEST_EN)
 526:Generated_Source\PSoC4/CapSense_Structure.c **** 
 527:Generated_Source\PSoC4/CapSense_Structure.c ****         CapSense_dsRam.glbCrc = CapSense_GLB_CRC;
 528:Generated_Source\PSoC4/CapSense_Structure.c ****         CapSense_dsRam.selfTestConfig.fineInitTime = (uint8)CapSense_TST_FINE_INIT_TIME;
 529:Generated_Source\PSoC4/CapSense_Structure.c ****         CapSense_dsRam.selfTestConfig.startupDelay = CapSense_TST_ANALOG_STARTUP_DELAY_US;
 530:Generated_Source\PSoC4/CapSense_Structure.c **** 
 531:Generated_Source\PSoC4/CapSense_Structure.c ****         #if (0u != CapSense_TST_SNS_SHORT_EN)
 532:Generated_Source\PSoC4/CapSense_Structure.c ****             CapSense_dsRam.selfTestConfig.snsShortTimeUs = CapSense_TST_SNS_SHORT_TIME;
 533:Generated_Source\PSoC4/CapSense_Structure.c ****         #endif
 534:Generated_Source\PSoC4/CapSense_Structure.c **** 
 535:Generated_Source\PSoC4/CapSense_Structure.c ****         #if ((0u != CapSense_TST_SNS_CAP_EN) ||\
 536:Generated_Source\PSoC4/CapSense_Structure.c ****              (0u != CapSense_TST_SH_CAP_EN))
 537:Generated_Source\PSoC4/CapSense_Structure.c ****             CapSense_dsRam.selfTestConfig.snsCapSnsClkDivider = CapSense_TST_SNS_CAP_SNS_CLK_DIVIDE
 538:Generated_Source\PSoC4/CapSense_Structure.c ****             CapSense_dsRam.selfTestConfig.snsCapSnsClkHz = CapSense_TST_SNS_CAP_SNS_CLK_HZ;
 539:Generated_Source\PSoC4/CapSense_Structure.c ****             CapSense_dsRam.selfTestConfig.snsCapResolution = CapSense_TST_SNS_CAP_RESOLUTION;
 540:Generated_Source\PSoC4/CapSense_Structure.c ****             CapSense_dsRam.selfTestConfig.snsCapVrefGain = CapSense_TST_SNS_CAP_VREF_GAIN ;
 541:Generated_Source\PSoC4/CapSense_Structure.c ****             CapSense_dsRam.selfTestConfig.snsCapVrefVoltage = CapSense_TST_SNS_CAP_VREF_MV;
 542:Generated_Source\PSoC4/CapSense_Structure.c ****             CapSense_dsRam.selfTestConfig.snsCapModClkDivider = CapSense_TST_MOD_CLK_DIVIDER ;
 543:Generated_Source\PSoC4/CapSense_Structure.c ****             CapSense_dsRam.selfTestConfig.snsCapModClkKHz = CapSense_TST_MOD_CLK_KHZ ;
 544:Generated_Source\PSoC4/CapSense_Structure.c ****         #endif /* ((0u != CapSense_TST_SNS_CAP_EN) ||
ARM GAS  C:\Users\zack.li\AppData\Local\Temp\ccXMkTut.s 			page 11


 545:Generated_Source\PSoC4/CapSense_Structure.c ****                    (0u != CapSense_TST_SH_CAP_EN)) */
 546:Generated_Source\PSoC4/CapSense_Structure.c **** 
 547:Generated_Source\PSoC4/CapSense_Structure.c ****         #if (0u != CapSense_TST_SNS_CAP_EN)
 548:Generated_Source\PSoC4/CapSense_Structure.c ****             #if (0u != CapSense_CSD_EN)
 549:Generated_Source\PSoC4/CapSense_Structure.c ****                 CapSense_dsRam.selfTestConfig.bistCsdSnsCapISC = CapSense_SNS_CAP_CSD_INACTIVE_CONN
 550:Generated_Source\PSoC4/CapSense_Structure.c ****             #endif /* (0u != CapSense_CSD_EN) */
 551:Generated_Source\PSoC4/CapSense_Structure.c ****             #if (0u != CapSense_CSX_EN)
 552:Generated_Source\PSoC4/CapSense_Structure.c ****                 CapSense_dsRam.selfTestConfig.bistCsxSnsCapISC = CapSense_SNS_CAP_CSX_INACTIVE_CONN
 553:Generated_Source\PSoC4/CapSense_Structure.c ****             #endif /* (0u != CapSense_CSX_EN) */
 554:Generated_Source\PSoC4/CapSense_Structure.c ****         #endif /* (0u != CapSense_TST_SNS_CAP_EN) */
 555:Generated_Source\PSoC4/CapSense_Structure.c **** 
 556:Generated_Source\PSoC4/CapSense_Structure.c ****         #if (0u != CapSense_TST_SH_CAP_EN)
 557:Generated_Source\PSoC4/CapSense_Structure.c ****             #if ((0u != CapSense_CSD_EN) && (0u != CapSense_CSD_SHIELD_EN))
 558:Generated_Source\PSoC4/CapSense_Structure.c ****                 CapSense_dsRam.selfTestConfig.bistCsdShCapISC = CapSense_SHIELD_CAP_INACTIVE_CONNEC
 559:Generated_Source\PSoC4/CapSense_Structure.c ****             #endif /* ((0u != CapSense_CSD_EN) && (0u != CapSense_CSD_SHIELD_EN)) */
 560:Generated_Source\PSoC4/CapSense_Structure.c ****         #endif /* (0u != CapSense_TST_SH_CAP_EN) */
 561:Generated_Source\PSoC4/CapSense_Structure.c **** 
 562:Generated_Source\PSoC4/CapSense_Structure.c ****         #if (0u != CapSense_TST_EXTERNAL_CAP_EN)
 563:Generated_Source\PSoC4/CapSense_Structure.c ****             CapSense_dsRam.selfTestConfig.extCapVrefGain = CapSense_TST_EXT_CAP_VREF_GAIN;
 564:Generated_Source\PSoC4/CapSense_Structure.c ****             CapSense_dsRam.selfTestConfig.extCapVrefVoltage = CapSense_TST_EXT_CAP_VREF_MV;
 565:Generated_Source\PSoC4/CapSense_Structure.c ****         #endif /* #if (0u != CapSense_TST_EXTERNAL_CAP_EN) */
 566:Generated_Source\PSoC4/CapSense_Structure.c **** 
 567:Generated_Source\PSoC4/CapSense_Structure.c ****         #if (0u != CapSense_TST_VDDA_EN)
 568:Generated_Source\PSoC4/CapSense_Structure.c ****             CapSense_dsRam.selfTestConfig.vddaResolution = CapSense_TST_VDDA_RESOLUTION;
 569:Generated_Source\PSoC4/CapSense_Structure.c ****             CapSense_dsRam.selfTestConfig.vddaModClkDivider = CapSense_TST_VDDA_MOD_CLK_DIVIDER;
 570:Generated_Source\PSoC4/CapSense_Structure.c **** 
 571:Generated_Source\PSoC4/CapSense_Structure.c ****             CapSense_dsRam.selfTestConfig.vddaVrefGain = CapSense_TST_VDDA_VREF_GAIN;
 572:Generated_Source\PSoC4/CapSense_Structure.c ****             CapSense_dsRam.selfTestConfig.vddaVrefVoltage = CapSense_TST_VDDA_VREF_MV;
 573:Generated_Source\PSoC4/CapSense_Structure.c ****         #endif /* #if (0u != CapSense_TST_VDDA_EN) */
 574:Generated_Source\PSoC4/CapSense_Structure.c **** 
 575:Generated_Source\PSoC4/CapSense_Structure.c ****     #endif /* #if (0u != CapSense_SELF_TEST_EN) */
 576:Generated_Source\PSoC4/CapSense_Structure.c **** 
 577:Generated_Source\PSoC4/CapSense_Structure.c ****     /* Initialize RAM widget data */
 578:Generated_Source\PSoC4/CapSense_Structure.c ****     CapSense_dsRam.wdgtList = CapSense_ramWidgetInit;
 579:Generated_Source\PSoC4/CapSense_Structure.c **** 
 580:Generated_Source\PSoC4/CapSense_Structure.c ****     /* Initialize Gesture configuration structure */
 581:Generated_Source\PSoC4/CapSense_Structure.c ****     #if ((0u != CapSense_GES_GLOBAL_EN) || (0u != CapSense_BALLISTIC_MULTIPLIER_EN))
 582:Generated_Source\PSoC4/CapSense_Structure.c ****         CapSense_dsRam.timestampInterval = CapSense_TIMESTAMP_INTERVAL;
 583:Generated_Source\PSoC4/CapSense_Structure.c ****     #endif /* ((0u != CapSense_GES_GLOBAL_EN) || (0u != CapSense_BALLISTIC_MULTIPLIER_EN)) */
 584:Generated_Source\PSoC4/CapSense_Structure.c **** 
 585:Generated_Source\PSoC4/CapSense_Structure.c ****     #if (0u != CapSense_GES_GLOBAL_EN)
 586:Generated_Source\PSoC4/CapSense_Structure.c ****         CapSense_dsRam.gestures = CapSense_ramGesturesInit;
 587:Generated_Source\PSoC4/CapSense_Structure.c ****     #endif /* (0u != CapSense_GES_GLOBAL_EN) */
 588:Generated_Source\PSoC4/CapSense_Structure.c **** 
 589:Generated_Source\PSoC4/CapSense_Structure.c ****     #if (0u != CapSense_BALLISTIC_MULTIPLIER_EN)
 590:Generated_Source\PSoC4/CapSense_Structure.c ****         CapSense_dsRam.ballisticConfig = CapSense_ramBallisticInit;
 591:Generated_Source\PSoC4/CapSense_Structure.c ****     #endif /* (0u != CapSense_BALLISTIC_MULTIPLIER_EN) */
 592:Generated_Source\PSoC4/CapSense_Structure.c **** 
 593:Generated_Source\PSoC4/CapSense_Structure.c ****     #if (0u != CapSense_CSX_EN) || (0 != CapSense_CSD_IDAC_COMP_EN)
 594:Generated_Source\PSoC4/CapSense_Structure.c ****         /* Initialize IDAC data */
 595:Generated_Source\PSoC4/CapSense_Structure.c ****         ptrFlashWdgt = CapSense_dsFlash.wdgtArray;
 596:Generated_Source\PSoC4/CapSense_Structure.c **** 
 597:Generated_Source\PSoC4/CapSense_Structure.c ****         for (wdgtId = CapSense_TOTAL_WIDGETS; wdgtId-- > 0u; )
 598:Generated_Source\PSoC4/CapSense_Structure.c ****         {
 599:Generated_Source\PSoC4/CapSense_Structure.c ****             ptrSnsTmp = ptrFlashWdgt->ptr2SnsRam;
 600:Generated_Source\PSoC4/CapSense_Structure.c **** 
 601:Generated_Source\PSoC4/CapSense_Structure.c ****             for (snsId = CapSense_GET_SNS_CNT_BY_PTR(ptrFlashWdgt); snsId-- > 0u;)
ARM GAS  C:\Users\zack.li\AppData\Local\Temp\ccXMkTut.s 			page 12


 602:Generated_Source\PSoC4/CapSense_Structure.c ****             {
 603:Generated_Source\PSoC4/CapSense_Structure.c ****                 ptrSnsTmp->idacComp[0u] = *ptrIdacInit;
 604:Generated_Source\PSoC4/CapSense_Structure.c ****                 ptrIdacInit++;
 605:Generated_Source\PSoC4/CapSense_Structure.c **** 
 606:Generated_Source\PSoC4/CapSense_Structure.c ****                 #if (0u != CapSense_MULTI_FREQ_SCAN_EN)
 607:Generated_Source\PSoC4/CapSense_Structure.c ****                     ptrSnsTmp->idacComp[1u] = *ptrIdacInit;
 608:Generated_Source\PSoC4/CapSense_Structure.c ****                     ptrIdacInit++;
 609:Generated_Source\PSoC4/CapSense_Structure.c **** 
 610:Generated_Source\PSoC4/CapSense_Structure.c ****                     ptrSnsTmp->idacComp[2u] = *ptrIdacInit;
 611:Generated_Source\PSoC4/CapSense_Structure.c ****                     ptrIdacInit++;
 612:Generated_Source\PSoC4/CapSense_Structure.c ****                 #endif /* #if (0u != CapSense_MULTI_FREQ_SCAN_EN) */
 613:Generated_Source\PSoC4/CapSense_Structure.c **** 
 614:Generated_Source\PSoC4/CapSense_Structure.c ****                 ptrSnsTmp++;
 615:Generated_Source\PSoC4/CapSense_Structure.c ****             }
 616:Generated_Source\PSoC4/CapSense_Structure.c **** 
 617:Generated_Source\PSoC4/CapSense_Structure.c ****             ptrFlashWdgt++; /* Move to next widget */
 618:Generated_Source\PSoC4/CapSense_Structure.c ****         }
 619:Generated_Source\PSoC4/CapSense_Structure.c ****     #endif /*(0u != CapSense_CSX_EN) || (0 != CapSense_CSD_IDAC_COMP_EN)*/
 620:Generated_Source\PSoC4/CapSense_Structure.c **** 
 621:Generated_Source\PSoC4/CapSense_Structure.c ****     #if ((CapSense_ENABLE == CapSense_CSX_EN) && \
 622:Generated_Source\PSoC4/CapSense_Structure.c ****          (CapSense_ENABLE == CapSense_CSX_SKIP_OVSMPL_SPECIFIC_NODES))
 623:Generated_Source\PSoC4/CapSense_Structure.c ****         /* Initialize Sub-Conversion Number for each node of each CSX widget */
 624:Generated_Source\PSoC4/CapSense_Structure.c ****         ptrFlashWdgt = CapSense_dsFlash.wdgtArray;
 625:Generated_Source\PSoC4/CapSense_Structure.c ****         for (wdgtId = CapSense_TOTAL_WIDGETS; wdgtId-- > 0u;)
 626:Generated_Source\PSoC4/CapSense_Structure.c ****         {
 627:Generated_Source\PSoC4/CapSense_Structure.c ****             /* Check for widget sense method */
 628:Generated_Source\PSoC4/CapSense_Structure.c ****             if (CapSense_SENSE_METHOD_CSX_E == CapSense_GET_SENSE_METHOD(ptrFlashWdgt))
 629:Generated_Source\PSoC4/CapSense_Structure.c ****             {
 630:Generated_Source\PSoC4/CapSense_Structure.c ****                 /* Take the sub-convesion number of a CSX widget and initialize each node of this w
 631:Generated_Source\PSoC4/CapSense_Structure.c ****                 subConvNumber = ((CapSense_RAM_WD_BASE_STRUCT *)(ptrFlashWdgt->ptr2WdgtRam))->resol
 632:Generated_Source\PSoC4/CapSense_Structure.c ****                 ptrSnsTmp = ptrFlashWdgt->ptr2SnsRam;
 633:Generated_Source\PSoC4/CapSense_Structure.c ****                 for (snsId = CapSense_GET_SNS_CNT_BY_PTR(ptrFlashWdgt); snsId-- > 0u;)
 634:Generated_Source\PSoC4/CapSense_Structure.c ****                 {
 635:Generated_Source\PSoC4/CapSense_Structure.c ****                     ptrSnsTmp->subConvNum = subConvNumber;
 636:Generated_Source\PSoC4/CapSense_Structure.c ****                     ptrSnsTmp++;
 637:Generated_Source\PSoC4/CapSense_Structure.c ****                 }
 638:Generated_Source\PSoC4/CapSense_Structure.c ****             }
 639:Generated_Source\PSoC4/CapSense_Structure.c ****             /* Move to the next widget */
 640:Generated_Source\PSoC4/CapSense_Structure.c ****             ptrFlashWdgt++;
 641:Generated_Source\PSoC4/CapSense_Structure.c ****         }
 642:Generated_Source\PSoC4/CapSense_Structure.c ****     #endif /* ((CapSense_ENABLE == CapSense_CSX_EN) && \
 643:Generated_Source\PSoC4/CapSense_Structure.c ****                (CapSense_ENABLE == CapSense_CSX_SKIP_OVSMPL_SPECIFIC_NODES)) */
 644:Generated_Source\PSoC4/CapSense_Structure.c **** 
 645:Generated_Source\PSoC4/CapSense_Structure.c ****     #if (0u != CapSense_ADC_EN)
 646:Generated_Source\PSoC4/CapSense_Structure.c ****         CapSense_AdcDsInitialize();
 647:Generated_Source\PSoC4/CapSense_Structure.c ****     #endif /* (0u != CapSense_ADC_EN) */
 648:Generated_Source\PSoC4/CapSense_Structure.c **** }
 649:Generated_Source\PSoC4/CapSense_Structure.c **** 
 650:Generated_Source\PSoC4/CapSense_Structure.c **** 
 651:Generated_Source\PSoC4/CapSense_Structure.c **** #if (0u != CapSense_ADC_EN)
 652:Generated_Source\PSoC4/CapSense_Structure.c ****     /*******************************************************************************
 653:Generated_Source\PSoC4/CapSense_Structure.c ****     * Function Name: CapSense_AdcDsInitialize
 654:Generated_Source\PSoC4/CapSense_Structure.c ****     ****************************************************************************//**
 655:Generated_Source\PSoC4/CapSense_Structure.c ****     *
 656:Generated_Source\PSoC4/CapSense_Structure.c ****     * \brief
 657:Generated_Source\PSoC4/CapSense_Structure.c ****     *   Configures the initial Adc datastructure members.
 658:Generated_Source\PSoC4/CapSense_Structure.c ****     *
ARM GAS  C:\Users\zack.li\AppData\Local\Temp\ccXMkTut.s 			page 13


 659:Generated_Source\PSoC4/CapSense_Structure.c ****     *******************************************************************************/
 660:Generated_Source\PSoC4/CapSense_Structure.c ****     void CapSense_AdcDsInitialize(void)
 661:Generated_Source\PSoC4/CapSense_Structure.c ****     {
 662:Generated_Source\PSoC4/CapSense_Structure.c ****         CapSense_dsRam.adcResolution = CapSense_ADC_RESOLUTION;
 663:Generated_Source\PSoC4/CapSense_Structure.c ****         CapSense_dsRam.adcIdac = (uint8)(CapSense_ADC_IDAC_DEFAULT);
 664:Generated_Source\PSoC4/CapSense_Structure.c ****         CapSense_dsRam.adcActiveCh = CapSense_AdcNO_CHANNEL;
 665:Generated_Source\PSoC4/CapSense_Structure.c ****     }
 666:Generated_Source\PSoC4/CapSense_Structure.c **** #endif /* (0u != CapSense_ADC_EN) */
 667:Generated_Source\PSoC4/CapSense_Structure.c **** 
 668:Generated_Source\PSoC4/CapSense_Structure.c **** 
 669:Generated_Source\PSoC4/CapSense_Structure.c **** /*******************************************************************************
 670:Generated_Source\PSoC4/CapSense_Structure.c **** * Function Name: DsParseParamId
 671:Generated_Source\PSoC4/CapSense_Structure.c **** ****************************************************************************//**
 672:Generated_Source\PSoC4/CapSense_Structure.c **** *
 673:Generated_Source\PSoC4/CapSense_Structure.c **** * \brief
 674:Generated_Source\PSoC4/CapSense_Structure.c **** *   This function parses the parameter ID and checks its correctness.
 675:Generated_Source\PSoC4/CapSense_Structure.c **** *
 676:Generated_Source\PSoC4/CapSense_Structure.c **** * \details
 677:Generated_Source\PSoC4/CapSense_Structure.c **** *   This function checks the parameter CRC if the self-test is enabled,
 678:Generated_Source\PSoC4/CapSense_Structure.c **** *   validates the offset value and parameter type.
 679:Generated_Source\PSoC4/CapSense_Structure.c **** *
 680:Generated_Source\PSoC4/CapSense_Structure.c **** * \param paramId The parameter to parse.
 681:Generated_Source\PSoC4/CapSense_Structure.c **** * \param pData   The pointer to the structure that will hold parsed data.
 682:Generated_Source\PSoC4/CapSense_Structure.c **** *
 683:Generated_Source\PSoC4/CapSense_Structure.c **** * \return CYRET_SUCCESS     If the parameter is valid
 684:Generated_Source\PSoC4/CapSense_Structure.c **** *         CYRET_BAD_PARAM   If the parameter is invalid
 685:Generated_Source\PSoC4/CapSense_Structure.c **** *
 686:Generated_Source\PSoC4/CapSense_Structure.c **** *******************************************************************************/
 687:Generated_Source\PSoC4/CapSense_Structure.c **** static cystatus DsParseParamId(uint32 paramId, PARAM_ID_STRUCT *pData)
 688:Generated_Source\PSoC4/CapSense_Structure.c **** {
  27              		.loc 1 688 0
  28              		.cfi_startproc
  29              		@ args = 0, pretend = 0, frame = 0
  30              		@ frame_needed = 0, uses_anonymous_args = 0
  31              	.LVL0:
  32 0000 70B5     		push	{r4, r5, r6, lr}
  33              		.cfi_def_cfa_offset 16
  34              		.cfi_offset 4, -16
  35              		.cfi_offset 5, -12
  36              		.cfi_offset 6, -8
  37              		.cfi_offset 14, -4
  38              	.LVL1:
 689:Generated_Source\PSoC4/CapSense_Structure.c ****     cystatus result = CYRET_SUCCESS;
 690:Generated_Source\PSoC4/CapSense_Structure.c **** 
 691:Generated_Source\PSoC4/CapSense_Structure.c ****     #if (0u != CapSense_SELF_TEST_EN)
 692:Generated_Source\PSoC4/CapSense_Structure.c ****         const uint8 crcTable[] =
 693:Generated_Source\PSoC4/CapSense_Structure.c ****         {
 694:Generated_Source\PSoC4/CapSense_Structure.c ****             0x00u, 0x09u, 0x0Bu, 0x02u, 0x0Fu, 0x06u, 0x04u, 0x0Du,
 695:Generated_Source\PSoC4/CapSense_Structure.c ****             0x07u, 0x0Eu, 0x0Cu, 0x05u, 0x08u, 0x01u, 0x03u, 0x0Au
 696:Generated_Source\PSoC4/CapSense_Structure.c ****         };
 697:Generated_Source\PSoC4/CapSense_Structure.c **** 
 698:Generated_Source\PSoC4/CapSense_Structure.c ****         uint32 i;
 699:Generated_Source\PSoC4/CapSense_Structure.c ****         uint32 actualCrc = 0u;
 700:Generated_Source\PSoC4/CapSense_Structure.c ****         uint32 crcIndex;
 701:Generated_Source\PSoC4/CapSense_Structure.c ****     #endif /* #if (0u != CapSense_SELF_TEST_EN) */
 702:Generated_Source\PSoC4/CapSense_Structure.c **** 
 703:Generated_Source\PSoC4/CapSense_Structure.c ****     /* Extract parameter data */
ARM GAS  C:\Users\zack.li\AppData\Local\Temp\ccXMkTut.s 			page 14


 704:Generated_Source\PSoC4/CapSense_Structure.c ****     pData->offset     = LO16(paramId);
  39              		.loc 1 704 0
  40 0002 85B2     		uxth	r5, r0
  41 0004 0D80     		strh	r5, [r1]
 705:Generated_Source\PSoC4/CapSense_Structure.c ****     pData->affectsCrc = LO8((paramId & PARAM_UBIT_MASK)  >> PARAM_UBIT_OFFSET);
  42              		.loc 1 705 0
  43 0006 C30D     		lsrs	r3, r0, #23
  44 0008 0124     		movs	r4, #1
  45 000a 2340     		ands	r3, r4
  46 000c CB70     		strb	r3, [r1, #3]
 706:Generated_Source\PSoC4/CapSense_Structure.c ****     pData->widgetId   = LO8((paramId & PARAM_WDID_MASK)  >> PARAM_WDID_OFFSET);
  47              		.loc 1 706 0
  48 000e 030C     		lsrs	r3, r0, #16
  49 0010 7F22     		movs	r2, #127
  50 0012 1340     		ands	r3, r2
  51 0014 8B70     		strb	r3, [r1, #2]
 707:Generated_Source\PSoC4/CapSense_Structure.c ****     pData->type       = LO8((paramId & PARAM_TYPE_MASK)  >> PARAM_TYPE_OFFSET);
  52              		.loc 1 707 0
  53 0016 860F     		lsrs	r6, r0, #30
  54 0018 CE71     		strb	r6, [r1, #7]
 708:Generated_Source\PSoC4/CapSense_Structure.c ****     pData->flash      = LO8((paramId & PARAM_FBIT_MASK)  >> PARAM_FBIT_OFFSET);
  55              		.loc 1 708 0
  56 001a 030F     		lsrs	r3, r0, #28
  57 001c 2340     		ands	r3, r4
  58 001e 4B71     		strb	r3, [r1, #5]
 709:Generated_Source\PSoC4/CapSense_Structure.c ****     pData->rw         = LO8((paramId & PARAM_RWBIT_MASK) >> PARAM_RWBIT_OFFSET);
  59              		.loc 1 709 0
  60 0020 420F     		lsrs	r2, r0, #29
  61 0022 2240     		ands	r2, r4
  62 0024 8A71     		strb	r2, [r1, #6]
 710:Generated_Source\PSoC4/CapSense_Structure.c ****     pData->crc        = LO8((paramId & PARAM_CRC_MASK)   >> PARAM_CRC_OFFSET);
  63              		.loc 1 710 0
  64 0026 000E     		lsrs	r0, r0, #24
  65              	.LVL2:
  66 0028 0E34     		adds	r4, r4, #14
  67 002a 2040     		ands	r0, r4
  68 002c 0871     		strb	r0, [r1, #4]
 711:Generated_Source\PSoC4/CapSense_Structure.c **** 
 712:Generated_Source\PSoC4/CapSense_Structure.c ****     /* Check parameter CRC if self-test is enabled */
 713:Generated_Source\PSoC4/CapSense_Structure.c ****     #if (0u != CapSense_SELF_TEST_EN)
 714:Generated_Source\PSoC4/CapSense_Structure.c **** 
 715:Generated_Source\PSoC4/CapSense_Structure.c ****         /* Calculate CRC for bits 0..24.
 716:Generated_Source\PSoC4/CapSense_Structure.c ****          * The CRC is calculated using nibbles (4-bits).
 717:Generated_Source\PSoC4/CapSense_Structure.c ****          * So for 0..24 bits there are in total 6 nibbles. */
 718:Generated_Source\PSoC4/CapSense_Structure.c ****         for (i = 6u; i > 0u; i--)
 719:Generated_Source\PSoC4/CapSense_Structure.c ****         {
 720:Generated_Source\PSoC4/CapSense_Structure.c ****             crcIndex = actualCrc ^ (paramId & 0x0Fu);
 721:Generated_Source\PSoC4/CapSense_Structure.c ****             actualCrc = crcTable[crcIndex];
 722:Generated_Source\PSoC4/CapSense_Structure.c ****             paramId >>= 4u;
 723:Generated_Source\PSoC4/CapSense_Structure.c ****         }
 724:Generated_Source\PSoC4/CapSense_Structure.c **** 
 725:Generated_Source\PSoC4/CapSense_Structure.c ****         /* Add bits 28..32 */
 726:Generated_Source\PSoC4/CapSense_Structure.c ****         crcIndex = actualCrc ^ ((paramId >> 4u) & 0x0Fu);
 727:Generated_Source\PSoC4/CapSense_Structure.c ****         actualCrc = crcTable[crcIndex];
 728:Generated_Source\PSoC4/CapSense_Structure.c **** 
 729:Generated_Source\PSoC4/CapSense_Structure.c ****         /* Add bits 24..28 (CRC) */
 730:Generated_Source\PSoC4/CapSense_Structure.c ****         crcIndex = actualCrc ^ (paramId & 0x0Fu);
ARM GAS  C:\Users\zack.li\AppData\Local\Temp\ccXMkTut.s 			page 15


 731:Generated_Source\PSoC4/CapSense_Structure.c ****         actualCrc = crcTable[crcIndex];
 732:Generated_Source\PSoC4/CapSense_Structure.c **** 
 733:Generated_Source\PSoC4/CapSense_Structure.c ****         if (0u != actualCrc)
 734:Generated_Source\PSoC4/CapSense_Structure.c ****         {
 735:Generated_Source\PSoC4/CapSense_Structure.c ****             /* CRC mismatch */
 736:Generated_Source\PSoC4/CapSense_Structure.c ****             result = CYRET_BAD_PARAM;
 737:Generated_Source\PSoC4/CapSense_Structure.c ****         }
 738:Generated_Source\PSoC4/CapSense_Structure.c **** 
 739:Generated_Source\PSoC4/CapSense_Structure.c ****         if ((CYRET_SUCCESS == result) &&
 740:Generated_Source\PSoC4/CapSense_Structure.c ****             (0u != pData->affectsCrc) && (pData->widgetId >= CapSense_TOTAL_WIDGETS ))
 741:Generated_Source\PSoC4/CapSense_Structure.c ****         {
 742:Generated_Source\PSoC4/CapSense_Structure.c ****             /* Wrong widgetId for protected parameter */
 743:Generated_Source\PSoC4/CapSense_Structure.c ****             result = CYRET_BAD_PARAM;
 744:Generated_Source\PSoC4/CapSense_Structure.c ****         }
 745:Generated_Source\PSoC4/CapSense_Structure.c **** 
 746:Generated_Source\PSoC4/CapSense_Structure.c ****         /* Check offset value range */
 747:Generated_Source\PSoC4/CapSense_Structure.c ****         if (CYRET_SUCCESS == result)
 748:Generated_Source\PSoC4/CapSense_Structure.c ****         {
 749:Generated_Source\PSoC4/CapSense_Structure.c ****             if (0u == pData->flash)
 750:Generated_Source\PSoC4/CapSense_Structure.c ****             {
 751:Generated_Source\PSoC4/CapSense_Structure.c ****                 /* Check offset for RAM Data Structure range */
 752:Generated_Source\PSoC4/CapSense_Structure.c ****                 if (pData->offset >= sizeof(CapSense_dsRam))
 753:Generated_Source\PSoC4/CapSense_Structure.c ****                 {
 754:Generated_Source\PSoC4/CapSense_Structure.c ****                     result = CYRET_BAD_PARAM;
 755:Generated_Source\PSoC4/CapSense_Structure.c ****                 }
 756:Generated_Source\PSoC4/CapSense_Structure.c ****             }
 757:Generated_Source\PSoC4/CapSense_Structure.c ****             else
 758:Generated_Source\PSoC4/CapSense_Structure.c ****             {
 759:Generated_Source\PSoC4/CapSense_Structure.c ****                 /* Check offset for Flash Data Structure range */
 760:Generated_Source\PSoC4/CapSense_Structure.c ****                 if (pData->offset >= sizeof(CapSense_dsFlash))
 761:Generated_Source\PSoC4/CapSense_Structure.c ****                 {
 762:Generated_Source\PSoC4/CapSense_Structure.c ****                     result = CYRET_BAD_PARAM;
 763:Generated_Source\PSoC4/CapSense_Structure.c ****                 }
 764:Generated_Source\PSoC4/CapSense_Structure.c **** 
 765:Generated_Source\PSoC4/CapSense_Structure.c ****                 /* Check if it is marked as Read Only */
 766:Generated_Source\PSoC4/CapSense_Structure.c ****                 if (0u != pData->rw)
 767:Generated_Source\PSoC4/CapSense_Structure.c ****                 {
 768:Generated_Source\PSoC4/CapSense_Structure.c ****                     result = CYRET_BAD_PARAM;
 769:Generated_Source\PSoC4/CapSense_Structure.c ****                 }
 770:Generated_Source\PSoC4/CapSense_Structure.c ****             }
 771:Generated_Source\PSoC4/CapSense_Structure.c ****         }
 772:Generated_Source\PSoC4/CapSense_Structure.c ****     #else /* #if (0u != CapSense_SELF_TEST_EN) */
 773:Generated_Source\PSoC4/CapSense_Structure.c ****         /* Check offset value range */
 774:Generated_Source\PSoC4/CapSense_Structure.c ****         if (0u == pData->flash)
  69              		.loc 1 774 0
  70 002e 002B     		cmp	r3, #0
  71 0030 03D1     		bne	.L2
 775:Generated_Source\PSoC4/CapSense_Structure.c ****         {
 776:Generated_Source\PSoC4/CapSense_Structure.c ****             /* Check offset for RAM Data Structure range */
 777:Generated_Source\PSoC4/CapSense_Structure.c ****             if (pData->offset >= sizeof(CapSense_dsRam))
  72              		.loc 1 777 0
  73 0032 C72D     		cmp	r5, #199
  74 0034 09D8     		bhi	.L9
 689:Generated_Source\PSoC4/CapSense_Structure.c **** 
  75              		.loc 1 689 0
  76 0036 0020     		movs	r0, #0
  77 0038 0AE0     		b	.L3
ARM GAS  C:\Users\zack.li\AppData\Local\Temp\ccXMkTut.s 			page 16


  78              	.L2:
 778:Generated_Source\PSoC4/CapSense_Structure.c ****             {
 779:Generated_Source\PSoC4/CapSense_Structure.c ****                 result = CYRET_BAD_PARAM;
 780:Generated_Source\PSoC4/CapSense_Structure.c ****             }
 781:Generated_Source\PSoC4/CapSense_Structure.c ****         }
 782:Generated_Source\PSoC4/CapSense_Structure.c ****         else
 783:Generated_Source\PSoC4/CapSense_Structure.c ****         {
 784:Generated_Source\PSoC4/CapSense_Structure.c ****             /* Check offset for Flash Data Structure range */
 785:Generated_Source\PSoC4/CapSense_Structure.c ****             if (pData->offset >= sizeof(CapSense_dsFlash))
  79              		.loc 1 785 0
  80 003a A72D     		cmp	r5, #167
  81 003c 01D8     		bhi	.L10
 689:Generated_Source\PSoC4/CapSense_Structure.c **** 
  82              		.loc 1 689 0
  83 003e 0020     		movs	r0, #0
  84 0040 00E0     		b	.L4
  85              	.L10:
 786:Generated_Source\PSoC4/CapSense_Structure.c ****             {
 787:Generated_Source\PSoC4/CapSense_Structure.c ****                 result = CYRET_BAD_PARAM;
  86              		.loc 1 787 0
  87 0042 0120     		movs	r0, #1
  88              	.L4:
  89              	.LVL3:
 788:Generated_Source\PSoC4/CapSense_Structure.c ****             }
 789:Generated_Source\PSoC4/CapSense_Structure.c **** 
 790:Generated_Source\PSoC4/CapSense_Structure.c ****             /* Check if it is marked as Read Only */
 791:Generated_Source\PSoC4/CapSense_Structure.c ****             if (0u != pData->rw)
  90              		.loc 1 791 0
  91 0044 002A     		cmp	r2, #0
  92 0046 02D1     		bne	.L11
  93 0048 02E0     		b	.L3
  94              	.LVL4:
  95              	.L9:
 779:Generated_Source\PSoC4/CapSense_Structure.c ****             }
  96              		.loc 1 779 0
  97 004a 0120     		movs	r0, #1
  98 004c 00E0     		b	.L3
  99              	.LVL5:
 100              	.L11:
 792:Generated_Source\PSoC4/CapSense_Structure.c ****             {
 793:Generated_Source\PSoC4/CapSense_Structure.c ****                 result = CYRET_BAD_PARAM;
 101              		.loc 1 793 0
 102 004e 0120     		movs	r0, #1
 103              	.LVL6:
 104              	.L3:
 794:Generated_Source\PSoC4/CapSense_Structure.c ****             }
 795:Generated_Source\PSoC4/CapSense_Structure.c ****         }
 796:Generated_Source\PSoC4/CapSense_Structure.c ****     #endif /* #if (0u != CapSense_SELF_TEST_EN) */
 797:Generated_Source\PSoC4/CapSense_Structure.c **** 
 798:Generated_Source\PSoC4/CapSense_Structure.c ****     if (CYRET_SUCCESS == result)
 105              		.loc 1 798 0
 106 0050 0028     		cmp	r0, #0
 107 0052 11D1     		bne	.L5
 799:Generated_Source\PSoC4/CapSense_Structure.c ****     {
 800:Generated_Source\PSoC4/CapSense_Structure.c ****         /* Check parameter type, offset alignment */
 801:Generated_Source\PSoC4/CapSense_Structure.c ****         switch (pData->type)
 108              		.loc 1 801 0
ARM GAS  C:\Users\zack.li\AppData\Local\Temp\ccXMkTut.s 			page 17


 109 0054 022E     		cmp	r6, #2
 110 0056 04D0     		beq	.L6
 111 0058 032E     		cmp	r6, #3
 112 005a 05D0     		beq	.L7
 113 005c 012E     		cmp	r6, #1
 114 005e 06D1     		bne	.L15
 115 0060 0AE0     		b	.L5
 116              	.L6:
 802:Generated_Source\PSoC4/CapSense_Structure.c ****         {
 803:Generated_Source\PSoC4/CapSense_Structure.c ****         case DS_PARAM_TYPE_UINT16:
 804:Generated_Source\PSoC4/CapSense_Structure.c ****             if (0u != (pData->offset & UINT16_ALIGN_MASK))
 117              		.loc 1 804 0
 118 0062 EB07     		lsls	r3, r5, #31
 119 0064 05D4     		bmi	.L13
 120 0066 07E0     		b	.L5
 121              	.L7:
 805:Generated_Source\PSoC4/CapSense_Structure.c ****             {
 806:Generated_Source\PSoC4/CapSense_Structure.c ****                 result = CYRET_BAD_PARAM;
 807:Generated_Source\PSoC4/CapSense_Structure.c ****             }
 808:Generated_Source\PSoC4/CapSense_Structure.c ****             break;
 809:Generated_Source\PSoC4/CapSense_Structure.c **** 
 810:Generated_Source\PSoC4/CapSense_Structure.c ****         case DS_PARAM_TYPE_UINT32:
 811:Generated_Source\PSoC4/CapSense_Structure.c ****             if (0u != (pData->offset & UINT32_ALIGN_MASK))
 122              		.loc 1 811 0
 123 0068 AB07     		lsls	r3, r5, #30
 124 006a 04D1     		bne	.L14
 125 006c 04E0     		b	.L5
 126              	.L15:
 812:Generated_Source\PSoC4/CapSense_Structure.c ****             {
 813:Generated_Source\PSoC4/CapSense_Structure.c ****                 result = CYRET_BAD_PARAM;
 814:Generated_Source\PSoC4/CapSense_Structure.c ****             }
 815:Generated_Source\PSoC4/CapSense_Structure.c ****             break;
 816:Generated_Source\PSoC4/CapSense_Structure.c **** 
 817:Generated_Source\PSoC4/CapSense_Structure.c ****         case DS_PARAM_TYPE_UINT8:
 818:Generated_Source\PSoC4/CapSense_Structure.c ****             break;
 819:Generated_Source\PSoC4/CapSense_Structure.c **** 
 820:Generated_Source\PSoC4/CapSense_Structure.c ****         default:
 821:Generated_Source\PSoC4/CapSense_Structure.c ****             result = CYRET_BAD_PARAM;
 127              		.loc 1 821 0
 128 006e 0120     		movs	r0, #1
 129              	.LVL7:
 130 0070 02E0     		b	.L5
 131              	.LVL8:
 132              	.L13:
 806:Generated_Source\PSoC4/CapSense_Structure.c ****             }
 133              		.loc 1 806 0
 134 0072 0120     		movs	r0, #1
 135              	.LVL9:
 136 0074 00E0     		b	.L5
 137              	.LVL10:
 138              	.L14:
 813:Generated_Source\PSoC4/CapSense_Structure.c ****             }
 139              		.loc 1 813 0
 140 0076 0120     		movs	r0, #1
 141              	.LVL11:
 142              	.L5:
 822:Generated_Source\PSoC4/CapSense_Structure.c ****             break;
ARM GAS  C:\Users\zack.li\AppData\Local\Temp\ccXMkTut.s 			page 18


 823:Generated_Source\PSoC4/CapSense_Structure.c ****         }
 824:Generated_Source\PSoC4/CapSense_Structure.c ****     }
 825:Generated_Source\PSoC4/CapSense_Structure.c **** 
 826:Generated_Source\PSoC4/CapSense_Structure.c ****     return result;
 827:Generated_Source\PSoC4/CapSense_Structure.c **** }
 143              		.loc 1 827 0
 144              		@ sp needed
 145 0078 70BD     		pop	{r4, r5, r6, pc}
 146              		.cfi_endproc
 147              	.LFE2:
 148              		.size	DsParseParamId, .-DsParseParamId
 149 007a C046     		.section	.text.CapSense_DsInitialize,"ax",%progbits
 150              		.align	2
 151              		.global	CapSense_DsInitialize
 152              		.code	16
 153              		.thumb_func
 154              		.type	CapSense_DsInitialize, %function
 155              	CapSense_DsInitialize:
 156              	.LFB1:
 471:Generated_Source\PSoC4/CapSense_Structure.c ****     #if ((CapSense_ENABLE == CapSense_CSX_EN) || \
 157              		.loc 1 471 0
 158              		.cfi_startproc
 159              		@ args = 0, pretend = 0, frame = 0
 160              		@ frame_needed = 0, uses_anonymous_args = 0
 161 0000 70B5     		push	{r4, r5, r6, lr}
 162              		.cfi_def_cfa_offset 16
 163              		.cfi_offset 4, -16
 164              		.cfi_offset 5, -12
 165              		.cfi_offset 6, -8
 166              		.cfi_offset 14, -4
 167              	.LVL12:
 492:Generated_Source\PSoC4/CapSense_Structure.c **** 
 168              		.loc 1 492 0
 169 0002 194C     		ldr	r4, .L21
 170 0004 C822     		movs	r2, #200
 171 0006 0021     		movs	r1, #0
 172 0008 2000     		movs	r0, r4
 173 000a FFF7FEFF 		bl	memset
 174              	.LVL13:
 495:Generated_Source\PSoC4/CapSense_Structure.c ****     CapSense_dsRam.deviceId = CapSense_DEVICE_ID;
 175              		.loc 1 495 0
 176 000e 174B     		ldr	r3, .L21+4
 177 0010 2380     		strh	r3, [r4]
 496:Generated_Source\PSoC4/CapSense_Structure.c ****     CapSense_dsRam.hwClock = CapSense_HW_CLOCK;
 178              		.loc 1 496 0
 179 0012 8023     		movs	r3, #128
 180 0014 5B00     		lsls	r3, r3, #1
 181 0016 6380     		strh	r3, [r4, #2]
 497:Generated_Source\PSoC4/CapSense_Structure.c **** 
 182              		.loc 1 497 0
 183 0018 154B     		ldr	r3, .L21+8
 184 001a A380     		strh	r3, [r4, #4]
 500:Generated_Source\PSoC4/CapSense_Structure.c **** 
 185              		.loc 1 500 0
 186 001c C223     		movs	r3, #194
 187 001e 9B00     		lsls	r3, r3, #2
 188 0020 E383     		strh	r3, [r4, #30]
ARM GAS  C:\Users\zack.li\AppData\Local\Temp\ccXMkTut.s 			page 19


 502:Generated_Source\PSoC4/CapSense_Structure.c ****     #if (0u != CapSense_TOTAL_CSD_WIDGETS)
 189              		.loc 1 502 0
 190 0022 0322     		movs	r2, #3
 191 0024 C723     		movs	r3, #199
 192 0026 E254     		strb	r2, [r4, r3]
 504:Generated_Source\PSoC4/CapSense_Structure.c ****         CapSense_dsRam.scanCsdISC = CapSense_CSD_INACTIVE_SNS_CONNECTION;
 193              		.loc 1 504 0
 194 0028 023A     		subs	r2, r2, #2
 195 002a A73B     		subs	r3, r3, #167
 196 002c E254     		strb	r2, [r4, r3]
 578:Generated_Source\PSoC4/CapSense_Structure.c **** 
 197              		.loc 1 578 0
 198 002e 2000     		movs	r0, r4
 199 0030 2230     		adds	r0, r0, #34
 200 0032 6132     		adds	r2, r2, #97
 201 0034 0F49     		ldr	r1, .L21+12
 202 0036 3031     		adds	r1, r1, #48
 203 0038 FFF7FEFF 		bl	memcpy
 204              	.LVL14:
 488:Generated_Source\PSoC4/CapSense_Structure.c ****     #endif
 205              		.loc 1 488 0
 206 003c 0E49     		ldr	r1, .L21+16
 595:Generated_Source\PSoC4/CapSense_Structure.c **** 
 207              		.loc 1 595 0
 208 003e 0C00     		movs	r4, r1
 209 0040 0834     		adds	r4, r4, #8
 597:Generated_Source\PSoC4/CapSense_Structure.c ****         {
 210              		.loc 1 597 0
 211 0042 0623     		movs	r3, #6
 212 0044 0CE0     		b	.L17
 213              	.LVL15:
 214              	.L20:
 599:Generated_Source\PSoC4/CapSense_Structure.c **** 
 215              		.loc 1 599 0
 216 0046 A268     		ldr	r2, [r4, #8]
 217              	.LVL16:
 601:Generated_Source\PSoC4/CapSense_Structure.c ****             {
 218              		.loc 1 601 0
 219 0048 238B     		ldrh	r3, [r4, #24]
 220              	.LVL17:
 221 004a 04E0     		b	.L18
 222              	.LVL18:
 223              	.L19:
 603:Generated_Source\PSoC4/CapSense_Structure.c ****                 ptrIdacInit++;
 224              		.loc 1 603 0
 225 004c 0B78     		ldrb	r3, [r1]
 226 004e 5372     		strb	r3, [r2, #9]
 604:Generated_Source\PSoC4/CapSense_Structure.c **** 
 227              		.loc 1 604 0
 228 0050 0131     		adds	r1, r1, #1
 229              	.LVL19:
 614:Generated_Source\PSoC4/CapSense_Structure.c ****             }
 230              		.loc 1 614 0
 231 0052 0A32     		adds	r2, r2, #10
 232              	.LVL20:
 601:Generated_Source\PSoC4/CapSense_Structure.c ****             {
 233              		.loc 1 601 0
ARM GAS  C:\Users\zack.li\AppData\Local\Temp\ccXMkTut.s 			page 20


 234 0054 0300     		movs	r3, r0
 235              	.LVL21:
 236              	.L18:
 601:Generated_Source\PSoC4/CapSense_Structure.c ****             {
 237              		.loc 1 601 0 is_stmt 0 discriminator 1
 238 0056 581E     		subs	r0, r3, #1
 239              	.LVL22:
 240 0058 002B     		cmp	r3, #0
 241 005a F7D1     		bne	.L19
 617:Generated_Source\PSoC4/CapSense_Structure.c ****         }
 242              		.loc 1 617 0 is_stmt 1
 243 005c 1C34     		adds	r4, r4, #28
 244              	.LVL23:
 597:Generated_Source\PSoC4/CapSense_Structure.c ****         {
 245              		.loc 1 597 0
 246 005e 2B00     		movs	r3, r5
 247              	.LVL24:
 248              	.L17:
 597:Generated_Source\PSoC4/CapSense_Structure.c ****         {
 249              		.loc 1 597 0 is_stmt 0 discriminator 1
 250 0060 5D1E     		subs	r5, r3, #1
 251              	.LVL25:
 252 0062 002B     		cmp	r3, #0
 253 0064 EFD1     		bne	.L20
 648:Generated_Source\PSoC4/CapSense_Structure.c **** 
 254              		.loc 1 648 0 is_stmt 1
 255              		@ sp needed
 256              	.LVL26:
 257              	.LVL27:
 258 0066 70BD     		pop	{r4, r5, r6, pc}
 259              	.L22:
 260              		.align	2
 261              	.L21:
 262 0068 00000000 		.word	CapSense_dsRam
 263 006c F8FDFFFF 		.word	-520
 264 0070 B80B0000 		.word	3000
 265 0074 80000000 		.word	.LANCHOR1
 266 0078 00000000 		.word	.LANCHOR0
 267              		.cfi_endproc
 268              	.LFE1:
 269              		.size	CapSense_DsInitialize, .-CapSense_DsInitialize
 270              		.section	.text.CapSense_GetParam,"ax",%progbits
 271              		.align	2
 272              		.global	CapSense_GetParam
 273              		.code	16
 274              		.thumb_func
 275              		.type	CapSense_GetParam, %function
 276              	CapSense_GetParam:
 277              	.LFB3:
 828:Generated_Source\PSoC4/CapSense_Structure.c **** 
 829:Generated_Source\PSoC4/CapSense_Structure.c **** /*******************************************************************************
 830:Generated_Source\PSoC4/CapSense_Structure.c **** * Function Name: CapSense_GetParam
 831:Generated_Source\PSoC4/CapSense_Structure.c **** ****************************************************************************//**
 832:Generated_Source\PSoC4/CapSense_Structure.c **** *
 833:Generated_Source\PSoC4/CapSense_Structure.c **** * \brief
 834:Generated_Source\PSoC4/CapSense_Structure.c **** *  Gets the specified parameter value from the \ref group_structures.
 835:Generated_Source\PSoC4/CapSense_Structure.c **** *
ARM GAS  C:\Users\zack.li\AppData\Local\Temp\ccXMkTut.s 			page 21


 836:Generated_Source\PSoC4/CapSense_Structure.c **** * \details
 837:Generated_Source\PSoC4/CapSense_Structure.c **** *  This function gets the value of the specified parameter by the paramId
 838:Generated_Source\PSoC4/CapSense_Structure.c **** *  argument. The paramId for each register is available in the
 839:Generated_Source\PSoC4/CapSense_Structure.c **** *  CapSense RegisterMap header file as
 840:Generated_Source\PSoC4/CapSense_Structure.c **** *  CapSense_<ParameterName>_PARAM_ID. The paramId is a special
 841:Generated_Source\PSoC4/CapSense_Structure.c **** *  enumerated value generated by the customizer. The format of paramId is as
 842:Generated_Source\PSoC4/CapSense_Structure.c **** *  follows:
 843:Generated_Source\PSoC4/CapSense_Structure.c **** *    1. [ byte 3 byte 2 byte 1 byte 0 ]
 844:Generated_Source\PSoC4/CapSense_Structure.c **** *    2. [ TTWFCCCC UIIIIIII MMMMMMMM LLLLLLLL ]
 845:Generated_Source\PSoC4/CapSense_Structure.c **** *    3. T - encodes the parameter type:
 846:Generated_Source\PSoC4/CapSense_Structure.c **** *      - 01b: uint8
 847:Generated_Source\PSoC4/CapSense_Structure.c **** *      - 10b: uint16
 848:Generated_Source\PSoC4/CapSense_Structure.c **** *      - 11b: uint32
 849:Generated_Source\PSoC4/CapSense_Structure.c **** *    4. W - indicates whether the parameter is writable:
 850:Generated_Source\PSoC4/CapSense_Structure.c **** *      - 0: ReadOnly
 851:Generated_Source\PSoC4/CapSense_Structure.c **** *      - 1: Read/Write
 852:Generated_Source\PSoC4/CapSense_Structure.c **** *    5. C - 4 bit CRC (X^3 + 1) of the whole paramId word, the C bits are
 853:Generated_Source\PSoC4/CapSense_Structure.c **** *       filled with 0s when the CRC is calculated.
 854:Generated_Source\PSoC4/CapSense_Structure.c **** *    6. U - indicates if the parameter affects the RAM Widget Object CRC.
 855:Generated_Source\PSoC4/CapSense_Structure.c **** *    7. I - specifies that the widgetId parameter belongs to
 856:Generated_Source\PSoC4/CapSense_Structure.c **** *    8. M,L - the parameter offset MSB and LSB accordingly in:
 857:Generated_Source\PSoC4/CapSense_Structure.c **** *      - Flash Data Structure if W bit is 0.
 858:Generated_Source\PSoC4/CapSense_Structure.c **** *      - RAM Data Structure if W bit is 1.
 859:Generated_Source\PSoC4/CapSense_Structure.c **** *
 860:Generated_Source\PSoC4/CapSense_Structure.c **** *  Refer to the \ref group_structures section for details of the data structure
 861:Generated_Source\PSoC4/CapSense_Structure.c **** *  organization and examples of its register access.
 862:Generated_Source\PSoC4/CapSense_Structure.c **** *
 863:Generated_Source\PSoC4/CapSense_Structure.c **** * \param paramId
 864:Generated_Source\PSoC4/CapSense_Structure.c **** *  Specifies the ID of parameter to get its value.
 865:Generated_Source\PSoC4/CapSense_Structure.c **** *  A macro for the parameter ID can be found in the CapSense RegisterMap header
 866:Generated_Source\PSoC4/CapSense_Structure.c **** *  file defined as CapSense_<ParameterName>_PARAM_ID.
 867:Generated_Source\PSoC4/CapSense_Structure.c **** *
 868:Generated_Source\PSoC4/CapSense_Structure.c **** * \param value
 869:Generated_Source\PSoC4/CapSense_Structure.c **** *  The pointer to a variable to be updated with the obtained value.
 870:Generated_Source\PSoC4/CapSense_Structure.c **** *
 871:Generated_Source\PSoC4/CapSense_Structure.c **** * \return
 872:Generated_Source\PSoC4/CapSense_Structure.c **** *  Returns the status of the operation:
 873:Generated_Source\PSoC4/CapSense_Structure.c **** *    - CYRET_SUCCESS - The operation is successfully completed.
 874:Generated_Source\PSoC4/CapSense_Structure.c **** *    - CYRET_BAD_PARAM - The input parameter is invalid.
 875:Generated_Source\PSoC4/CapSense_Structure.c **** *
 876:Generated_Source\PSoC4/CapSense_Structure.c **** *******************************************************************************/
 877:Generated_Source\PSoC4/CapSense_Structure.c **** cystatus CapSense_GetParam(uint32 paramId, uint32 *value)
 878:Generated_Source\PSoC4/CapSense_Structure.c **** {
 278              		.loc 1 878 0
 279              		.cfi_startproc
 280              		@ args = 0, pretend = 0, frame = 8
 281              		@ frame_needed = 0, uses_anonymous_args = 0
 282              	.LVL28:
 283 0000 30B5     		push	{r4, r5, lr}
 284              		.cfi_def_cfa_offset 12
 285              		.cfi_offset 4, -12
 286              		.cfi_offset 5, -8
 287              		.cfi_offset 14, -4
 288 0002 83B0     		sub	sp, sp, #12
 289              		.cfi_def_cfa_offset 24
 290 0004 0D00     		movs	r5, r1
 879:Generated_Source\PSoC4/CapSense_Structure.c ****     PARAM_ID_STRUCT pData;
ARM GAS  C:\Users\zack.li\AppData\Local\Temp\ccXMkTut.s 			page 22


 880:Generated_Source\PSoC4/CapSense_Structure.c ****     cystatus result;
 881:Generated_Source\PSoC4/CapSense_Structure.c **** 
 882:Generated_Source\PSoC4/CapSense_Structure.c ****     union
 883:Generated_Source\PSoC4/CapSense_Structure.c ****     {
 884:Generated_Source\PSoC4/CapSense_Structure.c ****         volatile void   const * ptr;
 885:Generated_Source\PSoC4/CapSense_Structure.c ****         volatile uint8  const * ptrUint8;
 886:Generated_Source\PSoC4/CapSense_Structure.c ****         volatile uint16 const * ptrUint16;
 887:Generated_Source\PSoC4/CapSense_Structure.c ****         volatile uint32 const * ptrUint32;
 888:Generated_Source\PSoC4/CapSense_Structure.c ****     } ptrData;
 889:Generated_Source\PSoC4/CapSense_Structure.c **** 
 890:Generated_Source\PSoC4/CapSense_Structure.c ****     result = DsParseParamId(paramId, &pData);
 291              		.loc 1 890 0
 292 0006 6946     		mov	r1, sp
 293              	.LVL29:
 294 0008 FFF7FEFF 		bl	DsParseParamId
 295              	.LVL30:
 296 000c 041E     		subs	r4, r0, #0
 297              	.LVL31:
 891:Generated_Source\PSoC4/CapSense_Structure.c **** 
 892:Generated_Source\PSoC4/CapSense_Structure.c ****     /* Parse and validate paramId */
 893:Generated_Source\PSoC4/CapSense_Structure.c ****     if (CYRET_SUCCESS == result)
 298              		.loc 1 893 0
 299 000e 1FD1     		bne	.L24
 894:Generated_Source\PSoC4/CapSense_Structure.c ****     {
 895:Generated_Source\PSoC4/CapSense_Structure.c ****         /* Get base address of parameter */
 896:Generated_Source\PSoC4/CapSense_Structure.c ****         if (0u == pData.flash)
 300              		.loc 1 896 0
 301 0010 6B46     		mov	r3, sp
 302 0012 5B79     		ldrb	r3, [r3, #5]
 303 0014 002B     		cmp	r3, #0
 304 0016 01D1     		bne	.L25
 897:Generated_Source\PSoC4/CapSense_Structure.c ****         {
 898:Generated_Source\PSoC4/CapSense_Structure.c ****             ptrData.ptr = &CapSense_dsRam;
 305              		.loc 1 898 0
 306 0018 0F4A     		ldr	r2, .L30
 307              	.LVL32:
 308 001a 02E0     		b	.L26
 309              	.L25:
 899:Generated_Source\PSoC4/CapSense_Structure.c ****         }
 900:Generated_Source\PSoC4/CapSense_Structure.c ****         else
 901:Generated_Source\PSoC4/CapSense_Structure.c ****         {
 902:Generated_Source\PSoC4/CapSense_Structure.c ****             ptrData.ptr = &CapSense_dsFlash;
 310              		.loc 1 902 0
 311 001c 0F4B     		ldr	r3, .L30+4
 312 001e 0833     		adds	r3, r3, #8
 313 0020 1A00     		movs	r2, r3
 314              	.L26:
 903:Generated_Source\PSoC4/CapSense_Structure.c ****         }
 904:Generated_Source\PSoC4/CapSense_Structure.c **** 
 905:Generated_Source\PSoC4/CapSense_Structure.c ****         /* Add offset to base address */
 906:Generated_Source\PSoC4/CapSense_Structure.c ****         ptrData.ptrUint8 += pData.offset;
 315              		.loc 1 906 0
 316 0022 6B46     		mov	r3, sp
 317 0024 1B88     		ldrh	r3, [r3]
 318              	.LVL33:
 319 0026 D318     		adds	r3, r2, r3
 907:Generated_Source\PSoC4/CapSense_Structure.c **** 
ARM GAS  C:\Users\zack.li\AppData\Local\Temp\ccXMkTut.s 			page 23


 908:Generated_Source\PSoC4/CapSense_Structure.c ****         /* Read data */
 909:Generated_Source\PSoC4/CapSense_Structure.c ****         if (DS_PARAM_TYPE_UINT8 == pData.type)
 320              		.loc 1 909 0
 321 0028 6A46     		mov	r2, sp
 322              	.LVL34:
 323 002a D279     		ldrb	r2, [r2, #7]
 324 002c 012A     		cmp	r2, #1
 325 002e 02D1     		bne	.L27
 910:Generated_Source\PSoC4/CapSense_Structure.c ****         {
 911:Generated_Source\PSoC4/CapSense_Structure.c ****             *value = (uint32) (*ptrData.ptrUint8);
 326              		.loc 1 911 0
 327 0030 1B78     		ldrb	r3, [r3]
 328 0032 2B60     		str	r3, [r5]
 329 0034 0CE0     		b	.L24
 330              	.L27:
 912:Generated_Source\PSoC4/CapSense_Structure.c ****         }
 913:Generated_Source\PSoC4/CapSense_Structure.c ****         else if (DS_PARAM_TYPE_UINT16 == pData.type)
 331              		.loc 1 913 0
 332 0036 022A     		cmp	r2, #2
 333 0038 02D1     		bne	.L28
 914:Generated_Source\PSoC4/CapSense_Structure.c ****         {
 915:Generated_Source\PSoC4/CapSense_Structure.c ****             *value = (uint32) (*ptrData.ptrUint16);
 334              		.loc 1 915 0
 335 003a 1B88     		ldrh	r3, [r3]
 336 003c 2B60     		str	r3, [r5]
 337 003e 07E0     		b	.L24
 338              	.L28:
 916:Generated_Source\PSoC4/CapSense_Structure.c ****         }
 917:Generated_Source\PSoC4/CapSense_Structure.c ****         else if (DS_PARAM_TYPE_UINT32 == pData.type)
 339              		.loc 1 917 0
 340 0040 032A     		cmp	r2, #3
 341 0042 02D1     		bne	.L29
 918:Generated_Source\PSoC4/CapSense_Structure.c ****         {
 919:Generated_Source\PSoC4/CapSense_Structure.c ****             *value = *ptrData.ptrUint32;
 342              		.loc 1 919 0
 343 0044 1B68     		ldr	r3, [r3]
 344 0046 2B60     		str	r3, [r5]
 345 0048 02E0     		b	.L24
 346              	.L29:
 920:Generated_Source\PSoC4/CapSense_Structure.c ****         }
 921:Generated_Source\PSoC4/CapSense_Structure.c ****         else
 922:Generated_Source\PSoC4/CapSense_Structure.c ****         {
 923:Generated_Source\PSoC4/CapSense_Structure.c ****             /* Parameter comes here already validated. */
 924:Generated_Source\PSoC4/CapSense_Structure.c ****             CYASSERT(0u);
 347              		.loc 1 924 0 discriminator 1
 348 004a 0020     		movs	r0, #0
 349              	.LVL35:
 350 004c FFF7FEFF 		bl	CyHalt
 351              	.LVL36:
 352              	.L24:
 925:Generated_Source\PSoC4/CapSense_Structure.c ****         }
 926:Generated_Source\PSoC4/CapSense_Structure.c ****     }
 927:Generated_Source\PSoC4/CapSense_Structure.c **** 
 928:Generated_Source\PSoC4/CapSense_Structure.c ****     return result;
 929:Generated_Source\PSoC4/CapSense_Structure.c **** }
 353              		.loc 1 929 0
 354 0050 2000     		movs	r0, r4
ARM GAS  C:\Users\zack.li\AppData\Local\Temp\ccXMkTut.s 			page 24


 355 0052 03B0     		add	sp, sp, #12
 356              		@ sp needed
 357              	.LVL37:
 358              	.LVL38:
 359 0054 30BD     		pop	{r4, r5, pc}
 360              	.L31:
 361 0056 C046     		.align	2
 362              	.L30:
 363 0058 00000000 		.word	CapSense_dsRam
 364 005c 00000000 		.word	.LANCHOR0
 365              		.cfi_endproc
 366              	.LFE3:
 367              		.size	CapSense_GetParam, .-CapSense_GetParam
 368              		.section	.text.CapSense_SetParam,"ax",%progbits
 369              		.align	2
 370              		.global	CapSense_SetParam
 371              		.code	16
 372              		.thumb_func
 373              		.type	CapSense_SetParam, %function
 374              	CapSense_SetParam:
 375              	.LFB4:
 930:Generated_Source\PSoC4/CapSense_Structure.c **** 
 931:Generated_Source\PSoC4/CapSense_Structure.c **** 
 932:Generated_Source\PSoC4/CapSense_Structure.c **** /*******************************************************************************
 933:Generated_Source\PSoC4/CapSense_Structure.c **** * Function Name: CapSense_SetParam
 934:Generated_Source\PSoC4/CapSense_Structure.c **** ****************************************************************************//**
 935:Generated_Source\PSoC4/CapSense_Structure.c **** *
 936:Generated_Source\PSoC4/CapSense_Structure.c **** * \brief
 937:Generated_Source\PSoC4/CapSense_Structure.c **** *  Sets a new value for the specified parameter in the \ref group_structures.
 938:Generated_Source\PSoC4/CapSense_Structure.c **** *
 939:Generated_Source\PSoC4/CapSense_Structure.c **** * \details
 940:Generated_Source\PSoC4/CapSense_Structure.c **** *  This function sets the value of the specified parameter by the paramId
 941:Generated_Source\PSoC4/CapSense_Structure.c **** *  argument. The paramId for each register is available in the
 942:Generated_Source\PSoC4/CapSense_Structure.c **** *  CapSense RegisterMap header file as
 943:Generated_Source\PSoC4/CapSense_Structure.c **** *  CapSense_<ParameterName>_PARAM_ID. The paramId is a special
 944:Generated_Source\PSoC4/CapSense_Structure.c **** *  enumerated value generated by the customizer. The format of paramId is as
 945:Generated_Source\PSoC4/CapSense_Structure.c **** *  follows:
 946:Generated_Source\PSoC4/CapSense_Structure.c **** *    1. [ byte 3 byte 2 byte 1 byte 0 ]
 947:Generated_Source\PSoC4/CapSense_Structure.c **** *    2. [ TTWFCCCC UIIIIIII MMMMMMMM LLLLLLLL ]
 948:Generated_Source\PSoC4/CapSense_Structure.c **** *    3. T - encodes the parameter type:
 949:Generated_Source\PSoC4/CapSense_Structure.c **** *      - 01b: uint8
 950:Generated_Source\PSoC4/CapSense_Structure.c **** *      - 10b: uint16
 951:Generated_Source\PSoC4/CapSense_Structure.c **** *      - 11b: uint32
 952:Generated_Source\PSoC4/CapSense_Structure.c **** *    4. W - indicates whether the parameter is writable:
 953:Generated_Source\PSoC4/CapSense_Structure.c **** *      - 0: ReadOnly
 954:Generated_Source\PSoC4/CapSense_Structure.c **** *      - 1: Read/Write
 955:Generated_Source\PSoC4/CapSense_Structure.c **** *    5. C - 4 bit CRC (X^3 + 1) of the whole paramId word, the C bits are
 956:Generated_Source\PSoC4/CapSense_Structure.c **** *       filled with 0s when the CRC is calculated.
 957:Generated_Source\PSoC4/CapSense_Structure.c **** *    6. U - indicates if the parameter affects the RAM Widget Object CRC.
 958:Generated_Source\PSoC4/CapSense_Structure.c **** *    7. I - specifies that the widgetId parameter belongs to
 959:Generated_Source\PSoC4/CapSense_Structure.c **** *    8. M,L - the parameter offset MSB and LSB accordingly in:
 960:Generated_Source\PSoC4/CapSense_Structure.c **** *      - Flash Data Structure if W bit is 0.
 961:Generated_Source\PSoC4/CapSense_Structure.c **** *      - RAM Data Structure if W bit is 1.
 962:Generated_Source\PSoC4/CapSense_Structure.c **** *
 963:Generated_Source\PSoC4/CapSense_Structure.c **** *  Refer to the \ref group_structures section for details of the data structure
 964:Generated_Source\PSoC4/CapSense_Structure.c **** *  organization and examples of its register access.
 965:Generated_Source\PSoC4/CapSense_Structure.c **** *
ARM GAS  C:\Users\zack.li\AppData\Local\Temp\ccXMkTut.s 			page 25


 966:Generated_Source\PSoC4/CapSense_Structure.c **** *  This function writes specified value into the desired register without
 967:Generated_Source\PSoC4/CapSense_Structure.c **** *  other registers update. It is application layer responsibility to keep all
 968:Generated_Source\PSoC4/CapSense_Structure.c **** *  the data structure registers aligned. Repeated call of
 969:Generated_Source\PSoC4/CapSense_Structure.c **** *  CapSense_Start() function helps aligning dependent register values.
 970:Generated_Source\PSoC4/CapSense_Structure.c **** *
 971:Generated_Source\PSoC4/CapSense_Structure.c **** * \param paramId
 972:Generated_Source\PSoC4/CapSense_Structure.c **** *  Specifies the ID of parameter to set its value.
 973:Generated_Source\PSoC4/CapSense_Structure.c **** *  A macro for the parameter ID can be found in the CapSense RegisterMap header
 974:Generated_Source\PSoC4/CapSense_Structure.c **** *  file defined as CapSense_<ParameterName>_PARAM_ID.
 975:Generated_Source\PSoC4/CapSense_Structure.c **** 
 976:Generated_Source\PSoC4/CapSense_Structure.c **** * \param value
 977:Generated_Source\PSoC4/CapSense_Structure.c **** *  Specifies the new parameter's value.
 978:Generated_Source\PSoC4/CapSense_Structure.c **** *
 979:Generated_Source\PSoC4/CapSense_Structure.c **** * \return
 980:Generated_Source\PSoC4/CapSense_Structure.c **** *  Returns the status of the operation:
 981:Generated_Source\PSoC4/CapSense_Structure.c **** *    - CYRET_SUCCESS - The operation is successfully completed.
 982:Generated_Source\PSoC4/CapSense_Structure.c **** *    - CYRET_BAD_PARAM - The input parameter is invalid.
 983:Generated_Source\PSoC4/CapSense_Structure.c **** *
 984:Generated_Source\PSoC4/CapSense_Structure.c **** *******************************************************************************/
 985:Generated_Source\PSoC4/CapSense_Structure.c **** cystatus CapSense_SetParam(uint32 paramId, uint32 value)
 986:Generated_Source\PSoC4/CapSense_Structure.c **** {
 376              		.loc 1 986 0
 377              		.cfi_startproc
 378              		@ args = 0, pretend = 0, frame = 8
 379              		@ frame_needed = 0, uses_anonymous_args = 0
 380              	.LVL39:
 381 0000 30B5     		push	{r4, r5, lr}
 382              		.cfi_def_cfa_offset 12
 383              		.cfi_offset 4, -12
 384              		.cfi_offset 5, -8
 385              		.cfi_offset 14, -4
 386 0002 83B0     		sub	sp, sp, #12
 387              		.cfi_def_cfa_offset 24
 388 0004 0D00     		movs	r5, r1
 987:Generated_Source\PSoC4/CapSense_Structure.c ****     cystatus result;
 988:Generated_Source\PSoC4/CapSense_Structure.c ****     PARAM_ID_STRUCT pData;
 989:Generated_Source\PSoC4/CapSense_Structure.c **** 
 990:Generated_Source\PSoC4/CapSense_Structure.c ****     union
 991:Generated_Source\PSoC4/CapSense_Structure.c ****     {
 992:Generated_Source\PSoC4/CapSense_Structure.c ****         volatile void   * ptr;
 993:Generated_Source\PSoC4/CapSense_Structure.c ****         volatile uint8  * ptrUint8;
 994:Generated_Source\PSoC4/CapSense_Structure.c ****         volatile uint16 * ptrUint16;
 995:Generated_Source\PSoC4/CapSense_Structure.c ****         volatile uint32 * ptrUint32;
 996:Generated_Source\PSoC4/CapSense_Structure.c ****     } ptrData;
 997:Generated_Source\PSoC4/CapSense_Structure.c **** 
 998:Generated_Source\PSoC4/CapSense_Structure.c ****     result = DsParseParamId(paramId, &pData);
 389              		.loc 1 998 0
 390 0006 6946     		mov	r1, sp
 391              	.LVL40:
 392 0008 FFF7FEFF 		bl	DsParseParamId
 393              	.LVL41:
 394 000c 041E     		subs	r4, r0, #0
 395              	.LVL42:
 999:Generated_Source\PSoC4/CapSense_Structure.c **** 
1000:Generated_Source\PSoC4/CapSense_Structure.c ****     /* verify if parameter is writable */
1001:Generated_Source\PSoC4/CapSense_Structure.c ****     if (CYRET_SUCCESS == result)
 396              		.loc 1 1001 0
ARM GAS  C:\Users\zack.li\AppData\Local\Temp\ccXMkTut.s 			page 26


 397 000e 04D1     		bne	.L33
1002:Generated_Source\PSoC4/CapSense_Structure.c ****     {
1003:Generated_Source\PSoC4/CapSense_Structure.c ****         if (0u == pData.rw)
 398              		.loc 1 1003 0
 399 0010 6B46     		mov	r3, sp
 400 0012 9B79     		ldrb	r3, [r3, #6]
 401 0014 002B     		cmp	r3, #0
 402 0016 00D1     		bne	.L33
1004:Generated_Source\PSoC4/CapSense_Structure.c ****         {
1005:Generated_Source\PSoC4/CapSense_Structure.c ****             result = CYRET_BAD_PARAM;
 403              		.loc 1 1005 0
 404 0018 0134     		adds	r4, r4, #1
 405              	.L33:
 406              	.LVL43:
1006:Generated_Source\PSoC4/CapSense_Structure.c ****         }
1007:Generated_Source\PSoC4/CapSense_Structure.c ****     }
1008:Generated_Source\PSoC4/CapSense_Structure.c **** 
1009:Generated_Source\PSoC4/CapSense_Structure.c ****     /* Parse and validate paramId */
1010:Generated_Source\PSoC4/CapSense_Structure.c ****     if (CYRET_SUCCESS == result)
 407              		.loc 1 1010 0
 408 001a 002C     		cmp	r4, #0
 409 001c 16D1     		bne	.L34
1011:Generated_Source\PSoC4/CapSense_Structure.c ****     {
1012:Generated_Source\PSoC4/CapSense_Structure.c ****         /* Get base address of parameter */
1013:Generated_Source\PSoC4/CapSense_Structure.c ****         ptrData.ptr = &CapSense_dsRam;
1014:Generated_Source\PSoC4/CapSense_Structure.c **** 
1015:Generated_Source\PSoC4/CapSense_Structure.c ****         /* Add offset to base address */
1016:Generated_Source\PSoC4/CapSense_Structure.c ****         ptrData.ptrUint8 += pData.offset;
 410              		.loc 1 1016 0
 411 001e 6B46     		mov	r3, sp
 412 0020 1A88     		ldrh	r2, [r3]
 413 0022 0C4B     		ldr	r3, .L39
 414 0024 D318     		adds	r3, r2, r3
1017:Generated_Source\PSoC4/CapSense_Structure.c **** 
1018:Generated_Source\PSoC4/CapSense_Structure.c ****         /* Write data */
1019:Generated_Source\PSoC4/CapSense_Structure.c ****         if (DS_PARAM_TYPE_UINT8 == pData.type)
 415              		.loc 1 1019 0
 416 0026 6A46     		mov	r2, sp
 417 0028 D279     		ldrb	r2, [r2, #7]
 418 002a 012A     		cmp	r2, #1
 419 002c 02D1     		bne	.L35
1020:Generated_Source\PSoC4/CapSense_Structure.c ****         {
1021:Generated_Source\PSoC4/CapSense_Structure.c ****             *ptrData.ptrUint8 = LO8(value);
 420              		.loc 1 1021 0
 421 002e EDB2     		uxtb	r5, r5
 422              	.LVL44:
 423 0030 1D70     		strb	r5, [r3]
 424 0032 0BE0     		b	.L34
 425              	.LVL45:
 426              	.L35:
1022:Generated_Source\PSoC4/CapSense_Structure.c ****         }
1023:Generated_Source\PSoC4/CapSense_Structure.c ****         else if (DS_PARAM_TYPE_UINT16 == pData.type)
 427              		.loc 1 1023 0
 428 0034 022A     		cmp	r2, #2
 429 0036 02D1     		bne	.L36
1024:Generated_Source\PSoC4/CapSense_Structure.c ****         {
1025:Generated_Source\PSoC4/CapSense_Structure.c ****             *ptrData.ptrUint16 = LO16(value);
ARM GAS  C:\Users\zack.li\AppData\Local\Temp\ccXMkTut.s 			page 27


 430              		.loc 1 1025 0
 431 0038 ADB2     		uxth	r5, r5
 432              	.LVL46:
 433 003a 1D80     		strh	r5, [r3]
 434 003c 06E0     		b	.L34
 435              	.LVL47:
 436              	.L36:
1026:Generated_Source\PSoC4/CapSense_Structure.c ****         }
1027:Generated_Source\PSoC4/CapSense_Structure.c ****         else if (DS_PARAM_TYPE_UINT32 == pData.type)
 437              		.loc 1 1027 0
 438 003e 032A     		cmp	r2, #3
 439 0040 01D1     		bne	.L37
1028:Generated_Source\PSoC4/CapSense_Structure.c ****         {
1029:Generated_Source\PSoC4/CapSense_Structure.c ****             *ptrData.ptrUint32 = value;
 440              		.loc 1 1029 0
 441 0042 1D60     		str	r5, [r3]
 442 0044 02E0     		b	.L34
 443              	.L37:
1030:Generated_Source\PSoC4/CapSense_Structure.c ****         }
1031:Generated_Source\PSoC4/CapSense_Structure.c ****         else
1032:Generated_Source\PSoC4/CapSense_Structure.c ****         {
1033:Generated_Source\PSoC4/CapSense_Structure.c ****             /* Parameter comes here already validated. */
1034:Generated_Source\PSoC4/CapSense_Structure.c ****             CYASSERT(0u);
 444              		.loc 1 1034 0 discriminator 1
 445 0046 0020     		movs	r0, #0
 446 0048 FFF7FEFF 		bl	CyHalt
 447              	.LVL48:
 448              	.L34:
1035:Generated_Source\PSoC4/CapSense_Structure.c ****         }
1036:Generated_Source\PSoC4/CapSense_Structure.c **** 
1037:Generated_Source\PSoC4/CapSense_Structure.c ****         #if (CapSense_ENABLE == (CapSense_TST_WDGT_CRC_EN || CapSense_TST_GLOBAL_CRC_EN))
1038:Generated_Source\PSoC4/CapSense_Structure.c ****             /* Update widget or global CRC if self-test is enabled and parameter affects it */
1039:Generated_Source\PSoC4/CapSense_Structure.c ****             if (0u != pData.affectsCrc)
1040:Generated_Source\PSoC4/CapSense_Structure.c ****             {
1041:Generated_Source\PSoC4/CapSense_Structure.c ****                 if ((ptrData.ptrUint16 >= &CapSense_dsRam.csd0Config) &&
1042:Generated_Source\PSoC4/CapSense_Structure.c ****                     (ptrData.ptrUint16 <  &CapSense_dsRam.glbCrc))
1043:Generated_Source\PSoC4/CapSense_Structure.c ****                 {
1044:Generated_Source\PSoC4/CapSense_Structure.c **** 
1045:Generated_Source\PSoC4/CapSense_Structure.c ****                     #if (CapSense_ENABLE == CapSense_TST_GLOBAL_CRC_EN)
1046:Generated_Source\PSoC4/CapSense_Structure.c ****                         CapSense_DsUpdateGlobalCrc();
1047:Generated_Source\PSoC4/CapSense_Structure.c ****                     #endif /* (CapSense_ENABLE == CapSense_TST_GLOBAL_CRC_EN) */
1048:Generated_Source\PSoC4/CapSense_Structure.c **** 
1049:Generated_Source\PSoC4/CapSense_Structure.c ****                 }
1050:Generated_Source\PSoC4/CapSense_Structure.c ****                 else
1051:Generated_Source\PSoC4/CapSense_Structure.c ****                 {
1052:Generated_Source\PSoC4/CapSense_Structure.c ****                     #if (CapSense_ENABLE == CapSense_TST_WDGT_CRC_EN)
1053:Generated_Source\PSoC4/CapSense_Structure.c ****                         CapSense_DsUpdateWidgetCrc((uint32)pData.widgetId);
1054:Generated_Source\PSoC4/CapSense_Structure.c ****                     #endif /* (CapSense_ENABLE == CapSense_TST_WDGT_CRC_EN) */
1055:Generated_Source\PSoC4/CapSense_Structure.c ****                 }
1056:Generated_Source\PSoC4/CapSense_Structure.c ****             }
1057:Generated_Source\PSoC4/CapSense_Structure.c ****         #endif /* (CapSense_ENABLE == (CapSense_TST_WDGT_CRC_EN || CapSense_TST_GLOBAL_CRC_EN)) */
1058:Generated_Source\PSoC4/CapSense_Structure.c ****     }
1059:Generated_Source\PSoC4/CapSense_Structure.c **** 
1060:Generated_Source\PSoC4/CapSense_Structure.c ****     return result;
1061:Generated_Source\PSoC4/CapSense_Structure.c **** }
 449              		.loc 1 1061 0
 450 004c 2000     		movs	r0, r4
ARM GAS  C:\Users\zack.li\AppData\Local\Temp\ccXMkTut.s 			page 28


 451 004e 03B0     		add	sp, sp, #12
 452              		@ sp needed
 453              	.LVL49:
 454 0050 30BD     		pop	{r4, r5, pc}
 455              	.L40:
 456 0052 C046     		.align	2
 457              	.L39:
 458 0054 00000000 		.word	CapSense_dsRam
 459              		.cfi_endproc
 460              	.LFE4:
 461              		.size	CapSense_SetParam, .-CapSense_SetParam
 462              		.section	.text.CapSense_IsAnyWidgetActive,"ax",%progbits
 463              		.align	2
 464              		.global	CapSense_IsAnyWidgetActive
 465              		.code	16
 466              		.thumb_func
 467              		.type	CapSense_IsAnyWidgetActive, %function
 468              	CapSense_IsAnyWidgetActive:
 469              	.LFB5:
1062:Generated_Source\PSoC4/CapSense_Structure.c **** 
1063:Generated_Source\PSoC4/CapSense_Structure.c **** /*******************************************************************************
1064:Generated_Source\PSoC4/CapSense_Structure.c **** * Function Name: CapSense_IsAnyWidgetActive
1065:Generated_Source\PSoC4/CapSense_Structure.c **** ****************************************************************************//**
1066:Generated_Source\PSoC4/CapSense_Structure.c **** *
1067:Generated_Source\PSoC4/CapSense_Structure.c **** * \brief
1068:Generated_Source\PSoC4/CapSense_Structure.c **** *  Reports if any widget has detected a touch.
1069:Generated_Source\PSoC4/CapSense_Structure.c **** *
1070:Generated_Source\PSoC4/CapSense_Structure.c **** * \details
1071:Generated_Source\PSoC4/CapSense_Structure.c **** *  This function reports if any widget has detected a touch or not by extracting
1072:Generated_Source\PSoC4/CapSense_Structure.c **** *  information from the wdgtStatus registers
1073:Generated_Source\PSoC4/CapSense_Structure.c **** *  (CapSense_WDGT_STATUS<X>_VALUE). This function does not process a
1074:Generated_Source\PSoC4/CapSense_Structure.c **** *  widget but extracts processed results from the \ref group_structures.
1075:Generated_Source\PSoC4/CapSense_Structure.c **** *
1076:Generated_Source\PSoC4/CapSense_Structure.c **** * \return
1077:Generated_Source\PSoC4/CapSense_Structure.c **** *   Returns the touch detection status of all the widgets:
1078:Generated_Source\PSoC4/CapSense_Structure.c **** *     - Zero - No touch is detected in all the widgets or sensors.
1079:Generated_Source\PSoC4/CapSense_Structure.c **** *     - Non-zero - At least one widget or sensor detected a touch.
1080:Generated_Source\PSoC4/CapSense_Structure.c **** *
1081:Generated_Source\PSoC4/CapSense_Structure.c **** *******************************************************************************/
1082:Generated_Source\PSoC4/CapSense_Structure.c **** uint32 CapSense_IsAnyWidgetActive(void)
1083:Generated_Source\PSoC4/CapSense_Structure.c **** {
 470              		.loc 1 1083 0
 471              		.cfi_startproc
 472              		@ args = 0, pretend = 0, frame = 0
 473              		@ frame_needed = 0, uses_anonymous_args = 0
 474              		@ link register save eliminated.
 475              	.LVL50:
1084:Generated_Source\PSoC4/CapSense_Structure.c ****     uint32 result = 0Lu;
1085:Generated_Source\PSoC4/CapSense_Structure.c ****     uint32 wdWord;
1086:Generated_Source\PSoC4/CapSense_Structure.c **** 
1087:Generated_Source\PSoC4/CapSense_Structure.c ****     for (wdWord = CapSense_WDGT_STATUS_WORDS; wdWord-- > 0u;)
 476              		.loc 1 1087 0
 477 0000 0123     		movs	r3, #1
1084:Generated_Source\PSoC4/CapSense_Structure.c ****     uint32 result = 0Lu;
 478              		.loc 1 1084 0
 479 0002 0020     		movs	r0, #0
 480              		.loc 1 1087 0
ARM GAS  C:\Users\zack.li\AppData\Local\Temp\ccXMkTut.s 			page 29


 481 0004 06E0     		b	.L42
 482              	.LVL51:
 483              	.L43:
1088:Generated_Source\PSoC4/CapSense_Structure.c ****     {
1089:Generated_Source\PSoC4/CapSense_Structure.c ****         result |= CapSense_dsRam.wdgtStatus[wdWord];
 484              		.loc 1 1089 0
 485 0006 131D     		adds	r3, r2, #4
 486 0008 9B00     		lsls	r3, r3, #2
 487 000a 0449     		ldr	r1, .L44
 488 000c CB18     		adds	r3, r1, r3
 489 000e 5B68     		ldr	r3, [r3, #4]
 490 0010 1843     		orrs	r0, r3
 491              	.LVL52:
1087:Generated_Source\PSoC4/CapSense_Structure.c ****     {
 492              		.loc 1 1087 0
 493 0012 1300     		movs	r3, r2
 494              	.LVL53:
 495              	.L42:
1087:Generated_Source\PSoC4/CapSense_Structure.c ****     {
 496              		.loc 1 1087 0 is_stmt 0 discriminator 1
 497 0014 5A1E     		subs	r2, r3, #1
 498              	.LVL54:
 499 0016 002B     		cmp	r3, #0
 500 0018 F5D1     		bne	.L43
1090:Generated_Source\PSoC4/CapSense_Structure.c ****     }
1091:Generated_Source\PSoC4/CapSense_Structure.c **** 
1092:Generated_Source\PSoC4/CapSense_Structure.c ****     return result;
1093:Generated_Source\PSoC4/CapSense_Structure.c **** }
 501              		.loc 1 1093 0 is_stmt 1
 502              		@ sp needed
 503 001a 7047     		bx	lr
 504              	.L45:
 505              		.align	2
 506              	.L44:
 507 001c 00000000 		.word	CapSense_dsRam
 508              		.cfi_endproc
 509              	.LFE5:
 510              		.size	CapSense_IsAnyWidgetActive, .-CapSense_IsAnyWidgetActive
 511              		.section	.text.CapSense_IsWidgetActive,"ax",%progbits
 512              		.align	2
 513              		.global	CapSense_IsWidgetActive
 514              		.code	16
 515              		.thumb_func
 516              		.type	CapSense_IsWidgetActive, %function
 517              	CapSense_IsWidgetActive:
 518              	.LFB6:
1094:Generated_Source\PSoC4/CapSense_Structure.c **** 
1095:Generated_Source\PSoC4/CapSense_Structure.c **** 
1096:Generated_Source\PSoC4/CapSense_Structure.c **** /*******************************************************************************
1097:Generated_Source\PSoC4/CapSense_Structure.c **** * Function Name: CapSense_IsWidgetActive
1098:Generated_Source\PSoC4/CapSense_Structure.c **** ****************************************************************************//**
1099:Generated_Source\PSoC4/CapSense_Structure.c **** *
1100:Generated_Source\PSoC4/CapSense_Structure.c **** * \brief
1101:Generated_Source\PSoC4/CapSense_Structure.c **** *  Reports if the specified widget detects a touch on any of its sensors.
1102:Generated_Source\PSoC4/CapSense_Structure.c **** *
1103:Generated_Source\PSoC4/CapSense_Structure.c **** * \details
1104:Generated_Source\PSoC4/CapSense_Structure.c **** *  This function reports if the specified widget has detected a touch or not by
ARM GAS  C:\Users\zack.li\AppData\Local\Temp\ccXMkTut.s 			page 30


1105:Generated_Source\PSoC4/CapSense_Structure.c **** *  extracting information from the wdgtStatus registers
1106:Generated_Source\PSoC4/CapSense_Structure.c **** *  (CapSense_WDGT_STATUS<X>_VALUE). This function does not process the
1107:Generated_Source\PSoC4/CapSense_Structure.c **** *  widget but extracts processed results from the \ref group_structures.
1108:Generated_Source\PSoC4/CapSense_Structure.c **** *
1109:Generated_Source\PSoC4/CapSense_Structure.c **** * \param widgetId
1110:Generated_Source\PSoC4/CapSense_Structure.c **** *  Specifies the ID number of the widget to get its status.
1111:Generated_Source\PSoC4/CapSense_Structure.c **** *  A macro for the widget ID can be found in the CapSense Configuration header
1112:Generated_Source\PSoC4/CapSense_Structure.c **** *  file defined as CapSense_<WidgetName>_WDGT_ID.
1113:Generated_Source\PSoC4/CapSense_Structure.c **** *
1114:Generated_Source\PSoC4/CapSense_Structure.c **** * \return
1115:Generated_Source\PSoC4/CapSense_Structure.c **** *  Returns the touch detection status of the specified widgets:
1116:Generated_Source\PSoC4/CapSense_Structure.c **** *    - Zero - No touch is detected in the specified widget or a wrong widgetId
1117:Generated_Source\PSoC4/CapSense_Structure.c **** *      is specified.
1118:Generated_Source\PSoC4/CapSense_Structure.c **** *    - Non-zero if at least one sensor of the specified widget is active, i.e.
1119:Generated_Source\PSoC4/CapSense_Structure.c **** *      a touch is detected.
1120:Generated_Source\PSoC4/CapSense_Structure.c **** *
1121:Generated_Source\PSoC4/CapSense_Structure.c **** *******************************************************************************/
1122:Generated_Source\PSoC4/CapSense_Structure.c **** uint32 CapSense_IsWidgetActive(uint32 widgetId)
1123:Generated_Source\PSoC4/CapSense_Structure.c **** {
 519              		.loc 1 1123 0
 520              		.cfi_startproc
 521              		@ args = 0, pretend = 0, frame = 0
 522              		@ frame_needed = 0, uses_anonymous_args = 0
 523              		@ link register save eliminated.
 524              	.LVL55:
1124:Generated_Source\PSoC4/CapSense_Structure.c ****     uint32 result = 0Lu;
1125:Generated_Source\PSoC4/CapSense_Structure.c **** 
1126:Generated_Source\PSoC4/CapSense_Structure.c ****     if (widgetId < CapSense_TOTAL_WIDGETS)
 525              		.loc 1 1126 0
 526 0000 0528     		cmp	r0, #5
 527 0002 0BD8     		bhi	.L48
1127:Generated_Source\PSoC4/CapSense_Structure.c ****     {
1128:Generated_Source\PSoC4/CapSense_Structure.c ****         result = CapSense_GET_WIDGET_ACTIVE_STATUS(widgetId);
 528              		.loc 1 1128 0
 529 0004 1F23     		movs	r3, #31
 530 0006 0340     		ands	r3, r0
 531 0008 0122     		movs	r2, #1
 532 000a 9A40     		lsls	r2, r2, r3
 533 000c 4009     		lsrs	r0, r0, #5
 534              	.LVL56:
 535 000e 031D     		adds	r3, r0, #4
 536 0010 9B00     		lsls	r3, r3, #2
 537 0012 0348     		ldr	r0, .L49
 538 0014 C318     		adds	r3, r0, r3
 539 0016 5868     		ldr	r0, [r3, #4]
 540 0018 1040     		ands	r0, r2
 541              	.LVL57:
 542 001a 00E0     		b	.L47
 543              	.LVL58:
 544              	.L48:
1124:Generated_Source\PSoC4/CapSense_Structure.c ****     uint32 result = 0Lu;
 545              		.loc 1 1124 0
 546 001c 0020     		movs	r0, #0
 547              	.LVL59:
 548              	.L47:
1129:Generated_Source\PSoC4/CapSense_Structure.c ****     }
1130:Generated_Source\PSoC4/CapSense_Structure.c ****     return result;
ARM GAS  C:\Users\zack.li\AppData\Local\Temp\ccXMkTut.s 			page 31


1131:Generated_Source\PSoC4/CapSense_Structure.c **** }
 549              		.loc 1 1131 0
 550              		@ sp needed
 551 001e 7047     		bx	lr
 552              	.L50:
 553              		.align	2
 554              	.L49:
 555 0020 00000000 		.word	CapSense_dsRam
 556              		.cfi_endproc
 557              	.LFE6:
 558              		.size	CapSense_IsWidgetActive, .-CapSense_IsWidgetActive
 559              		.section	.text.CapSense_IsSensorActive,"ax",%progbits
 560              		.align	2
 561              		.global	CapSense_IsSensorActive
 562              		.code	16
 563              		.thumb_func
 564              		.type	CapSense_IsSensorActive, %function
 565              	CapSense_IsSensorActive:
 566              	.LFB7:
1132:Generated_Source\PSoC4/CapSense_Structure.c **** 
1133:Generated_Source\PSoC4/CapSense_Structure.c **** 
1134:Generated_Source\PSoC4/CapSense_Structure.c **** /*******************************************************************************
1135:Generated_Source\PSoC4/CapSense_Structure.c **** * Function Name: CapSense_IsSensorActive
1136:Generated_Source\PSoC4/CapSense_Structure.c **** ****************************************************************************//**
1137:Generated_Source\PSoC4/CapSense_Structure.c **** *
1138:Generated_Source\PSoC4/CapSense_Structure.c **** * \brief
1139:Generated_Source\PSoC4/CapSense_Structure.c **** *  Reports if the specified sensor in the widget detects a touch.
1140:Generated_Source\PSoC4/CapSense_Structure.c **** *
1141:Generated_Source\PSoC4/CapSense_Structure.c **** * \details
1142:Generated_Source\PSoC4/CapSense_Structure.c **** *  This function reports if the specified sensor in the widget has detected a
1143:Generated_Source\PSoC4/CapSense_Structure.c **** *  touch or not by extracting information from the wdgtStatus registers
1144:Generated_Source\PSoC4/CapSense_Structure.c **** *  (CapSense_WDGT_STATUS<X>_VALUE). This function does not process the
1145:Generated_Source\PSoC4/CapSense_Structure.c **** *  widget or sensor but extracts processed results from the \ref group_structures.
1146:Generated_Source\PSoC4/CapSense_Structure.c **** *
1147:Generated_Source\PSoC4/CapSense_Structure.c **** *  For proximity sensors, this function returns the proximity detection status. To
1148:Generated_Source\PSoC4/CapSense_Structure.c **** *  get the finger touch status of proximity sensors, use the
1149:Generated_Source\PSoC4/CapSense_Structure.c **** *  CapSense_IsProximitySensorActive() function.
1150:Generated_Source\PSoC4/CapSense_Structure.c **** *
1151:Generated_Source\PSoC4/CapSense_Structure.c **** * \param widgetId
1152:Generated_Source\PSoC4/CapSense_Structure.c **** *  Specifies the ID number of the widget.
1153:Generated_Source\PSoC4/CapSense_Structure.c **** *  A macro for the widget ID can be found in the CapSense Configuration header
1154:Generated_Source\PSoC4/CapSense_Structure.c **** *  file defined as CapSense_<WidgetName>_WDGT_ID.
1155:Generated_Source\PSoC4/CapSense_Structure.c **** 
1156:Generated_Source\PSoC4/CapSense_Structure.c **** * \param sensorId
1157:Generated_Source\PSoC4/CapSense_Structure.c **** *  Specifies the ID number of the sensor within the widget to get its touch
1158:Generated_Source\PSoC4/CapSense_Structure.c **** *  detection status.
1159:Generated_Source\PSoC4/CapSense_Structure.c **** *  A macro for the sensor ID within the specified widget can be found in the
1160:Generated_Source\PSoC4/CapSense_Structure.c **** *  CapSense Configuration header file defined as
1161:Generated_Source\PSoC4/CapSense_Structure.c **** *  CapSense_<WidgetName>_SNS<SensorNumber>_ID.
1162:Generated_Source\PSoC4/CapSense_Structure.c **** *
1163:Generated_Source\PSoC4/CapSense_Structure.c **** * \return
1164:Generated_Source\PSoC4/CapSense_Structure.c **** *  Returns the touch detection status of the specified sensor / widget:
1165:Generated_Source\PSoC4/CapSense_Structure.c **** *    - Zero if no touch is detected in the specified sensor / widget or a wrong
1166:Generated_Source\PSoC4/CapSense_Structure.c **** *      widget ID / sensor ID is specified.
1167:Generated_Source\PSoC4/CapSense_Structure.c **** *    - Non-zero if the specified sensor is active i.e. touch is detected. If the
1168:Generated_Source\PSoC4/CapSense_Structure.c **** *      specific sensor belongs to a proximity widget, the proximity detection
1169:Generated_Source\PSoC4/CapSense_Structure.c **** *      status is returned.
ARM GAS  C:\Users\zack.li\AppData\Local\Temp\ccXMkTut.s 			page 32


1170:Generated_Source\PSoC4/CapSense_Structure.c **** *
1171:Generated_Source\PSoC4/CapSense_Structure.c **** *******************************************************************************/
1172:Generated_Source\PSoC4/CapSense_Structure.c **** uint32 CapSense_IsSensorActive(uint32 widgetId, uint32 sensorId)
1173:Generated_Source\PSoC4/CapSense_Structure.c **** {
 567              		.loc 1 1173 0
 568              		.cfi_startproc
 569              		@ args = 0, pretend = 0, frame = 0
 570              		@ frame_needed = 0, uses_anonymous_args = 0
 571              		@ link register save eliminated.
 572              	.LVL60:
1174:Generated_Source\PSoC4/CapSense_Structure.c ****     uint32 result = 0Lu;
1175:Generated_Source\PSoC4/CapSense_Structure.c **** 
1176:Generated_Source\PSoC4/CapSense_Structure.c ****     if ((widgetId < CapSense_TOTAL_WIDGETS) &&
 573              		.loc 1 1176 0
 574 0000 0528     		cmp	r0, #5
 575 0002 18D8     		bhi	.L54
1177:Generated_Source\PSoC4/CapSense_Structure.c ****         (sensorId < CapSense_GET_SENSOR_COUNT(widgetId)))
 576              		.loc 1 1177 0 discriminator 1
 577 0004 C200     		lsls	r2, r0, #3
 578 0006 121A     		subs	r2, r2, r0
 579 0008 9300     		lsls	r3, r2, #2
 580 000a 0D4A     		ldr	r2, .L56
 581 000c D318     		adds	r3, r2, r3
 582 000e 1B8C     		ldrh	r3, [r3, #32]
1176:Generated_Source\PSoC4/CapSense_Structure.c ****         (sensorId < CapSense_GET_SENSOR_COUNT(widgetId)))
 583              		.loc 1 1176 0 discriminator 1
 584 0010 8B42     		cmp	r3, r1
 585 0012 12D9     		bls	.L55
1178:Generated_Source\PSoC4/CapSense_Structure.c ****     {
1179:Generated_Source\PSoC4/CapSense_Structure.c ****         #if (CapSense_ENABLE == CapSense_PROXIMITY_WIDGET_EN)
1180:Generated_Source\PSoC4/CapSense_Structure.c ****             if (CapSense_WD_PROXIMITY_E ==
1181:Generated_Source\PSoC4/CapSense_Structure.c ****                 (CapSense_WD_TYPE_ENUM)CapSense_dsFlash.wdgtArray[widgetId].wdgtType)
 586              		.loc 1 1181 0
 587 0014 C200     		lsls	r2, r0, #3
 588 0016 121A     		subs	r2, r2, r0
 589 0018 9300     		lsls	r3, r2, #2
 590 001a 094A     		ldr	r2, .L56
 591 001c D318     		adds	r3, r2, r3
 592 001e 2233     		adds	r3, r3, #34
 593 0020 1B78     		ldrb	r3, [r3]
1180:Generated_Source\PSoC4/CapSense_Structure.c ****                 (CapSense_WD_TYPE_ENUM)CapSense_dsFlash.wdgtArray[widgetId].wdgtType)
 594              		.loc 1 1180 0
 595 0022 062B     		cmp	r3, #6
 596 0024 00D1     		bne	.L53
1182:Generated_Source\PSoC4/CapSense_Structure.c ****             {
1183:Generated_Source\PSoC4/CapSense_Structure.c ****                 sensorId = CapSense_PROX_STS_OFFSET(sensorId);
 597              		.loc 1 1183 0
 598 0026 4900     		lsls	r1, r1, #1
 599              	.LVL61:
 600              	.L53:
1184:Generated_Source\PSoC4/CapSense_Structure.c ****             }
1185:Generated_Source\PSoC4/CapSense_Structure.c ****         #endif /* (CapSense_ENABLE != CapSense_PROXIMITY_WIDGET_EN) */
1186:Generated_Source\PSoC4/CapSense_Structure.c ****         result = CapSense_dsRam.snsStatus[widgetId] & (1Lu << sensorId);
 601              		.loc 1 1186 0
 602 0028 064B     		ldr	r3, .L56+4
 603 002a 1818     		adds	r0, r3, r0
 604              	.LVL62:
ARM GAS  C:\Users\zack.li\AppData\Local\Temp\ccXMkTut.s 			page 33


 605 002c 037E     		ldrb	r3, [r0, #24]
 606 002e 0120     		movs	r0, #1
 607 0030 8840     		lsls	r0, r0, r1
 608 0032 1840     		ands	r0, r3
 609              	.LVL63:
 610 0034 02E0     		b	.L52
 611              	.LVL64:
 612              	.L54:
1174:Generated_Source\PSoC4/CapSense_Structure.c **** 
 613              		.loc 1 1174 0
 614 0036 0020     		movs	r0, #0
 615              	.LVL65:
 616 0038 00E0     		b	.L52
 617              	.LVL66:
 618              	.L55:
 619 003a 0020     		movs	r0, #0
 620              	.LVL67:
 621              	.L52:
1187:Generated_Source\PSoC4/CapSense_Structure.c ****     }
1188:Generated_Source\PSoC4/CapSense_Structure.c **** 
1189:Generated_Source\PSoC4/CapSense_Structure.c ****     return result;
1190:Generated_Source\PSoC4/CapSense_Structure.c **** }
 622              		.loc 1 1190 0
 623              		@ sp needed
 624 003c 7047     		bx	lr
 625              	.L57:
 626 003e C046     		.align	2
 627              	.L56:
 628 0040 00000000 		.word	.LANCHOR0
 629 0044 00000000 		.word	CapSense_dsRam
 630              		.cfi_endproc
 631              	.LFE7:
 632              		.size	CapSense_IsSensorActive, .-CapSense_IsSensorActive
 633              		.section	.text.CapSense_IsProximitySensorActive,"ax",%progbits
 634              		.align	2
 635              		.global	CapSense_IsProximitySensorActive
 636              		.code	16
 637              		.thumb_func
 638              		.type	CapSense_IsProximitySensorActive, %function
 639              	CapSense_IsProximitySensorActive:
 640              	.LFB8:
1191:Generated_Source\PSoC4/CapSense_Structure.c **** 
1192:Generated_Source\PSoC4/CapSense_Structure.c **** #if (0u != CapSense_MATRIX_WIDGET_EN)
1193:Generated_Source\PSoC4/CapSense_Structure.c **** /*******************************************************************************
1194:Generated_Source\PSoC4/CapSense_Structure.c **** * Function Name: CapSense_IsMatrixButtonsActive
1195:Generated_Source\PSoC4/CapSense_Structure.c **** ****************************************************************************//**
1196:Generated_Source\PSoC4/CapSense_Structure.c **** *
1197:Generated_Source\PSoC4/CapSense_Structure.c **** * \brief
1198:Generated_Source\PSoC4/CapSense_Structure.c **** *  Reports the status of the specified matrix button widget.
1199:Generated_Source\PSoC4/CapSense_Structure.c **** *
1200:Generated_Source\PSoC4/CapSense_Structure.c **** * \details
1201:Generated_Source\PSoC4/CapSense_Structure.c **** *  This function reports if the specified matrix widget has detected a touch or
1202:Generated_Source\PSoC4/CapSense_Structure.c **** *  not by extracting information from the wdgtStatus registers
1203:Generated_Source\PSoC4/CapSense_Structure.c **** *  (CapSense_WDGT_STATUS<X>_VALUE for the CSD widgets and
1204:Generated_Source\PSoC4/CapSense_Structure.c **** *  CapSense_SNS_STATUS<WidgetId>_VALUE for CSX widget). In addition, the
1205:Generated_Source\PSoC4/CapSense_Structure.c **** *  function provides details of the active sensor including active rows/columns
1206:Generated_Source\PSoC4/CapSense_Structure.c **** *  for the CSD widgets. This function is used only with the matrix button
ARM GAS  C:\Users\zack.li\AppData\Local\Temp\ccXMkTut.s 			page 34


1207:Generated_Source\PSoC4/CapSense_Structure.c **** *  widgets. This function does not process the widget but extracts
1208:Generated_Source\PSoC4/CapSense_Structure.c **** *  processed results from the \ref group_structures.
1209:Generated_Source\PSoC4/CapSense_Structure.c **** *
1210:Generated_Source\PSoC4/CapSense_Structure.c **** * \param widgetId
1211:Generated_Source\PSoC4/CapSense_Structure.c **** *  Specifies the ID number of the matrix button widget to check the status of its
1212:Generated_Source\PSoC4/CapSense_Structure.c **** *  sensors.
1213:Generated_Source\PSoC4/CapSense_Structure.c **** *  A macro for the widget ID can be found in the CapSense Configuration header file
1214:Generated_Source\PSoC4/CapSense_Structure.c **** *  defined as CapSense_<WidgetName>_WDGT_ID
1215:Generated_Source\PSoC4/CapSense_Structure.c **** *
1216:Generated_Source\PSoC4/CapSense_Structure.c **** * \return
1217:Generated_Source\PSoC4/CapSense_Structure.c **** *  Returns the touch detection status of the sensors in the specified matrix
1218:Generated_Source\PSoC4/CapSense_Structure.c **** *  buttons widget. Zero indicates that no touch is detected in the specified
1219:Generated_Source\PSoC4/CapSense_Structure.c **** *  widget or a wrong widgetId is specified.
1220:Generated_Source\PSoC4/CapSense_Structure.c **** *    1. For the matrix buttons widgets with the CSD sensing mode:
1221:Generated_Source\PSoC4/CapSense_Structure.c **** *      - Bit [31] if set, indicates that one or more sensors in the widget
1222:Generated_Source\PSoC4/CapSense_Structure.c **** *        detected a touch.
1223:Generated_Source\PSoC4/CapSense_Structure.c **** *      - Bits [30..24] are reserved
1224:Generated_Source\PSoC4/CapSense_Structure.c **** *      - Bits [23..16] indicate the logical sensor number of the sensor that
1225:Generated_Source\PSoC4/CapSense_Structure.c **** *        detected a touch. If more than one sensor detected a touch for the CSD
1226:Generated_Source\PSoC4/CapSense_Structure.c **** *        widget, no status is reported because more than one touch is invalid for the
1227:Generated_Source\PSoC4/CapSense_Structure.c **** *        CSD matrix buttons widgets.
1228:Generated_Source\PSoC4/CapSense_Structure.c **** *      - Bits [15..8] indicate the active row number.
1229:Generated_Source\PSoC4/CapSense_Structure.c **** *      - Bits [7..0] indicate the active column number.
1230:Generated_Source\PSoC4/CapSense_Structure.c **** *    2. For the matrix buttons widgets with the CSX widgets, each bit (31..0)
1231:Generated_Source\PSoC4/CapSense_Structure.c **** *      corresponds to the TX/RX intersection.
1232:Generated_Source\PSoC4/CapSense_Structure.c **** *
1233:Generated_Source\PSoC4/CapSense_Structure.c **** *******************************************************************************/
1234:Generated_Source\PSoC4/CapSense_Structure.c **** uint32 CapSense_IsMatrixButtonsActive(uint32 widgetId)
1235:Generated_Source\PSoC4/CapSense_Structure.c **** {
1236:Generated_Source\PSoC4/CapSense_Structure.c ****     uint32 result = 0Lu;
1237:Generated_Source\PSoC4/CapSense_Structure.c ****     cystatus state = CYRET_SUCCESS;
1238:Generated_Source\PSoC4/CapSense_Structure.c ****     CapSense_FLASH_WD_STRUCT const *ptrFlashWdgt = 0u;
1239:Generated_Source\PSoC4/CapSense_Structure.c **** 
1240:Generated_Source\PSoC4/CapSense_Structure.c ****     #if (0u != CapSense_CSD_MATRIX_WIDGET_EN)
1241:Generated_Source\PSoC4/CapSense_Structure.c ****         CapSense_RAM_WD_CSD_MATRIX_STRUCT *wdCsdMatrix;
1242:Generated_Source\PSoC4/CapSense_Structure.c ****     #endif
1243:Generated_Source\PSoC4/CapSense_Structure.c **** 
1244:Generated_Source\PSoC4/CapSense_Structure.c ****     if (widgetId >= CapSense_TOTAL_WIDGETS)
1245:Generated_Source\PSoC4/CapSense_Structure.c ****     {
1246:Generated_Source\PSoC4/CapSense_Structure.c ****         state = CYRET_BAD_PARAM;
1247:Generated_Source\PSoC4/CapSense_Structure.c ****     }
1248:Generated_Source\PSoC4/CapSense_Structure.c ****     else
1249:Generated_Source\PSoC4/CapSense_Structure.c ****     {
1250:Generated_Source\PSoC4/CapSense_Structure.c ****         ptrFlashWdgt = &CapSense_dsFlash.wdgtArray[widgetId];
1251:Generated_Source\PSoC4/CapSense_Structure.c **** 
1252:Generated_Source\PSoC4/CapSense_Structure.c ****         if ((CapSense_WD_TYPE_ENUM)ptrFlashWdgt->wdgtType != CapSense_WD_MATRIX_BUTTON_E)
1253:Generated_Source\PSoC4/CapSense_Structure.c ****         {
1254:Generated_Source\PSoC4/CapSense_Structure.c ****             state = CYRET_BAD_PARAM;
1255:Generated_Source\PSoC4/CapSense_Structure.c ****         }
1256:Generated_Source\PSoC4/CapSense_Structure.c ****         else if (0u == CapSense_GET_WIDGET_ACTIVE_STATUS(widgetId))
1257:Generated_Source\PSoC4/CapSense_Structure.c ****         {
1258:Generated_Source\PSoC4/CapSense_Structure.c ****             state = CYRET_BAD_PARAM;
1259:Generated_Source\PSoC4/CapSense_Structure.c ****         }
1260:Generated_Source\PSoC4/CapSense_Structure.c ****         else
1261:Generated_Source\PSoC4/CapSense_Structure.c ****         {
1262:Generated_Source\PSoC4/CapSense_Structure.c ****             /* input parameters are OK */
1263:Generated_Source\PSoC4/CapSense_Structure.c ****         }
ARM GAS  C:\Users\zack.li\AppData\Local\Temp\ccXMkTut.s 			page 35


1264:Generated_Source\PSoC4/CapSense_Structure.c ****     }
1265:Generated_Source\PSoC4/CapSense_Structure.c **** 
1266:Generated_Source\PSoC4/CapSense_Structure.c ****     if (CYRET_SUCCESS == state)
1267:Generated_Source\PSoC4/CapSense_Structure.c ****     {
1268:Generated_Source\PSoC4/CapSense_Structure.c ****         switch(CapSense_GET_SENSE_METHOD(ptrFlashWdgt))
1269:Generated_Source\PSoC4/CapSense_Structure.c ****         {
1270:Generated_Source\PSoC4/CapSense_Structure.c ****         #if (0u != CapSense_CSD_MATRIX_WIDGET_EN)
1271:Generated_Source\PSoC4/CapSense_Structure.c ****             case CapSense_SENSE_METHOD_CSD_E:
1272:Generated_Source\PSoC4/CapSense_Structure.c ****                 wdCsdMatrix = ptrFlashWdgt->ptr2WdgtRam;
1273:Generated_Source\PSoC4/CapSense_Structure.c **** 
1274:Generated_Source\PSoC4/CapSense_Structure.c ****                 result = CapSense_MATRIX_BUTTONS_TOUCHED |
1275:Generated_Source\PSoC4/CapSense_Structure.c ****                          ((uint32)wdCsdMatrix->posSnsId << 16u)  |
1276:Generated_Source\PSoC4/CapSense_Structure.c ****                          ((uint32)wdCsdMatrix->posRow   << 8u)   |
1277:Generated_Source\PSoC4/CapSense_Structure.c ****                          (uint32)wdCsdMatrix->posCol;
1278:Generated_Source\PSoC4/CapSense_Structure.c ****                 break;
1279:Generated_Source\PSoC4/CapSense_Structure.c ****         #endif /* #if (0u != CapSense_CSD_MATRIX_WIDGET_EN) */
1280:Generated_Source\PSoC4/CapSense_Structure.c **** 
1281:Generated_Source\PSoC4/CapSense_Structure.c ****         #if (0u != CapSense_CSX_MATRIX_WIDGET_EN)
1282:Generated_Source\PSoC4/CapSense_Structure.c ****             case CapSense_SENSE_METHOD_CSX_E:
1283:Generated_Source\PSoC4/CapSense_Structure.c ****                 result = CapSense_dsRam.snsStatus[widgetId];
1284:Generated_Source\PSoC4/CapSense_Structure.c ****                 break;
1285:Generated_Source\PSoC4/CapSense_Structure.c ****         #endif /* #if (0u != CapSense_CSX_MATRIX_WIDGET_EN) */
1286:Generated_Source\PSoC4/CapSense_Structure.c **** 
1287:Generated_Source\PSoC4/CapSense_Structure.c ****         default:
1288:Generated_Source\PSoC4/CapSense_Structure.c ****             CYASSERT(0u);
1289:Generated_Source\PSoC4/CapSense_Structure.c ****             break;
1290:Generated_Source\PSoC4/CapSense_Structure.c ****         }
1291:Generated_Source\PSoC4/CapSense_Structure.c ****     }
1292:Generated_Source\PSoC4/CapSense_Structure.c **** 
1293:Generated_Source\PSoC4/CapSense_Structure.c ****     return result;
1294:Generated_Source\PSoC4/CapSense_Structure.c **** }
1295:Generated_Source\PSoC4/CapSense_Structure.c **** #endif /* #if (0u != CapSense_MATRIX_WIDGET_EN) */
1296:Generated_Source\PSoC4/CapSense_Structure.c **** 
1297:Generated_Source\PSoC4/CapSense_Structure.c **** #if (0u != CapSense_PROXIMITY_WIDGET_EN)
1298:Generated_Source\PSoC4/CapSense_Structure.c **** /*******************************************************************************
1299:Generated_Source\PSoC4/CapSense_Structure.c **** * Function Name: CapSense_IsProximitySensorActive
1300:Generated_Source\PSoC4/CapSense_Structure.c **** ****************************************************************************//**
1301:Generated_Source\PSoC4/CapSense_Structure.c **** *
1302:Generated_Source\PSoC4/CapSense_Structure.c **** * \brief
1303:Generated_Source\PSoC4/CapSense_Structure.c **** *  Reports the finger detection status of the specified proximity widget/sensor.
1304:Generated_Source\PSoC4/CapSense_Structure.c **** *
1305:Generated_Source\PSoC4/CapSense_Structure.c **** * \details
1306:Generated_Source\PSoC4/CapSense_Structure.c **** *  This function reports if the specified proximity sensor has detected a touch
1307:Generated_Source\PSoC4/CapSense_Structure.c **** *  or not by extracting information from the wdgtStatus registers
1308:Generated_Source\PSoC4/CapSense_Structure.c **** *  (CapSense_SNS_STATUS<WidgetId>_VALUE). This function is used
1309:Generated_Source\PSoC4/CapSense_Structure.c **** *  only with proximity sensor widgets. This function does not process the
1310:Generated_Source\PSoC4/CapSense_Structure.c **** *  widget but extracts processed results from the \ref group_structures.
1311:Generated_Source\PSoC4/CapSense_Structure.c **** *
1312:Generated_Source\PSoC4/CapSense_Structure.c **** * \param widgetId
1313:Generated_Source\PSoC4/CapSense_Structure.c **** *  Specifies the ID number of the proximity widget.
1314:Generated_Source\PSoC4/CapSense_Structure.c **** *  A macro for the widget ID can be found in the CapSense Configuration header
1315:Generated_Source\PSoC4/CapSense_Structure.c **** *  file defined as CapSense_<WidgetName>_WDGT_ID
1316:Generated_Source\PSoC4/CapSense_Structure.c **** *
1317:Generated_Source\PSoC4/CapSense_Structure.c **** * \param proxId
1318:Generated_Source\PSoC4/CapSense_Structure.c **** *  Specifies the ID number of the proximity sensor within the proximity widget to
1319:Generated_Source\PSoC4/CapSense_Structure.c **** *  get its touch detection status.
1320:Generated_Source\PSoC4/CapSense_Structure.c **** *  A macro for the proximity ID within a specified widget can be found in the
ARM GAS  C:\Users\zack.li\AppData\Local\Temp\ccXMkTut.s 			page 36


1321:Generated_Source\PSoC4/CapSense_Structure.c **** *  CapSense Configuration header file defined as
1322:Generated_Source\PSoC4/CapSense_Structure.c **** *  CapSense_<WidgetName>_SNS<SensorNumber>_ID
1323:Generated_Source\PSoC4/CapSense_Structure.c **** *
1324:Generated_Source\PSoC4/CapSense_Structure.c **** * \return
1325:Generated_Source\PSoC4/CapSense_Structure.c **** *  Returns the status of the specified sensor of the proximity widget. Zero
1326:Generated_Source\PSoC4/CapSense_Structure.c **** *  indicates that no touch is detected in the specified sensor / widget or a
1327:Generated_Source\PSoC4/CapSense_Structure.c **** *  wrong widgetId / proxId is specified.
1328:Generated_Source\PSoC4/CapSense_Structure.c **** *    - Bits [31..2] are reserved.
1329:Generated_Source\PSoC4/CapSense_Structure.c **** *    - Bit [1] indicates that a touch is detected.
1330:Generated_Source\PSoC4/CapSense_Structure.c **** *    - Bit [0] indicates that a proximity is detected.
1331:Generated_Source\PSoC4/CapSense_Structure.c **** *
1332:Generated_Source\PSoC4/CapSense_Structure.c **** *******************************************************************************/
1333:Generated_Source\PSoC4/CapSense_Structure.c **** uint32 CapSense_IsProximitySensorActive(uint32 widgetId, uint32 proxId)
1334:Generated_Source\PSoC4/CapSense_Structure.c **** {
 641              		.loc 1 1334 0
 642              		.cfi_startproc
 643              		@ args = 0, pretend = 0, frame = 0
 644              		@ frame_needed = 0, uses_anonymous_args = 0
 645              		@ link register save eliminated.
 646              	.LVL68:
1335:Generated_Source\PSoC4/CapSense_Structure.c ****     uint32 result = 0Lu;
1336:Generated_Source\PSoC4/CapSense_Structure.c **** 
1337:Generated_Source\PSoC4/CapSense_Structure.c ****     if ((widgetId < CapSense_TOTAL_WIDGETS) && (proxId < CapSense_GET_SENSOR_COUNT(widgetId)) &&
 647              		.loc 1 1337 0
 648 0000 0528     		cmp	r0, #5
 649 0002 18D8     		bhi	.L60
 650              		.loc 1 1337 0 is_stmt 0 discriminator 1
 651 0004 C200     		lsls	r2, r0, #3
 652 0006 121A     		subs	r2, r2, r0
 653 0008 9300     		lsls	r3, r2, #2
 654 000a 0E4A     		ldr	r2, .L63
 655 000c D318     		adds	r3, r2, r3
 656 000e 1B8C     		ldrh	r3, [r3, #32]
 657 0010 8B42     		cmp	r3, r1
 658 0012 12D9     		bls	.L61
1338:Generated_Source\PSoC4/CapSense_Structure.c ****         (CapSense_WD_PROXIMITY_E ==
1339:Generated_Source\PSoC4/CapSense_Structure.c ****             (CapSense_WD_TYPE_ENUM)CapSense_dsFlash.wdgtArray[widgetId].wdgtType))
 659              		.loc 1 1339 0 is_stmt 1 discriminator 2
 660 0014 C200     		lsls	r2, r0, #3
 661 0016 121A     		subs	r2, r2, r0
 662 0018 9300     		lsls	r3, r2, #2
 663 001a 0A4A     		ldr	r2, .L63
 664 001c D318     		adds	r3, r2, r3
 665 001e 2233     		adds	r3, r3, #34
 666 0020 1B78     		ldrb	r3, [r3]
1337:Generated_Source\PSoC4/CapSense_Structure.c ****         (CapSense_WD_PROXIMITY_E ==
 667              		.loc 1 1337 0 discriminator 2
 668 0022 062B     		cmp	r3, #6
 669 0024 0BD1     		bne	.L62
1340:Generated_Source\PSoC4/CapSense_Structure.c ****     {
1341:Generated_Source\PSoC4/CapSense_Structure.c ****         result = CapSense_dsRam.snsStatus[widgetId];
 670              		.loc 1 1341 0
 671 0026 084B     		ldr	r3, .L63+4
 672 0028 1818     		adds	r0, r3, r0
 673              	.LVL69:
 674 002a 007E     		ldrb	r0, [r0, #24]
 675              	.LVL70:
ARM GAS  C:\Users\zack.li\AppData\Local\Temp\ccXMkTut.s 			page 37


1342:Generated_Source\PSoC4/CapSense_Structure.c ****         result >>= CapSense_PROX_STS_OFFSET(proxId);
 676              		.loc 1 1342 0
 677 002c 4900     		lsls	r1, r1, #1
 678              	.LVL71:
 679 002e C840     		lsrs	r0, r0, r1
 680              	.LVL72:
1343:Generated_Source\PSoC4/CapSense_Structure.c ****         result &=  CapSense_PROX_STS_MASK;
 681              		.loc 1 1343 0
 682 0030 0323     		movs	r3, #3
 683 0032 1840     		ands	r0, r3
 684              	.LVL73:
 685 0034 04E0     		b	.L59
 686              	.LVL74:
 687              	.L60:
1335:Generated_Source\PSoC4/CapSense_Structure.c **** 
 688              		.loc 1 1335 0
 689 0036 0020     		movs	r0, #0
 690              	.LVL75:
 691 0038 02E0     		b	.L59
 692              	.LVL76:
 693              	.L61:
 694 003a 0020     		movs	r0, #0
 695              	.LVL77:
 696 003c 00E0     		b	.L59
 697              	.LVL78:
 698              	.L62:
 699 003e 0020     		movs	r0, #0
 700              	.LVL79:
 701              	.L59:
1344:Generated_Source\PSoC4/CapSense_Structure.c ****     }
1345:Generated_Source\PSoC4/CapSense_Structure.c **** 
1346:Generated_Source\PSoC4/CapSense_Structure.c ****     return result;
1347:Generated_Source\PSoC4/CapSense_Structure.c **** }
 702              		.loc 1 1347 0
 703              		@ sp needed
 704 0040 7047     		bx	lr
 705              	.L64:
 706 0042 C046     		.align	2
 707              	.L63:
 708 0044 00000000 		.word	.LANCHOR0
 709 0048 00000000 		.word	CapSense_dsRam
 710              		.cfi_endproc
 711              	.LFE8:
 712              		.size	CapSense_IsProximitySensorActive, .-CapSense_IsProximitySensorActive
 713              		.global	CapSense_ramIdacInit
 714              		.global	CapSense_ramWidgetInit
 715              		.global	CapSense_shieldIoList
 716              		.global	CapSense_ioList
 717              		.global	CapSense_dsFlash
 718              		.comm	CapSense_dsRam,200,4
 719              		.section	.rodata
 720              		.align	2
 721              		.set	.LANCHOR0,. + 0
 722              		.set	.LANCHOR1,. + 128
 723              		.type	CapSense_ramIdacInit, %object
 724              		.size	CapSense_ramIdacInit, 6
 725              	CapSense_ramIdacInit:
ARM GAS  C:\Users\zack.li\AppData\Local\Temp\ccXMkTut.s 			page 38


 726 0000 20       		.byte	32
 727 0001 20       		.byte	32
 728 0002 20       		.byte	32
 729 0003 20       		.byte	32
 730 0004 20       		.byte	32
 731 0005 20       		.byte	32
 732 0006 0000     		.space	2
 733              		.type	CapSense_dsFlash, %object
 734              		.size	CapSense_dsFlash, 168
 735              	CapSense_dsFlash:
 736 0008 00000000 		.word	CapSense_ioList
 737 000c 22000000 		.word	CapSense_dsRam+34
 738 0010 84000000 		.word	CapSense_dsRam+132
 739 0014 3C000000 		.word	CapSense_fltrHistoryVOL_UP
 740 0018 5C000000 		.word	CapSense_debounceVOL_UP
 741 001c 01280000 		.word	10241
 742 0020 0100     		.short	1
 743 0022 01       		.byte	1
 744 0023 01       		.byte	1
 745 0024 1C000000 		.word	CapSense_ioList+28
 746 0028 32000000 		.word	CapSense_dsRam+50
 747 002c 8E000000 		.word	CapSense_dsRam+142
 748 0030 30000000 		.word	CapSense_fltrHistoryVOL_DOWN
 749 0034 58000000 		.word	CapSense_debounceVOL_DOWN
 750 0038 01280000 		.word	10241
 751 003c 0100     		.short	1
 752 003e 01       		.byte	1
 753 003f 01       		.byte	1
 754 0040 38000000 		.word	CapSense_ioList+56
 755 0044 42000000 		.word	CapSense_dsRam+66
 756 0048 98000000 		.word	CapSense_dsRam+152
 757 004c 24000000 		.word	CapSense_fltrHistoryPLAY_PAUSE
 758 0050 54000000 		.word	CapSense_debouncePLAY_PAUSE
 759 0054 01280000 		.word	10241
 760 0058 0100     		.short	1
 761 005a 01       		.byte	1
 762 005b 01       		.byte	1
 763 005c 54000000 		.word	CapSense_ioList+84
 764 0060 52000000 		.word	CapSense_dsRam+82
 765 0064 A2000000 		.word	CapSense_dsRam+162
 766 0068 18000000 		.word	CapSense_fltrHistoryLIBERTY_PULL
 767 006c 50000000 		.word	CapSense_debounceLIBERTY_PULL
 768 0070 01280000 		.word	10241
 769 0074 0100     		.short	1
 770 0076 01       		.byte	1
 771 0077 01       		.byte	1
 772 0078 70000000 		.word	CapSense_ioList+112
 773 007c 62000000 		.word	CapSense_dsRam+98
 774 0080 AC000000 		.word	CapSense_dsRam+172
 775 0084 0C000000 		.word	CapSense_fltrHistoryFORMATION
 776 0088 4C000000 		.word	CapSense_debounceFORMATION
 777 008c 01280000 		.word	10241
 778 0090 0100     		.short	1
 779 0092 01       		.byte	1
 780 0093 01       		.byte	1
 781 0094 8C000000 		.word	CapSense_ioList+140
 782 0098 72000000 		.word	CapSense_dsRam+114
ARM GAS  C:\Users\zack.li\AppData\Local\Temp\ccXMkTut.s 			page 39


 783 009c B6000000 		.word	CapSense_dsRam+182
 784 00a0 00000000 		.word	CapSense_fltrHistoryPROX
 785 00a4 48000000 		.word	CapSense_debouncePROX
 786 00a8 01280000 		.word	10241
 787 00ac 0100     		.short	1
 788 00ae 06       		.byte	6
 789 00af 01       		.byte	1
 790              		.type	CapSense_ramWidgetInit, %object
 791              		.size	CapSense_ramWidgetInit, 98
 792              	CapSense_ramWidgetInit:
 793 00b0 0C00     		.short	12
 794 00b2 C800     		.short	200
 795 00b4 28       		.byte	40
 796 00b5 28       		.byte	40
 797 00b6 0A       		.byte	10
 798 00b7 03       		.byte	3
 799 00b8 1E       		.byte	30
 800 00b9 20       		.byte	32
 801 00ba 04       		.byte	4
 802 00bb 00       		.space	1
 803 00bc 0800     		.short	8
 804 00be 00       		.byte	0
 805 00bf 00       		.space	1
 806 00c0 0C00     		.short	12
 807 00c2 C800     		.short	200
 808 00c4 28       		.byte	40
 809 00c5 28       		.byte	40
 810 00c6 0A       		.byte	10
 811 00c7 03       		.byte	3
 812 00c8 1E       		.byte	30
 813 00c9 20       		.byte	32
 814 00ca 04       		.byte	4
 815 00cb 00       		.space	1
 816 00cc 0800     		.short	8
 817 00ce 00       		.byte	0
 818 00cf 00       		.space	1
 819 00d0 0C00     		.short	12
 820 00d2 C800     		.short	200
 821 00d4 28       		.byte	40
 822 00d5 28       		.byte	40
 823 00d6 0A       		.byte	10
 824 00d7 03       		.byte	3
 825 00d8 1E       		.byte	30
 826 00d9 20       		.byte	32
 827 00da 04       		.byte	4
 828 00db 00       		.space	1
 829 00dc 0800     		.short	8
 830 00de 00       		.byte	0
 831 00df 00       		.space	1
 832 00e0 0C00     		.short	12
 833 00e2 C800     		.short	200
 834 00e4 28       		.byte	40
 835 00e5 28       		.byte	40
 836 00e6 0A       		.byte	10
 837 00e7 03       		.byte	3
 838 00e8 1E       		.byte	30
 839 00e9 20       		.byte	32
ARM GAS  C:\Users\zack.li\AppData\Local\Temp\ccXMkTut.s 			page 40


 840 00ea 04       		.byte	4
 841 00eb 00       		.space	1
 842 00ec 0800     		.short	8
 843 00ee 00       		.byte	0
 844 00ef 00       		.space	1
 845 00f0 0C00     		.short	12
 846 00f2 C800     		.short	200
 847 00f4 28       		.byte	40
 848 00f5 28       		.byte	40
 849 00f6 0A       		.byte	10
 850 00f7 03       		.byte	3
 851 00f8 1E       		.byte	30
 852 00f9 20       		.byte	32
 853 00fa 04       		.byte	4
 854 00fb 00       		.space	1
 855 00fc 0800     		.short	8
 856 00fe 00       		.byte	0
 857 00ff 00       		.space	1
 858 0100 1000     		.short	16
 859 0102 F401     		.short	500
 860 0104 28       		.byte	40
 861 0105 28       		.byte	40
 862 0106 0F       		.byte	15
 863 0107 03       		.byte	3
 864 0108 1E       		.byte	30
 865 0109 20       		.byte	32
 866 010a 04       		.byte	4
 867 010b 00       		.space	1
 868 010c 0400     		.short	4
 869 010e 00       		.byte	0
 870 010f 00       		.space	1
 871 0110 2C01     		.short	300
 872 0112 0000     		.space	2
 873              		.type	CapSense_shieldIoList, %object
 874              		.size	CapSense_shieldIoList, 20
 875              	CapSense_shieldIoList:
 876 0114 00020240 		.word	1073873408
 877 0118 08020440 		.word	1074004488
 878 011c 00020440 		.word	1074004480
 879 0120 0000000F 		.word	251658240
 880 0124 18       		.byte	24
 881 0125 06       		.byte	6
 882 0126 12       		.byte	18
 883 0127 00       		.space	1
 884              		.type	CapSense_ioList, %object
 885              		.size	CapSense_ioList, 168
 886              	CapSense_ioList:
 887 0128 00020240 		.word	1073873408
 888 012c 08020440 		.word	1074004488
 889 0130 00020440 		.word	1074004480
 890 0134 04020440 		.word	1074004484
 891 0138 000F0000 		.word	3840
 892 013c 04000000 		.word	4
 893 0140 08       		.byte	8
 894 0141 02       		.byte	2
 895 0142 06       		.byte	6
 896 0143 00       		.space	1
ARM GAS  C:\Users\zack.li\AppData\Local\Temp\ccXMkTut.s 			page 41


 897 0144 00010240 		.word	1073873152
 898 0148 08010440 		.word	1074004232
 899 014c 00010440 		.word	1074004224
 900 0150 04010440 		.word	1074004228
 901 0154 000000F0 		.word	-268435456
 902 0158 80000000 		.word	128
 903 015c 1C       		.byte	28
 904 015d 07       		.byte	7
 905 015e 15       		.byte	21
 906 015f 00       		.space	1
 907 0160 00020240 		.word	1073873408
 908 0164 08020440 		.word	1074004488
 909 0168 00020440 		.word	1074004480
 910 016c 04020440 		.word	1074004484
 911 0170 F0000000 		.word	240
 912 0174 02000000 		.word	2
 913 0178 04       		.byte	4
 914 0179 01       		.byte	1
 915 017a 03       		.byte	3
 916 017b 00       		.space	1
 917 017c 00020240 		.word	1073873408
 918 0180 08020440 		.word	1074004488
 919 0184 00020440 		.word	1074004480
 920 0188 04020440 		.word	1074004484
 921 018c 0F000000 		.word	15
 922 0190 01000000 		.word	1
 923 0194 00       		.byte	0
 924 0195 00       		.byte	0
 925 0196 00       		.byte	0
 926 0197 00       		.space	1
 927 0198 00000240 		.word	1073872896
 928 019c 08000440 		.word	1074003976
 929 01a0 00000440 		.word	1074003968
 930 01a4 04000440 		.word	1074003972
 931 01a8 00F00000 		.word	61440
 932 01ac 08000000 		.word	8
 933 01b0 0C       		.byte	12
 934 01b1 03       		.byte	3
 935 01b2 09       		.byte	9
 936 01b3 00       		.space	1
 937 01b4 00020240 		.word	1073873408
 938 01b8 08020440 		.word	1074004488
 939 01bc 00020440 		.word	1074004480
 940 01c0 04020440 		.word	1074004484
 941 01c4 00F00000 		.word	61440
 942 01c8 08000000 		.word	8
 943 01cc 0C       		.byte	12
 944 01cd 03       		.byte	3
 945 01ce 09       		.byte	9
 946 01cf 00       		.space	1
 947              		.bss
 948              		.align	2
 949              		.type	CapSense_fltrHistoryPROX, %object
 950              		.size	CapSense_fltrHistoryPROX, 12
 951              	CapSense_fltrHistoryPROX:
 952 0000 00000000 		.space	12
 952      00000000 
ARM GAS  C:\Users\zack.li\AppData\Local\Temp\ccXMkTut.s 			page 42


 952      00000000 
 953              		.type	CapSense_fltrHistoryFORMATION, %object
 954              		.size	CapSense_fltrHistoryFORMATION, 12
 955              	CapSense_fltrHistoryFORMATION:
 956 000c 00000000 		.space	12
 956      00000000 
 956      00000000 
 957              		.type	CapSense_fltrHistoryLIBERTY_PULL, %object
 958              		.size	CapSense_fltrHistoryLIBERTY_PULL, 12
 959              	CapSense_fltrHistoryLIBERTY_PULL:
 960 0018 00000000 		.space	12
 960      00000000 
 960      00000000 
 961              		.type	CapSense_fltrHistoryPLAY_PAUSE, %object
 962              		.size	CapSense_fltrHistoryPLAY_PAUSE, 12
 963              	CapSense_fltrHistoryPLAY_PAUSE:
 964 0024 00000000 		.space	12
 964      00000000 
 964      00000000 
 965              		.type	CapSense_fltrHistoryVOL_DOWN, %object
 966              		.size	CapSense_fltrHistoryVOL_DOWN, 12
 967              	CapSense_fltrHistoryVOL_DOWN:
 968 0030 00000000 		.space	12
 968      00000000 
 968      00000000 
 969              		.type	CapSense_fltrHistoryVOL_UP, %object
 970              		.size	CapSense_fltrHistoryVOL_UP, 12
 971              	CapSense_fltrHistoryVOL_UP:
 972 003c 00000000 		.space	12
 972      00000000 
 972      00000000 
 973              		.type	CapSense_debouncePROX, %object
 974              		.size	CapSense_debouncePROX, 2
 975              	CapSense_debouncePROX:
 976 0048 0000     		.space	2
 977 004a 0000     		.space	2
 978              		.type	CapSense_debounceFORMATION, %object
 979              		.size	CapSense_debounceFORMATION, 1
 980              	CapSense_debounceFORMATION:
 981 004c 00       		.space	1
 982 004d 000000   		.space	3
 983              		.type	CapSense_debounceLIBERTY_PULL, %object
 984              		.size	CapSense_debounceLIBERTY_PULL, 1
 985              	CapSense_debounceLIBERTY_PULL:
 986 0050 00       		.space	1
 987 0051 000000   		.space	3
 988              		.type	CapSense_debouncePLAY_PAUSE, %object
 989              		.size	CapSense_debouncePLAY_PAUSE, 1
 990              	CapSense_debouncePLAY_PAUSE:
 991 0054 00       		.space	1
 992 0055 000000   		.space	3
 993              		.type	CapSense_debounceVOL_DOWN, %object
 994              		.size	CapSense_debounceVOL_DOWN, 1
 995              	CapSense_debounceVOL_DOWN:
 996 0058 00       		.space	1
 997 0059 000000   		.space	3
 998              		.type	CapSense_debounceVOL_UP, %object
ARM GAS  C:\Users\zack.li\AppData\Local\Temp\ccXMkTut.s 			page 43


 999              		.size	CapSense_debounceVOL_UP, 1
 1000              	CapSense_debounceVOL_UP:
 1001 005c 00       		.space	1
 1002              		.text
 1003              	.Letext0:
 1004              		.file 2 "Generated_Source\\PSoC4/cytypes.h"
 1005              		.file 3 "Generated_Source\\PSoC4\\CapSense_Configuration.h"
 1006              		.file 4 "Generated_Source\\PSoC4\\CapSense_Structure.h"
 1007              		.file 5 "Generated_Source\\PSoC4\\CyLib.h"