ARM GAS  C:\Users\zack.li\AppData\Local\Temp\ccr2IpWf.s 			page 1


   1              		.syntax unified
   2              		.cpu cortex-m0plus
   3              		.fpu softvfp
   4              		.eabi_attribute 20, 1
   5              		.eabi_attribute 21, 1
   6              		.eabi_attribute 23, 3
   7              		.eabi_attribute 24, 1
   8              		.eabi_attribute 25, 1
   9              		.eabi_attribute 26, 1
  10              		.eabi_attribute 30, 1
  11              		.eabi_attribute 34, 0
  12              		.eabi_attribute 18, 4
  13              		.thumb
  14              		.syntax unified
  15              		.file	"CapSense_Processing.c"
  16              		.text
  17              	.Ltext0:
  18              		.cfi_sections	.debug_frame
  19              		.section	.text.CapSense_DpInitialize,"ax",%progbits
  20              		.align	2
  21              		.global	CapSense_DpInitialize
  22              		.code	16
  23              		.thumb_func
  24              		.type	CapSense_DpInitialize, %function
  25              	CapSense_DpInitialize:
  26              	.LFB1:
  27              		.file 1 "Generated_Source\\PSoC4\\CapSense_Processing.c"
   1:Generated_Source\PSoC4/CapSense_Processing.c **** /***************************************************************************//**
   2:Generated_Source\PSoC4/CapSense_Processing.c **** * \file CapSense_Processing.c
   3:Generated_Source\PSoC4/CapSense_Processing.c **** * \version 7.0
   4:Generated_Source\PSoC4/CapSense_Processing.c **** *
   5:Generated_Source\PSoC4/CapSense_Processing.c **** * \brief
   6:Generated_Source\PSoC4/CapSense_Processing.c **** *   This file provides the source code for the Data Processing module APIs
   7:Generated_Source\PSoC4/CapSense_Processing.c **** *   of the Component. The Data Processing module is responsible for the
   8:Generated_Source\PSoC4/CapSense_Processing.c **** *   low level raw counts processing provided by the sensing module, maintaining
   9:Generated_Source\PSoC4/CapSense_Processing.c **** *   baseline and difference values and performing high-level widget processing
  10:Generated_Source\PSoC4/CapSense_Processing.c **** *   like updating button status or calculating slider position.
  11:Generated_Source\PSoC4/CapSense_Processing.c **** *
  12:Generated_Source\PSoC4/CapSense_Processing.c **** * \see CapSense v7.0 Datasheet
  13:Generated_Source\PSoC4/CapSense_Processing.c **** *
  14:Generated_Source\PSoC4/CapSense_Processing.c **** *//*****************************************************************************
  15:Generated_Source\PSoC4/CapSense_Processing.c **** * Copyright (2016-2019), Cypress Semiconductor Corporation.
  16:Generated_Source\PSoC4/CapSense_Processing.c **** ********************************************************************************
  17:Generated_Source\PSoC4/CapSense_Processing.c **** * This software is owned by Cypress Semiconductor Corporation (Cypress) and is
  18:Generated_Source\PSoC4/CapSense_Processing.c **** * protected by and subject to worldwide patent protection (United States and
  19:Generated_Source\PSoC4/CapSense_Processing.c **** * foreign), United States copyright laws and international treaty provisions.
  20:Generated_Source\PSoC4/CapSense_Processing.c **** * Cypress hereby grants to licensee a personal, non-exclusive, non-transferable
  21:Generated_Source\PSoC4/CapSense_Processing.c **** * license to copy, use, modify, create derivative works of, and compile the
  22:Generated_Source\PSoC4/CapSense_Processing.c **** * Cypress Source Code and derivative works for the sole purpose of creating
  23:Generated_Source\PSoC4/CapSense_Processing.c **** * custom software in support of licensee product to be used only in conjunction
  24:Generated_Source\PSoC4/CapSense_Processing.c **** * with a Cypress integrated circuit as specified in the applicable agreement.
  25:Generated_Source\PSoC4/CapSense_Processing.c **** * Any reproduction, modification, translation, compilation, or representation of
  26:Generated_Source\PSoC4/CapSense_Processing.c **** * this software except as specified above is prohibited without the express
  27:Generated_Source\PSoC4/CapSense_Processing.c **** * written permission of Cypress.
  28:Generated_Source\PSoC4/CapSense_Processing.c **** *
  29:Generated_Source\PSoC4/CapSense_Processing.c **** * Disclaimer: CYPRESS MAKES NO WARRANTY OF ANY KIND, EXPRESS OR IMPLIED, WITH
  30:Generated_Source\PSoC4/CapSense_Processing.c **** * REGARD TO THIS MATERIAL, INCLUDING, BUT NOT LIMITED TO, THE IMPLIED
ARM GAS  C:\Users\zack.li\AppData\Local\Temp\ccr2IpWf.s 			page 2


  31:Generated_Source\PSoC4/CapSense_Processing.c **** * WARRANTIES OF MERCHANTABILITY AND FITNESS FOR A PARTICULAR PURPOSE.
  32:Generated_Source\PSoC4/CapSense_Processing.c **** * Cypress reserves the right to make changes without further notice to the
  33:Generated_Source\PSoC4/CapSense_Processing.c **** * materials described herein. Cypress does not assume any liability arising out
  34:Generated_Source\PSoC4/CapSense_Processing.c **** * of the application or use of any product or circuit described herein. Cypress
  35:Generated_Source\PSoC4/CapSense_Processing.c **** * does not authorize its products for use as critical components in life-support
  36:Generated_Source\PSoC4/CapSense_Processing.c **** * systems where a malfunction or failure may reasonably be expected to result in
  37:Generated_Source\PSoC4/CapSense_Processing.c **** * significant injury to the user. The inclusion of Cypress' product in a life-
  38:Generated_Source\PSoC4/CapSense_Processing.c **** * support systems application implies that the manufacturer assumes all risk of
  39:Generated_Source\PSoC4/CapSense_Processing.c **** * such use and in doing so indemnifies Cypress against all charges. Use may be
  40:Generated_Source\PSoC4/CapSense_Processing.c **** * limited by and subject to the applicable Cypress software license agreement.
  41:Generated_Source\PSoC4/CapSense_Processing.c **** *******************************************************************************/
  42:Generated_Source\PSoC4/CapSense_Processing.c **** 
  43:Generated_Source\PSoC4/CapSense_Processing.c **** #include "CyLib.h"
  44:Generated_Source\PSoC4/CapSense_Processing.c **** #include "cytypes.h"
  45:Generated_Source\PSoC4/CapSense_Processing.c **** #include "CapSense_Configuration.h"
  46:Generated_Source\PSoC4/CapSense_Processing.c **** #include "CapSense_Processing.h"
  47:Generated_Source\PSoC4/CapSense_Processing.c **** #include "CapSense_Filter.h"
  48:Generated_Source\PSoC4/CapSense_Processing.c **** 
  49:Generated_Source\PSoC4/CapSense_Processing.c **** #if (0u != CapSense_CENTROID_EN)
  50:Generated_Source\PSoC4/CapSense_Processing.c ****     #include "CapSense_Centroid_LL.h"
  51:Generated_Source\PSoC4/CapSense_Processing.c **** #endif /* (0 != CapSense_CENTROID_EN) */
  52:Generated_Source\PSoC4/CapSense_Processing.c **** 
  53:Generated_Source\PSoC4/CapSense_Processing.c **** #if (0 != (CapSense_CSD_AUTOTUNE & CapSense_CSD_SS_TH_EN))
  54:Generated_Source\PSoC4/CapSense_Processing.c ****     #include "CapSense_SmartSense_LL.h"
  55:Generated_Source\PSoC4/CapSense_Processing.c **** #endif /* (0 != (CapSense_CSD_AUTOTUNE & CapSense_CSD_SS_TH_EN)) */
  56:Generated_Source\PSoC4/CapSense_Processing.c **** 
  57:Generated_Source\PSoC4/CapSense_Processing.c **** #if (CapSense_ENABLE == CapSense_SELF_TEST_EN)
  58:Generated_Source\PSoC4/CapSense_Processing.c ****     #include "CapSense_SelfTest.h"
  59:Generated_Source\PSoC4/CapSense_Processing.c **** #endif
  60:Generated_Source\PSoC4/CapSense_Processing.c **** 
  61:Generated_Source\PSoC4/CapSense_Processing.c **** #if (CapSense_ENABLE == CapSense_CENTROID_5X5_CSD_EN)
  62:Generated_Source\PSoC4/CapSense_Processing.c ****     #include "CapSense_AdvancedCentroid_LL.h"
  63:Generated_Source\PSoC4/CapSense_Processing.c **** #endif
  64:Generated_Source\PSoC4/CapSense_Processing.c **** 
  65:Generated_Source\PSoC4/CapSense_Processing.c **** #if (CapSense_ENABLE == CapSense_POS_ADAPTIVE_IIR_FILTER_EN)
  66:Generated_Source\PSoC4/CapSense_Processing.c ****     #include "CapSense_AdaptiveFilter_LL.h"
  67:Generated_Source\PSoC4/CapSense_Processing.c **** #endif
  68:Generated_Source\PSoC4/CapSense_Processing.c **** 
  69:Generated_Source\PSoC4/CapSense_Processing.c **** #if(CapSense_ENABLE == CapSense_BALLISTIC_MULTIPLIER_EN)
  70:Generated_Source\PSoC4/CapSense_Processing.c ****     #include "CapSense_Gesture.h"
  71:Generated_Source\PSoC4/CapSense_Processing.c **** #endif
  72:Generated_Source\PSoC4/CapSense_Processing.c **** 
  73:Generated_Source\PSoC4/CapSense_Processing.c **** /**************************************************************************************************
  74:Generated_Source\PSoC4/CapSense_Processing.c **** * Local definition
  75:Generated_Source\PSoC4/CapSense_Processing.c **** ***************************************************************************************************
  76:Generated_Source\PSoC4/CapSense_Processing.c **** 
  77:Generated_Source\PSoC4/CapSense_Processing.c **** /* UINT32 constant with all odd bits set. It is used by the processing function of the Proximity wi
  78:Generated_Source\PSoC4/CapSense_Processing.c **** *  determine type of the status bit: odd bits report proximity status; even bits report touch statu
  79:Generated_Source\PSoC4/CapSense_Processing.c **** */
  80:Generated_Source\PSoC4/CapSense_Processing.c **** #define UINT32_ODD_BITS_CONST       (0x55555555u)
  81:Generated_Source\PSoC4/CapSense_Processing.c **** 
  82:Generated_Source\PSoC4/CapSense_Processing.c **** /* Default value for the Off Debounce counter when the Off Debounce is disabled */
  83:Generated_Source\PSoC4/CapSense_Processing.c **** #define DEFAULT_OFF_DEBOUNCE_VALUE  (1u)
  84:Generated_Source\PSoC4/CapSense_Processing.c **** #define PERCENTAGE_100              (100u)
  85:Generated_Source\PSoC4/CapSense_Processing.c **** #define TEMP_BUFFER_MSB_SHIFT       (16)
  86:Generated_Source\PSoC4/CapSense_Processing.c **** 
  87:Generated_Source\PSoC4/CapSense_Processing.c **** /**************************************************************************************************
ARM GAS  C:\Users\zack.li\AppData\Local\Temp\ccr2IpWf.s 			page 3


  88:Generated_Source\PSoC4/CapSense_Processing.c **** * Local variables
  89:Generated_Source\PSoC4/CapSense_Processing.c **** ***************************************************************************************************
  90:Generated_Source\PSoC4/CapSense_Processing.c **** #if (0u != CapSense_CSX_MULTIPHASE_TX_EN)
  91:Generated_Source\PSoC4/CapSense_Processing.c ****     static uint16 deconvRowData[CapSense_CSX_MAX_TX_PHASE_LENGTH];
  92:Generated_Source\PSoC4/CapSense_Processing.c **** #endif
  93:Generated_Source\PSoC4/CapSense_Processing.c **** 
  94:Generated_Source\PSoC4/CapSense_Processing.c **** 
  95:Generated_Source\PSoC4/CapSense_Processing.c **** /**************************************************************************************************
  96:Generated_Source\PSoC4/CapSense_Processing.c **** * Static Function Prototypes
  97:Generated_Source\PSoC4/CapSense_Processing.c **** ***************************************************************************************************
  98:Generated_Source\PSoC4/CapSense_Processing.c **** /**
  99:Generated_Source\PSoC4/CapSense_Processing.c **** * \cond SECTION_C_INTERNAL
 100:Generated_Source\PSoC4/CapSense_Processing.c **** * \addtogroup group_c_internal
 101:Generated_Source\PSoC4/CapSense_Processing.c **** * \{
 102:Generated_Source\PSoC4/CapSense_Processing.c **** */
 103:Generated_Source\PSoC4/CapSense_Processing.c **** #if (0u != CapSense_TOTAL_LINEAR_SLIDERS)
 104:Generated_Source\PSoC4/CapSense_Processing.c ****     static CY_INLINE void DpUpdateLinSlider(
 105:Generated_Source\PSoC4/CapSense_Processing.c ****                         const uint16 newPos[], uint32 numTouches,
 106:Generated_Source\PSoC4/CapSense_Processing.c ****                         CapSense_FLASH_WD_STRUCT const *ptrFlashWdgt,
 107:Generated_Source\PSoC4/CapSense_Processing.c ****                         CapSense_RAM_WD_SLIDER_STRUCT *ptrRamWdgt);
 108:Generated_Source\PSoC4/CapSense_Processing.c **** #endif /* #if (0u != CapSense_TOTAL_LINEAR_SLIDERS) */
 109:Generated_Source\PSoC4/CapSense_Processing.c **** 
 110:Generated_Source\PSoC4/CapSense_Processing.c **** #if (0u != CapSense_TOTAL_RADIAL_SLIDERS)
 111:Generated_Source\PSoC4/CapSense_Processing.c ****     static CY_INLINE void DpUpdateRadSlider(
 112:Generated_Source\PSoC4/CapSense_Processing.c ****                         const uint16 newPos[], uint32 numTouches,
 113:Generated_Source\PSoC4/CapSense_Processing.c ****                         CapSense_FLASH_WD_STRUCT const * ptrFlashWdgt,
 114:Generated_Source\PSoC4/CapSense_Processing.c ****                         CapSense_RAM_WD_SLIDER_STRUCT *ptrRamWdgt);
 115:Generated_Source\PSoC4/CapSense_Processing.c **** #endif /* #if (0u != CapSense_TOTAL_RADIAL_SLIDERS) */
 116:Generated_Source\PSoC4/CapSense_Processing.c **** 
 117:Generated_Source\PSoC4/CapSense_Processing.c **** #if (0u != CapSense_CSD_TOUCHPAD_WIDGET_EN)
 118:Generated_Source\PSoC4/CapSense_Processing.c ****     static CY_INLINE void CapSense_DpInitCsdTouchpad(CapSense_FLASH_WD_STRUCT const * ptrFlashWdgt)
 119:Generated_Source\PSoC4/CapSense_Processing.c **** #endif /* #if (0u != CapSense_CSD_TOUCHPAD_WIDGET_EN) */
 120:Generated_Source\PSoC4/CapSense_Processing.c **** 
 121:Generated_Source\PSoC4/CapSense_Processing.c **** #if (0u != CapSense_CSX_TOUCHPAD_WIDGET_EN)
 122:Generated_Source\PSoC4/CapSense_Processing.c ****     static CY_INLINE void CapSense_DpInitCsxTouchpad(CapSense_FLASH_WD_STRUCT const * ptrFlashWdgt)
 123:Generated_Source\PSoC4/CapSense_Processing.c **** #endif /* #if (0u != CapSense_CSX_TOUCHPAD_WIDGET_EN) */
 124:Generated_Source\PSoC4/CapSense_Processing.c **** 
 125:Generated_Source\PSoC4/CapSense_Processing.c **** #if (0u != CapSense_SLIDER_WIDGET_EN)
 126:Generated_Source\PSoC4/CapSense_Processing.c ****     static CY_INLINE void CapSense_DpInitSlider(CapSense_FLASH_WD_STRUCT const * ptrFlashWdgt);
 127:Generated_Source\PSoC4/CapSense_Processing.c **** #endif /* #if (0u != CapSense_SLIDER_WIDGET_EN) */
 128:Generated_Source\PSoC4/CapSense_Processing.c **** 
 129:Generated_Source\PSoC4/CapSense_Processing.c **** #if (0u != CapSense_CSD_MATRIX_WIDGET_EN)
 130:Generated_Source\PSoC4/CapSense_Processing.c ****     static CY_INLINE void CapSense_DpInitCsdMatrix(CapSense_FLASH_WD_STRUCT const * ptrFlashWdgt);
 131:Generated_Source\PSoC4/CapSense_Processing.c **** #endif /* #if (0u != CapSense_CSD_MATRIX_WIDGET_EN) */
 132:Generated_Source\PSoC4/CapSense_Processing.c **** 
 133:Generated_Source\PSoC4/CapSense_Processing.c **** /** \}
 134:Generated_Source\PSoC4/CapSense_Processing.c **** * \endcond */
 135:Generated_Source\PSoC4/CapSense_Processing.c **** 
 136:Generated_Source\PSoC4/CapSense_Processing.c **** #if (0u != CapSense_CSD_TOUCHPAD_WIDGET_EN)
 137:Generated_Source\PSoC4/CapSense_Processing.c **** /*******************************************************************************
 138:Generated_Source\PSoC4/CapSense_Processing.c **** * Function Name: CapSense_DpInitCsdTouchpad
 139:Generated_Source\PSoC4/CapSense_Processing.c **** ****************************************************************************//**
 140:Generated_Source\PSoC4/CapSense_Processing.c **** *
 141:Generated_Source\PSoC4/CapSense_Processing.c **** * \brief
 142:Generated_Source\PSoC4/CapSense_Processing.c **** *  Performs initialization of the CSD touchpad widget.
 143:Generated_Source\PSoC4/CapSense_Processing.c **** *   - Resets the position data to NONE
 144:Generated_Source\PSoC4/CapSense_Processing.c **** *   - Initializes the position filter history if enabled.
ARM GAS  C:\Users\zack.li\AppData\Local\Temp\ccr2IpWf.s 			page 4


 145:Generated_Source\PSoC4/CapSense_Processing.c **** *
 146:Generated_Source\PSoC4/CapSense_Processing.c **** * \details
 147:Generated_Source\PSoC4/CapSense_Processing.c **** *  The position data is always reset to the CapSense_TOUCHPAD_POS_NONE value.
 148:Generated_Source\PSoC4/CapSense_Processing.c **** *  The same happens to the position filter history data if enabled.
 149:Generated_Source\PSoC4/CapSense_Processing.c **** *
 150:Generated_Source\PSoC4/CapSense_Processing.c **** *******************************************************************************/
 151:Generated_Source\PSoC4/CapSense_Processing.c **** static CY_INLINE void CapSense_DpInitCsdTouchpad(CapSense_FLASH_WD_STRUCT const * ptrFlashWdgt)
 152:Generated_Source\PSoC4/CapSense_Processing.c **** {
 153:Generated_Source\PSoC4/CapSense_Processing.c ****     #if (CapSense_ENABLE == CapSense_CENTROID_5X5_CSD_EN)
 154:Generated_Source\PSoC4/CapSense_Processing.c ****         uint32 touchIndex;
 155:Generated_Source\PSoC4/CapSense_Processing.c ****     #endif
 156:Generated_Source\PSoC4/CapSense_Processing.c **** 
 157:Generated_Source\PSoC4/CapSense_Processing.c ****     CapSense_RAM_WD_CSD_TOUCHPAD_STRUCT *ptrWdTouchpad;
 158:Generated_Source\PSoC4/CapSense_Processing.c **** 
 159:Generated_Source\PSoC4/CapSense_Processing.c ****     #if (0u != CapSense_POSITION_FILTER_EN)
 160:Generated_Source\PSoC4/CapSense_Processing.c ****         CapSense_TOUCHPAD_POS_HISTORY_STRUCT *ptrHistory;
 161:Generated_Source\PSoC4/CapSense_Processing.c ****     #endif  /* #if (0u != CapSense_POSITION_FILTER_EN) */
 162:Generated_Source\PSoC4/CapSense_Processing.c **** 
 163:Generated_Source\PSoC4/CapSense_Processing.c ****     #if (0u != CapSense_POS_ADAPTIVE_IIR_FILTER_EN)
 164:Generated_Source\PSoC4/CapSense_Processing.c ****         ADAPTIVE_FILTER_CONTEXT_STRUCT adpContext;
 165:Generated_Source\PSoC4/CapSense_Processing.c ****     #endif /* (0u != CapSense_POS_ADAPTIVE_IIR_FILTER_EN) */
 166:Generated_Source\PSoC4/CapSense_Processing.c **** 
 167:Generated_Source\PSoC4/CapSense_Processing.c ****     ptrWdTouchpad = ptrFlashWdgt->ptr2WdgtRam;
 168:Generated_Source\PSoC4/CapSense_Processing.c **** 
 169:Generated_Source\PSoC4/CapSense_Processing.c ****     /* Reset position data */
 170:Generated_Source\PSoC4/CapSense_Processing.c ****     #if (CapSense_ENABLE == CapSense_CENTROID_5X5_CSD_EN)
 171:Generated_Source\PSoC4/CapSense_Processing.c ****         #if (CapSense_ENABLE == CapSense_CENTROID_3X3_CSD_EN)
 172:Generated_Source\PSoC4/CapSense_Processing.c ****             if (0u != (ptrFlashWdgt->staticConfig & CapSense_CENTROID_5X5_MASK))
 173:Generated_Source\PSoC4/CapSense_Processing.c ****             {
 174:Generated_Source\PSoC4/CapSense_Processing.c ****         #endif
 175:Generated_Source\PSoC4/CapSense_Processing.c **** 
 176:Generated_Source\PSoC4/CapSense_Processing.c ****         ptrWdTouchpad->position.touchNum = 0u;
 177:Generated_Source\PSoC4/CapSense_Processing.c **** 
 178:Generated_Source\PSoC4/CapSense_Processing.c ****         #if (0u != CapSense_POSITION_FILTER_EN)
 179:Generated_Source\PSoC4/CapSense_Processing.c ****             ptrHistory = ptrFlashWdgt->ptr2PosHistory;
 180:Generated_Source\PSoC4/CapSense_Processing.c ****         #endif /* (0u != CapSense_POSITION_FILTER_EN) */
 181:Generated_Source\PSoC4/CapSense_Processing.c **** 
 182:Generated_Source\PSoC4/CapSense_Processing.c ****         for (touchIndex = 0u; touchIndex < ADVANCED_CENTROID_MAX_TOUCHES; touchIndex++)
 183:Generated_Source\PSoC4/CapSense_Processing.c ****         {
 184:Generated_Source\PSoC4/CapSense_Processing.c ****             ptrWdTouchpad->position.pos[touchIndex].x = ADVANCED_CENTROID_POSITION_NONE;
 185:Generated_Source\PSoC4/CapSense_Processing.c ****             ptrWdTouchpad->position.pos[touchIndex].y = ADVANCED_CENTROID_POSITION_NONE;
 186:Generated_Source\PSoC4/CapSense_Processing.c ****             ptrWdTouchpad->position.pos[touchIndex].zX = ADVANCED_CENTROID_POSITION_NONE;
 187:Generated_Source\PSoC4/CapSense_Processing.c ****             ptrWdTouchpad->position.pos[touchIndex].zY = ADVANCED_CENTROID_POSITION_NONE;
 188:Generated_Source\PSoC4/CapSense_Processing.c **** 
 189:Generated_Source\PSoC4/CapSense_Processing.c ****             /* Clear position filter history data if available */
 190:Generated_Source\PSoC4/CapSense_Processing.c ****             #if (0u != CapSense_POSITION_FILTER_EN)
 191:Generated_Source\PSoC4/CapSense_Processing.c ****                 if (NULL != ptrHistory)
 192:Generated_Source\PSoC4/CapSense_Processing.c ****                 {
 193:Generated_Source\PSoC4/CapSense_Processing.c ****                     CapSense_InitPosFiltersDd(&ptrHistory[touchIndex], CapSense_TOUCHPAD_POS_NONE, 
 194:Generated_Source\PSoC4/CapSense_Processing.c ****                     #if (0u != CapSense_POS_ADAPTIVE_IIR_FILTER_EN)
 195:Generated_Source\PSoC4/CapSense_Processing.c ****                         AdaptiveFilter_Initialize(&ptrWdTouchpad->aiirConfig, &adpContext);
 196:Generated_Source\PSoC4/CapSense_Processing.c ****                         ptrHistory[touchIndex].xPos.posAIIRCoeff = adpContext.coefficient;
 197:Generated_Source\PSoC4/CapSense_Processing.c ****                         ptrHistory[touchIndex].yPos.posAIIRCoeff = adpContext.coefficient;
 198:Generated_Source\PSoC4/CapSense_Processing.c ****                     #endif /* (0u != CapSense_POS_ADAPTIVE_IIR_FILTER_EN) */
 199:Generated_Source\PSoC4/CapSense_Processing.c ****                 }
 200:Generated_Source\PSoC4/CapSense_Processing.c ****             #endif /* (0u != CapSense_POSITION_FILTER_EN) */
 201:Generated_Source\PSoC4/CapSense_Processing.c ****         }
ARM GAS  C:\Users\zack.li\AppData\Local\Temp\ccr2IpWf.s 			page 5


 202:Generated_Source\PSoC4/CapSense_Processing.c **** 
 203:Generated_Source\PSoC4/CapSense_Processing.c ****         #if (CapSense_ENABLE == CapSense_CENTROID_3X3_CSD_EN)
 204:Generated_Source\PSoC4/CapSense_Processing.c ****             }
 205:Generated_Source\PSoC4/CapSense_Processing.c ****         #endif
 206:Generated_Source\PSoC4/CapSense_Processing.c ****     #endif
 207:Generated_Source\PSoC4/CapSense_Processing.c **** 
 208:Generated_Source\PSoC4/CapSense_Processing.c ****     #if (CapSense_ENABLE == CapSense_CENTROID_3X3_CSD_EN)
 209:Generated_Source\PSoC4/CapSense_Processing.c ****         if (0u != (ptrFlashWdgt->staticConfig & CapSense_CENTROID_3X3_MASK))
 210:Generated_Source\PSoC4/CapSense_Processing.c ****         {
 211:Generated_Source\PSoC4/CapSense_Processing.c ****             ptrWdTouchpad->posX = CapSense_TOUCHPAD_POS_NONE;
 212:Generated_Source\PSoC4/CapSense_Processing.c ****             ptrWdTouchpad->posY = CapSense_TOUCHPAD_POS_NONE;
 213:Generated_Source\PSoC4/CapSense_Processing.c **** 
 214:Generated_Source\PSoC4/CapSense_Processing.c ****             /* Clear position filter history data if available */
 215:Generated_Source\PSoC4/CapSense_Processing.c ****             #if (0u != CapSense_POSITION_FILTER_EN)
 216:Generated_Source\PSoC4/CapSense_Processing.c ****                 ptrHistory = ptrFlashWdgt->ptr2PosHistory;
 217:Generated_Source\PSoC4/CapSense_Processing.c ****                 CapSense_InitPosFiltersDd(ptrHistory, CapSense_TOUCHPAD_POS_NONE, CapSense_TOUCHPAD
 218:Generated_Source\PSoC4/CapSense_Processing.c **** 
 219:Generated_Source\PSoC4/CapSense_Processing.c ****                 #if (0u != CapSense_POS_ADAPTIVE_IIR_FILTER_EN)
 220:Generated_Source\PSoC4/CapSense_Processing.c ****                     if (NULL != ptrHistory)
 221:Generated_Source\PSoC4/CapSense_Processing.c ****                     {
 222:Generated_Source\PSoC4/CapSense_Processing.c ****                         AdaptiveFilter_Initialize(&ptrWdTouchpad->aiirConfig, &adpContext);
 223:Generated_Source\PSoC4/CapSense_Processing.c ****                         ptrHistory->xPos.posAIIRCoeff = adpContext.coefficient;
 224:Generated_Source\PSoC4/CapSense_Processing.c ****                         ptrHistory->yPos.posAIIRCoeff = adpContext.coefficient;
 225:Generated_Source\PSoC4/CapSense_Processing.c ****                     }
 226:Generated_Source\PSoC4/CapSense_Processing.c ****                 #endif /* (0u != CapSense_POS_ADAPTIVE_IIR_FILTER_EN) */
 227:Generated_Source\PSoC4/CapSense_Processing.c ****             #endif /* (0u != CapSense_POSITION_FILTER_EN) */
 228:Generated_Source\PSoC4/CapSense_Processing.c ****         }
 229:Generated_Source\PSoC4/CapSense_Processing.c ****     #endif
 230:Generated_Source\PSoC4/CapSense_Processing.c **** }
 231:Generated_Source\PSoC4/CapSense_Processing.c **** #endif /* #if (0u != CapSense_CSD_TOUCHPAD_WIDGET_EN) */
 232:Generated_Source\PSoC4/CapSense_Processing.c **** 
 233:Generated_Source\PSoC4/CapSense_Processing.c **** #if (0u != CapSense_CSX_TOUCHPAD_WIDGET_EN)
 234:Generated_Source\PSoC4/CapSense_Processing.c **** /*******************************************************************************
 235:Generated_Source\PSoC4/CapSense_Processing.c **** * Function Name: CapSense_DpInitCsxTouchpad
 236:Generated_Source\PSoC4/CapSense_Processing.c **** ****************************************************************************//**
 237:Generated_Source\PSoC4/CapSense_Processing.c **** *
 238:Generated_Source\PSoC4/CapSense_Processing.c **** * \brief
 239:Generated_Source\PSoC4/CapSense_Processing.c **** *  Performs initialization of the CSX touchpad widget i.e. Resets the position data to NONE.
 240:Generated_Source\PSoC4/CapSense_Processing.c **** *
 241:Generated_Source\PSoC4/CapSense_Processing.c **** * \details
 242:Generated_Source\PSoC4/CapSense_Processing.c **** *  The position data is always reset to the CapSense_TOUCHPAD_POS_NONE value.
 243:Generated_Source\PSoC4/CapSense_Processing.c **** *
 244:Generated_Source\PSoC4/CapSense_Processing.c **** *******************************************************************************/
 245:Generated_Source\PSoC4/CapSense_Processing.c **** static CY_INLINE void CapSense_DpInitCsxTouchpad(CapSense_FLASH_WD_STRUCT const * ptrFlashWdgt)
 246:Generated_Source\PSoC4/CapSense_Processing.c **** {
 247:Generated_Source\PSoC4/CapSense_Processing.c ****     CapSense_RAM_WD_CSX_TOUCHPAD_STRUCT *ptrWdTouchpad;
 248:Generated_Source\PSoC4/CapSense_Processing.c **** 
 249:Generated_Source\PSoC4/CapSense_Processing.c ****     #if (0u != CapSense_POSITION_FILTER_EN)
 250:Generated_Source\PSoC4/CapSense_Processing.c ****         uint32 touchIndex;
 251:Generated_Source\PSoC4/CapSense_Processing.c ****         CapSense_TOUCHPAD_POS_HISTORY_STRUCT *ptrHistory;
 252:Generated_Source\PSoC4/CapSense_Processing.c ****     #endif  /* #if (0u != CapSense_POSITION_FILTER_EN) */
 253:Generated_Source\PSoC4/CapSense_Processing.c **** 
 254:Generated_Source\PSoC4/CapSense_Processing.c ****     #if (0u != CapSense_POS_ADAPTIVE_IIR_FILTER_EN)
 255:Generated_Source\PSoC4/CapSense_Processing.c ****         ADAPTIVE_FILTER_CONTEXT_STRUCT adpContext;
 256:Generated_Source\PSoC4/CapSense_Processing.c ****     #endif /* (0u != CapSense_POS_ADAPTIVE_IIR_FILTER_EN) */
 257:Generated_Source\PSoC4/CapSense_Processing.c **** 
 258:Generated_Source\PSoC4/CapSense_Processing.c ****     ptrWdTouchpad = ptrFlashWdgt->ptr2WdgtRam;
ARM GAS  C:\Users\zack.li\AppData\Local\Temp\ccr2IpWf.s 			page 6


 259:Generated_Source\PSoC4/CapSense_Processing.c **** 
 260:Generated_Source\PSoC4/CapSense_Processing.c ****     #if (0u != CapSense_POSITION_FILTER_EN)
 261:Generated_Source\PSoC4/CapSense_Processing.c ****         ptrHistory = ptrFlashWdgt->ptr2PosHistory;
 262:Generated_Source\PSoC4/CapSense_Processing.c ****     #endif /* (0u != CapSense_POSITION_FILTER_EN) */
 263:Generated_Source\PSoC4/CapSense_Processing.c **** 
 264:Generated_Source\PSoC4/CapSense_Processing.c ****     /* Reset position data for finger */
 265:Generated_Source\PSoC4/CapSense_Processing.c ****     ptrWdTouchpad->touch[0u].x = CapSense_TOUCHPAD_POS_NONE;
 266:Generated_Source\PSoC4/CapSense_Processing.c ****     ptrWdTouchpad->touch[0u].y = CapSense_TOUCHPAD_POS_NONE;
 267:Generated_Source\PSoC4/CapSense_Processing.c ****     ptrWdTouchpad->touch[0u].z = LO8(CapSense_TOUCHPAD_POS_NONE);
 268:Generated_Source\PSoC4/CapSense_Processing.c **** 
 269:Generated_Source\PSoC4/CapSense_Processing.c ****     #if (CapSense_CSX_MAX_FINGERS > 1u)
 270:Generated_Source\PSoC4/CapSense_Processing.c ****         ptrWdTouchpad->touch[1u].x = CapSense_TOUCHPAD_POS_NONE;
 271:Generated_Source\PSoC4/CapSense_Processing.c ****         ptrWdTouchpad->touch[1u].y = CapSense_TOUCHPAD_POS_NONE;
 272:Generated_Source\PSoC4/CapSense_Processing.c ****         ptrWdTouchpad->touch[1u].z = LO8(CapSense_TOUCHPAD_POS_NONE);
 273:Generated_Source\PSoC4/CapSense_Processing.c ****     #endif /* #if (CapSense_CSX_MAX_FINGERS > 1u) */
 274:Generated_Source\PSoC4/CapSense_Processing.c **** 
 275:Generated_Source\PSoC4/CapSense_Processing.c ****     #if (CapSense_CSX_MAX_FINGERS > 2u)
 276:Generated_Source\PSoC4/CapSense_Processing.c ****         ptrWdTouchpad->touch[2u].x = CapSense_TOUCHPAD_POS_NONE;
 277:Generated_Source\PSoC4/CapSense_Processing.c ****         ptrWdTouchpad->touch[2u].y = CapSense_TOUCHPAD_POS_NONE;
 278:Generated_Source\PSoC4/CapSense_Processing.c ****         ptrWdTouchpad->touch[2u].z = LO8(CapSense_TOUCHPAD_POS_NONE);
 279:Generated_Source\PSoC4/CapSense_Processing.c ****     #endif /* #if (CapSense_CSX_MAX_FINGERS > 2u) */
 280:Generated_Source\PSoC4/CapSense_Processing.c **** 
 281:Generated_Source\PSoC4/CapSense_Processing.c ****     #if (0u != CapSense_POSITION_FILTER_EN)
 282:Generated_Source\PSoC4/CapSense_Processing.c ****         for (touchIndex = 0u; touchIndex < CapSense_CSX_MAX_FINGERS; touchIndex++)
 283:Generated_Source\PSoC4/CapSense_Processing.c ****         {
 284:Generated_Source\PSoC4/CapSense_Processing.c ****             if (NULL != ptrHistory)
 285:Generated_Source\PSoC4/CapSense_Processing.c ****             {
 286:Generated_Source\PSoC4/CapSense_Processing.c ****                 /* Clear position filter history data if available */
 287:Generated_Source\PSoC4/CapSense_Processing.c ****                 CapSense_InitPosFiltersDd(&ptrHistory[touchIndex], CapSense_TOUCHPAD_POS_NONE, CapS
 288:Generated_Source\PSoC4/CapSense_Processing.c ****                 #if (0u != CapSense_POS_ADAPTIVE_IIR_FILTER_EN)
 289:Generated_Source\PSoC4/CapSense_Processing.c ****                     AdaptiveFilter_Initialize(&ptrWdTouchpad->aiirConfig, &adpContext);
 290:Generated_Source\PSoC4/CapSense_Processing.c ****                     ptrHistory[touchIndex].xPos.posAIIRCoeff = adpContext.coefficient;
 291:Generated_Source\PSoC4/CapSense_Processing.c ****                     ptrHistory[touchIndex].yPos.posAIIRCoeff = adpContext.coefficient;
 292:Generated_Source\PSoC4/CapSense_Processing.c ****                 #endif /* (0u != CapSense_POS_ADAPTIVE_IIR_FILTER_EN) */
 293:Generated_Source\PSoC4/CapSense_Processing.c ****             }
 294:Generated_Source\PSoC4/CapSense_Processing.c ****         }
 295:Generated_Source\PSoC4/CapSense_Processing.c ****     #endif /* (0u != CapSense_POSITION_FILTER_EN) */
 296:Generated_Source\PSoC4/CapSense_Processing.c **** }
 297:Generated_Source\PSoC4/CapSense_Processing.c **** #endif /* #if (0u != CapSense_CSX_TOUCHPAD_WIDGET_EN) */
 298:Generated_Source\PSoC4/CapSense_Processing.c **** 
 299:Generated_Source\PSoC4/CapSense_Processing.c **** #if (0u != CapSense_SLIDER_WIDGET_EN)
 300:Generated_Source\PSoC4/CapSense_Processing.c **** /*******************************************************************************
 301:Generated_Source\PSoC4/CapSense_Processing.c **** * Function Name: CapSense_DpInitSlider
 302:Generated_Source\PSoC4/CapSense_Processing.c **** ****************************************************************************//**
 303:Generated_Source\PSoC4/CapSense_Processing.c **** *
 304:Generated_Source\PSoC4/CapSense_Processing.c **** * \brief
 305:Generated_Source\PSoC4/CapSense_Processing.c **** *  Performs initialization of the Radial and Linear Slider widget.
 306:Generated_Source\PSoC4/CapSense_Processing.c **** *   - Resets the position data to NONE
 307:Generated_Source\PSoC4/CapSense_Processing.c **** *   - Initializes the position filter history to NONE if enabled.
 308:Generated_Source\PSoC4/CapSense_Processing.c **** *
 309:Generated_Source\PSoC4/CapSense_Processing.c **** * \details
 310:Generated_Source\PSoC4/CapSense_Processing.c **** *  Position data is always reset to the CapSense_SLIDER_POS_NONE value.
 311:Generated_Source\PSoC4/CapSense_Processing.c **** *  The same happens to the position filter history data if enabled.
 312:Generated_Source\PSoC4/CapSense_Processing.c **** *
 313:Generated_Source\PSoC4/CapSense_Processing.c **** *******************************************************************************/
 314:Generated_Source\PSoC4/CapSense_Processing.c **** static CY_INLINE void CapSense_DpInitSlider(CapSense_FLASH_WD_STRUCT const * ptrFlashWdgt)
 315:Generated_Source\PSoC4/CapSense_Processing.c **** {
ARM GAS  C:\Users\zack.li\AppData\Local\Temp\ccr2IpWf.s 			page 7


 316:Generated_Source\PSoC4/CapSense_Processing.c ****     uint32 idx;
 317:Generated_Source\PSoC4/CapSense_Processing.c ****     CapSense_RAM_WD_SLIDER_STRUCT *ptrWdSlider;
 318:Generated_Source\PSoC4/CapSense_Processing.c **** 
 319:Generated_Source\PSoC4/CapSense_Processing.c ****     #if (0u != CapSense_POSITION_FILTER_EN)
 320:Generated_Source\PSoC4/CapSense_Processing.c ****         CapSense_SLIDER_POS_HISTORY_STRUCT *ptrHistory;
 321:Generated_Source\PSoC4/CapSense_Processing.c ****     #endif /* #if (0u != CapSense_POSITION_FILTER_EN) */
 322:Generated_Source\PSoC4/CapSense_Processing.c **** 
 323:Generated_Source\PSoC4/CapSense_Processing.c ****     #if (0u != CapSense_POS_ADAPTIVE_IIR_FILTER_EN)
 324:Generated_Source\PSoC4/CapSense_Processing.c ****         ADAPTIVE_FILTER_CONTEXT_STRUCT context;
 325:Generated_Source\PSoC4/CapSense_Processing.c ****     #endif /* (0u != CapSense_POS_ADAPTIVE_IIR_FILTER_EN) */
 326:Generated_Source\PSoC4/CapSense_Processing.c **** 
 327:Generated_Source\PSoC4/CapSense_Processing.c ****     ptrWdSlider = ptrFlashWdgt->ptr2WdgtRam;
 328:Generated_Source\PSoC4/CapSense_Processing.c **** 
 329:Generated_Source\PSoC4/CapSense_Processing.c ****     /* Reset slider position data to NONE */
 330:Generated_Source\PSoC4/CapSense_Processing.c ****     for (idx = 0u; idx < CapSense_NUM_CENTROIDS; idx++)
 331:Generated_Source\PSoC4/CapSense_Processing.c ****     {
 332:Generated_Source\PSoC4/CapSense_Processing.c ****         ptrWdSlider->position[idx] = CapSense_SLIDER_POS_NONE;
 333:Generated_Source\PSoC4/CapSense_Processing.c **** 
 334:Generated_Source\PSoC4/CapSense_Processing.c ****         #if (0u != CapSense_POSITION_FILTER_EN)
 335:Generated_Source\PSoC4/CapSense_Processing.c ****             ptrHistory = ptrFlashWdgt->ptr2PosHistory;
 336:Generated_Source\PSoC4/CapSense_Processing.c ****             if (NULL != ptrHistory)
 337:Generated_Source\PSoC4/CapSense_Processing.c ****             {
 338:Generated_Source\PSoC4/CapSense_Processing.c ****                 CapSense_InitPosFiltersSd(&ptrHistory[idx], CapSense_SLIDER_POS_NONE);
 339:Generated_Source\PSoC4/CapSense_Processing.c ****                 #if (0u != CapSense_POS_ADAPTIVE_IIR_FILTER_EN)
 340:Generated_Source\PSoC4/CapSense_Processing.c ****                     AdaptiveFilter_Initialize(&ptrWdSlider->aiirConfig, &context);
 341:Generated_Source\PSoC4/CapSense_Processing.c ****                     ptrHistory->posAIIRCoeff = context.coefficient;
 342:Generated_Source\PSoC4/CapSense_Processing.c ****                 #endif /* (0u != CapSense_POS_ADAPTIVE_IIR_FILTER_EN) */
 343:Generated_Source\PSoC4/CapSense_Processing.c ****             }
 344:Generated_Source\PSoC4/CapSense_Processing.c **** 
 345:Generated_Source\PSoC4/CapSense_Processing.c ****         #endif /* #if (0u != CapSense_POSITION_FILTER_EN) */
 346:Generated_Source\PSoC4/CapSense_Processing.c ****     }
 347:Generated_Source\PSoC4/CapSense_Processing.c **** }
 348:Generated_Source\PSoC4/CapSense_Processing.c **** #endif /* #if (0u != CapSense_SLIDER_WIDGET_EN) */
 349:Generated_Source\PSoC4/CapSense_Processing.c **** 
 350:Generated_Source\PSoC4/CapSense_Processing.c **** #if (0u != CapSense_CSD_MATRIX_WIDGET_EN)
 351:Generated_Source\PSoC4/CapSense_Processing.c **** /*******************************************************************************
 352:Generated_Source\PSoC4/CapSense_Processing.c **** * Function Name: CapSense_DpInitCsdMatrix
 353:Generated_Source\PSoC4/CapSense_Processing.c **** ****************************************************************************//**
 354:Generated_Source\PSoC4/CapSense_Processing.c **** *
 355:Generated_Source\PSoC4/CapSense_Processing.c **** * \brief
 356:Generated_Source\PSoC4/CapSense_Processing.c **** *  Performs initialization of the CSD Matrix Buttons widget.
 357:Generated_Source\PSoC4/CapSense_Processing.c **** *   - Resets the active button position data to NONE.
 358:Generated_Source\PSoC4/CapSense_Processing.c **** *
 359:Generated_Source\PSoC4/CapSense_Processing.c **** * \details
 360:Generated_Source\PSoC4/CapSense_Processing.c **** *  Position data is always reset to the CapSense_MATRIX_POS_NONE value.
 361:Generated_Source\PSoC4/CapSense_Processing.c **** *
 362:Generated_Source\PSoC4/CapSense_Processing.c **** *******************************************************************************/
 363:Generated_Source\PSoC4/CapSense_Processing.c **** static CY_INLINE void CapSense_DpInitCsdMatrix(CapSense_FLASH_WD_STRUCT const * ptrFlashWdgt)
 364:Generated_Source\PSoC4/CapSense_Processing.c **** {
 365:Generated_Source\PSoC4/CapSense_Processing.c ****     CapSense_RAM_WD_CSD_MATRIX_STRUCT *ptrRamWdgt;
 366:Generated_Source\PSoC4/CapSense_Processing.c **** 
 367:Generated_Source\PSoC4/CapSense_Processing.c ****     ptrRamWdgt = (CapSense_RAM_WD_CSD_MATRIX_STRUCT *)ptrFlashWdgt->ptr2WdgtRam;
 368:Generated_Source\PSoC4/CapSense_Processing.c **** 
 369:Generated_Source\PSoC4/CapSense_Processing.c ****     /* Reset sensor id, row and col registers in data structure */
 370:Generated_Source\PSoC4/CapSense_Processing.c ****     ptrRamWdgt->posRow   = CapSense_MATRIX_POS_NONE;
 371:Generated_Source\PSoC4/CapSense_Processing.c ****     ptrRamWdgt->posCol   = CapSense_MATRIX_POS_NONE;
 372:Generated_Source\PSoC4/CapSense_Processing.c ****     ptrRamWdgt->posSnsId = CapSense_MATRIX_POS_NONE;
ARM GAS  C:\Users\zack.li\AppData\Local\Temp\ccr2IpWf.s 			page 8


 373:Generated_Source\PSoC4/CapSense_Processing.c **** }
 374:Generated_Source\PSoC4/CapSense_Processing.c **** #endif /* #if (0u != CapSense_CSD_MATRIX_WIDGET_EN) */
 375:Generated_Source\PSoC4/CapSense_Processing.c **** 
 376:Generated_Source\PSoC4/CapSense_Processing.c **** /*******************************************************************************
 377:Generated_Source\PSoC4/CapSense_Processing.c **** * Function Name: CapSense_DpInitialize
 378:Generated_Source\PSoC4/CapSense_Processing.c **** ****************************************************************************//**
 379:Generated_Source\PSoC4/CapSense_Processing.c **** *
 380:Generated_Source\PSoC4/CapSense_Processing.c **** * \brief
 381:Generated_Source\PSoC4/CapSense_Processing.c **** *  Performs initialization of the data processing FW module:
 382:Generated_Source\PSoC4/CapSense_Processing.c **** *   - Resets the de-bounce counters of all the widgets
 383:Generated_Source\PSoC4/CapSense_Processing.c **** *   - Resets the position filter history for slider and touchpad widgets
 384:Generated_Source\PSoC4/CapSense_Processing.c **** *   - Clears widget and sensor statuses
 385:Generated_Source\PSoC4/CapSense_Processing.c **** *   - Enables all the widgets.
 386:Generated_Source\PSoC4/CapSense_Processing.c **** *
 387:Generated_Source\PSoC4/CapSense_Processing.c **** * \details
 388:Generated_Source\PSoC4/CapSense_Processing.c **** *  The Button and Matrix Button widgets have individual de-bounce counter per
 389:Generated_Source\PSoC4/CapSense_Processing.c **** *  sensor for the CSD widgets and per node for the CSX widgets.
 390:Generated_Source\PSoC4/CapSense_Processing.c **** *
 391:Generated_Source\PSoC4/CapSense_Processing.c **** *  The Slider and Touchpad widgets have a single de-bounce counter per widget.
 392:Generated_Source\PSoC4/CapSense_Processing.c **** *
 393:Generated_Source\PSoC4/CapSense_Processing.c **** *  The Proximity widget has two de-bounce counters per sensor. One for the
 394:Generated_Source\PSoC4/CapSense_Processing.c **** *  proximity event and second for the touch event.
 395:Generated_Source\PSoC4/CapSense_Processing.c **** *
 396:Generated_Source\PSoC4/CapSense_Processing.c **** *  All debounce counters during initialization are set to the value of the
 397:Generated_Source\PSoC4/CapSense_Processing.c **** *  onDebounce widget parameter.
 398:Generated_Source\PSoC4/CapSense_Processing.c **** *
 399:Generated_Source\PSoC4/CapSense_Processing.c **** *******************************************************************************/
 400:Generated_Source\PSoC4/CapSense_Processing.c **** void CapSense_DpInitialize(void)
 401:Generated_Source\PSoC4/CapSense_Processing.c **** {
  28              		.loc 1 401 0
  29              		.cfi_startproc
  30              		@ args = 0, pretend = 0, frame = 0
  31              		@ frame_needed = 0, uses_anonymous_args = 0
  32 0000 70B5     		push	{r4, r5, r6, lr}
  33              		.cfi_def_cfa_offset 16
  34              		.cfi_offset 4, -16
  35              		.cfi_offset 5, -12
  36              		.cfi_offset 6, -8
  37              		.cfi_offset 14, -4
  38              	.LVL0:
 402:Generated_Source\PSoC4/CapSense_Processing.c ****     uint32 wdgtId;
 403:Generated_Source\PSoC4/CapSense_Processing.c ****     CapSense_WD_TYPE_ENUM widgetType;
 404:Generated_Source\PSoC4/CapSense_Processing.c ****     CapSense_RAM_WD_BASE_STRUCT * ptrRamWdgt;
 405:Generated_Source\PSoC4/CapSense_Processing.c ****     CapSense_FLASH_WD_STRUCT const * ptrFlashWdgt;
 406:Generated_Source\PSoC4/CapSense_Processing.c **** 
 407:Generated_Source\PSoC4/CapSense_Processing.c ****     for (wdgtId = 0u; wdgtId < CapSense_WDGT_STATUS_WORDS; wdgtId++)
  39              		.loc 1 407 0
  40 0002 0023     		movs	r3, #0
  41 0004 09E0     		b	.L2
  42              	.LVL1:
  43              	.L3:
 408:Generated_Source\PSoC4/CapSense_Processing.c ****     {
 409:Generated_Source\PSoC4/CapSense_Processing.c ****         /* Clear widget status */
 410:Generated_Source\PSoC4/CapSense_Processing.c ****         CapSense_dsRam.wdgtStatus[wdgtId] = 0u;
  44              		.loc 1 410 0 discriminator 3
  45 0006 1849     		ldr	r1, .L9
  46 0008 1A1D     		adds	r2, r3, #4
ARM GAS  C:\Users\zack.li\AppData\Local\Temp\ccr2IpWf.s 			page 9


  47 000a 9200     		lsls	r2, r2, #2
  48 000c 8818     		adds	r0, r1, r2
  49 000e 0024     		movs	r4, #0
  50 0010 4460     		str	r4, [r0, #4]
 411:Generated_Source\PSoC4/CapSense_Processing.c **** 
 412:Generated_Source\PSoC4/CapSense_Processing.c ****         /* Enable all the widgets */
 413:Generated_Source\PSoC4/CapSense_Processing.c ****         CapSense_dsRam.wdgtEnable[wdgtId] = 0xFFFFFFFFLu;
  51              		.loc 1 413 0 discriminator 3
  52 0012 0120     		movs	r0, #1
  53 0014 4042     		rsbs	r0, r0, #0
  54 0016 5050     		str	r0, [r2, r1]
 407:Generated_Source\PSoC4/CapSense_Processing.c ****     {
  55              		.loc 1 407 0 discriminator 3
  56 0018 0133     		adds	r3, r3, #1
  57              	.LVL2:
  58              	.L2:
 407:Generated_Source\PSoC4/CapSense_Processing.c ****     {
  59              		.loc 1 407 0 is_stmt 0 discriminator 1
  60 001a 002B     		cmp	r3, #0
  61 001c F3D0     		beq	.L3
  62 001e 134C     		ldr	r4, .L9+4
  63 0020 0623     		movs	r3, #6
  64              	.LVL3:
  65 0022 1CE0     		b	.L4
  66              	.LVL4:
  67              	.L8:
 414:Generated_Source\PSoC4/CapSense_Processing.c **** 
 415:Generated_Source\PSoC4/CapSense_Processing.c ****         /* Set all the widgets to working state if the Self-Test is not enabled */
 416:Generated_Source\PSoC4/CapSense_Processing.c ****         #if (0u != CapSense_SELF_TEST_EN)
 417:Generated_Source\PSoC4/CapSense_Processing.c ****             CapSense_dsRam.wdgtWorking[wdgtId] = 0xFFFFFFFFLu;
 418:Generated_Source\PSoC4/CapSense_Processing.c ****         #endif /* #if (0u == CapSense_SELF_TEST_EN) */
 419:Generated_Source\PSoC4/CapSense_Processing.c ****     }
 420:Generated_Source\PSoC4/CapSense_Processing.c **** 
 421:Generated_Source\PSoC4/CapSense_Processing.c ****     ptrFlashWdgt = CapSense_dsFlash.wdgtArray;
 422:Generated_Source\PSoC4/CapSense_Processing.c **** 
 423:Generated_Source\PSoC4/CapSense_Processing.c ****     for (wdgtId = CapSense_TOTAL_WIDGETS; wdgtId-- > 0u; )
 424:Generated_Source\PSoC4/CapSense_Processing.c ****     {
 425:Generated_Source\PSoC4/CapSense_Processing.c ****         ptrRamWdgt = (CapSense_RAM_WD_BASE_STRUCT *)ptrFlashWdgt->ptr2WdgtRam;
  68              		.loc 1 425 0 is_stmt 1
  69 0024 6668     		ldr	r6, [r4, #4]
  70              	.LVL5:
 426:Generated_Source\PSoC4/CapSense_Processing.c ****         widgetType = (CapSense_WD_TYPE_ENUM)ptrFlashWdgt->wdgtType;
  71              		.loc 1 426 0
  72 0026 A27E     		ldrb	r2, [r4, #26]
  73              	.LVL6:
 427:Generated_Source\PSoC4/CapSense_Processing.c **** 
 428:Generated_Source\PSoC4/CapSense_Processing.c ****         /* Clear all sensor statuses */
 429:Generated_Source\PSoC4/CapSense_Processing.c ****         CapSense_dsRam.snsStatus[wdgtId] = 0u;
  74              		.loc 1 429 0
  75 0028 0F4B     		ldr	r3, .L9
  76 002a 5B19     		adds	r3, r3, r5
  77 002c 0021     		movs	r1, #0
  78 002e 1976     		strb	r1, [r3, #24]
 430:Generated_Source\PSoC4/CapSense_Processing.c **** 
 431:Generated_Source\PSoC4/CapSense_Processing.c ****         /* Reset de-bounce counters */
 432:Generated_Source\PSoC4/CapSense_Processing.c ****         switch (widgetType)
  79              		.loc 1 432 0
ARM GAS  C:\Users\zack.li\AppData\Local\Temp\ccr2IpWf.s 			page 10


  80 0030 012A     		cmp	r2, #1
  81 0032 02D0     		beq	.L6
  82 0034 062A     		cmp	r2, #6
  83 0036 08D0     		beq	.L7
  84 0038 0FE0     		b	.L5
  85              	.L6:
 433:Generated_Source\PSoC4/CapSense_Processing.c ****         {
 434:Generated_Source\PSoC4/CapSense_Processing.c ****         #if (0u != CapSense_MATRIX_WIDGET_EN)
 435:Generated_Source\PSoC4/CapSense_Processing.c ****             case CapSense_WD_MATRIX_BUTTON_E:
 436:Generated_Source\PSoC4/CapSense_Processing.c ****                 #if (0u != CapSense_CSD_MATRIX_WIDGET_EN)
 437:Generated_Source\PSoC4/CapSense_Processing.c ****                     if (CapSense_SENSE_METHOD_CSD_E == CapSense_GET_SENSE_METHOD(ptrFlashWdgt))
 438:Generated_Source\PSoC4/CapSense_Processing.c ****                     {
 439:Generated_Source\PSoC4/CapSense_Processing.c ****                         CapSense_DpInitCsdMatrix(ptrFlashWdgt);
 440:Generated_Source\PSoC4/CapSense_Processing.c ****                     }
 441:Generated_Source\PSoC4/CapSense_Processing.c ****                 #endif /* #if (0u != CapSense_CSD_MATRIX_WIDGET_EN) */
 442:Generated_Source\PSoC4/CapSense_Processing.c **** 
 443:Generated_Source\PSoC4/CapSense_Processing.c ****                 if (NULL != ptrFlashWdgt->ptr2DebounceArr)
 444:Generated_Source\PSoC4/CapSense_Processing.c ****                 {
 445:Generated_Source\PSoC4/CapSense_Processing.c ****                     /* Initialize array of debounce counters */
 446:Generated_Source\PSoC4/CapSense_Processing.c ****                     (void)memset(ptrFlashWdgt->ptr2DebounceArr,
 447:Generated_Source\PSoC4/CapSense_Processing.c ****                                  (int32)ptrRamWdgt->onDebounce,
 448:Generated_Source\PSoC4/CapSense_Processing.c ****                                  (size_t)ptrFlashWdgt->totalNumSns);
 449:Generated_Source\PSoC4/CapSense_Processing.c ****                 }
 450:Generated_Source\PSoC4/CapSense_Processing.c ****                 break;
 451:Generated_Source\PSoC4/CapSense_Processing.c ****         #endif /* #if (0u != CapSense_MATRIX_WIDGET_EN) */
 452:Generated_Source\PSoC4/CapSense_Processing.c **** 
 453:Generated_Source\PSoC4/CapSense_Processing.c ****         #if (0u != CapSense_BUTTON_WIDGET_EN)
 454:Generated_Source\PSoC4/CapSense_Processing.c ****             case CapSense_WD_BUTTON_E:
 455:Generated_Source\PSoC4/CapSense_Processing.c ****                 if (NULL != ptrFlashWdgt->ptr2DebounceArr)
  86              		.loc 1 455 0
  87 003a 2069     		ldr	r0, [r4, #16]
  88 003c 0028     		cmp	r0, #0
  89 003e 0CD0     		beq	.L5
 456:Generated_Source\PSoC4/CapSense_Processing.c ****                 {
 457:Generated_Source\PSoC4/CapSense_Processing.c ****                     /* Initialize array of debounce counters */
 458:Generated_Source\PSoC4/CapSense_Processing.c ****                     (void)memset(ptrFlashWdgt->ptr2DebounceArr,
 459:Generated_Source\PSoC4/CapSense_Processing.c ****                                  (int32)ptrRamWdgt->onDebounce,
  90              		.loc 1 459 0
  91 0040 F179     		ldrb	r1, [r6, #7]
 460:Generated_Source\PSoC4/CapSense_Processing.c ****                                  (size_t)ptrFlashWdgt->totalNumSns);
  92              		.loc 1 460 0
  93 0042 228B     		ldrh	r2, [r4, #24]
  94              	.LVL7:
 458:Generated_Source\PSoC4/CapSense_Processing.c ****                                  (int32)ptrRamWdgt->onDebounce,
  95              		.loc 1 458 0
  96 0044 FFF7FEFF 		bl	memset
  97              	.LVL8:
  98 0048 07E0     		b	.L5
  99              	.LVL9:
 100              	.L7:
 461:Generated_Source\PSoC4/CapSense_Processing.c ****                 }
 462:Generated_Source\PSoC4/CapSense_Processing.c ****                 break;
 463:Generated_Source\PSoC4/CapSense_Processing.c ****         #endif /* #if (0u != CapSense_BUTTON_WIDGET_EN) */
 464:Generated_Source\PSoC4/CapSense_Processing.c **** 
 465:Generated_Source\PSoC4/CapSense_Processing.c ****         #if (0u != CapSense_SLIDER_WIDGET_EN)
 466:Generated_Source\PSoC4/CapSense_Processing.c ****             case CapSense_WD_LINEAR_SLIDER_E:
 467:Generated_Source\PSoC4/CapSense_Processing.c ****             case CapSense_WD_RADIAL_SLIDER_E:
ARM GAS  C:\Users\zack.li\AppData\Local\Temp\ccr2IpWf.s 			page 11


 468:Generated_Source\PSoC4/CapSense_Processing.c ****                 if (NULL != ptrFlashWdgt->ptr2DebounceArr)
 469:Generated_Source\PSoC4/CapSense_Processing.c ****                 {
 470:Generated_Source\PSoC4/CapSense_Processing.c ****                     /* Initialize single debounce counter of slider */
 471:Generated_Source\PSoC4/CapSense_Processing.c ****                     *(uint8 *)(ptrFlashWdgt->ptr2DebounceArr) = ptrRamWdgt->onDebounce;
 472:Generated_Source\PSoC4/CapSense_Processing.c ****                 }
 473:Generated_Source\PSoC4/CapSense_Processing.c **** 
 474:Generated_Source\PSoC4/CapSense_Processing.c ****                 CapSense_DpInitSlider(ptrFlashWdgt);
 475:Generated_Source\PSoC4/CapSense_Processing.c **** 
 476:Generated_Source\PSoC4/CapSense_Processing.c ****                 break;
 477:Generated_Source\PSoC4/CapSense_Processing.c ****         #endif /* #if (0u != CapSense_SLIDER_WIDGET_EN) */
 478:Generated_Source\PSoC4/CapSense_Processing.c **** 
 479:Generated_Source\PSoC4/CapSense_Processing.c ****         #if (0u != CapSense_TOUCHPAD_WIDGET_EN)
 480:Generated_Source\PSoC4/CapSense_Processing.c ****             case CapSense_WD_TOUCHPAD_E:
 481:Generated_Source\PSoC4/CapSense_Processing.c ****                 if (NULL != ptrFlashWdgt->ptr2DebounceArr)
 482:Generated_Source\PSoC4/CapSense_Processing.c ****                 {
 483:Generated_Source\PSoC4/CapSense_Processing.c ****                     /* Initialize single debounce counter of touchpad */
 484:Generated_Source\PSoC4/CapSense_Processing.c ****                     *(uint8 *)(ptrFlashWdgt->ptr2DebounceArr) = ptrRamWdgt->onDebounce;
 485:Generated_Source\PSoC4/CapSense_Processing.c ****                 }
 486:Generated_Source\PSoC4/CapSense_Processing.c **** 
 487:Generated_Source\PSoC4/CapSense_Processing.c ****                 #if (0u != CapSense_CSD_TOUCHPAD_WIDGET_EN)
 488:Generated_Source\PSoC4/CapSense_Processing.c ****                     if (CapSense_SENSE_METHOD_CSD_E == CapSense_GET_SENSE_METHOD(ptrFlashWdgt))
 489:Generated_Source\PSoC4/CapSense_Processing.c ****                     {
 490:Generated_Source\PSoC4/CapSense_Processing.c ****                         CapSense_DpInitCsdTouchpad(ptrFlashWdgt);
 491:Generated_Source\PSoC4/CapSense_Processing.c ****                     }
 492:Generated_Source\PSoC4/CapSense_Processing.c ****                 #endif /* #if (0u != CapSense_CSD_TOUCHPAD_WIDGET_EN) */
 493:Generated_Source\PSoC4/CapSense_Processing.c **** 
 494:Generated_Source\PSoC4/CapSense_Processing.c ****                 #if (0u != CapSense_CSX_TOUCHPAD_WIDGET_EN)
 495:Generated_Source\PSoC4/CapSense_Processing.c ****                     if (CapSense_SENSE_METHOD_CSX_E == CapSense_GET_SENSE_METHOD(ptrFlashWdgt))
 496:Generated_Source\PSoC4/CapSense_Processing.c ****                     {
 497:Generated_Source\PSoC4/CapSense_Processing.c ****                         CapSense_DpInitCsxTouchpad(ptrFlashWdgt);
 498:Generated_Source\PSoC4/CapSense_Processing.c ****                     }
 499:Generated_Source\PSoC4/CapSense_Processing.c ****                 #endif /* #if (0u != CapSense_CSX_TOUCHPAD_WIDGET_EN) */
 500:Generated_Source\PSoC4/CapSense_Processing.c **** 
 501:Generated_Source\PSoC4/CapSense_Processing.c ****                 break;
 502:Generated_Source\PSoC4/CapSense_Processing.c ****         #endif /* #if (0u != CapSense_TOUCHPAD_WIDGET_EN) */
 503:Generated_Source\PSoC4/CapSense_Processing.c **** 
 504:Generated_Source\PSoC4/CapSense_Processing.c ****         #if (0u != CapSense_PROXIMITY_WIDGET_EN)
 505:Generated_Source\PSoC4/CapSense_Processing.c ****             case CapSense_WD_PROXIMITY_E:
 506:Generated_Source\PSoC4/CapSense_Processing.c ****                 if (NULL != ptrFlashWdgt->ptr2DebounceArr)
 101              		.loc 1 506 0
 102 004a 2069     		ldr	r0, [r4, #16]
 103 004c 0028     		cmp	r0, #0
 104 004e 04D0     		beq	.L5
 507:Generated_Source\PSoC4/CapSense_Processing.c ****                 {
 508:Generated_Source\PSoC4/CapSense_Processing.c ****                     /* Proximity widgets have 2 de-bounce counters per sensor.
 509:Generated_Source\PSoC4/CapSense_Processing.c ****                      * Therefore the number of sensors is multiplied by 2.
 510:Generated_Source\PSoC4/CapSense_Processing.c ****                      */
 511:Generated_Source\PSoC4/CapSense_Processing.c ****                    (void)memset(ptrFlashWdgt->ptr2DebounceArr,
 512:Generated_Source\PSoC4/CapSense_Processing.c ****                                 (int32)ptrRamWdgt->onDebounce,
 105              		.loc 1 512 0
 106 0050 F179     		ldrb	r1, [r6, #7]
 513:Generated_Source\PSoC4/CapSense_Processing.c ****                                 (size_t)ptrFlashWdgt->totalNumSns * 2u);
 107              		.loc 1 513 0
 108 0052 228B     		ldrh	r2, [r4, #24]
 109              	.LVL10:
 511:Generated_Source\PSoC4/CapSense_Processing.c ****                                 (int32)ptrRamWdgt->onDebounce,
 110              		.loc 1 511 0
ARM GAS  C:\Users\zack.li\AppData\Local\Temp\ccr2IpWf.s 			page 12


 111 0054 5200     		lsls	r2, r2, #1
 112 0056 FFF7FEFF 		bl	memset
 113              	.LVL11:
 114              	.L5:
 514:Generated_Source\PSoC4/CapSense_Processing.c ****                 }
 515:Generated_Source\PSoC4/CapSense_Processing.c ****                 break;
 516:Generated_Source\PSoC4/CapSense_Processing.c ****         #endif /* #if (0u != CapSense_PROXIMITY_WIDGET_EN) */
 517:Generated_Source\PSoC4/CapSense_Processing.c **** 
 518:Generated_Source\PSoC4/CapSense_Processing.c ****         #if (0u != CapSense_ENCODERDIAL_WIDGET_EN)
 519:Generated_Source\PSoC4/CapSense_Processing.c ****             case CapSense_WD_ENCODERDIAL_E:
 520:Generated_Source\PSoC4/CapSense_Processing.c ****                 if (NULL != ptrFlashWdgt->ptr2DebounceArr)
 521:Generated_Source\PSoC4/CapSense_Processing.c ****                 {
 522:Generated_Source\PSoC4/CapSense_Processing.c ****                     /* Proximity widgets have 2 de-bounce counters per sensor.
 523:Generated_Source\PSoC4/CapSense_Processing.c ****                      * Therefore the number of sensors is multiplied by 2.
 524:Generated_Source\PSoC4/CapSense_Processing.c ****                      */
 525:Generated_Source\PSoC4/CapSense_Processing.c ****                    (void)memset(ptrFlashWdgt->ptr2DebounceArr,
 526:Generated_Source\PSoC4/CapSense_Processing.c ****                                 (int32)ptrRamWdgt->onDebounce,
 527:Generated_Source\PSoC4/CapSense_Processing.c ****                                 (size_t)ptrFlashWdgt->totalNumSns);
 528:Generated_Source\PSoC4/CapSense_Processing.c ****                 }
 529:Generated_Source\PSoC4/CapSense_Processing.c ****                 break;
 530:Generated_Source\PSoC4/CapSense_Processing.c ****         #endif /* (0u != CapSense_ENCODERDIAL_WIDGET_EN) */
 531:Generated_Source\PSoC4/CapSense_Processing.c ****             default:
 532:Generated_Source\PSoC4/CapSense_Processing.c ****                 break;
 533:Generated_Source\PSoC4/CapSense_Processing.c ****         }
 534:Generated_Source\PSoC4/CapSense_Processing.c **** 
 535:Generated_Source\PSoC4/CapSense_Processing.c ****         /* Move to next widget */
 536:Generated_Source\PSoC4/CapSense_Processing.c ****         ptrFlashWdgt++;
 115              		.loc 1 536 0
 116 005a 1C34     		adds	r4, r4, #28
 117              	.LVL12:
 423:Generated_Source\PSoC4/CapSense_Processing.c ****     {
 118              		.loc 1 423 0
 119 005c 2B00     		movs	r3, r5
 120              	.LVL13:
 121              	.L4:
 423:Generated_Source\PSoC4/CapSense_Processing.c ****     {
 122              		.loc 1 423 0 is_stmt 0 discriminator 1
 123 005e 5D1E     		subs	r5, r3, #1
 124              	.LVL14:
 125 0060 002B     		cmp	r3, #0
 126 0062 DFD1     		bne	.L8
 537:Generated_Source\PSoC4/CapSense_Processing.c ****     }
 538:Generated_Source\PSoC4/CapSense_Processing.c **** }
 127              		.loc 1 538 0 is_stmt 1
 128              		@ sp needed
 129              	.LVL15:
 130              	.LVL16:
 131 0064 70BD     		pop	{r4, r5, r6, pc}
 132              	.L10:
 133 0066 C046     		.align	2
 134              	.L9:
 135 0068 00000000 		.word	CapSense_dsRam
 136 006c 00000000 		.word	CapSense_dsFlash
 137              		.cfi_endproc
 138              	.LFE1:
 139              		.size	CapSense_DpInitialize, .-CapSense_DpInitialize
 140              		.section	.text.CapSense_DpUpdateDifferences,"ax",%progbits
ARM GAS  C:\Users\zack.li\AppData\Local\Temp\ccr2IpWf.s 			page 13


 141              		.align	2
 142              		.global	CapSense_DpUpdateDifferences
 143              		.code	16
 144              		.thumb_func
 145              		.type	CapSense_DpUpdateDifferences, %function
 146              	CapSense_DpUpdateDifferences:
 147              	.LFB5:
 539:Generated_Source\PSoC4/CapSense_Processing.c **** 
 540:Generated_Source\PSoC4/CapSense_Processing.c **** #if (0u != CapSense_TOTAL_CSX_WIDGETS)
 541:Generated_Source\PSoC4/CapSense_Processing.c **** /*******************************************************************************
 542:Generated_Source\PSoC4/CapSense_Processing.c **** * Function Name: CapSense_DpProcessCsxWidgetRawCounts
 543:Generated_Source\PSoC4/CapSense_Processing.c **** ****************************************************************************//**
 544:Generated_Source\PSoC4/CapSense_Processing.c **** *
 545:Generated_Source\PSoC4/CapSense_Processing.c **** * \brief
 546:Generated_Source\PSoC4/CapSense_Processing.c **** *  Performs default processing of the CSX raw counts.
 547:Generated_Source\PSoC4/CapSense_Processing.c **** *
 548:Generated_Source\PSoC4/CapSense_Processing.c **** * \details
 549:Generated_Source\PSoC4/CapSense_Processing.c **** *  Performs default processing of the CSX raw counts:
 550:Generated_Source\PSoC4/CapSense_Processing.c **** *   - Run Filters
 551:Generated_Source\PSoC4/CapSense_Processing.c **** *   - Update Baselines
 552:Generated_Source\PSoC4/CapSense_Processing.c **** *   - Update Differences
 553:Generated_Source\PSoC4/CapSense_Processing.c **** *   - Update Status.
 554:Generated_Source\PSoC4/CapSense_Processing.c **** *  The same process is applied to all the sensors of the specified widget.
 555:Generated_Source\PSoC4/CapSense_Processing.c **** *
 556:Generated_Source\PSoC4/CapSense_Processing.c **** * \param ptrFlashWdgt The pointer to the Flash widget structure.
 557:Generated_Source\PSoC4/CapSense_Processing.c **** *
 558:Generated_Source\PSoC4/CapSense_Processing.c **** * \return
 559:Generated_Source\PSoC4/CapSense_Processing.c **** *  Returns the status of the specified widget processing operation:
 560:Generated_Source\PSoC4/CapSense_Processing.c **** *  - CYRET_SUCCESS if operation was successfully completed;
 561:Generated_Source\PSoC4/CapSense_Processing.c **** *  - CapSense_PROCESS_BASELINE_FAILED if baseline processing of any
 562:Generated_Source\PSoC4/CapSense_Processing.c **** *    sensor of the specified widget failed. The result is concatenated with the index
 563:Generated_Source\PSoC4/CapSense_Processing.c **** *    of failed sensor.
 564:Generated_Source\PSoC4/CapSense_Processing.c **** *
 565:Generated_Source\PSoC4/CapSense_Processing.c **** *******************************************************************************/
 566:Generated_Source\PSoC4/CapSense_Processing.c **** uint32 CapSense_DpProcessCsxWidgetRawCounts(CapSense_FLASH_WD_STRUCT const *ptrFlashWdgt)
 567:Generated_Source\PSoC4/CapSense_Processing.c **** {
 568:Generated_Source\PSoC4/CapSense_Processing.c ****     uint32 result = CYRET_SUCCESS;
 569:Generated_Source\PSoC4/CapSense_Processing.c ****     uint32 widgetType;
 570:Generated_Source\PSoC4/CapSense_Processing.c ****     uint32 snsCount;
 571:Generated_Source\PSoC4/CapSense_Processing.c ****     CapSense_RAM_SNS_STRUCT *ptrSnsTmp;
 572:Generated_Source\PSoC4/CapSense_Processing.c ****     CapSense_RAM_WD_BASE_STRUCT *ptrRamWdgt;
 573:Generated_Source\PSoC4/CapSense_Processing.c **** 
 574:Generated_Source\PSoC4/CapSense_Processing.c ****     #if (CapSense_ENABLE == CapSense_RC_FILTER_EN)
 575:Generated_Source\PSoC4/CapSense_Processing.c ****         CapSense_PTR_FILTER_VARIANT fltrHistV;
 576:Generated_Source\PSoC4/CapSense_Processing.c **** 
 577:Generated_Source\PSoC4/CapSense_Processing.c ****         fltrHistV.ptr = ptrFlashWdgt->ptr2FltrHistory;
 578:Generated_Source\PSoC4/CapSense_Processing.c ****     #endif /* #if (CapSense_ENABLE == CapSense_RC_FILTER_EN) */
 579:Generated_Source\PSoC4/CapSense_Processing.c **** 
 580:Generated_Source\PSoC4/CapSense_Processing.c ****     ptrSnsTmp = ptrFlashWdgt->ptr2SnsRam;
 581:Generated_Source\PSoC4/CapSense_Processing.c ****     snsCount = ptrFlashWdgt->totalNumSns;
 582:Generated_Source\PSoC4/CapSense_Processing.c ****     ptrRamWdgt = (CapSense_RAM_WD_BASE_STRUCT *)ptrFlashWdgt->ptr2WdgtRam;
 583:Generated_Source\PSoC4/CapSense_Processing.c ****     widgetType = ptrFlashWdgt->wdgtType;
 584:Generated_Source\PSoC4/CapSense_Processing.c **** 
 585:Generated_Source\PSoC4/CapSense_Processing.c ****     /* Run deconvolution algorithm for the widgets with multiphase TX support */
 586:Generated_Source\PSoC4/CapSense_Processing.c ****     #if (0u != CapSense_CSX_MULTIPHASE_TX_EN)
 587:Generated_Source\PSoC4/CapSense_Processing.c ****         if (0u != (ptrFlashWdgt->staticConfig & CapSense_MULTIPHASE_TX_MASK))
 588:Generated_Source\PSoC4/CapSense_Processing.c ****         {
ARM GAS  C:\Users\zack.li\AppData\Local\Temp\ccr2IpWf.s 			page 14


 589:Generated_Source\PSoC4/CapSense_Processing.c ****             CapSense_DpDeconvolution(ptrFlashWdgt);
 590:Generated_Source\PSoC4/CapSense_Processing.c ****         }
 591:Generated_Source\PSoC4/CapSense_Processing.c ****     #endif  /* #if (0u != CapSense_CSX_MULTIPHASE_TX_EN) */
 592:Generated_Source\PSoC4/CapSense_Processing.c **** 
 593:Generated_Source\PSoC4/CapSense_Processing.c ****     for (;snsCount-- > 0u;)
 594:Generated_Source\PSoC4/CapSense_Processing.c ****     {
 595:Generated_Source\PSoC4/CapSense_Processing.c ****         #if (CapSense_ENABLE == CapSense_RC_FILTER_EN)
 596:Generated_Source\PSoC4/CapSense_Processing.c ****             CapSense_FtRunEnabledFiltersInternal(fltrHistV, ptrSnsTmp, widgetType);
 597:Generated_Source\PSoC4/CapSense_Processing.c ****             #if (CapSense_ALP_FILTER_EN)
 598:Generated_Source\PSoC4/CapSense_Processing.c ****                 CapSense_ConfigRunALPInternal(fltrHistV, ptrRamWdgt, ptrSnsTmp, widgetType);
 599:Generated_Source\PSoC4/CapSense_Processing.c ****             #endif
 600:Generated_Source\PSoC4/CapSense_Processing.c ****         #endif /* #if (CapSense_ENABLE == CapSense_RC_FILTER_EN) */
 601:Generated_Source\PSoC4/CapSense_Processing.c **** 
 602:Generated_Source\PSoC4/CapSense_Processing.c ****         result = CapSense_FtUpdateBaseline(ptrRamWdgt, ptrSnsTmp, widgetType);
 603:Generated_Source\PSoC4/CapSense_Processing.c **** 
 604:Generated_Source\PSoC4/CapSense_Processing.c ****         #if (CapSense_ENABLE == CapSense_TST_BSLN_DUPLICATION_EN)
 605:Generated_Source\PSoC4/CapSense_Processing.c ****             if (CYRET_SUCCESS != result)
 606:Generated_Source\PSoC4/CapSense_Processing.c ****             {
 607:Generated_Source\PSoC4/CapSense_Processing.c ****                 result = snsCount | CapSense_PROCESS_BASELINE_FAILED;
 608:Generated_Source\PSoC4/CapSense_Processing.c ****             }
 609:Generated_Source\PSoC4/CapSense_Processing.c ****         #endif /* (CapSense_ENABLE == CapSense_TST_BSLN_DUPLICATION_EN) */
 610:Generated_Source\PSoC4/CapSense_Processing.c **** 
 611:Generated_Source\PSoC4/CapSense_Processing.c ****         CapSense_DpUpdateDifferences(ptrRamWdgt, ptrSnsTmp);
 612:Generated_Source\PSoC4/CapSense_Processing.c **** 
 613:Generated_Source\PSoC4/CapSense_Processing.c ****         /* Move pointers to the next sensor and filter history objects */
 614:Generated_Source\PSoC4/CapSense_Processing.c ****         ptrSnsTmp++;
 615:Generated_Source\PSoC4/CapSense_Processing.c **** 
 616:Generated_Source\PSoC4/CapSense_Processing.c ****         #if (CapSense_ENABLE == CapSense_RC_FILTER_EN)
 617:Generated_Source\PSoC4/CapSense_Processing.c ****             CapSense_INC_REG_FLTR_OBJ(fltrHistV);
 618:Generated_Source\PSoC4/CapSense_Processing.c ****         #endif /* #if (CapSense_ENABLE == CapSense_RC_FILTER_EN) */
 619:Generated_Source\PSoC4/CapSense_Processing.c ****     }
 620:Generated_Source\PSoC4/CapSense_Processing.c ****     return result;
 621:Generated_Source\PSoC4/CapSense_Processing.c **** }
 622:Generated_Source\PSoC4/CapSense_Processing.c **** 
 623:Generated_Source\PSoC4/CapSense_Processing.c **** /*******************************************************************************
 624:Generated_Source\PSoC4/CapSense_Processing.c **** * Function Name: CapSense_DpProcessCsxSensorRawCountsExt
 625:Generated_Source\PSoC4/CapSense_Processing.c **** ****************************************************************************//**
 626:Generated_Source\PSoC4/CapSense_Processing.c **** *
 627:Generated_Source\PSoC4/CapSense_Processing.c **** * \brief
 628:Generated_Source\PSoC4/CapSense_Processing.c **** *   Performs customized processing of the CSX sensor raw counts.
 629:Generated_Source\PSoC4/CapSense_Processing.c **** *
 630:Generated_Source\PSoC4/CapSense_Processing.c **** * \details
 631:Generated_Source\PSoC4/CapSense_Processing.c **** *   Performs customized processing of the CSX sensor raw counts.
 632:Generated_Source\PSoC4/CapSense_Processing.c **** *
 633:Generated_Source\PSoC4/CapSense_Processing.c **** *   If all bits are set at once the default processing order will take place.
 634:Generated_Source\PSoC4/CapSense_Processing.c **** *   For the custom order this API can be called multiple times and execute one task at a time.
 635:Generated_Source\PSoC4/CapSense_Processing.c **** *
 636:Generated_Source\PSoC4/CapSense_Processing.c **** * \param ptrFlashWdgt The pointer to the Flash Widget Object.
 637:Generated_Source\PSoC4/CapSense_Processing.c **** * \param curSnsPtr    The pointer to the specific RAM Sensor Object.
 638:Generated_Source\PSoC4/CapSense_Processing.c **** * \param fltrHistV    The pointer to the Filter History Object in RAM associated with specific sens
 639:Generated_Source\PSoC4/CapSense_Processing.c **** * \param mode         The bit-mask with the data processing tasks to be executed.
 640:Generated_Source\PSoC4/CapSense_Processing.c **** *   The mode parameters can take the following values:
 641:Generated_Source\PSoC4/CapSense_Processing.c **** *    - CapSense_PROCESS_FILTER     (0x01) Run Firmware Filter
 642:Generated_Source\PSoC4/CapSense_Processing.c **** *    - CapSense_PROCESS_BASELINE   (0x02) Update Baselines
 643:Generated_Source\PSoC4/CapSense_Processing.c **** *    - CapSense_PROCESS_DIFFCOUNTS (0x04) Update Difference Counts
 644:Generated_Source\PSoC4/CapSense_Processing.c **** *    - CapSense_PROCESS_ALL               Execute all tasks
 645:Generated_Source\PSoC4/CapSense_Processing.c **** *
ARM GAS  C:\Users\zack.li\AppData\Local\Temp\ccr2IpWf.s 			page 15


 646:Generated_Source\PSoC4/CapSense_Processing.c **** * \return
 647:Generated_Source\PSoC4/CapSense_Processing.c **** *  Returns the status of the specified sensor processing operation:
 648:Generated_Source\PSoC4/CapSense_Processing.c **** *  - CYRET_SUCCESS if operation was successfully completed;
 649:Generated_Source\PSoC4/CapSense_Processing.c **** *  - CapSense_PROCESS_BASELINE_FAILED if baseline processing of any
 650:Generated_Source\PSoC4/CapSense_Processing.c **** *    sensor of the specified widget failed. The result is concatenated with the index
 651:Generated_Source\PSoC4/CapSense_Processing.c **** *    of failed sensor.
 652:Generated_Source\PSoC4/CapSense_Processing.c **** *
 653:Generated_Source\PSoC4/CapSense_Processing.c **** *******************************************************************************/
 654:Generated_Source\PSoC4/CapSense_Processing.c **** uint32 CapSense_DpProcessCsxSensorRawCountsExt(
 655:Generated_Source\PSoC4/CapSense_Processing.c ****                 CapSense_FLASH_WD_STRUCT const *ptrFlashWdgt,
 656:Generated_Source\PSoC4/CapSense_Processing.c ****                 CapSense_RAM_SNS_STRUCT *curSnsPtr,
 657:Generated_Source\PSoC4/CapSense_Processing.c ****                 CapSense_PTR_FILTER_VARIANT fltrHistV,
 658:Generated_Source\PSoC4/CapSense_Processing.c ****                 uint32 mode)
 659:Generated_Source\PSoC4/CapSense_Processing.c **** {
 660:Generated_Source\PSoC4/CapSense_Processing.c ****     uint32  result = CYRET_SUCCESS;
 661:Generated_Source\PSoC4/CapSense_Processing.c ****     uint32  widgetType;
 662:Generated_Source\PSoC4/CapSense_Processing.c ****     CapSense_RAM_WD_BASE_STRUCT *ptrRamWdgt;
 663:Generated_Source\PSoC4/CapSense_Processing.c **** 
 664:Generated_Source\PSoC4/CapSense_Processing.c ****     widgetType = ptrFlashWdgt->wdgtType;
 665:Generated_Source\PSoC4/CapSense_Processing.c ****     ptrRamWdgt = (CapSense_RAM_WD_BASE_STRUCT *)ptrFlashWdgt->ptr2WdgtRam;
 666:Generated_Source\PSoC4/CapSense_Processing.c **** 
 667:Generated_Source\PSoC4/CapSense_Processing.c ****     #if (CapSense_ENABLE == CapSense_RC_FILTER_EN)
 668:Generated_Source\PSoC4/CapSense_Processing.c ****         if (0u != (mode & CapSense_PROCESS_FILTER))
 669:Generated_Source\PSoC4/CapSense_Processing.c ****         {
 670:Generated_Source\PSoC4/CapSense_Processing.c ****             CapSense_FtRunEnabledFiltersInternal(fltrHistV, curSnsPtr, widgetType);
 671:Generated_Source\PSoC4/CapSense_Processing.c ****             #if (CapSense_ALP_FILTER_EN)
 672:Generated_Source\PSoC4/CapSense_Processing.c ****                 CapSense_ConfigRunALPInternal(fltrHistV, ptrRamWdgt, curSnsPtr, widgetType);
 673:Generated_Source\PSoC4/CapSense_Processing.c ****             #endif
 674:Generated_Source\PSoC4/CapSense_Processing.c ****         }
 675:Generated_Source\PSoC4/CapSense_Processing.c ****     #else
 676:Generated_Source\PSoC4/CapSense_Processing.c ****         (void)fltrHistV; /* This parameter is unused in such configurations */
 677:Generated_Source\PSoC4/CapSense_Processing.c ****     #endif /* #if (CapSense_ENABLE == CapSense_RC_FILTER_EN) */
 678:Generated_Source\PSoC4/CapSense_Processing.c **** 
 679:Generated_Source\PSoC4/CapSense_Processing.c ****     if (0u != (mode & CapSense_PROCESS_BASELINE))
 680:Generated_Source\PSoC4/CapSense_Processing.c ****     {
 681:Generated_Source\PSoC4/CapSense_Processing.c ****         result = CapSense_FtUpdateBaseline(ptrRamWdgt, curSnsPtr, widgetType);
 682:Generated_Source\PSoC4/CapSense_Processing.c ****     }
 683:Generated_Source\PSoC4/CapSense_Processing.c **** 
 684:Generated_Source\PSoC4/CapSense_Processing.c ****     if (0u != (mode & CapSense_PROCESS_DIFFCOUNTS))
 685:Generated_Source\PSoC4/CapSense_Processing.c ****     {
 686:Generated_Source\PSoC4/CapSense_Processing.c ****         CapSense_DpUpdateDifferences(ptrRamWdgt, curSnsPtr);
 687:Generated_Source\PSoC4/CapSense_Processing.c ****     }
 688:Generated_Source\PSoC4/CapSense_Processing.c ****     return result;
 689:Generated_Source\PSoC4/CapSense_Processing.c **** }
 690:Generated_Source\PSoC4/CapSense_Processing.c **** 
 691:Generated_Source\PSoC4/CapSense_Processing.c **** 
 692:Generated_Source\PSoC4/CapSense_Processing.c **** /*******************************************************************************
 693:Generated_Source\PSoC4/CapSense_Processing.c **** * Function Name: CapSense_DpProcessCsxWidgetStatus
 694:Generated_Source\PSoC4/CapSense_Processing.c **** ****************************************************************************//**
 695:Generated_Source\PSoC4/CapSense_Processing.c **** *
 696:Generated_Source\PSoC4/CapSense_Processing.c **** * \brief
 697:Generated_Source\PSoC4/CapSense_Processing.c **** *   Updates the status of the CSX widget in the Data Structure.
 698:Generated_Source\PSoC4/CapSense_Processing.c **** *
 699:Generated_Source\PSoC4/CapSense_Processing.c **** * \details
 700:Generated_Source\PSoC4/CapSense_Processing.c **** *  This API determines the type of widget and runs the appropriate function
 701:Generated_Source\PSoC4/CapSense_Processing.c **** *  that implements the status update algorithm for this type of widget.
 702:Generated_Source\PSoC4/CapSense_Processing.c **** *
ARM GAS  C:\Users\zack.li\AppData\Local\Temp\ccr2IpWf.s 			page 16


 703:Generated_Source\PSoC4/CapSense_Processing.c **** *  When the widget-specific processing completes this API updates the snsStatus
 704:Generated_Source\PSoC4/CapSense_Processing.c **** *  and wdgtStatus registers in the data structure. The wdgtStatus register
 705:Generated_Source\PSoC4/CapSense_Processing.c **** *  is a bitmask were each bit corresponds to the specific widget identified by
 706:Generated_Source\PSoC4/CapSense_Processing.c **** *  the widget index. When the bit is set the widget is active (touched);
 707:Generated_Source\PSoC4/CapSense_Processing.c **** *
 708:Generated_Source\PSoC4/CapSense_Processing.c **** *  Depending on the type of widget the snsStatus register may contain either
 709:Generated_Source\PSoC4/CapSense_Processing.c **** *  status of each widget node (active/non-active) or in case of the CSX Touchpad
 710:Generated_Source\PSoC4/CapSense_Processing.c **** *  is contains the number of touches. In both cases 0 means that widget is not
 711:Generated_Source\PSoC4/CapSense_Processing.c **** *  active.
 712:Generated_Source\PSoC4/CapSense_Processing.c **** *
 713:Generated_Source\PSoC4/CapSense_Processing.c **** * \param widgetId     The widget ID number.
 714:Generated_Source\PSoC4/CapSense_Processing.c **** * \param ptrFlashWdgt The pointer to the Flash Widget Object.
 715:Generated_Source\PSoC4/CapSense_Processing.c **** *
 716:Generated_Source\PSoC4/CapSense_Processing.c **** *******************************************************************************/
 717:Generated_Source\PSoC4/CapSense_Processing.c **** void CapSense_DpProcessCsxWidgetStatus(uint32 widgetId, CapSense_FLASH_WD_STRUCT const *ptrFlashWdg
 718:Generated_Source\PSoC4/CapSense_Processing.c **** {
 719:Generated_Source\PSoC4/CapSense_Processing.c ****     uint32 sensorStatus;
 720:Generated_Source\PSoC4/CapSense_Processing.c ****     uint32 wdStatusIndex;
 721:Generated_Source\PSoC4/CapSense_Processing.c ****     uint32 wdStatusMask;
 722:Generated_Source\PSoC4/CapSense_Processing.c ****     CapSense_WD_TYPE_ENUM widgetType;
 723:Generated_Source\PSoC4/CapSense_Processing.c **** 
 724:Generated_Source\PSoC4/CapSense_Processing.c ****     widgetType = (CapSense_WD_TYPE_ENUM)ptrFlashWdgt->wdgtType;
 725:Generated_Source\PSoC4/CapSense_Processing.c ****     sensorStatus = CapSense_dsRam.snsStatus[widgetId];
 726:Generated_Source\PSoC4/CapSense_Processing.c **** 
 727:Generated_Source\PSoC4/CapSense_Processing.c ****     switch (widgetType)
 728:Generated_Source\PSoC4/CapSense_Processing.c ****     {
 729:Generated_Source\PSoC4/CapSense_Processing.c ****     #if (0u != CapSense_BUTTON_WIDGET_EN)
 730:Generated_Source\PSoC4/CapSense_Processing.c ****         case CapSense_WD_BUTTON_E:
 731:Generated_Source\PSoC4/CapSense_Processing.c ****             sensorStatus = CapSense_DpProcessButton(sensorStatus, ptrFlashWdgt);
 732:Generated_Source\PSoC4/CapSense_Processing.c ****             break;
 733:Generated_Source\PSoC4/CapSense_Processing.c ****     #endif /* #if (0u != CapSense_BUTTON_WIDGET_EN) */
 734:Generated_Source\PSoC4/CapSense_Processing.c **** 
 735:Generated_Source\PSoC4/CapSense_Processing.c ****     #if (0u != CapSense_CSX_MATRIX_WIDGET_EN)
 736:Generated_Source\PSoC4/CapSense_Processing.c ****         case CapSense_WD_MATRIX_BUTTON_E:
 737:Generated_Source\PSoC4/CapSense_Processing.c ****             sensorStatus = CapSense_DpProcessButton(sensorStatus, ptrFlashWdgt);
 738:Generated_Source\PSoC4/CapSense_Processing.c ****             break;
 739:Generated_Source\PSoC4/CapSense_Processing.c ****     #endif /* #if (0u != CapSense_CSX_MATRIX_WIDGET_EN) */
 740:Generated_Source\PSoC4/CapSense_Processing.c **** 
 741:Generated_Source\PSoC4/CapSense_Processing.c ****     #if (0u != CapSense_CSX_TOUCHPAD_WIDGET_EN)
 742:Generated_Source\PSoC4/CapSense_Processing.c ****         case CapSense_WD_TOUCHPAD_E:
 743:Generated_Source\PSoC4/CapSense_Processing.c ****             sensorStatus = CapSense_DpProcessCsxTouchpad(sensorStatus, ptrFlashWdgt);
 744:Generated_Source\PSoC4/CapSense_Processing.c ****             break;
 745:Generated_Source\PSoC4/CapSense_Processing.c ****     #endif /* #if (0u != CapSense_CSX_TOUCHPAD_WIDGET_EN) */
 746:Generated_Source\PSoC4/CapSense_Processing.c **** 
 747:Generated_Source\PSoC4/CapSense_Processing.c ****     default:
 748:Generated_Source\PSoC4/CapSense_Processing.c ****         CYASSERT(0u);
 749:Generated_Source\PSoC4/CapSense_Processing.c ****         break;
 750:Generated_Source\PSoC4/CapSense_Processing.c ****     }
 751:Generated_Source\PSoC4/CapSense_Processing.c **** 
 752:Generated_Source\PSoC4/CapSense_Processing.c ****     /* Update sensor status in the data structure */
 753:Generated_Source\PSoC4/CapSense_Processing.c ****     CapSense_dsRam.snsStatus[widgetId] = (CapSense_SNS_STS_TYPE)sensorStatus;
 754:Generated_Source\PSoC4/CapSense_Processing.c **** 
 755:Generated_Source\PSoC4/CapSense_Processing.c ****     /* The next two lines calculate index and bitmask of the widget status bit in the wdgtStatus ar
 756:Generated_Source\PSoC4/CapSense_Processing.c ****     wdStatusIndex = CapSense_GET_WDGT_STATUS_INDEX(widgetId);
 757:Generated_Source\PSoC4/CapSense_Processing.c ****     wdStatusMask = CapSense_GET_WDGT_STATUS_MASK(widgetId);
 758:Generated_Source\PSoC4/CapSense_Processing.c **** 
 759:Generated_Source\PSoC4/CapSense_Processing.c ****     /* Check if there are active sensors and update widget status accordingly */
ARM GAS  C:\Users\zack.li\AppData\Local\Temp\ccr2IpWf.s 			page 17


 760:Generated_Source\PSoC4/CapSense_Processing.c ****     if (0u == sensorStatus)
 761:Generated_Source\PSoC4/CapSense_Processing.c ****     {
 762:Generated_Source\PSoC4/CapSense_Processing.c ****         CapSense_dsRam.wdgtStatus[wdStatusIndex] &= ~wdStatusMask;
 763:Generated_Source\PSoC4/CapSense_Processing.c ****     }
 764:Generated_Source\PSoC4/CapSense_Processing.c ****     else
 765:Generated_Source\PSoC4/CapSense_Processing.c ****     {
 766:Generated_Source\PSoC4/CapSense_Processing.c ****         CapSense_dsRam.wdgtStatus[wdStatusIndex] |= wdStatusMask;
 767:Generated_Source\PSoC4/CapSense_Processing.c ****     }
 768:Generated_Source\PSoC4/CapSense_Processing.c **** }
 769:Generated_Source\PSoC4/CapSense_Processing.c **** #endif /* #if CapSense_TOTAL_CSX_WIDGETS */
 770:Generated_Source\PSoC4/CapSense_Processing.c **** 
 771:Generated_Source\PSoC4/CapSense_Processing.c **** #if (0u != CapSense_TOTAL_ISX_WIDGETS)
 772:Generated_Source\PSoC4/CapSense_Processing.c **** /*******************************************************************************
 773:Generated_Source\PSoC4/CapSense_Processing.c **** * Function Name: CapSense_DpProcessIsxWidgetRawCounts
 774:Generated_Source\PSoC4/CapSense_Processing.c **** ****************************************************************************//**
 775:Generated_Source\PSoC4/CapSense_Processing.c **** *
 776:Generated_Source\PSoC4/CapSense_Processing.c **** * \brief
 777:Generated_Source\PSoC4/CapSense_Processing.c **** *  Performs default processing of the ISX raw counts.
 778:Generated_Source\PSoC4/CapSense_Processing.c **** *
 779:Generated_Source\PSoC4/CapSense_Processing.c **** * \details
 780:Generated_Source\PSoC4/CapSense_Processing.c **** *  Performs default processing of the ISX raw counts:
 781:Generated_Source\PSoC4/CapSense_Processing.c **** *   - Run Filters
 782:Generated_Source\PSoC4/CapSense_Processing.c **** *   - Update Baselines
 783:Generated_Source\PSoC4/CapSense_Processing.c **** *   - Update Differences
 784:Generated_Source\PSoC4/CapSense_Processing.c **** *   - Update Status.
 785:Generated_Source\PSoC4/CapSense_Processing.c **** *  The same process is applied to all the sensors of the specified widget.
 786:Generated_Source\PSoC4/CapSense_Processing.c **** *
 787:Generated_Source\PSoC4/CapSense_Processing.c **** * \param ptrFlashWdgt The pointer to the Flash widget structure.
 788:Generated_Source\PSoC4/CapSense_Processing.c **** *
 789:Generated_Source\PSoC4/CapSense_Processing.c **** * \return
 790:Generated_Source\PSoC4/CapSense_Processing.c **** *  Returns the status of the specified widget processing operation:
 791:Generated_Source\PSoC4/CapSense_Processing.c **** *  - CYRET_SUCCESS if operation was successfully completed;
 792:Generated_Source\PSoC4/CapSense_Processing.c **** *  - CapSense_PROCESS_BASELINE_FAILED if baseline processing of any
 793:Generated_Source\PSoC4/CapSense_Processing.c **** *    sensor of the specified widget failed. The result is concatenated with the index
 794:Generated_Source\PSoC4/CapSense_Processing.c **** *    of failed sensor.
 795:Generated_Source\PSoC4/CapSense_Processing.c **** *
 796:Generated_Source\PSoC4/CapSense_Processing.c **** *******************************************************************************/
 797:Generated_Source\PSoC4/CapSense_Processing.c **** uint32 CapSense_DpProcessIsxWidgetRawCounts(CapSense_FLASH_WD_STRUCT const *ptrFlashWdgt)
 798:Generated_Source\PSoC4/CapSense_Processing.c **** {
 799:Generated_Source\PSoC4/CapSense_Processing.c ****     uint32 result = CYRET_SUCCESS;
 800:Generated_Source\PSoC4/CapSense_Processing.c ****     uint32 widgetType;
 801:Generated_Source\PSoC4/CapSense_Processing.c ****     uint32 snsCount;
 802:Generated_Source\PSoC4/CapSense_Processing.c ****     CapSense_RAM_SNS_STRUCT *ptrSns;
 803:Generated_Source\PSoC4/CapSense_Processing.c ****     CapSense_RAM_WD_BASE_STRUCT *ptrRamWdgt;
 804:Generated_Source\PSoC4/CapSense_Processing.c **** 
 805:Generated_Source\PSoC4/CapSense_Processing.c ****     #if (CapSense_ENABLE == CapSense_RC_FILTER_EN)
 806:Generated_Source\PSoC4/CapSense_Processing.c ****         CapSense_PTR_FILTER_VARIANT fltrHistV;
 807:Generated_Source\PSoC4/CapSense_Processing.c **** 
 808:Generated_Source\PSoC4/CapSense_Processing.c ****         fltrHistV.ptr = ptrFlashWdgt->ptr2FltrHistory;
 809:Generated_Source\PSoC4/CapSense_Processing.c ****     #endif /* #if (CapSense_ENABLE == CapSense_RC_FILTER_EN) */
 810:Generated_Source\PSoC4/CapSense_Processing.c **** 
 811:Generated_Source\PSoC4/CapSense_Processing.c ****     ptrSns = ptrFlashWdgt->ptr2SnsRam;
 812:Generated_Source\PSoC4/CapSense_Processing.c ****     snsCount = ptrFlashWdgt->totalNumSns;
 813:Generated_Source\PSoC4/CapSense_Processing.c ****     ptrRamWdgt = ptrFlashWdgt->ptr2WdgtRam;
 814:Generated_Source\PSoC4/CapSense_Processing.c ****     widgetType = ptrFlashWdgt->wdgtType;
 815:Generated_Source\PSoC4/CapSense_Processing.c **** 
 816:Generated_Source\PSoC4/CapSense_Processing.c ****     #if (0u != CapSense_ISX_SKIP_OVSMPL_SPECIFIC_NODES)
ARM GAS  C:\Users\zack.li\AppData\Local\Temp\ccr2IpWf.s 			page 18


 817:Generated_Source\PSoC4/CapSense_Processing.c ****         if (0u != ptrSns->resolution)
 818:Generated_Source\PSoC4/CapSense_Processing.c ****     #endif
 819:Generated_Source\PSoC4/CapSense_Processing.c ****     {
 820:Generated_Source\PSoC4/CapSense_Processing.c ****         for(;snsCount-- > 0u;)
 821:Generated_Source\PSoC4/CapSense_Processing.c ****         {
 822:Generated_Source\PSoC4/CapSense_Processing.c ****             #if (CapSense_ENABLE == CapSense_RC_FILTER_EN)
 823:Generated_Source\PSoC4/CapSense_Processing.c ****                 CapSense_FtRunEnabledFiltersInternal(fltrHistV, ptrSns, widgetType);
 824:Generated_Source\PSoC4/CapSense_Processing.c ****             #endif /* #if (CapSense_ENABLE == CapSense_RC_FILTER_EN) */
 825:Generated_Source\PSoC4/CapSense_Processing.c **** 
 826:Generated_Source\PSoC4/CapSense_Processing.c ****             result = CapSense_FtUpdateBaseline(ptrRamWdgt, ptrSns, widgetType);
 827:Generated_Source\PSoC4/CapSense_Processing.c **** 
 828:Generated_Source\PSoC4/CapSense_Processing.c ****             #if (CapSense_ENABLE == CapSense_TST_BSLN_DUPLICATION_EN)
 829:Generated_Source\PSoC4/CapSense_Processing.c ****                 if (CYRET_SUCCESS != result)
 830:Generated_Source\PSoC4/CapSense_Processing.c ****                 {
 831:Generated_Source\PSoC4/CapSense_Processing.c ****                     result = CapSense_PROCESS_BASELINE_FAILED;
 832:Generated_Source\PSoC4/CapSense_Processing.c ****                 }
 833:Generated_Source\PSoC4/CapSense_Processing.c ****             #endif /* (CapSense_ENABLE == CapSense_TST_BSLN_DUPLICATION_EN) */
 834:Generated_Source\PSoC4/CapSense_Processing.c **** 
 835:Generated_Source\PSoC4/CapSense_Processing.c ****             CapSense_DpUpdateDifferences(ptrRamWdgt, ptrSns);
 836:Generated_Source\PSoC4/CapSense_Processing.c ****             ptrSns++;
 837:Generated_Source\PSoC4/CapSense_Processing.c **** 
 838:Generated_Source\PSoC4/CapSense_Processing.c ****             #if (CapSense_ENABLE == CapSense_RC_FILTER_EN)
 839:Generated_Source\PSoC4/CapSense_Processing.c ****                 CapSense_INC_FLTR_OBJ_VARIANT(0u, fltrHistV);
 840:Generated_Source\PSoC4/CapSense_Processing.c ****             #endif /* #if (CapSense_ENABLE == CapSense_RC_FILTER_EN) */
 841:Generated_Source\PSoC4/CapSense_Processing.c ****         }
 842:Generated_Source\PSoC4/CapSense_Processing.c ****     }
 843:Generated_Source\PSoC4/CapSense_Processing.c **** 
 844:Generated_Source\PSoC4/CapSense_Processing.c ****     return result;
 845:Generated_Source\PSoC4/CapSense_Processing.c **** }
 846:Generated_Source\PSoC4/CapSense_Processing.c **** 
 847:Generated_Source\PSoC4/CapSense_Processing.c **** /*******************************************************************************
 848:Generated_Source\PSoC4/CapSense_Processing.c **** * Function Name: CapSense_DpProcessIsxSensorRawCountsExt
 849:Generated_Source\PSoC4/CapSense_Processing.c **** ****************************************************************************//**
 850:Generated_Source\PSoC4/CapSense_Processing.c **** *
 851:Generated_Source\PSoC4/CapSense_Processing.c **** * \brief
 852:Generated_Source\PSoC4/CapSense_Processing.c **** *   Performs customized processing of the ISX sensor raw counts.
 853:Generated_Source\PSoC4/CapSense_Processing.c **** *
 854:Generated_Source\PSoC4/CapSense_Processing.c **** * \details
 855:Generated_Source\PSoC4/CapSense_Processing.c **** *   Performs customized processing of the ISX sensor raw counts.
 856:Generated_Source\PSoC4/CapSense_Processing.c **** *
 857:Generated_Source\PSoC4/CapSense_Processing.c **** *   If all bits are set at once the default processing order will take place.
 858:Generated_Source\PSoC4/CapSense_Processing.c **** *   For the custom order this API can be called multiple times and execute one task at a time.
 859:Generated_Source\PSoC4/CapSense_Processing.c **** *
 860:Generated_Source\PSoC4/CapSense_Processing.c **** * \param ptrFlashWdgt The pointer to the Flash Widget Object.
 861:Generated_Source\PSoC4/CapSense_Processing.c **** * \param ptrSns       The pointer to the specific RAM Sensor Object.
 862:Generated_Source\PSoC4/CapSense_Processing.c **** * \param fltrHistV    The pointer to the Filter History Object in RAM associated with specific sens
 863:Generated_Source\PSoC4/CapSense_Processing.c **** * \param mode         The bit-mask with the data processing tasks to be executed.
 864:Generated_Source\PSoC4/CapSense_Processing.c **** *   The mode parameters can take the following values:
 865:Generated_Source\PSoC4/CapSense_Processing.c **** *    - CapSense_PROCESS_FILTER     (0x01) Run Firmware Filter
 866:Generated_Source\PSoC4/CapSense_Processing.c **** *    - CapSense_PROCESS_BASELINE   (0x02) Update Baselines
 867:Generated_Source\PSoC4/CapSense_Processing.c **** *    - CapSense_PROCESS_DIFFCOUNTS (0x04) Update Difference Counts
 868:Generated_Source\PSoC4/CapSense_Processing.c **** *    - CapSense_PROCESS_ALL               Execute all tasks
 869:Generated_Source\PSoC4/CapSense_Processing.c **** *
 870:Generated_Source\PSoC4/CapSense_Processing.c **** * \return
 871:Generated_Source\PSoC4/CapSense_Processing.c **** *  Returns the status of the specified sensor processing operation:
 872:Generated_Source\PSoC4/CapSense_Processing.c **** *  - CYRET_SUCCESS if operation was successfully completed;
 873:Generated_Source\PSoC4/CapSense_Processing.c **** *  - CapSense_PROCESS_BASELINE_FAILED if baseline processing of any
ARM GAS  C:\Users\zack.li\AppData\Local\Temp\ccr2IpWf.s 			page 19


 874:Generated_Source\PSoC4/CapSense_Processing.c **** *    sensor of the specified widget failed. The result is concatenated with the index
 875:Generated_Source\PSoC4/CapSense_Processing.c **** *    of failed sensor.
 876:Generated_Source\PSoC4/CapSense_Processing.c **** *
 877:Generated_Source\PSoC4/CapSense_Processing.c **** *******************************************************************************/
 878:Generated_Source\PSoC4/CapSense_Processing.c **** uint32 CapSense_DpProcessIsxSensorRawCountsExt(
 879:Generated_Source\PSoC4/CapSense_Processing.c ****                 CapSense_FLASH_WD_STRUCT const *ptrFlashWdgt,
 880:Generated_Source\PSoC4/CapSense_Processing.c ****                 CapSense_RAM_SNS_STRUCT *ptrSns,
 881:Generated_Source\PSoC4/CapSense_Processing.c ****                 CapSense_PTR_FILTER_VARIANT fltrHistV,
 882:Generated_Source\PSoC4/CapSense_Processing.c ****                 uint32 mode)
 883:Generated_Source\PSoC4/CapSense_Processing.c **** {
 884:Generated_Source\PSoC4/CapSense_Processing.c ****     uint32  result = CYRET_SUCCESS;
 885:Generated_Source\PSoC4/CapSense_Processing.c ****     uint32  widgetType;
 886:Generated_Source\PSoC4/CapSense_Processing.c ****     CapSense_RAM_WD_BASE_STRUCT *ptrRamWdgt;
 887:Generated_Source\PSoC4/CapSense_Processing.c **** 
 888:Generated_Source\PSoC4/CapSense_Processing.c ****     widgetType = ptrFlashWdgt->wdgtType;
 889:Generated_Source\PSoC4/CapSense_Processing.c ****     ptrRamWdgt = ptrFlashWdgt->ptr2WdgtRam;
 890:Generated_Source\PSoC4/CapSense_Processing.c **** 
 891:Generated_Source\PSoC4/CapSense_Processing.c ****     #if (CapSense_ENABLE == CapSense_RC_FILTER_EN)
 892:Generated_Source\PSoC4/CapSense_Processing.c ****         if (0u != (mode & CapSense_PROCESS_FILTER))
 893:Generated_Source\PSoC4/CapSense_Processing.c ****         {
 894:Generated_Source\PSoC4/CapSense_Processing.c ****             CapSense_FtRunEnabledFiltersInternal(fltrHistV, ptrSns, widgetType);
 895:Generated_Source\PSoC4/CapSense_Processing.c ****         }
 896:Generated_Source\PSoC4/CapSense_Processing.c ****     #else
 897:Generated_Source\PSoC4/CapSense_Processing.c ****         (void)fltrHistV; /* This parameter is unused in such configurations */
 898:Generated_Source\PSoC4/CapSense_Processing.c ****     #endif /* #if (CapSense_ENABLE == CapSense_RC_FILTER_EN) */
 899:Generated_Source\PSoC4/CapSense_Processing.c **** 
 900:Generated_Source\PSoC4/CapSense_Processing.c ****     if (0u != (mode & CapSense_PROCESS_BASELINE))
 901:Generated_Source\PSoC4/CapSense_Processing.c ****     {
 902:Generated_Source\PSoC4/CapSense_Processing.c ****         result = CapSense_FtUpdateBaseline(ptrRamWdgt, ptrSns, widgetType);
 903:Generated_Source\PSoC4/CapSense_Processing.c ****     }
 904:Generated_Source\PSoC4/CapSense_Processing.c **** 
 905:Generated_Source\PSoC4/CapSense_Processing.c ****     if (0u != (mode & CapSense_PROCESS_DIFFCOUNTS))
 906:Generated_Source\PSoC4/CapSense_Processing.c ****     {
 907:Generated_Source\PSoC4/CapSense_Processing.c ****         CapSense_DpUpdateDifferences(ptrRamWdgt, ptrSns);
 908:Generated_Source\PSoC4/CapSense_Processing.c ****     }
 909:Generated_Source\PSoC4/CapSense_Processing.c ****     return result;
 910:Generated_Source\PSoC4/CapSense_Processing.c **** }
 911:Generated_Source\PSoC4/CapSense_Processing.c **** 
 912:Generated_Source\PSoC4/CapSense_Processing.c **** 
 913:Generated_Source\PSoC4/CapSense_Processing.c **** /*******************************************************************************
 914:Generated_Source\PSoC4/CapSense_Processing.c **** * Function Name: CapSense_DpProcessIsxWidgetStatus
 915:Generated_Source\PSoC4/CapSense_Processing.c **** ****************************************************************************//**
 916:Generated_Source\PSoC4/CapSense_Processing.c **** *
 917:Generated_Source\PSoC4/CapSense_Processing.c **** * \brief
 918:Generated_Source\PSoC4/CapSense_Processing.c **** *   Updates the status of the ISX widget in the Data Structure.
 919:Generated_Source\PSoC4/CapSense_Processing.c **** *
 920:Generated_Source\PSoC4/CapSense_Processing.c **** * \details
 921:Generated_Source\PSoC4/CapSense_Processing.c **** *  This API determines the type of widget and runs the appropriate function
 922:Generated_Source\PSoC4/CapSense_Processing.c **** *  that implements the status update algorithm for this type of widget.
 923:Generated_Source\PSoC4/CapSense_Processing.c **** *
 924:Generated_Source\PSoC4/CapSense_Processing.c **** *  When the widget-specific processing completes this API updates the snsStatus
 925:Generated_Source\PSoC4/CapSense_Processing.c **** *  and wdgtStatus registers in the data structure. The wdgtStatus register
 926:Generated_Source\PSoC4/CapSense_Processing.c **** *  is a bitmask were each bit corresponds to the specific widget identified by
 927:Generated_Source\PSoC4/CapSense_Processing.c **** *  the widget index. When the bit is set the widget is active (touched);
 928:Generated_Source\PSoC4/CapSense_Processing.c **** *
 929:Generated_Source\PSoC4/CapSense_Processing.c **** *  Depending on the type of widget the snsStatus register may contain either
 930:Generated_Source\PSoC4/CapSense_Processing.c **** *  status of each widget node (active/non-active) or in case of the ISX Touchpad
ARM GAS  C:\Users\zack.li\AppData\Local\Temp\ccr2IpWf.s 			page 20


 931:Generated_Source\PSoC4/CapSense_Processing.c **** *  is contains the number of touches. In both cases 0 means that widget is not
 932:Generated_Source\PSoC4/CapSense_Processing.c **** *  active.
 933:Generated_Source\PSoC4/CapSense_Processing.c **** *
 934:Generated_Source\PSoC4/CapSense_Processing.c **** * \param wdgtId       The widget index number.
 935:Generated_Source\PSoC4/CapSense_Processing.c **** * \param ptrFlashWdgt The pointer to the Flash Widget Object.
 936:Generated_Source\PSoC4/CapSense_Processing.c **** *
 937:Generated_Source\PSoC4/CapSense_Processing.c **** *******************************************************************************/
 938:Generated_Source\PSoC4/CapSense_Processing.c **** void CapSense_DpProcessIsxWidgetStatus(uint32 wdgtId, CapSense_FLASH_WD_STRUCT const *ptrFlashWdgt)
 939:Generated_Source\PSoC4/CapSense_Processing.c **** {
 940:Generated_Source\PSoC4/CapSense_Processing.c ****     uint32 sensorStatus;
 941:Generated_Source\PSoC4/CapSense_Processing.c ****     uint32 wdStatusIndex;
 942:Generated_Source\PSoC4/CapSense_Processing.c ****     uint32 wdStatusMask;
 943:Generated_Source\PSoC4/CapSense_Processing.c ****     CapSense_WD_TYPE_ENUM widgetType;
 944:Generated_Source\PSoC4/CapSense_Processing.c **** 
 945:Generated_Source\PSoC4/CapSense_Processing.c ****     widgetType = (CapSense_WD_TYPE_ENUM)ptrFlashWdgt->wdgtType;
 946:Generated_Source\PSoC4/CapSense_Processing.c ****     sensorStatus = CapSense_dsRam.snsStatus[wdgtId];
 947:Generated_Source\PSoC4/CapSense_Processing.c **** 
 948:Generated_Source\PSoC4/CapSense_Processing.c ****     switch (widgetType)
 949:Generated_Source\PSoC4/CapSense_Processing.c ****     {
 950:Generated_Source\PSoC4/CapSense_Processing.c ****     #if (0u != CapSense_PROXIMITY_WIDGET_EN)
 951:Generated_Source\PSoC4/CapSense_Processing.c ****         case CapSense_WD_PROXIMITY_E:
 952:Generated_Source\PSoC4/CapSense_Processing.c ****             sensorStatus = CapSense_DpProcessProximity(sensorStatus, ptrFlashWdgt);
 953:Generated_Source\PSoC4/CapSense_Processing.c ****             break;
 954:Generated_Source\PSoC4/CapSense_Processing.c ****     #endif /* #if (0u != CapSense_Proximity_WIDGET_EN) */
 955:Generated_Source\PSoC4/CapSense_Processing.c ****     #if (0u != CapSense_ENCODERDIAL_WIDGET_EN)
 956:Generated_Source\PSoC4/CapSense_Processing.c ****         case CapSense_WD_ENCODERDIAL_E:
 957:Generated_Source\PSoC4/CapSense_Processing.c ****             sensorStatus = CapSense_DpProcessEncoderDial(sensorStatus, ptrFlashWdgt);
 958:Generated_Source\PSoC4/CapSense_Processing.c ****             break;
 959:Generated_Source\PSoC4/CapSense_Processing.c ****     #endif /* #if (0u != CapSense_Proximity_WIDGET_EN) */
 960:Generated_Source\PSoC4/CapSense_Processing.c ****     #if (0u != CapSense_BUTTON_WIDGET_EN)
 961:Generated_Source\PSoC4/CapSense_Processing.c ****         case CapSense_WD_BUTTON_E:
 962:Generated_Source\PSoC4/CapSense_Processing.c ****             sensorStatus = CapSense_DpProcessButton(sensorStatus, ptrFlashWdgt);
 963:Generated_Source\PSoC4/CapSense_Processing.c ****             break;
 964:Generated_Source\PSoC4/CapSense_Processing.c ****     #endif /* #if (0u != CapSense_Proximity_WIDGET_EN) */
 965:Generated_Source\PSoC4/CapSense_Processing.c **** 
 966:Generated_Source\PSoC4/CapSense_Processing.c ****     default:
 967:Generated_Source\PSoC4/CapSense_Processing.c ****         CYASSERT(0u);
 968:Generated_Source\PSoC4/CapSense_Processing.c ****         break;
 969:Generated_Source\PSoC4/CapSense_Processing.c ****     }
 970:Generated_Source\PSoC4/CapSense_Processing.c **** 
 971:Generated_Source\PSoC4/CapSense_Processing.c ****     /* Update sensor status in the data structure */
 972:Generated_Source\PSoC4/CapSense_Processing.c ****     CapSense_dsRam.snsStatus[wdgtId] = (CapSense_SNS_STS_TYPE)sensorStatus;
 973:Generated_Source\PSoC4/CapSense_Processing.c **** 
 974:Generated_Source\PSoC4/CapSense_Processing.c ****     /* The next two lines calculate index and bitmask of the widget status bit in the wdgtStatus ar
 975:Generated_Source\PSoC4/CapSense_Processing.c ****     wdStatusIndex = CapSense_GET_WDGT_STATUS_INDEX(wdgtId);
 976:Generated_Source\PSoC4/CapSense_Processing.c ****     wdStatusMask = CapSense_GET_WDGT_STATUS_MASK(wdgtId);
 977:Generated_Source\PSoC4/CapSense_Processing.c **** 
 978:Generated_Source\PSoC4/CapSense_Processing.c ****     /* Check if there are active sensors and update widget status accordingly */
 979:Generated_Source\PSoC4/CapSense_Processing.c ****     if (0u == sensorStatus)
 980:Generated_Source\PSoC4/CapSense_Processing.c ****     {
 981:Generated_Source\PSoC4/CapSense_Processing.c ****         CapSense_dsRam.wdgtStatus[wdStatusIndex] &= ~wdStatusMask;
 982:Generated_Source\PSoC4/CapSense_Processing.c ****     }
 983:Generated_Source\PSoC4/CapSense_Processing.c ****     else
 984:Generated_Source\PSoC4/CapSense_Processing.c ****     {
 985:Generated_Source\PSoC4/CapSense_Processing.c ****         CapSense_dsRam.wdgtStatus[wdStatusIndex] |= wdStatusMask;
 986:Generated_Source\PSoC4/CapSense_Processing.c ****     }
 987:Generated_Source\PSoC4/CapSense_Processing.c **** }
ARM GAS  C:\Users\zack.li\AppData\Local\Temp\ccr2IpWf.s 			page 21


 988:Generated_Source\PSoC4/CapSense_Processing.c **** #endif /* #if CapSense_TOTAL_ISX_WIDGETS */
 989:Generated_Source\PSoC4/CapSense_Processing.c **** 
 990:Generated_Source\PSoC4/CapSense_Processing.c **** #if (0u != CapSense_TOTAL_CSD_WIDGETS)
 991:Generated_Source\PSoC4/CapSense_Processing.c **** /*******************************************************************************
 992:Generated_Source\PSoC4/CapSense_Processing.c **** * Function Name: CapSense_DpProcessCsdWidgetRawCounts
 993:Generated_Source\PSoC4/CapSense_Processing.c **** ****************************************************************************//**
 994:Generated_Source\PSoC4/CapSense_Processing.c **** *
 995:Generated_Source\PSoC4/CapSense_Processing.c **** * \brief
 996:Generated_Source\PSoC4/CapSense_Processing.c **** *   Performs default processing for the CSD widget raw counts.
 997:Generated_Source\PSoC4/CapSense_Processing.c **** *
 998:Generated_Source\PSoC4/CapSense_Processing.c **** * \details
 999:Generated_Source\PSoC4/CapSense_Processing.c **** *   Performs default processing for the CSD widget raw counts:
1000:Generated_Source\PSoC4/CapSense_Processing.c **** *    - Run Filters
1001:Generated_Source\PSoC4/CapSense_Processing.c **** *    - Update Thresholds (FW Auto-tuning)
1002:Generated_Source\PSoC4/CapSense_Processing.c **** *    - Update Baselines
1003:Generated_Source\PSoC4/CapSense_Processing.c **** *    - Update Differences.
1004:Generated_Source\PSoC4/CapSense_Processing.c **** *   The process is applied to all widget's sensors.
1005:Generated_Source\PSoC4/CapSense_Processing.c **** *
1006:Generated_Source\PSoC4/CapSense_Processing.c **** * \param ptrFlashWdgt The pointer to the Flash Widget Object.
1007:Generated_Source\PSoC4/CapSense_Processing.c **** *
1008:Generated_Source\PSoC4/CapSense_Processing.c **** * \return
1009:Generated_Source\PSoC4/CapSense_Processing.c **** *  Returns the status of the specified widget processing operation:
1010:Generated_Source\PSoC4/CapSense_Processing.c **** *  - CYRET_SUCCESS if operation was successfully completed;
1011:Generated_Source\PSoC4/CapSense_Processing.c **** *  - CapSense_PROCESS_BASELINE_FAILED if baseline processing of any
1012:Generated_Source\PSoC4/CapSense_Processing.c **** *    sensor of the specified widget failed. The result is concatenated with the index
1013:Generated_Source\PSoC4/CapSense_Processing.c **** *    of failed sensor.
1014:Generated_Source\PSoC4/CapSense_Processing.c **** *
1015:Generated_Source\PSoC4/CapSense_Processing.c **** *******************************************************************************/
1016:Generated_Source\PSoC4/CapSense_Processing.c **** uint32 CapSense_DpProcessCsdWidgetRawCounts(CapSense_FLASH_WD_STRUCT const *ptrFlashWdgt)
1017:Generated_Source\PSoC4/CapSense_Processing.c **** {
1018:Generated_Source\PSoC4/CapSense_Processing.c ****     uint32  result = CYRET_SUCCESS;
1019:Generated_Source\PSoC4/CapSense_Processing.c **** 
1020:Generated_Source\PSoC4/CapSense_Processing.c ****     #if (CapSense_ENABLE == CapSense_TST_BSLN_DUPLICATION_EN)
1021:Generated_Source\PSoC4/CapSense_Processing.c ****         uint32 bslnTstResult = CYRET_SUCCESS;
1022:Generated_Source\PSoC4/CapSense_Processing.c ****     #endif /* (CapSense_ENABLE == CapSense_TST_BSLN_DUPLICATION_EN) */
1023:Generated_Source\PSoC4/CapSense_Processing.c **** 
1024:Generated_Source\PSoC4/CapSense_Processing.c ****     uint32  widgetType;
1025:Generated_Source\PSoC4/CapSense_Processing.c ****     uint32  snsId;
1026:Generated_Source\PSoC4/CapSense_Processing.c ****     CapSense_RAM_SNS_STRUCT *ptrSnsTmp;
1027:Generated_Source\PSoC4/CapSense_Processing.c ****     CapSense_RAM_WD_BASE_STRUCT *ptrRamWdgt;
1028:Generated_Source\PSoC4/CapSense_Processing.c **** 
1029:Generated_Source\PSoC4/CapSense_Processing.c ****     #if (0u != (CapSense_CSD_AUTOTUNE & CapSense_CSD_SS_TH_EN))
1030:Generated_Source\PSoC4/CapSense_Processing.c ****         /* The noise envelope data is available only when Full CSD Auto-Tuning is enabled */
1031:Generated_Source\PSoC4/CapSense_Processing.c ****         SMARTSENSE_CSD_NOISE_ENVELOPE_STRUCT *ptrNoiseEnvelope;
1032:Generated_Source\PSoC4/CapSense_Processing.c ****         #if (CapSense_ENABLE == CapSense_PROXIMITY_WIDGET_EN)
1033:Generated_Source\PSoC4/CapSense_Processing.c ****             uint32  proximityThreshold;
1034:Generated_Source\PSoC4/CapSense_Processing.c ****         #endif /* (0 != CapSense_PROXIMITY_WIDGET_EN) */
1035:Generated_Source\PSoC4/CapSense_Processing.c ****     #endif /* #if (0u != (CapSense_CSD_AUTOTUNE & CapSense_CSD_SS_TH_EN)) */
1036:Generated_Source\PSoC4/CapSense_Processing.c **** 
1037:Generated_Source\PSoC4/CapSense_Processing.c ****     #if (CapSense_ENABLE == CapSense_RC_FILTER_EN)
1038:Generated_Source\PSoC4/CapSense_Processing.c ****         CapSense_PTR_FILTER_VARIANT fltrHistV;
1039:Generated_Source\PSoC4/CapSense_Processing.c **** 
1040:Generated_Source\PSoC4/CapSense_Processing.c ****         /* Determine if widget type is proximity */
1041:Generated_Source\PSoC4/CapSense_Processing.c ****         uint32 isProxWdgt = (CapSense_GET_WIDGET_TYPE(ptrFlashWdgt) == CapSense_WD_PROXIMITY_E) ? 1
1042:Generated_Source\PSoC4/CapSense_Processing.c **** 
1043:Generated_Source\PSoC4/CapSense_Processing.c ****         /* Get pointer to the filter history object */
1044:Generated_Source\PSoC4/CapSense_Processing.c ****         fltrHistV.ptr = ptrFlashWdgt->ptr2FltrHistory;
ARM GAS  C:\Users\zack.li\AppData\Local\Temp\ccr2IpWf.s 			page 22


1045:Generated_Source\PSoC4/CapSense_Processing.c ****     #endif /* #if (CapSense_ENABLE == CapSense_RC_FILTER_EN) */
1046:Generated_Source\PSoC4/CapSense_Processing.c **** 
1047:Generated_Source\PSoC4/CapSense_Processing.c ****     ptrSnsTmp = ptrFlashWdgt->ptr2SnsRam;
1048:Generated_Source\PSoC4/CapSense_Processing.c ****     ptrRamWdgt = (CapSense_RAM_WD_BASE_STRUCT *)ptrFlashWdgt->ptr2WdgtRam;
1049:Generated_Source\PSoC4/CapSense_Processing.c ****     widgetType = ptrFlashWdgt->wdgtType;
1050:Generated_Source\PSoC4/CapSense_Processing.c **** 
1051:Generated_Source\PSoC4/CapSense_Processing.c ****     #if (0u != (CapSense_CSD_AUTOTUNE & CapSense_CSD_SS_TH_EN))
1052:Generated_Source\PSoC4/CapSense_Processing.c ****         ptrNoiseEnvelope = ptrFlashWdgt->ptr2NoiseEnvlp;
1053:Generated_Source\PSoC4/CapSense_Processing.c ****     #endif /* #if (0u != (CapSense_CSD_AUTOTUNE & CapSense_CSD_SS_TH_EN)) */
1054:Generated_Source\PSoC4/CapSense_Processing.c **** 
1055:Generated_Source\PSoC4/CapSense_Processing.c ****     /* Iterate through all widget's sensors */
1056:Generated_Source\PSoC4/CapSense_Processing.c ****     for(snsId = 0u; snsId < ptrFlashWdgt->totalNumSns; snsId++)
1057:Generated_Source\PSoC4/CapSense_Processing.c ****     {
1058:Generated_Source\PSoC4/CapSense_Processing.c ****         /* Run all enabled filter on specified widget's sensor */
1059:Generated_Source\PSoC4/CapSense_Processing.c ****         #if (CapSense_ENABLE == CapSense_RC_FILTER_EN)
1060:Generated_Source\PSoC4/CapSense_Processing.c ****             CapSense_FtRunEnabledFiltersInternal(fltrHistV, ptrSnsTmp, widgetType);
1061:Generated_Source\PSoC4/CapSense_Processing.c ****             #if (CapSense_ALP_FILTER_EN)
1062:Generated_Source\PSoC4/CapSense_Processing.c ****                 CapSense_ConfigRunALPInternal(fltrHistV, ptrRamWdgt, ptrSnsTmp, widgetType);
1063:Generated_Source\PSoC4/CapSense_Processing.c ****             #endif
1064:Generated_Source\PSoC4/CapSense_Processing.c ****         #endif /* #if (CapSense_ENABLE == CapSense_RC_FILTER_EN) */
1065:Generated_Source\PSoC4/CapSense_Processing.c **** 
1066:Generated_Source\PSoC4/CapSense_Processing.c ****         /* Run auto-tuning activities */
1067:Generated_Source\PSoC4/CapSense_Processing.c ****         #if (0u != (CapSense_CSD_AUTOTUNE & CapSense_CSD_SS_TH_EN))
1068:Generated_Source\PSoC4/CapSense_Processing.c ****             SmartSense_RunNoiseEnvelope(ptrSnsTmp->raw[0u], ptrRamWdgt->sigPFC, ptrNoiseEnvelope);
1069:Generated_Source\PSoC4/CapSense_Processing.c ****             CapSense_DpUpdateThresholds(ptrRamWdgt, ptrNoiseEnvelope, snsId);
1070:Generated_Source\PSoC4/CapSense_Processing.c **** 
1071:Generated_Source\PSoC4/CapSense_Processing.c ****             /* Calculate Proximity Touch Threshold in SmartSense mode based on Finger Threshold and
1072:Generated_Source\PSoC4/CapSense_Processing.c ****             #if (CapSense_ENABLE == CapSense_PROXIMITY_WIDGET_EN)
1073:Generated_Source\PSoC4/CapSense_Processing.c ****                 if (CapSense_WD_PROXIMITY_E == CapSense_GET_WIDGET_TYPE(ptrFlashWdgt))
1074:Generated_Source\PSoC4/CapSense_Processing.c ****                 {
1075:Generated_Source\PSoC4/CapSense_Processing.c ****                     proximityThreshold = ((uint32)ptrRamWdgt->fingerTh * CapSense_PROX_TOUCH_COEFF)
1076:Generated_Source\PSoC4/CapSense_Processing.c ****                     if ((((1Lu) << CapSense_THRESHOLD_SIZE) - 1u) < proximityThreshold)
1077:Generated_Source\PSoC4/CapSense_Processing.c ****                     {
1078:Generated_Source\PSoC4/CapSense_Processing.c ****                         proximityThreshold = ((1Lu) << CapSense_THRESHOLD_SIZE) - 1u;
1079:Generated_Source\PSoC4/CapSense_Processing.c ****                     }
1080:Generated_Source\PSoC4/CapSense_Processing.c ****                     ((CapSense_RAM_WD_PROXIMITY_STRUCT *)ptrFlashWdgt->ptr2WdgtRam)->proxTouchTh =
1081:Generated_Source\PSoC4/CapSense_Processing.c ****                         (CapSense_THRESHOLD_TYPE)proximityThreshold;
1082:Generated_Source\PSoC4/CapSense_Processing.c ****                 }
1083:Generated_Source\PSoC4/CapSense_Processing.c ****             #endif /* (0 != CapSense_PROXIMITY_WIDGET_EN) */
1084:Generated_Source\PSoC4/CapSense_Processing.c **** 
1085:Generated_Source\PSoC4/CapSense_Processing.c ****             /* Move to next noise-envelope object */
1086:Generated_Source\PSoC4/CapSense_Processing.c ****             ptrNoiseEnvelope++;
1087:Generated_Source\PSoC4/CapSense_Processing.c ****         #endif /* (0u != (CapSense_CSD_AUTOTUNE & CapSense_CSD_SS_TH_EN)) */
1088:Generated_Source\PSoC4/CapSense_Processing.c **** 
1089:Generated_Source\PSoC4/CapSense_Processing.c ****         #if (CapSense_ENABLE == CapSense_TST_BSLN_DUPLICATION_EN)
1090:Generated_Source\PSoC4/CapSense_Processing.c ****             bslnTstResult = CapSense_FtUpdateBaseline(ptrRamWdgt, ptrSnsTmp, widgetType);
1091:Generated_Source\PSoC4/CapSense_Processing.c ****             if ((CYRET_SUCCESS != bslnTstResult) && (CYRET_SUCCESS == result))
1092:Generated_Source\PSoC4/CapSense_Processing.c ****             {
1093:Generated_Source\PSoC4/CapSense_Processing.c ****                 result = snsId | CapSense_PROCESS_BASELINE_FAILED;
1094:Generated_Source\PSoC4/CapSense_Processing.c ****             }
1095:Generated_Source\PSoC4/CapSense_Processing.c ****         #else /* (CapSense_ENABLE == CapSense_TST_BSLN_DUPLICATION_EN) */
1096:Generated_Source\PSoC4/CapSense_Processing.c ****             result = CapSense_FtUpdateBaseline(ptrRamWdgt, ptrSnsTmp, widgetType);
1097:Generated_Source\PSoC4/CapSense_Processing.c ****         #endif /* (CapSense_ENABLE == CapSense_TST_BSLN_DUPLICATION_EN) */
1098:Generated_Source\PSoC4/CapSense_Processing.c **** 
1099:Generated_Source\PSoC4/CapSense_Processing.c ****         CapSense_DpUpdateDifferences(ptrRamWdgt, ptrSnsTmp);
1100:Generated_Source\PSoC4/CapSense_Processing.c **** 
1101:Generated_Source\PSoC4/CapSense_Processing.c ****         /* Move to next sensor object */
ARM GAS  C:\Users\zack.li\AppData\Local\Temp\ccr2IpWf.s 			page 23


1102:Generated_Source\PSoC4/CapSense_Processing.c ****         ptrSnsTmp++;
1103:Generated_Source\PSoC4/CapSense_Processing.c **** 
1104:Generated_Source\PSoC4/CapSense_Processing.c ****         #if (CapSense_ENABLE == CapSense_RC_FILTER_EN)
1105:Generated_Source\PSoC4/CapSense_Processing.c ****             /* Move to the next filter history object */
1106:Generated_Source\PSoC4/CapSense_Processing.c ****             CapSense_INC_FLTR_OBJ_VARIANT(isProxWdgt, fltrHistV);
1107:Generated_Source\PSoC4/CapSense_Processing.c ****         #endif /* #if (CapSense_ENABLE == CapSense_RC_FILTER_EN) */
1108:Generated_Source\PSoC4/CapSense_Processing.c ****     }
1109:Generated_Source\PSoC4/CapSense_Processing.c ****     return result;
1110:Generated_Source\PSoC4/CapSense_Processing.c **** }
1111:Generated_Source\PSoC4/CapSense_Processing.c **** 
1112:Generated_Source\PSoC4/CapSense_Processing.c **** 
1113:Generated_Source\PSoC4/CapSense_Processing.c **** /*******************************************************************************
1114:Generated_Source\PSoC4/CapSense_Processing.c **** * Function Name: CapSense_DpProcessCsdSensorRawCountsExt
1115:Generated_Source\PSoC4/CapSense_Processing.c **** ****************************************************************************//**
1116:Generated_Source\PSoC4/CapSense_Processing.c **** *
1117:Generated_Source\PSoC4/CapSense_Processing.c **** * \brief
1118:Generated_Source\PSoC4/CapSense_Processing.c **** *   Performs customized processing of the CSD sensor raw counts.
1119:Generated_Source\PSoC4/CapSense_Processing.c **** *
1120:Generated_Source\PSoC4/CapSense_Processing.c **** * \details
1121:Generated_Source\PSoC4/CapSense_Processing.c **** *   Performs customized processing of the CSD sensor raw counts.
1122:Generated_Source\PSoC4/CapSense_Processing.c **** *
1123:Generated_Source\PSoC4/CapSense_Processing.c **** *   Note that this API updates data associated only with the sensor. It cannot be used to update
1124:Generated_Source\PSoC4/CapSense_Processing.c **** *   widget status.
1125:Generated_Source\PSoC4/CapSense_Processing.c **** *
1126:Generated_Source\PSoC4/CapSense_Processing.c **** * \param ptrFlashWdgt The pointer to the Flash widget structure.
1127:Generated_Source\PSoC4/CapSense_Processing.c **** * \param curSnsPtr    The pointer to the sensor object in RAM.
1128:Generated_Source\PSoC4/CapSense_Processing.c **** * \param fltrHistV    The pointer to the Filter History Object in RAM.
1129:Generated_Source\PSoC4/CapSense_Processing.c **** * \param mode         The bit-mask with the data processing tasks to be executed.
1130:Generated_Source\PSoC4/CapSense_Processing.c **** *   The mode parameters can take the following values:
1131:Generated_Source\PSoC4/CapSense_Processing.c **** *    - CapSense_PROCESS_FILTER     (0x01) Run Firmware Filter
1132:Generated_Source\PSoC4/CapSense_Processing.c **** *    - CapSense_PROCESS_BASELINE   (0x02) Update Baselines
1133:Generated_Source\PSoC4/CapSense_Processing.c **** *    - CapSense_PROCESS_DIFFCOUNTS (0x04) Update Difference Counts
1134:Generated_Source\PSoC4/CapSense_Processing.c **** *    - CapSense_PROCESS_CALC_NOISE (0x08) Calculate Noise (only if FW Tuning is enabled)
1135:Generated_Source\PSoC4/CapSense_Processing.c **** *    - CapSense_PROCESS_THRESHOLDS (0x10) Update Thresholds (only if FW Tuning is enabled)
1136:Generated_Source\PSoC4/CapSense_Processing.c **** *    - CapSense_PROCESS_ALL               Execute all tasks
1137:Generated_Source\PSoC4/CapSense_Processing.c **** *
1138:Generated_Source\PSoC4/CapSense_Processing.c **** * \return
1139:Generated_Source\PSoC4/CapSense_Processing.c **** *  Returns the status of the specified sensor processing operation:
1140:Generated_Source\PSoC4/CapSense_Processing.c **** *  - CYRET_SUCCESS if operation was successfully completed.
1141:Generated_Source\PSoC4/CapSense_Processing.c **** *  - CapSense_PROCESS_BASELINE_FAILED if baseline processing of any
1142:Generated_Source\PSoC4/CapSense_Processing.c **** *    sensor of the specified widget failed. The result is concatenated with the index
1143:Generated_Source\PSoC4/CapSense_Processing.c **** *    of failed sensor.
1144:Generated_Source\PSoC4/CapSense_Processing.c **** *
1145:Generated_Source\PSoC4/CapSense_Processing.c **** *******************************************************************************/
1146:Generated_Source\PSoC4/CapSense_Processing.c **** uint32 CapSense_DpProcessCsdSensorRawCountsExt(
1147:Generated_Source\PSoC4/CapSense_Processing.c ****                 CapSense_FLASH_WD_STRUCT const *ptrFlashWdgt,
1148:Generated_Source\PSoC4/CapSense_Processing.c ****                 CapSense_RAM_SNS_STRUCT *curSnsPtr,
1149:Generated_Source\PSoC4/CapSense_Processing.c ****                 CapSense_PTR_FILTER_VARIANT fltrHistV,
1150:Generated_Source\PSoC4/CapSense_Processing.c ****                  uint32 mode)
1151:Generated_Source\PSoC4/CapSense_Processing.c **** {
1152:Generated_Source\PSoC4/CapSense_Processing.c ****     uint32 result = CYRET_SUCCESS;
1153:Generated_Source\PSoC4/CapSense_Processing.c ****     uint32  widgetType;
1154:Generated_Source\PSoC4/CapSense_Processing.c ****     CapSense_RAM_WD_BASE_STRUCT *ptrRamWdgt;
1155:Generated_Source\PSoC4/CapSense_Processing.c **** 
1156:Generated_Source\PSoC4/CapSense_Processing.c ****     #if (0u != (CapSense_CSD_AUTOTUNE & CapSense_CSD_SS_TH_EN))
1157:Generated_Source\PSoC4/CapSense_Processing.c ****         SMARTSENSE_CSD_NOISE_ENVELOPE_STRUCT *ptrNoiseEnvelope;
1158:Generated_Source\PSoC4/CapSense_Processing.c ****         #if (CapSense_ENABLE == CapSense_PROXIMITY_WIDGET_EN)
ARM GAS  C:\Users\zack.li\AppData\Local\Temp\ccr2IpWf.s 			page 24


1159:Generated_Source\PSoC4/CapSense_Processing.c ****             uint32  proximityThreshold;
1160:Generated_Source\PSoC4/CapSense_Processing.c ****         #endif /* (0 != CapSense_PROXIMITY_WIDGET_EN) */
1161:Generated_Source\PSoC4/CapSense_Processing.c **** 
1162:Generated_Source\PSoC4/CapSense_Processing.c ****         /* Need to specify pointer to corresponding sensor's noise-envelope object.*/
1163:Generated_Source\PSoC4/CapSense_Processing.c ****         ptrNoiseEnvelope = ptrFlashWdgt->ptr2NoiseEnvlp;
1164:Generated_Source\PSoC4/CapSense_Processing.c ****     #endif /* (0u != (CapSense_CSD_AUTOTUNE & CapSense_CSD_SS_TH_EN)) */
1165:Generated_Source\PSoC4/CapSense_Processing.c **** 
1166:Generated_Source\PSoC4/CapSense_Processing.c ****     widgetType = ptrFlashWdgt->wdgtType;
1167:Generated_Source\PSoC4/CapSense_Processing.c ****     ptrRamWdgt = (CapSense_RAM_WD_BASE_STRUCT *)ptrFlashWdgt->ptr2WdgtRam;
1168:Generated_Source\PSoC4/CapSense_Processing.c **** 
1169:Generated_Source\PSoC4/CapSense_Processing.c ****     #if (CapSense_ENABLE == CapSense_RC_FILTER_EN)
1170:Generated_Source\PSoC4/CapSense_Processing.c ****         if (0u != (mode & CapSense_PROCESS_FILTER))
1171:Generated_Source\PSoC4/CapSense_Processing.c ****         {
1172:Generated_Source\PSoC4/CapSense_Processing.c ****             CapSense_FtRunEnabledFiltersInternal(fltrHistV, curSnsPtr, widgetType);
1173:Generated_Source\PSoC4/CapSense_Processing.c ****             #if (CapSense_ALP_FILTER_EN)
1174:Generated_Source\PSoC4/CapSense_Processing.c ****                 CapSense_ConfigRunALPInternal(fltrHistV, ptrRamWdgt, curSnsPtr, widgetType);
1175:Generated_Source\PSoC4/CapSense_Processing.c ****             #endif
1176:Generated_Source\PSoC4/CapSense_Processing.c ****         }
1177:Generated_Source\PSoC4/CapSense_Processing.c ****     #else
1178:Generated_Source\PSoC4/CapSense_Processing.c ****         (void)fltrHistV; /* This parameter is unused in such configurations */
1179:Generated_Source\PSoC4/CapSense_Processing.c ****     #endif /* #if (CapSense_ENABLE == CapSense_RC_FILTER_EN) */
1180:Generated_Source\PSoC4/CapSense_Processing.c **** 
1181:Generated_Source\PSoC4/CapSense_Processing.c ****     #if (0u != (CapSense_CSD_AUTOTUNE & CapSense_CSD_SS_TH_EN))
1182:Generated_Source\PSoC4/CapSense_Processing.c ****         if (0u != (mode & CapSense_PROCESS_CALC_NOISE))
1183:Generated_Source\PSoC4/CapSense_Processing.c ****         {
1184:Generated_Source\PSoC4/CapSense_Processing.c ****             SmartSense_RunNoiseEnvelope(curSnsPtr->raw[0u], ptrRamWdgt->sigPFC, ptrNoiseEnvelope);
1185:Generated_Source\PSoC4/CapSense_Processing.c ****         }
1186:Generated_Source\PSoC4/CapSense_Processing.c **** 
1187:Generated_Source\PSoC4/CapSense_Processing.c ****         if (0u != (mode & CapSense_PROCESS_THRESHOLDS))
1188:Generated_Source\PSoC4/CapSense_Processing.c ****         {
1189:Generated_Source\PSoC4/CapSense_Processing.c ****             CapSense_DpUpdateThresholds(ptrRamWdgt, ptrNoiseEnvelope, 0u);
1190:Generated_Source\PSoC4/CapSense_Processing.c **** 
1191:Generated_Source\PSoC4/CapSense_Processing.c ****             /* Calculate Proximity Touch Threshold in SmartSense mode based on Finger Threshold and
1192:Generated_Source\PSoC4/CapSense_Processing.c ****             #if (CapSense_ENABLE == CapSense_PROXIMITY_WIDGET_EN)
1193:Generated_Source\PSoC4/CapSense_Processing.c ****                 if (CapSense_WD_PROXIMITY_E == CapSense_GET_WIDGET_TYPE(ptrFlashWdgt))
1194:Generated_Source\PSoC4/CapSense_Processing.c ****                 {
1195:Generated_Source\PSoC4/CapSense_Processing.c ****                     proximityThreshold = ((uint32)ptrRamWdgt->fingerTh * CapSense_PROX_TOUCH_COEFF)
1196:Generated_Source\PSoC4/CapSense_Processing.c ****                     if ((((1Lu) << CapSense_THRESHOLD_SIZE) - 1u) < proximityThreshold)
1197:Generated_Source\PSoC4/CapSense_Processing.c ****                     {
1198:Generated_Source\PSoC4/CapSense_Processing.c ****                         proximityThreshold = ((1Lu) << CapSense_THRESHOLD_SIZE) - 1u;
1199:Generated_Source\PSoC4/CapSense_Processing.c ****                     }
1200:Generated_Source\PSoC4/CapSense_Processing.c ****                     ((CapSense_RAM_WD_PROXIMITY_STRUCT *)ptrFlashWdgt->ptr2WdgtRam)->proxTouchTh =
1201:Generated_Source\PSoC4/CapSense_Processing.c ****                         (CapSense_THRESHOLD_TYPE)proximityThreshold;
1202:Generated_Source\PSoC4/CapSense_Processing.c ****                 }
1203:Generated_Source\PSoC4/CapSense_Processing.c ****             #endif /* (0 != CapSense_PROXIMITY_WIDGET_EN) */
1204:Generated_Source\PSoC4/CapSense_Processing.c ****         }
1205:Generated_Source\PSoC4/CapSense_Processing.c ****     #endif /* #if (0u != (CapSense_CSD_AUTOTUNE & CapSense_CSD_SS_TH_EN)) */
1206:Generated_Source\PSoC4/CapSense_Processing.c **** 
1207:Generated_Source\PSoC4/CapSense_Processing.c ****     if (0u != (mode & CapSense_PROCESS_BASELINE))
1208:Generated_Source\PSoC4/CapSense_Processing.c ****     {
1209:Generated_Source\PSoC4/CapSense_Processing.c ****         result = CapSense_FtUpdateBaseline(ptrRamWdgt, curSnsPtr, widgetType);
1210:Generated_Source\PSoC4/CapSense_Processing.c ****     }
1211:Generated_Source\PSoC4/CapSense_Processing.c **** 
1212:Generated_Source\PSoC4/CapSense_Processing.c ****     if (0u != (mode & CapSense_PROCESS_DIFFCOUNTS))
1213:Generated_Source\PSoC4/CapSense_Processing.c ****     {
1214:Generated_Source\PSoC4/CapSense_Processing.c ****         CapSense_DpUpdateDifferences(ptrRamWdgt, curSnsPtr);
1215:Generated_Source\PSoC4/CapSense_Processing.c ****     }
ARM GAS  C:\Users\zack.li\AppData\Local\Temp\ccr2IpWf.s 			page 25


1216:Generated_Source\PSoC4/CapSense_Processing.c ****     return result;
1217:Generated_Source\PSoC4/CapSense_Processing.c **** }
1218:Generated_Source\PSoC4/CapSense_Processing.c **** 
1219:Generated_Source\PSoC4/CapSense_Processing.c **** /*******************************************************************************
1220:Generated_Source\PSoC4/CapSense_Processing.c **** * Function Name: CapSense_DpProcessCsdWidgetStatus
1221:Generated_Source\PSoC4/CapSense_Processing.c **** ****************************************************************************//**
1222:Generated_Source\PSoC4/CapSense_Processing.c **** *
1223:Generated_Source\PSoC4/CapSense_Processing.c **** * \brief
1224:Generated_Source\PSoC4/CapSense_Processing.c **** *  Runs the status processing of the CSD widget and updates it in the Data Structure.
1225:Generated_Source\PSoC4/CapSense_Processing.c **** *
1226:Generated_Source\PSoC4/CapSense_Processing.c **** * \details
1227:Generated_Source\PSoC4/CapSense_Processing.c **** *  This API determines the widget type and calls the appropriate low-level processing
1228:Generated_Source\PSoC4/CapSense_Processing.c **** *  function. Based on the returned results it updates the widget and sensor
1229:Generated_Source\PSoC4/CapSense_Processing.c **** *  status in the data structure. Any widget specific registers like the centroid
1230:Generated_Source\PSoC4/CapSense_Processing.c **** *  position are updated directly in the low-level processing function.
1231:Generated_Source\PSoC4/CapSense_Processing.c **** *
1232:Generated_Source\PSoC4/CapSense_Processing.c **** *  When the widget-specific processing completes this API updates the snsStatus
1233:Generated_Source\PSoC4/CapSense_Processing.c **** *  and wdgtStatus registers in the data structure. The wdgtStatus register
1234:Generated_Source\PSoC4/CapSense_Processing.c **** *  is a bitmask were each bit corresponds to the specific widget identified by
1235:Generated_Source\PSoC4/CapSense_Processing.c **** *  the widget index. When the bit is set the widget is active (touched);
1236:Generated_Source\PSoC4/CapSense_Processing.c **** *
1237:Generated_Source\PSoC4/CapSense_Processing.c **** *  The snsStatus register for CSD widgets contains status of each widget sensor
1238:Generated_Source\PSoC4/CapSense_Processing.c **** *  (active/non-active). Each bit corresponds to one sensor. In case of the
1239:Generated_Source\PSoC4/CapSense_Processing.c **** *  Proximity widget two bits are used per sensor: one for proximity status and
1240:Generated_Source\PSoC4/CapSense_Processing.c **** *  second for the touch status.
1241:Generated_Source\PSoC4/CapSense_Processing.c **** *
1242:Generated_Source\PSoC4/CapSense_Processing.c **** * \param widgetId      The widget index number.
1243:Generated_Source\PSoC4/CapSense_Processing.c **** * \param ptrFlashWdgt  The pointer to the Flash widget structure.
1244:Generated_Source\PSoC4/CapSense_Processing.c **** *
1245:Generated_Source\PSoC4/CapSense_Processing.c **** *******************************************************************************/
1246:Generated_Source\PSoC4/CapSense_Processing.c **** void CapSense_DpProcessCsdWidgetStatus(uint32 widgetId, CapSense_FLASH_WD_STRUCT const *ptrFlashWdg
1247:Generated_Source\PSoC4/CapSense_Processing.c **** {
1248:Generated_Source\PSoC4/CapSense_Processing.c ****     uint32 sensorStatus;
1249:Generated_Source\PSoC4/CapSense_Processing.c ****     uint32 wdStatusIndex;
1250:Generated_Source\PSoC4/CapSense_Processing.c ****     uint32 wdStatusMask;
1251:Generated_Source\PSoC4/CapSense_Processing.c ****     CapSense_WD_TYPE_ENUM widgetType;
1252:Generated_Source\PSoC4/CapSense_Processing.c **** 
1253:Generated_Source\PSoC4/CapSense_Processing.c ****     widgetType = (CapSense_WD_TYPE_ENUM)ptrFlashWdgt->wdgtType;
1254:Generated_Source\PSoC4/CapSense_Processing.c ****     sensorStatus = CapSense_dsRam.snsStatus[widgetId];
1255:Generated_Source\PSoC4/CapSense_Processing.c **** 
1256:Generated_Source\PSoC4/CapSense_Processing.c ****     switch (widgetType)
1257:Generated_Source\PSoC4/CapSense_Processing.c ****     {
1258:Generated_Source\PSoC4/CapSense_Processing.c ****     #if (0u != CapSense_BUTTON_WIDGET_EN)
1259:Generated_Source\PSoC4/CapSense_Processing.c ****         case CapSense_WD_BUTTON_E:
1260:Generated_Source\PSoC4/CapSense_Processing.c ****             sensorStatus = CapSense_DpProcessButton(sensorStatus, ptrFlashWdgt);
1261:Generated_Source\PSoC4/CapSense_Processing.c ****             break;
1262:Generated_Source\PSoC4/CapSense_Processing.c ****     #endif /* #if (0u != CapSense_BUTTON_WIDGET_EN) */
1263:Generated_Source\PSoC4/CapSense_Processing.c **** 
1264:Generated_Source\PSoC4/CapSense_Processing.c ****     #if (0u != CapSense_SLIDER_WIDGET_EN)
1265:Generated_Source\PSoC4/CapSense_Processing.c ****         case CapSense_WD_LINEAR_SLIDER_E:
1266:Generated_Source\PSoC4/CapSense_Processing.c ****         case CapSense_WD_RADIAL_SLIDER_E:
1267:Generated_Source\PSoC4/CapSense_Processing.c ****             sensorStatus = CapSense_DpProcessSlider(sensorStatus, ptrFlashWdgt);
1268:Generated_Source\PSoC4/CapSense_Processing.c ****             break;
1269:Generated_Source\PSoC4/CapSense_Processing.c ****     #endif /* #if (0u != CapSense_SLIDER_WIDGET_EN) */
1270:Generated_Source\PSoC4/CapSense_Processing.c **** 
1271:Generated_Source\PSoC4/CapSense_Processing.c ****     #if (0u != CapSense_CSD_MATRIX_WIDGET_EN)
1272:Generated_Source\PSoC4/CapSense_Processing.c ****         case CapSense_WD_MATRIX_BUTTON_E:
ARM GAS  C:\Users\zack.li\AppData\Local\Temp\ccr2IpWf.s 			page 26


1273:Generated_Source\PSoC4/CapSense_Processing.c ****             sensorStatus = CapSense_DpProcessCsdMatrix(sensorStatus, ptrFlashWdgt);
1274:Generated_Source\PSoC4/CapSense_Processing.c ****             break;
1275:Generated_Source\PSoC4/CapSense_Processing.c ****     #endif /* #if (0u != CapSense_CSD_MATRIX_WIDGET_EN) */
1276:Generated_Source\PSoC4/CapSense_Processing.c **** 
1277:Generated_Source\PSoC4/CapSense_Processing.c ****     #if (0u != CapSense_CSD_TOUCHPAD_WIDGET_EN)
1278:Generated_Source\PSoC4/CapSense_Processing.c ****         case CapSense_WD_TOUCHPAD_E:
1279:Generated_Source\PSoC4/CapSense_Processing.c ****             sensorStatus = CapSense_DpProcessCsdTouchpad(sensorStatus, ptrFlashWdgt);
1280:Generated_Source\PSoC4/CapSense_Processing.c ****             #if (0u != CapSense_BALLISTIC_MULTIPLIER_EN)
1281:Generated_Source\PSoC4/CapSense_Processing.c ****                 CapSense_RunBallisticMultiplier(widgetId);
1282:Generated_Source\PSoC4/CapSense_Processing.c ****             #endif /* (0u != CapSense_BALLISTIC_MULTIPLIER_EN) */
1283:Generated_Source\PSoC4/CapSense_Processing.c ****             break;
1284:Generated_Source\PSoC4/CapSense_Processing.c ****     #endif /* #if (0u != CapSense_CSD_TOUCHPAD_WIDGET_EN) */
1285:Generated_Source\PSoC4/CapSense_Processing.c **** 
1286:Generated_Source\PSoC4/CapSense_Processing.c ****     #if (0u != CapSense_PROXIMITY_WIDGET_EN)
1287:Generated_Source\PSoC4/CapSense_Processing.c ****         case CapSense_WD_PROXIMITY_E:
1288:Generated_Source\PSoC4/CapSense_Processing.c ****             sensorStatus = CapSense_DpProcessProximity(sensorStatus, ptrFlashWdgt);
1289:Generated_Source\PSoC4/CapSense_Processing.c ****             break;
1290:Generated_Source\PSoC4/CapSense_Processing.c ****     #endif /* #if (0u != CapSense_PROXIMITY_WIDGET_EN) */
1291:Generated_Source\PSoC4/CapSense_Processing.c **** 
1292:Generated_Source\PSoC4/CapSense_Processing.c ****     default:
1293:Generated_Source\PSoC4/CapSense_Processing.c ****         CYASSERT(0u);
1294:Generated_Source\PSoC4/CapSense_Processing.c ****         break;
1295:Generated_Source\PSoC4/CapSense_Processing.c ****     }
1296:Generated_Source\PSoC4/CapSense_Processing.c **** 
1297:Generated_Source\PSoC4/CapSense_Processing.c ****     CapSense_dsRam.snsStatus[widgetId] = (CapSense_SNS_STS_TYPE)sensorStatus;
1298:Generated_Source\PSoC4/CapSense_Processing.c **** 
1299:Generated_Source\PSoC4/CapSense_Processing.c ****     /* The next two lines calculate index and bitmask of the widget status bit in the wdgtStatus ar
1300:Generated_Source\PSoC4/CapSense_Processing.c ****     wdStatusIndex = CapSense_GET_WDGT_STATUS_INDEX(widgetId);
1301:Generated_Source\PSoC4/CapSense_Processing.c ****     wdStatusMask = CapSense_GET_WDGT_STATUS_MASK(widgetId);
1302:Generated_Source\PSoC4/CapSense_Processing.c **** 
1303:Generated_Source\PSoC4/CapSense_Processing.c ****     /* Check if there are active sensors and update widget status accordingly */
1304:Generated_Source\PSoC4/CapSense_Processing.c ****     if (0u == sensorStatus)
1305:Generated_Source\PSoC4/CapSense_Processing.c ****     {
1306:Generated_Source\PSoC4/CapSense_Processing.c ****         CapSense_dsRam.wdgtStatus[wdStatusIndex] &= ~wdStatusMask;
1307:Generated_Source\PSoC4/CapSense_Processing.c ****     }
1308:Generated_Source\PSoC4/CapSense_Processing.c ****     else
1309:Generated_Source\PSoC4/CapSense_Processing.c ****     {
1310:Generated_Source\PSoC4/CapSense_Processing.c ****         CapSense_dsRam.wdgtStatus[wdStatusIndex] |= wdStatusMask;
1311:Generated_Source\PSoC4/CapSense_Processing.c ****     }
1312:Generated_Source\PSoC4/CapSense_Processing.c **** }
1313:Generated_Source\PSoC4/CapSense_Processing.c **** #endif /* #if (0u != CapSense_TOTAL_CSD_WIDGETS) */
1314:Generated_Source\PSoC4/CapSense_Processing.c **** 
1315:Generated_Source\PSoC4/CapSense_Processing.c **** 
1316:Generated_Source\PSoC4/CapSense_Processing.c **** #if (0 != (CapSense_CSD_AUTOTUNE & CapSense_CSD_SS_TH_EN))
1317:Generated_Source\PSoC4/CapSense_Processing.c **** /*******************************************************************************
1318:Generated_Source\PSoC4/CapSense_Processing.c **** * Function Name: CapSense_DpUpdateThresholds
1319:Generated_Source\PSoC4/CapSense_Processing.c **** ****************************************************************************//**
1320:Generated_Source\PSoC4/CapSense_Processing.c **** *
1321:Generated_Source\PSoC4/CapSense_Processing.c **** * \brief
1322:Generated_Source\PSoC4/CapSense_Processing.c **** *   Updates noise and finger thresholds for a specified widget.
1323:Generated_Source\PSoC4/CapSense_Processing.c **** *
1324:Generated_Source\PSoC4/CapSense_Processing.c **** * \details
1325:Generated_Source\PSoC4/CapSense_Processing.c **** *   Updates noise and finger thresholds for a specified widget.
1326:Generated_Source\PSoC4/CapSense_Processing.c **** *   This algorithm is a part of Auto-tuning feature.
1327:Generated_Source\PSoC4/CapSense_Processing.c **** *
1328:Generated_Source\PSoC4/CapSense_Processing.c **** * \param ptrRamWdgt       The pointer to the RAM widget object.
1329:Generated_Source\PSoC4/CapSense_Processing.c **** * \param ptrNoiseEnvelope The pointer to the noise-envelope object in RAM.
ARM GAS  C:\Users\zack.li\AppData\Local\Temp\ccr2IpWf.s 			page 27


1330:Generated_Source\PSoC4/CapSense_Processing.c **** * \param startFlag        The flag indicates when new widget is processed.
1331:Generated_Source\PSoC4/CapSense_Processing.c **** *
1332:Generated_Source\PSoC4/CapSense_Processing.c **** *******************************************************************************/
1333:Generated_Source\PSoC4/CapSense_Processing.c **** void CapSense_DpUpdateThresholds(CapSense_RAM_WD_BASE_STRUCT *ptrRamWdgt,
1334:Generated_Source\PSoC4/CapSense_Processing.c ****                                          SMARTSENSE_CSD_NOISE_ENVELOPE_STRUCT *ptrNoiseEnvelope,
1335:Generated_Source\PSoC4/CapSense_Processing.c ****                                          uint32 startFlag)
1336:Generated_Source\PSoC4/CapSense_Processing.c **** {
1337:Generated_Source\PSoC4/CapSense_Processing.c ****     SMARTSENSE_UPDATE_THRESHOLDS_STRUCT thresholds;
1338:Generated_Source\PSoC4/CapSense_Processing.c ****     SMARTSENSE_UPDATE_THRESHOLDS_STRUCT *ptrThresholds = &thresholds;
1339:Generated_Source\PSoC4/CapSense_Processing.c ****     ptrThresholds->fingerTh = ptrRamWdgt->fingerTh;
1340:Generated_Source\PSoC4/CapSense_Processing.c **** 
1341:Generated_Source\PSoC4/CapSense_Processing.c ****     SmartSense_UpdateThresholds(ptrNoiseEnvelope, ptrThresholds, ptrRamWdgt->sigPFC, startFlag);
1342:Generated_Source\PSoC4/CapSense_Processing.c **** 
1343:Generated_Source\PSoC4/CapSense_Processing.c ****     ptrRamWdgt->fingerTh = ptrThresholds->fingerTh;
1344:Generated_Source\PSoC4/CapSense_Processing.c ****     ptrRamWdgt->noiseTh = ptrThresholds->noiseTh;
1345:Generated_Source\PSoC4/CapSense_Processing.c ****     ptrRamWdgt->nNoiseTh = ptrThresholds->nNoiseTh;
1346:Generated_Source\PSoC4/CapSense_Processing.c ****     ptrRamWdgt->hysteresis = ptrThresholds->hysteresis;
1347:Generated_Source\PSoC4/CapSense_Processing.c **** }
1348:Generated_Source\PSoC4/CapSense_Processing.c **** #endif /* #if (0u != (CapSense_CSD_AUTOTUNE & CapSense_CSD_SS_TH_EN)) */
1349:Generated_Source\PSoC4/CapSense_Processing.c **** 
1350:Generated_Source\PSoC4/CapSense_Processing.c **** 
1351:Generated_Source\PSoC4/CapSense_Processing.c **** /*******************************************************************************
1352:Generated_Source\PSoC4/CapSense_Processing.c **** * Function Name: CapSense_DpUpdateDifferences
1353:Generated_Source\PSoC4/CapSense_Processing.c **** ****************************************************************************//**
1354:Generated_Source\PSoC4/CapSense_Processing.c **** *
1355:Generated_Source\PSoC4/CapSense_Processing.c **** * \brief
1356:Generated_Source\PSoC4/CapSense_Processing.c **** *   Calculates new difference values.
1357:Generated_Source\PSoC4/CapSense_Processing.c **** *   Also, executes the multi-frequency scan algorithm if it is enabled.
1358:Generated_Source\PSoC4/CapSense_Processing.c **** *
1359:Generated_Source\PSoC4/CapSense_Processing.c **** * \details
1360:Generated_Source\PSoC4/CapSense_Processing.c **** *   This API calculates the difference between the baseline and raw counts.
1361:Generated_Source\PSoC4/CapSense_Processing.c **** *   If the difference is positive (raw > baseline), and higher than the widget
1362:Generated_Source\PSoC4/CapSense_Processing.c **** *   noise threshold, it is saved into the data structure for further processing.
1363:Generated_Source\PSoC4/CapSense_Processing.c **** *   Otherwise the difference is set to zero. The final difference value is saved
1364:Generated_Source\PSoC4/CapSense_Processing.c **** *   with the subtracted noise threshold value.
1365:Generated_Source\PSoC4/CapSense_Processing.c **** *
1366:Generated_Source\PSoC4/CapSense_Processing.c **** *   If the multi-frequency scan algorithm is enabled, the difference is calculated
1367:Generated_Source\PSoC4/CapSense_Processing.c **** *   for the three sets of data available for each sensor. Then
1368:Generated_Source\PSoC4/CapSense_Processing.c **** *   the median filter selects the final difference value.
1369:Generated_Source\PSoC4/CapSense_Processing.c **** *
1370:Generated_Source\PSoC4/CapSense_Processing.c **** * \param ptrRamWdgt The pointer to the RAR Widget Object.
1371:Generated_Source\PSoC4/CapSense_Processing.c **** * \param curSnsPtr  The pointer to the sensor object in RAM.
1372:Generated_Source\PSoC4/CapSense_Processing.c **** *
1373:Generated_Source\PSoC4/CapSense_Processing.c **** *******************************************************************************/
1374:Generated_Source\PSoC4/CapSense_Processing.c **** void CapSense_DpUpdateDifferences(
1375:Generated_Source\PSoC4/CapSense_Processing.c ****                         CapSense_RAM_WD_BASE_STRUCT *ptrRamWdgt,
1376:Generated_Source\PSoC4/CapSense_Processing.c ****                         CapSense_RAM_SNS_STRUCT *curSnsPtr)
1377:Generated_Source\PSoC4/CapSense_Processing.c **** {
 148              		.loc 1 1377 0
 149              		.cfi_startproc
 150              		@ args = 0, pretend = 0, frame = 0
 151              		@ frame_needed = 0, uses_anonymous_args = 0
 152              	.LVL17:
 153 0000 30B5     		push	{r4, r5, lr}
 154              		.cfi_def_cfa_offset 12
 155              		.cfi_offset 4, -12
 156              		.cfi_offset 5, -8
ARM GAS  C:\Users\zack.li\AppData\Local\Temp\ccr2IpWf.s 			page 28


 157              		.cfi_offset 14, -4
 158              	.LVL18:
1378:Generated_Source\PSoC4/CapSense_Processing.c ****     register int32 diffValue = 0;
1379:Generated_Source\PSoC4/CapSense_Processing.c **** 
1380:Generated_Source\PSoC4/CapSense_Processing.c ****     #if (0u != CapSense_MULTI_FREQ_SCAN_EN)
1381:Generated_Source\PSoC4/CapSense_Processing.c ****         register int32 diffValue_0 = 0;
1382:Generated_Source\PSoC4/CapSense_Processing.c ****         register int32 diffValue_2 = 0;
1383:Generated_Source\PSoC4/CapSense_Processing.c ****     #endif /* #if (0u != CapSense_MULTI_FREQ_SCAN_EN) */
1384:Generated_Source\PSoC4/CapSense_Processing.c **** 
1385:Generated_Source\PSoC4/CapSense_Processing.c ****     /* Calculate difference */
1386:Generated_Source\PSoC4/CapSense_Processing.c ****     diffValue = (int32)curSnsPtr->raw[0u] - (int32)curSnsPtr->bsln[0u];
 159              		.loc 1 1386 0
 160 0002 0B88     		ldrh	r3, [r1]
 161 0004 4A88     		ldrh	r2, [r1, #2]
 162 0006 9C1A     		subs	r4, r3, r2
 163              	.LVL19:
1387:Generated_Source\PSoC4/CapSense_Processing.c **** 
1388:Generated_Source\PSoC4/CapSense_Processing.c ****     #if (0u != CapSense_MULTI_FREQ_SCAN_EN)
1389:Generated_Source\PSoC4/CapSense_Processing.c ****         diffValue_0 = (int32)curSnsPtr->raw[1u] - (int32)curSnsPtr->bsln[1u];
1390:Generated_Source\PSoC4/CapSense_Processing.c ****         diffValue_2 = (int32)curSnsPtr->raw[2u] - (int32)curSnsPtr->bsln[2u];
1391:Generated_Source\PSoC4/CapSense_Processing.c **** 
1392:Generated_Source\PSoC4/CapSense_Processing.c ****         /* Find median and put it into [0u] element */
1393:Generated_Source\PSoC4/CapSense_Processing.c ****         if (diffValue_0 > diffValue)
1394:Generated_Source\PSoC4/CapSense_Processing.c ****         {
1395:Generated_Source\PSoC4/CapSense_Processing.c ****             register int32 swapv = diffValue_0;
1396:Generated_Source\PSoC4/CapSense_Processing.c ****             diffValue_0 = diffValue;
1397:Generated_Source\PSoC4/CapSense_Processing.c ****             diffValue = swapv;
1398:Generated_Source\PSoC4/CapSense_Processing.c ****         }
1399:Generated_Source\PSoC4/CapSense_Processing.c **** 
1400:Generated_Source\PSoC4/CapSense_Processing.c ****         if (diffValue > diffValue_2)
1401:Generated_Source\PSoC4/CapSense_Processing.c ****         {
1402:Generated_Source\PSoC4/CapSense_Processing.c ****             register int32 swapv = diffValue;
1403:Generated_Source\PSoC4/CapSense_Processing.c ****             diffValue = diffValue_2;
1404:Generated_Source\PSoC4/CapSense_Processing.c ****             diffValue_2 = swapv;
1405:Generated_Source\PSoC4/CapSense_Processing.c ****         }
1406:Generated_Source\PSoC4/CapSense_Processing.c **** 
1407:Generated_Source\PSoC4/CapSense_Processing.c ****         if (diffValue_0 > diffValue)
1408:Generated_Source\PSoC4/CapSense_Processing.c ****         {
1409:Generated_Source\PSoC4/CapSense_Processing.c ****             register int32 swapv = diffValue_0;
1410:Generated_Source\PSoC4/CapSense_Processing.c ****             diffValue_0 = diffValue;
1411:Generated_Source\PSoC4/CapSense_Processing.c ****             diffValue = swapv;
1412:Generated_Source\PSoC4/CapSense_Processing.c ****         }
1413:Generated_Source\PSoC4/CapSense_Processing.c ****     #endif /* #if (0u != CapSense_MULTI_FREQ_SCAN_EN) */
1414:Generated_Source\PSoC4/CapSense_Processing.c **** 
1415:Generated_Source\PSoC4/CapSense_Processing.c ****     curSnsPtr->diff = 0u;
 164              		.loc 1 1415 0
 165 0008 0025     		movs	r5, #0
 166 000a CD80     		strh	r5, [r1, #6]
1416:Generated_Source\PSoC4/CapSense_Processing.c **** 
1417:Generated_Source\PSoC4/CapSense_Processing.c ****     if (diffValue > (int32)ptrRamWdgt->noiseTh)
 167              		.loc 1 1417 0
 168 000c 0079     		ldrb	r0, [r0, #4]
 169              	.LVL20:
 170 000e 8442     		cmp	r4, r0
 171 0010 00DD     		ble	.L11
1418:Generated_Source\PSoC4/CapSense_Processing.c ****     {
1419:Generated_Source\PSoC4/CapSense_Processing.c ****         curSnsPtr->diff = (CapSense_THRESHOLD_TYPE) diffValue;
ARM GAS  C:\Users\zack.li\AppData\Local\Temp\ccr2IpWf.s 			page 29


 172              		.loc 1 1419 0
 173 0012 CC80     		strh	r4, [r1, #6]
 174              	.L11:
1420:Generated_Source\PSoC4/CapSense_Processing.c ****     }
1421:Generated_Source\PSoC4/CapSense_Processing.c **** }
 175              		.loc 1 1421 0
 176              		@ sp needed
 177              	.LVL21:
 178 0014 30BD     		pop	{r4, r5, pc}
 179              		.cfi_endproc
 180              	.LFE5:
 181              		.size	CapSense_DpUpdateDifferences, .-CapSense_DpUpdateDifferences
 182 0016 C046     		.section	.text.CapSense_DpProcessCsdWidgetRawCounts,"ax",%progbits
 183              		.align	2
 184              		.global	CapSense_DpProcessCsdWidgetRawCounts
 185              		.code	16
 186              		.thumb_func
 187              		.type	CapSense_DpProcessCsdWidgetRawCounts, %function
 188              	CapSense_DpProcessCsdWidgetRawCounts:
 189              	.LFB2:
1017:Generated_Source\PSoC4/CapSense_Processing.c ****     uint32  result = CYRET_SUCCESS;
 190              		.loc 1 1017 0
 191              		.cfi_startproc
 192              		@ args = 0, pretend = 0, frame = 16
 193              		@ frame_needed = 0, uses_anonymous_args = 0
 194              	.LVL22:
 195 0000 F0B5     		push	{r4, r5, r6, r7, lr}
 196              		.cfi_def_cfa_offset 20
 197              		.cfi_offset 4, -20
 198              		.cfi_offset 5, -16
 199              		.cfi_offset 6, -12
 200              		.cfi_offset 7, -8
 201              		.cfi_offset 14, -4
 202 0002 5F46     		mov	r7, fp
 203 0004 80B4     		push	{r7}
 204              		.cfi_def_cfa_offset 24
 205              		.cfi_offset 11, -24
 206 0006 84B0     		sub	sp, sp, #16
 207              		.cfi_def_cfa_offset 40
 208 0008 0600     		movs	r6, r0
 209              	.LVL23:
1041:Generated_Source\PSoC4/CapSense_Processing.c **** 
 210              		.loc 1 1041 0
 211 000a 837E     		ldrb	r3, [r0, #26]
 212 000c 062B     		cmp	r3, #6
 213 000e 02D1     		bne	.L19
 214 0010 0122     		movs	r2, #1
 215 0012 9346     		mov	fp, r2
 216 0014 01E0     		b	.L14
 217              	.L19:
 218 0016 0022     		movs	r2, #0
 219 0018 9346     		mov	fp, r2
 220              	.L14:
 221              	.LVL24:
1044:Generated_Source\PSoC4/CapSense_Processing.c ****     #endif /* #if (CapSense_ENABLE == CapSense_RC_FILTER_EN) */
 222              		.loc 1 1044 0 discriminator 4
 223 001a F568     		ldr	r5, [r6, #12]
ARM GAS  C:\Users\zack.li\AppData\Local\Temp\ccr2IpWf.s 			page 30


 224              	.LVL25:
1047:Generated_Source\PSoC4/CapSense_Processing.c ****     ptrRamWdgt = (CapSense_RAM_WD_BASE_STRUCT *)ptrFlashWdgt->ptr2WdgtRam;
 225              		.loc 1 1047 0 discriminator 4
 226 001c B468     		ldr	r4, [r6, #8]
 227              	.LVL26:
1048:Generated_Source\PSoC4/CapSense_Processing.c ****     widgetType = ptrFlashWdgt->wdgtType;
 228              		.loc 1 1048 0 discriminator 4
 229 001e 7268     		ldr	r2, [r6, #4]
 230 0020 0192     		str	r2, [sp, #4]
 231              	.LVL27:
1049:Generated_Source\PSoC4/CapSense_Processing.c **** 
 232              		.loc 1 1049 0 discriminator 4
 233 0022 0293     		str	r3, [sp, #8]
 234              	.LVL28:
1056:Generated_Source\PSoC4/CapSense_Processing.c ****     {
 235              		.loc 1 1056 0 discriminator 4
 236 0024 0027     		movs	r7, #0
1018:Generated_Source\PSoC4/CapSense_Processing.c **** 
 237              		.loc 1 1018 0 discriminator 4
 238 0026 0023     		movs	r3, #0
 239 0028 0393     		str	r3, [sp, #12]
1056:Generated_Source\PSoC4/CapSense_Processing.c ****     {
 240              		.loc 1 1056 0 discriminator 4
 241 002a 16E0     		b	.L15
 242              	.LVL29:
 243              	.L18:
1060:Generated_Source\PSoC4/CapSense_Processing.c ****             #if (CapSense_ALP_FILTER_EN)
 244              		.loc 1 1060 0
 245 002c 029A     		ldr	r2, [sp, #8]
 246 002e 2100     		movs	r1, r4
 247              	.LVL30:
 248 0030 2800     		movs	r0, r5
 249 0032 FFF7FEFF 		bl	CapSense_FtRunEnabledFiltersInternal
 250              	.LVL31:
1096:Generated_Source\PSoC4/CapSense_Processing.c ****         #endif /* (CapSense_ENABLE == CapSense_TST_BSLN_DUPLICATION_EN) */
 251              		.loc 1 1096 0
 252 0036 029A     		ldr	r2, [sp, #8]
 253 0038 2100     		movs	r1, r4
 254 003a 0198     		ldr	r0, [sp, #4]
 255 003c FFF7FEFF 		bl	CapSense_FtUpdateBaseline
 256              	.LVL32:
 257 0040 0390     		str	r0, [sp, #12]
 258              	.LVL33:
1099:Generated_Source\PSoC4/CapSense_Processing.c **** 
 259              		.loc 1 1099 0
 260 0042 2100     		movs	r1, r4
 261 0044 0198     		ldr	r0, [sp, #4]
 262              	.LVL34:
 263 0046 FFF7FEFF 		bl	CapSense_DpUpdateDifferences
 264              	.LVL35:
1102:Generated_Source\PSoC4/CapSense_Processing.c **** 
 265              		.loc 1 1102 0
 266 004a 0A34     		adds	r4, r4, #10
 267              	.LVL36:
1106:Generated_Source\PSoC4/CapSense_Processing.c ****         #endif /* #if (CapSense_ENABLE == CapSense_RC_FILTER_EN) */
 268              		.loc 1 1106 0
 269 004c 5B46     		mov	r3, fp
ARM GAS  C:\Users\zack.li\AppData\Local\Temp\ccr2IpWf.s 			page 31


 270 004e 002B     		cmp	r3, #0
 271 0050 01D1     		bne	.L16
 272              	.LVL37:
1106:Generated_Source\PSoC4/CapSense_Processing.c ****         #endif /* #if (CapSense_ENABLE == CapSense_RC_FILTER_EN) */
 273              		.loc 1 1106 0 is_stmt 0 discriminator 1
 274 0052 0C35     		adds	r5, r5, #12
 275              	.LVL38:
 276 0054 00E0     		b	.L17
 277              	.LVL39:
 278              	.L16:
1106:Generated_Source\PSoC4/CapSense_Processing.c ****         #endif /* #if (CapSense_ENABLE == CapSense_RC_FILTER_EN) */
 279              		.loc 1 1106 0 discriminator 2
 280 0056 0C35     		adds	r5, r5, #12
 281              	.LVL40:
 282              	.L17:
1056:Generated_Source\PSoC4/CapSense_Processing.c ****     {
 283              		.loc 1 1056 0 is_stmt 1 discriminator 2
 284 0058 0137     		adds	r7, r7, #1
 285              	.LVL41:
 286              	.L15:
1056:Generated_Source\PSoC4/CapSense_Processing.c ****     {
 287              		.loc 1 1056 0 is_stmt 0 discriminator 1
 288 005a 338B     		ldrh	r3, [r6, #24]
 289 005c 9F42     		cmp	r7, r3
 290 005e E5D3     		bcc	.L18
1110:Generated_Source\PSoC4/CapSense_Processing.c **** 
 291              		.loc 1 1110 0 is_stmt 1
 292 0060 0398     		ldr	r0, [sp, #12]
 293 0062 04B0     		add	sp, sp, #16
 294              		@ sp needed
 295              	.LVL42:
 296              	.LVL43:
 297              	.LVL44:
 298              	.LVL45:
 299 0064 04BC     		pop	{r2}
 300 0066 9346     		mov	fp, r2
 301 0068 F0BD     		pop	{r4, r5, r6, r7, pc}
 302              		.cfi_endproc
 303              	.LFE2:
 304              		.size	CapSense_DpProcessCsdWidgetRawCounts, .-CapSense_DpProcessCsdWidgetRawCounts
 305 006a C046     		.section	.text.CapSense_DpProcessCsdSensorRawCountsExt,"ax",%progbits
 306              		.align	2
 307              		.global	CapSense_DpProcessCsdSensorRawCountsExt
 308              		.code	16
 309              		.thumb_func
 310              		.type	CapSense_DpProcessCsdSensorRawCountsExt, %function
 311              	CapSense_DpProcessCsdSensorRawCountsExt:
 312              	.LFB3:
1151:Generated_Source\PSoC4/CapSense_Processing.c ****     uint32 result = CYRET_SUCCESS;
 313              		.loc 1 1151 0
 314              		.cfi_startproc
 315              		@ args = 0, pretend = 0, frame = 8
 316              		@ frame_needed = 0, uses_anonymous_args = 0
 317              	.LVL46:
 318 0000 F0B5     		push	{r4, r5, r6, r7, lr}
 319              		.cfi_def_cfa_offset 20
 320              		.cfi_offset 4, -20
ARM GAS  C:\Users\zack.li\AppData\Local\Temp\ccr2IpWf.s 			page 32


 321              		.cfi_offset 5, -16
 322              		.cfi_offset 6, -12
 323              		.cfi_offset 7, -8
 324              		.cfi_offset 14, -4
 325 0002 83B0     		sub	sp, sp, #12
 326              		.cfi_def_cfa_offset 32
 327 0004 0E00     		movs	r6, r1
 328 0006 0192     		str	r2, [sp, #4]
 329 0008 1C00     		movs	r4, r3
 330              	.LVL47:
1166:Generated_Source\PSoC4/CapSense_Processing.c ****     ptrRamWdgt = (CapSense_RAM_WD_BASE_STRUCT *)ptrFlashWdgt->ptr2WdgtRam;
 331              		.loc 1 1166 0
 332 000a 857E     		ldrb	r5, [r0, #26]
 333              	.LVL48:
1167:Generated_Source\PSoC4/CapSense_Processing.c **** 
 334              		.loc 1 1167 0
 335 000c 4768     		ldr	r7, [r0, #4]
 336              	.LVL49:
1170:Generated_Source\PSoC4/CapSense_Processing.c ****         {
 337              		.loc 1 1170 0
 338 000e E307     		lsls	r3, r4, #31
 339 0010 03D5     		bpl	.L21
 340              	.LVL50:
1172:Generated_Source\PSoC4/CapSense_Processing.c ****             #if (CapSense_ALP_FILTER_EN)
 341              		.loc 1 1172 0
 342 0012 2A00     		movs	r2, r5
 343              	.LVL51:
 344 0014 0198     		ldr	r0, [sp, #4]
 345              	.LVL52:
 346 0016 FFF7FEFF 		bl	CapSense_FtRunEnabledFiltersInternal
 347              	.LVL53:
 348              	.L21:
1207:Generated_Source\PSoC4/CapSense_Processing.c ****     {
 349              		.loc 1 1207 0
 350 001a A307     		lsls	r3, r4, #30
 351 001c 06D5     		bpl	.L24
1209:Generated_Source\PSoC4/CapSense_Processing.c ****     }
 352              		.loc 1 1209 0
 353 001e 2A00     		movs	r2, r5
 354              	.LVL54:
 355 0020 3100     		movs	r1, r6
 356 0022 3800     		movs	r0, r7
 357 0024 FFF7FEFF 		bl	CapSense_FtUpdateBaseline
 358              	.LVL55:
 359 0028 0500     		movs	r5, r0
 360              	.LVL56:
 361 002a 00E0     		b	.L22
 362              	.LVL57:
 363              	.L24:
1152:Generated_Source\PSoC4/CapSense_Processing.c ****     uint32  widgetType;
 364              		.loc 1 1152 0
 365 002c 0025     		movs	r5, #0
 366              	.LVL58:
 367              	.L22:
1212:Generated_Source\PSoC4/CapSense_Processing.c ****     {
 368              		.loc 1 1212 0
 369 002e 6307     		lsls	r3, r4, #29
ARM GAS  C:\Users\zack.li\AppData\Local\Temp\ccr2IpWf.s 			page 33


 370 0030 03D5     		bpl	.L23
1214:Generated_Source\PSoC4/CapSense_Processing.c ****     }
 371              		.loc 1 1214 0
 372 0032 3100     		movs	r1, r6
 373 0034 3800     		movs	r0, r7
 374 0036 FFF7FEFF 		bl	CapSense_DpUpdateDifferences
 375              	.LVL59:
 376              	.L23:
1217:Generated_Source\PSoC4/CapSense_Processing.c **** 
 377              		.loc 1 1217 0
 378 003a 2800     		movs	r0, r5
 379 003c 03B0     		add	sp, sp, #12
 380              		@ sp needed
 381              	.LVL60:
 382              	.LVL61:
 383              	.LVL62:
 384              	.LVL63:
 385 003e F0BD     		pop	{r4, r5, r6, r7, pc}
 386              		.cfi_endproc
 387              	.LFE3:
 388              		.size	CapSense_DpProcessCsdSensorRawCountsExt, .-CapSense_DpProcessCsdSensorRawCountsExt
 389              		.section	.text.CapSense_DpProcessButton,"ax",%progbits
 390              		.align	2
 391              		.global	CapSense_DpProcessButton
 392              		.code	16
 393              		.thumb_func
 394              		.type	CapSense_DpProcessButton, %function
 395              	CapSense_DpProcessButton:
 396              	.LFB6:
1422:Generated_Source\PSoC4/CapSense_Processing.c **** 
1423:Generated_Source\PSoC4/CapSense_Processing.c **** 
1424:Generated_Source\PSoC4/CapSense_Processing.c **** #if ((0u != CapSense_BUTTON_WIDGET_EN) || (0u != CapSense_CSX_MATRIX_WIDGET_EN))
1425:Generated_Source\PSoC4/CapSense_Processing.c **** /*******************************************************************************
1426:Generated_Source\PSoC4/CapSense_Processing.c **** * Function Name: CapSense_DpProcessButton
1427:Generated_Source\PSoC4/CapSense_Processing.c **** ****************************************************************************//**
1428:Generated_Source\PSoC4/CapSense_Processing.c **** *
1429:Generated_Source\PSoC4/CapSense_Processing.c **** * \brief
1430:Generated_Source\PSoC4/CapSense_Processing.c **** *   Processes the status of the Button widget.
1431:Generated_Source\PSoC4/CapSense_Processing.c **** *
1432:Generated_Source\PSoC4/CapSense_Processing.c **** * \details
1433:Generated_Source\PSoC4/CapSense_Processing.c **** *   This API processes the status of the CSD/CSX Button widget and
1434:Generated_Source\PSoC4/CapSense_Processing.c **** *   CSX Matrix Button widget. It applies the hysteresis and de-bounce algorithm
1435:Generated_Source\PSoC4/CapSense_Processing.c **** *   to each sensor difference value. This API is expected to be called
1436:Generated_Source\PSoC4/CapSense_Processing.c **** *   after each new widget scan. If it is called multiple times for the same
1437:Generated_Source\PSoC4/CapSense_Processing.c **** *   scan data, the de-bounce algorithm will not work properly.
1438:Generated_Source\PSoC4/CapSense_Processing.c **** *
1439:Generated_Source\PSoC4/CapSense_Processing.c **** *   This API does not update any Data Structure registers
1440:Generated_Source\PSoC4/CapSense_Processing.c **** *   except the de-bounce counters.
1441:Generated_Source\PSoC4/CapSense_Processing.c **** *
1442:Generated_Source\PSoC4/CapSense_Processing.c **** * \param currStatus   The current status of the widget sensors.
1443:Generated_Source\PSoC4/CapSense_Processing.c **** * \param ptrFlashWdgt The pointer to the Flash Widget Object.
1444:Generated_Source\PSoC4/CapSense_Processing.c **** *
1445:Generated_Source\PSoC4/CapSense_Processing.c **** * \return Returns the status of the widget's sensors. Bit #0 - corresponds to Sensor #0.
1446:Generated_Source\PSoC4/CapSense_Processing.c **** *
1447:Generated_Source\PSoC4/CapSense_Processing.c **** *******************************************************************************/
1448:Generated_Source\PSoC4/CapSense_Processing.c **** uint32 CapSense_DpProcessButton(uint32 currStatus, CapSense_FLASH_WD_STRUCT const *ptrFlashWdgt)
1449:Generated_Source\PSoC4/CapSense_Processing.c **** {
ARM GAS  C:\Users\zack.li\AppData\Local\Temp\ccr2IpWf.s 			page 34


 397              		.loc 1 1449 0
 398              		.cfi_startproc
 399              		@ args = 0, pretend = 0, frame = 0
 400              		@ frame_needed = 0, uses_anonymous_args = 0
 401              	.LVL64:
 402 0000 F0B5     		push	{r4, r5, r6, r7, lr}
 403              		.cfi_def_cfa_offset 20
 404              		.cfi_offset 4, -20
 405              		.cfi_offset 5, -16
 406              		.cfi_offset 6, -12
 407              		.cfi_offset 7, -8
 408              		.cfi_offset 14, -4
1450:Generated_Source\PSoC4/CapSense_Processing.c ****     uint32 snsCnt;
1451:Generated_Source\PSoC4/CapSense_Processing.c ****     uint32 snsMask;
1452:Generated_Source\PSoC4/CapSense_Processing.c ****     uint32 newStatus;
1453:Generated_Source\PSoC4/CapSense_Processing.c ****     uint32 touchTh;
1454:Generated_Source\PSoC4/CapSense_Processing.c ****     CapSense_RAM_SNS_STRUCT *ptrSnsTmp;
1455:Generated_Source\PSoC4/CapSense_Processing.c ****     CapSense_RAM_WD_BASE_STRUCT *ptrRamWdgt;
1456:Generated_Source\PSoC4/CapSense_Processing.c ****     uint8 * ptrDebounceCnt;
1457:Generated_Source\PSoC4/CapSense_Processing.c **** 
1458:Generated_Source\PSoC4/CapSense_Processing.c ****     snsCnt = ptrFlashWdgt->totalNumSns;
 409              		.loc 1 1458 0
 410 0002 0A8B     		ldrh	r2, [r1, #24]
 411              	.LVL65:
1459:Generated_Source\PSoC4/CapSense_Processing.c ****     ptrSnsTmp = ptrFlashWdgt->ptr2SnsRam;
 412              		.loc 1 1459 0
 413 0004 8D68     		ldr	r5, [r1, #8]
 414              	.LVL66:
1460:Generated_Source\PSoC4/CapSense_Processing.c ****     ptrRamWdgt = (CapSense_RAM_WD_BASE_STRUCT *)ptrFlashWdgt->ptr2WdgtRam;
 415              		.loc 1 1460 0
 416 0006 4F68     		ldr	r7, [r1, #4]
 417              	.LVL67:
1461:Generated_Source\PSoC4/CapSense_Processing.c ****     ptrDebounceCnt = ptrFlashWdgt->ptr2DebounceArr;
 418              		.loc 1 1461 0
 419 0008 0B69     		ldr	r3, [r1, #16]
 420              	.LVL68:
1462:Generated_Source\PSoC4/CapSense_Processing.c **** 
1463:Generated_Source\PSoC4/CapSense_Processing.c ****     /* Go through all widget's sensors */
1464:Generated_Source\PSoC4/CapSense_Processing.c ****     snsMask = 1Lu;
 421              		.loc 1 1464 0
 422 000a 0121     		movs	r1, #1
 423              	.LVL69:
1465:Generated_Source\PSoC4/CapSense_Processing.c ****     for (; snsCnt-- > 0u; )
 424              		.loc 1 1465 0
 425 000c 25E0     		b	.L26
 426              	.LVL70:
 427              	.L34:
1466:Generated_Source\PSoC4/CapSense_Processing.c ****     {
1467:Generated_Source\PSoC4/CapSense_Processing.c ****         /* Calculate touch threshold taking into account hysteresis
1468:Generated_Source\PSoC4/CapSense_Processing.c ****            and current sensor state. */
1469:Generated_Source\PSoC4/CapSense_Processing.c ****         touchTh = (0u == (currStatus & snsMask)) ?
 428              		.loc 1 1469 0
 429 000e 0C00     		movs	r4, r1
 430              	.LVL71:
 431 0010 0440     		ands	r4, r0
1470:Generated_Source\PSoC4/CapSense_Processing.c ****                   ((uint32)ptrRamWdgt->fingerTh + ptrRamWdgt->hysteresis) :
 432              		.loc 1 1470 0
ARM GAS  C:\Users\zack.li\AppData\Local\Temp\ccr2IpWf.s 			page 35


 433 0012 03D1     		bne	.L27
 434              		.loc 1 1470 0 is_stmt 0 discriminator 1
 435 0014 7E88     		ldrh	r6, [r7, #2]
 436 0016 BA79     		ldrb	r2, [r7, #6]
 437 0018 B218     		adds	r2, r6, r2
 438 001a 02E0     		b	.L28
 439              	.L27:
1471:Generated_Source\PSoC4/CapSense_Processing.c ****                   ((uint32)ptrRamWdgt->fingerTh - ptrRamWdgt->hysteresis);
 440              		.loc 1 1471 0 is_stmt 1 discriminator 2
 441 001c 7A88     		ldrh	r2, [r7, #2]
 442 001e BE79     		ldrb	r6, [r7, #6]
1470:Generated_Source\PSoC4/CapSense_Processing.c ****                   ((uint32)ptrRamWdgt->fingerTh + ptrRamWdgt->hysteresis) :
 443              		.loc 1 1470 0 discriminator 2
 444 0020 921B     		subs	r2, r2, r6
 445              	.L28:
 446              	.LVL72:
1472:Generated_Source\PSoC4/CapSense_Processing.c **** 
1473:Generated_Source\PSoC4/CapSense_Processing.c ****         /* Determine new potential sensor state */
1474:Generated_Source\PSoC4/CapSense_Processing.c ****         newStatus = (ptrSnsTmp->diff > touchTh) ? snsMask : 0u;
 447              		.loc 1 1474 0
 448 0022 EE88     		ldrh	r6, [r5, #6]
 449 0024 B242     		cmp	r2, r6
 450 0026 01D3     		bcc	.L35
 451 0028 0022     		movs	r2, #0
 452              	.LVL73:
 453 002a 00E0     		b	.L29
 454              	.LVL74:
 455              	.L35:
 456 002c 0A00     		movs	r2, r1
 457              	.LVL75:
 458              	.L29:
1475:Generated_Source\PSoC4/CapSense_Processing.c **** 
1476:Generated_Source\PSoC4/CapSense_Processing.c ****         /* Sensor state changed ? */
1477:Generated_Source\PSoC4/CapSense_Processing.c ****         if (newStatus != (currStatus & snsMask))
 459              		.loc 1 1477 0 discriminator 4
 460 002e A242     		cmp	r2, r4
 461 0030 02D0     		beq	.L30
1478:Generated_Source\PSoC4/CapSense_Processing.c ****         {
1479:Generated_Source\PSoC4/CapSense_Processing.c ****             /* Decrement de-bounce counter */
1480:Generated_Source\PSoC4/CapSense_Processing.c ****             (*ptrDebounceCnt)--;
 462              		.loc 1 1480 0
 463 0032 1E78     		ldrb	r6, [r3]
 464 0034 013E     		subs	r6, r6, #1
 465 0036 1E70     		strb	r6, [r3]
 466              	.L30:
1481:Generated_Source\PSoC4/CapSense_Processing.c ****         }
1482:Generated_Source\PSoC4/CapSense_Processing.c **** 
1483:Generated_Source\PSoC4/CapSense_Processing.c ****         /*
1484:Generated_Source\PSoC4/CapSense_Processing.c ****         *  This piece of code has two objectives:
1485:Generated_Source\PSoC4/CapSense_Processing.c ****         *  1. Reset de-bounce counter if the sensor state did not change.
1486:Generated_Source\PSoC4/CapSense_Processing.c ****         *     (It is possible that during previous processing cycles sensor
1487:Generated_Source\PSoC4/CapSense_Processing.c ****         *     was active and de-bounce counter was decremented.)
1488:Generated_Source\PSoC4/CapSense_Processing.c ****         *  2. Set new sensor state after successful de-bounce.
1489:Generated_Source\PSoC4/CapSense_Processing.c ****         */
1490:Generated_Source\PSoC4/CapSense_Processing.c ****         if ((newStatus == (currStatus & snsMask)) || (0u == (*ptrDebounceCnt)))
 467              		.loc 1 1490 0
 468 0038 A242     		cmp	r2, r4
ARM GAS  C:\Users\zack.li\AppData\Local\Temp\ccr2IpWf.s 			page 36


 469 003a 02D0     		beq	.L31
 470              		.loc 1 1490 0 is_stmt 0 discriminator 1
 471 003c 1C78     		ldrb	r4, [r3]
 472 003e 002C     		cmp	r4, #0
 473 0040 07D1     		bne	.L32
 474              	.L31:
1491:Generated_Source\PSoC4/CapSense_Processing.c ****         {
1492:Generated_Source\PSoC4/CapSense_Processing.c ****             /* Set new sensor status */
1493:Generated_Source\PSoC4/CapSense_Processing.c ****             currStatus &= ~snsMask;
 475              		.loc 1 1493 0 is_stmt 1
 476 0042 8843     		bics	r0, r1
 477              	.LVL76:
1494:Generated_Source\PSoC4/CapSense_Processing.c ****             currStatus |= newStatus;
 478              		.loc 1 1494 0
 479 0044 1043     		orrs	r0, r2
 480              	.LVL77:
1495:Generated_Source\PSoC4/CapSense_Processing.c **** 
1496:Generated_Source\PSoC4/CapSense_Processing.c ****             /* Reset de-bounce counter */
1497:Generated_Source\PSoC4/CapSense_Processing.c ****             #if (0u != CapSense_OFF_DEBOUNCE_EN)
1498:Generated_Source\PSoC4/CapSense_Processing.c ****                 *ptrDebounceCnt = (0Lu == newStatus) ? ptrRamWdgt->onDebounce : ptrRamWdgt->offDebo
1499:Generated_Source\PSoC4/CapSense_Processing.c ****             #else
1500:Generated_Source\PSoC4/CapSense_Processing.c ****                 *ptrDebounceCnt = (0Lu == newStatus) ? ptrRamWdgt->onDebounce : DEFAULT_OFF_DEBOUNC
 481              		.loc 1 1500 0
 482 0046 002A     		cmp	r2, #0
 483 0048 01D1     		bne	.L36
 484              		.loc 1 1500 0 is_stmt 0 discriminator 1
 485 004a FA79     		ldrb	r2, [r7, #7]
 486              	.LVL78:
 487 004c 00E0     		b	.L33
 488              	.LVL79:
 489              	.L36:
 490              		.loc 1 1500 0
 491 004e 0122     		movs	r2, #1
 492              	.LVL80:
 493              	.L33:
 494              		.loc 1 1500 0 discriminator 4
 495 0050 1A70     		strb	r2, [r3]
 496              	.L32:
1501:Generated_Source\PSoC4/CapSense_Processing.c ****             #endif /* #if (0u != CapSense_OFF_DEBOUNCE_EN) */
1502:Generated_Source\PSoC4/CapSense_Processing.c ****         }
1503:Generated_Source\PSoC4/CapSense_Processing.c **** 
1504:Generated_Source\PSoC4/CapSense_Processing.c ****         /* Move mask to the next sensor */
1505:Generated_Source\PSoC4/CapSense_Processing.c ****         snsMask <<= 1u;
 497              		.loc 1 1505 0 is_stmt 1
 498 0052 4900     		lsls	r1, r1, #1
 499              	.LVL81:
1506:Generated_Source\PSoC4/CapSense_Processing.c **** 
1507:Generated_Source\PSoC4/CapSense_Processing.c ****         ptrSnsTmp++;
 500              		.loc 1 1507 0
 501 0054 0A35     		adds	r5, r5, #10
 502              	.LVL82:
1508:Generated_Source\PSoC4/CapSense_Processing.c ****         ptrDebounceCnt++;
 503              		.loc 1 1508 0
 504 0056 0133     		adds	r3, r3, #1
 505              	.LVL83:
1465:Generated_Source\PSoC4/CapSense_Processing.c ****     {
 506              		.loc 1 1465 0
ARM GAS  C:\Users\zack.li\AppData\Local\Temp\ccr2IpWf.s 			page 37


 507 0058 6246     		mov	r2, ip
 508              	.LVL84:
 509              	.L26:
 510 005a 541E     		subs	r4, r2, #1
 511 005c A446     		mov	ip, r4
 512              	.LVL85:
 513 005e 002A     		cmp	r2, #0
 514 0060 D5D1     		bne	.L34
1509:Generated_Source\PSoC4/CapSense_Processing.c ****     }
1510:Generated_Source\PSoC4/CapSense_Processing.c **** 
1511:Generated_Source\PSoC4/CapSense_Processing.c ****     return currStatus;
1512:Generated_Source\PSoC4/CapSense_Processing.c **** }
 515              		.loc 1 1512 0
 516              		@ sp needed
 517              	.LVL86:
 518              	.LVL87:
 519              	.LVL88:
 520 0062 F0BD     		pop	{r4, r5, r6, r7, pc}
 521              		.cfi_endproc
 522              	.LFE6:
 523              		.size	CapSense_DpProcessButton, .-CapSense_DpProcessButton
 524              		.section	.text.CapSense_DpProcessProximity,"ax",%progbits
 525              		.align	2
 526              		.global	CapSense_DpProcessProximity
 527              		.code	16
 528              		.thumb_func
 529              		.type	CapSense_DpProcessProximity, %function
 530              	CapSense_DpProcessProximity:
 531              	.LFB7:
1513:Generated_Source\PSoC4/CapSense_Processing.c **** #endif /* #if ((0u != CapSense_BUTTON_WIDGET_EN) || (0u != CapSense_CSX_MATRIX_WIDGET_EN)) */
1514:Generated_Source\PSoC4/CapSense_Processing.c **** 
1515:Generated_Source\PSoC4/CapSense_Processing.c **** 
1516:Generated_Source\PSoC4/CapSense_Processing.c **** #if (0u != CapSense_PROXIMITY_WIDGET_EN)
1517:Generated_Source\PSoC4/CapSense_Processing.c **** /*******************************************************************************
1518:Generated_Source\PSoC4/CapSense_Processing.c **** * Function Name: CapSense_DpProcessProximity
1519:Generated_Source\PSoC4/CapSense_Processing.c **** ****************************************************************************//**
1520:Generated_Source\PSoC4/CapSense_Processing.c **** *
1521:Generated_Source\PSoC4/CapSense_Processing.c **** * \brief
1522:Generated_Source\PSoC4/CapSense_Processing.c **** *   Processes the status of the Proximity widget.
1523:Generated_Source\PSoC4/CapSense_Processing.c **** *
1524:Generated_Source\PSoC4/CapSense_Processing.c **** * \details
1525:Generated_Source\PSoC4/CapSense_Processing.c **** *   This API processes the status of the CSD Proximity widget. It applies the
1526:Generated_Source\PSoC4/CapSense_Processing.c **** *   hysteresis and debounce algorithm to each sensor difference value.
1527:Generated_Source\PSoC4/CapSense_Processing.c **** *   The proximity and touch events are considered independently so debounce and
1528:Generated_Source\PSoC4/CapSense_Processing.c **** *   hysteresis are also applied independently.
1529:Generated_Source\PSoC4/CapSense_Processing.c **** *
1530:Generated_Source\PSoC4/CapSense_Processing.c **** *   This API is expected to be called after each new widget scan. If it is
1531:Generated_Source\PSoC4/CapSense_Processing.c **** *   called multiple times for the same scan data the debounce algorithm
1532:Generated_Source\PSoC4/CapSense_Processing.c **** *   will not work properly.
1533:Generated_Source\PSoC4/CapSense_Processing.c **** *
1534:Generated_Source\PSoC4/CapSense_Processing.c **** *   This API does not update any Data Structure registers
1535:Generated_Source\PSoC4/CapSense_Processing.c **** *   except the debounce counters.
1536:Generated_Source\PSoC4/CapSense_Processing.c **** *
1537:Generated_Source\PSoC4/CapSense_Processing.c **** * \param currStatus   The value with the current widget status.
1538:Generated_Source\PSoC4/CapSense_Processing.c **** * \param ptrFlashWdgt The pointer to the Flash Widget Object.
1539:Generated_Source\PSoC4/CapSense_Processing.c **** *
1540:Generated_Source\PSoC4/CapSense_Processing.c **** * \return
ARM GAS  C:\Users\zack.li\AppData\Local\Temp\ccr2IpWf.s 			page 38


1541:Generated_Source\PSoC4/CapSense_Processing.c **** *  Returns the status of the proximity sensors. Each sensor is represented by two bits
1542:Generated_Source\PSoC4/CapSense_Processing.c **** *  that can take the following values:
1543:Generated_Source\PSoC4/CapSense_Processing.c **** *   - 00b not active
1544:Generated_Source\PSoC4/CapSense_Processing.c **** *   - 01b proximity is detected (signal is above finger threshold)
1545:Generated_Source\PSoC4/CapSense_Processing.c **** *   - 11b finger touch is detected (signal is above the touch threshold)
1546:Generated_Source\PSoC4/CapSense_Processing.c **** *
1547:Generated_Source\PSoC4/CapSense_Processing.c **** *******************************************************************************/
1548:Generated_Source\PSoC4/CapSense_Processing.c **** uint32 CapSense_DpProcessProximity(uint32 currStatus, CapSense_FLASH_WD_STRUCT const *ptrFlashWdgt)
1549:Generated_Source\PSoC4/CapSense_Processing.c **** {
 532              		.loc 1 1549 0
 533              		.cfi_startproc
 534              		@ args = 0, pretend = 0, frame = 0
 535              		@ frame_needed = 0, uses_anonymous_args = 0
 536              	.LVL89:
 537 0000 F0B5     		push	{r4, r5, r6, r7, lr}
 538              		.cfi_def_cfa_offset 20
 539              		.cfi_offset 4, -20
 540              		.cfi_offset 5, -16
 541              		.cfi_offset 6, -12
 542              		.cfi_offset 7, -8
 543              		.cfi_offset 14, -4
 544 0002 4F46     		mov	r7, r9
 545 0004 4646     		mov	r6, r8
 546 0006 C0B4     		push	{r6, r7}
 547              		.cfi_def_cfa_offset 28
 548              		.cfi_offset 8, -28
 549              		.cfi_offset 9, -24
 550              	.LVL90:
1550:Generated_Source\PSoC4/CapSense_Processing.c ****     uint32 currTh;
1551:Generated_Source\PSoC4/CapSense_Processing.c ****     uint32 snsCnt;
1552:Generated_Source\PSoC4/CapSense_Processing.c ****     uint32 snsMask;
1553:Generated_Source\PSoC4/CapSense_Processing.c ****     uint32 newStatus;
1554:Generated_Source\PSoC4/CapSense_Processing.c ****     uint32 difference;
1555:Generated_Source\PSoC4/CapSense_Processing.c **** 
1556:Generated_Source\PSoC4/CapSense_Processing.c ****     uint8 *ptrDebounceCnt;
1557:Generated_Source\PSoC4/CapSense_Processing.c ****     CapSense_RAM_SNS_STRUCT *ptrSnsTmp;
1558:Generated_Source\PSoC4/CapSense_Processing.c ****     CapSense_RAM_WD_PROXIMITY_STRUCT *ptrRamWdgt;
1559:Generated_Source\PSoC4/CapSense_Processing.c **** 
1560:Generated_Source\PSoC4/CapSense_Processing.c ****     /* Mask for proximity status bits. (All odd bits.) */
1561:Generated_Source\PSoC4/CapSense_Processing.c ****     const uint32 proxMask = UINT32_ODD_BITS_CONST;
1562:Generated_Source\PSoC4/CapSense_Processing.c **** 
1563:Generated_Source\PSoC4/CapSense_Processing.c ****     ptrSnsTmp = ptrFlashWdgt->ptr2SnsRam;
 551              		.loc 1 1563 0
 552 0008 8B68     		ldr	r3, [r1, #8]
 553 000a 9946     		mov	r9, r3
 554              	.LVL91:
1564:Generated_Source\PSoC4/CapSense_Processing.c ****     ptrRamWdgt = (CapSense_RAM_WD_PROXIMITY_STRUCT *)ptrFlashWdgt->ptr2WdgtRam;
 555              		.loc 1 1564 0
 556 000c 4D68     		ldr	r5, [r1, #4]
 557              	.LVL92:
1565:Generated_Source\PSoC4/CapSense_Processing.c ****     ptrDebounceCnt = ptrFlashWdgt->ptr2DebounceArr;
 558              		.loc 1 1565 0
 559 000e 0A69     		ldr	r2, [r1, #16]
 560              	.LVL93:
1566:Generated_Source\PSoC4/CapSense_Processing.c **** 
1567:Generated_Source\PSoC4/CapSense_Processing.c ****     /* Get number of sensors and multiply it by 2 - proximity and touch statuses per sensor. */
1568:Generated_Source\PSoC4/CapSense_Processing.c ****     snsCnt = (uint32)ptrFlashWdgt->totalNumSns << 1u;
ARM GAS  C:\Users\zack.li\AppData\Local\Temp\ccr2IpWf.s 			page 39


 561              		.loc 1 1568 0
 562 0010 098B     		ldrh	r1, [r1, #24]
 563              	.LVL94:
 564 0012 4900     		lsls	r1, r1, #1
 565              	.LVL95:
1569:Generated_Source\PSoC4/CapSense_Processing.c **** 
1570:Generated_Source\PSoC4/CapSense_Processing.c ****     /* Go through all sensor's status bits */
1571:Generated_Source\PSoC4/CapSense_Processing.c ****     snsMask = 1Lu;
 566              		.loc 1 1571 0
 567 0014 0123     		movs	r3, #1
 568              	.LVL96:
1572:Generated_Source\PSoC4/CapSense_Processing.c ****     for (; snsCnt-- > 0u;)
 569              		.loc 1 1572 0
 570 0016 2CE0     		b	.L38
 571              	.LVL97:
 572              	.L47:
1573:Generated_Source\PSoC4/CapSense_Processing.c ****     {
1574:Generated_Source\PSoC4/CapSense_Processing.c ****         difference = ptrSnsTmp->diff;
 573              		.loc 1 1574 0
 574 0018 4946     		mov	r1, r9
 575 001a CE88     		ldrh	r6, [r1, #6]
 576              	.LVL98:
1575:Generated_Source\PSoC4/CapSense_Processing.c **** 
1576:Generated_Source\PSoC4/CapSense_Processing.c ****         /* Determine current event (proximity - odd; touch - even) and get appropriate threshold. *
1577:Generated_Source\PSoC4/CapSense_Processing.c ****         currTh = ptrRamWdgt->fingerTh;
 577              		.loc 1 1577 0
 578 001c 6988     		ldrh	r1, [r5, #2]
 579              	.LVL99:
1578:Generated_Source\PSoC4/CapSense_Processing.c **** 
1579:Generated_Source\PSoC4/CapSense_Processing.c ****         if (0u == (snsMask & proxMask))
 580              		.loc 1 1579 0
 581 001e 194C     		ldr	r4, .L50
 582              	.LVL100:
 583 0020 2342     		tst	r3, r4
 584 0022 03D1     		bne	.L39
1580:Generated_Source\PSoC4/CapSense_Processing.c ****         {
1581:Generated_Source\PSoC4/CapSense_Processing.c ****             currTh = ptrRamWdgt->proxTouchTh;
 585              		.loc 1 1581 0
 586 0024 298A     		ldrh	r1, [r5, #16]
 587              	.LVL101:
1582:Generated_Source\PSoC4/CapSense_Processing.c ****             ptrSnsTmp++;
 588              		.loc 1 1582 0
 589 0026 0A24     		movs	r4, #10
 590 0028 A046     		mov	r8, r4
 591 002a C144     		add	r9, r9, r8
 592              	.LVL102:
 593              	.L39:
1583:Generated_Source\PSoC4/CapSense_Processing.c ****         }
1584:Generated_Source\PSoC4/CapSense_Processing.c **** 
1585:Generated_Source\PSoC4/CapSense_Processing.c ****         /* Calculate finger threshold applying hysteresis based on current sensor state. */
1586:Generated_Source\PSoC4/CapSense_Processing.c ****         currTh = (0u == (currStatus & snsMask)) ? (currTh + ptrRamWdgt->hysteresis) : (currTh - ptr
 594              		.loc 1 1586 0
 595 002c 1C00     		movs	r4, r3
 596 002e 0440     		ands	r4, r0
 597 0030 03D1     		bne	.L40
 598              		.loc 1 1586 0 is_stmt 0 discriminator 1
 599 0032 AF79     		ldrb	r7, [r5, #6]
ARM GAS  C:\Users\zack.li\AppData\Local\Temp\ccr2IpWf.s 			page 40


 600 0034 B846     		mov	r8, r7
 601 0036 4144     		add	r1, r1, r8
 602              	.LVL103:
 603 0038 01E0     		b	.L41
 604              	.LVL104:
 605              	.L40:
 606              		.loc 1 1586 0 discriminator 2
 607 003a AF79     		ldrb	r7, [r5, #6]
 608 003c C91B     		subs	r1, r1, r7
 609              	.LVL105:
 610              	.L41:
1587:Generated_Source\PSoC4/CapSense_Processing.c **** 
1588:Generated_Source\PSoC4/CapSense_Processing.c ****         /* Determine new potential sensor state before de-bounce */
1589:Generated_Source\PSoC4/CapSense_Processing.c ****         newStatus = (difference > currTh) ? snsMask : 0Lu;
 611              		.loc 1 1589 0 is_stmt 1 discriminator 4
 612 003e B142     		cmp	r1, r6
 613 0040 01D3     		bcc	.L48
 614              		.loc 1 1589 0 is_stmt 0
 615 0042 0021     		movs	r1, #0
 616              	.LVL106:
 617 0044 00E0     		b	.L42
 618              	.LVL107:
 619              	.L48:
 620 0046 1900     		movs	r1, r3
 621              	.LVL108:
 622              	.L42:
1590:Generated_Source\PSoC4/CapSense_Processing.c **** 
1591:Generated_Source\PSoC4/CapSense_Processing.c ****         /* Sensor state changed ? */
1592:Generated_Source\PSoC4/CapSense_Processing.c ****         if (newStatus != (currStatus & snsMask))
 623              		.loc 1 1592 0 is_stmt 1 discriminator 4
 624 0048 A142     		cmp	r1, r4
 625 004a 02D0     		beq	.L43
1593:Generated_Source\PSoC4/CapSense_Processing.c ****         {
1594:Generated_Source\PSoC4/CapSense_Processing.c ****             /* Decrement de-bounce counter */
1595:Generated_Source\PSoC4/CapSense_Processing.c ****             (*ptrDebounceCnt)--;
 626              		.loc 1 1595 0
 627 004c 1678     		ldrb	r6, [r2]
 628              	.LVL109:
 629 004e 013E     		subs	r6, r6, #1
 630 0050 1670     		strb	r6, [r2]
 631              	.L43:
1596:Generated_Source\PSoC4/CapSense_Processing.c ****         }
1597:Generated_Source\PSoC4/CapSense_Processing.c **** 
1598:Generated_Source\PSoC4/CapSense_Processing.c ****         /*
1599:Generated_Source\PSoC4/CapSense_Processing.c ****         *  This piece of code has two objectives:
1600:Generated_Source\PSoC4/CapSense_Processing.c ****         *  1. Reset de-bounce counter if new sensor state has not changed.
1601:Generated_Source\PSoC4/CapSense_Processing.c ****         *     (It is possible that during previous processing cycles the sensor
1602:Generated_Source\PSoC4/CapSense_Processing.c ****         *     state was different which caused de-bounce counter change.)
1603:Generated_Source\PSoC4/CapSense_Processing.c ****         *  2. Set new sensor state after successful de-bounce.
1604:Generated_Source\PSoC4/CapSense_Processing.c ****         */
1605:Generated_Source\PSoC4/CapSense_Processing.c ****         if ((newStatus == (currStatus & snsMask)) || (0u == (*ptrDebounceCnt)))
 632              		.loc 1 1605 0
 633 0052 A142     		cmp	r1, r4
 634 0054 02D0     		beq	.L44
 635              		.loc 1 1605 0 is_stmt 0 discriminator 1
 636 0056 1478     		ldrb	r4, [r2]
 637 0058 002C     		cmp	r4, #0
ARM GAS  C:\Users\zack.li\AppData\Local\Temp\ccr2IpWf.s 			page 41


 638 005a 07D1     		bne	.L45
 639              	.L44:
1606:Generated_Source\PSoC4/CapSense_Processing.c ****         {
1607:Generated_Source\PSoC4/CapSense_Processing.c ****             /* Set new sensor status */
1608:Generated_Source\PSoC4/CapSense_Processing.c ****             currStatus &= ~snsMask;
 640              		.loc 1 1608 0 is_stmt 1
 641 005c 9843     		bics	r0, r3
 642              	.LVL110:
1609:Generated_Source\PSoC4/CapSense_Processing.c ****             currStatus |= newStatus;
 643              		.loc 1 1609 0
 644 005e 0843     		orrs	r0, r1
 645              	.LVL111:
1610:Generated_Source\PSoC4/CapSense_Processing.c **** 
1611:Generated_Source\PSoC4/CapSense_Processing.c ****             /* Reset de-bounce counter */
1612:Generated_Source\PSoC4/CapSense_Processing.c ****             #if (0u != CapSense_OFF_DEBOUNCE_EN)
1613:Generated_Source\PSoC4/CapSense_Processing.c ****                 *ptrDebounceCnt = (0Lu == newStatus) ? ptrRamWdgt->onDebounce : ptrRamWdgt->offDebo
1614:Generated_Source\PSoC4/CapSense_Processing.c ****             #else
1615:Generated_Source\PSoC4/CapSense_Processing.c ****                 *ptrDebounceCnt = (0Lu == newStatus) ? ptrRamWdgt->onDebounce : DEFAULT_OFF_DEBOUNC
 646              		.loc 1 1615 0
 647 0060 0029     		cmp	r1, #0
 648 0062 01D1     		bne	.L49
 649              		.loc 1 1615 0 is_stmt 0 discriminator 1
 650 0064 E979     		ldrb	r1, [r5, #7]
 651              	.LVL112:
 652 0066 00E0     		b	.L46
 653              	.LVL113:
 654              	.L49:
 655              		.loc 1 1615 0
 656 0068 0121     		movs	r1, #1
 657              	.LVL114:
 658              	.L46:
 659              		.loc 1 1615 0 discriminator 4
 660 006a 1170     		strb	r1, [r2]
 661              	.L45:
1616:Generated_Source\PSoC4/CapSense_Processing.c ****             #endif /* #if (0u != CapSense_OFF_DEBOUNCE_EN) */
1617:Generated_Source\PSoC4/CapSense_Processing.c ****         }
1618:Generated_Source\PSoC4/CapSense_Processing.c **** 
1619:Generated_Source\PSoC4/CapSense_Processing.c ****         ptrDebounceCnt++;
 662              		.loc 1 1619 0 is_stmt 1
 663 006c 0132     		adds	r2, r2, #1
 664              	.LVL115:
1620:Generated_Source\PSoC4/CapSense_Processing.c **** 
1621:Generated_Source\PSoC4/CapSense_Processing.c ****         /* Move sensor mask to the next sensor */
1622:Generated_Source\PSoC4/CapSense_Processing.c ****         snsMask <<= 1u;
 665              		.loc 1 1622 0
 666 006e 5B00     		lsls	r3, r3, #1
 667              	.LVL116:
1572:Generated_Source\PSoC4/CapSense_Processing.c ****     {
 668              		.loc 1 1572 0
 669 0070 6146     		mov	r1, ip
 670              	.LVL117:
 671              	.L38:
 672 0072 4C1E     		subs	r4, r1, #1
 673 0074 A446     		mov	ip, r4
 674              	.LVL118:
 675 0076 0029     		cmp	r1, #0
 676 0078 CED1     		bne	.L47
ARM GAS  C:\Users\zack.li\AppData\Local\Temp\ccr2IpWf.s 			page 42


1623:Generated_Source\PSoC4/CapSense_Processing.c ****     }
1624:Generated_Source\PSoC4/CapSense_Processing.c **** 
1625:Generated_Source\PSoC4/CapSense_Processing.c ****     return currStatus;
1626:Generated_Source\PSoC4/CapSense_Processing.c **** }
 677              		.loc 1 1626 0
 678              		@ sp needed
 679              	.LVL119:
 680              	.LVL120:
 681              	.LVL121:
 682 007a 0CBC     		pop	{r2, r3}
 683 007c 9046     		mov	r8, r2
 684 007e 9946     		mov	r9, r3
 685 0080 F0BD     		pop	{r4, r5, r6, r7, pc}
 686              	.L51:
 687 0082 C046     		.align	2
 688              	.L50:
 689 0084 55555555 		.word	1431655765
 690              		.cfi_endproc
 691              	.LFE7:
 692              		.size	CapSense_DpProcessProximity, .-CapSense_DpProcessProximity
 693              		.section	.text.CapSense_DpProcessCsdWidgetStatus,"ax",%progbits
 694              		.align	2
 695              		.global	CapSense_DpProcessCsdWidgetStatus
 696              		.code	16
 697              		.thumb_func
 698              		.type	CapSense_DpProcessCsdWidgetStatus, %function
 699              	CapSense_DpProcessCsdWidgetStatus:
 700              	.LFB4:
1247:Generated_Source\PSoC4/CapSense_Processing.c ****     uint32 sensorStatus;
 701              		.loc 1 1247 0
 702              		.cfi_startproc
 703              		@ args = 0, pretend = 0, frame = 0
 704              		@ frame_needed = 0, uses_anonymous_args = 0
 705              	.LVL122:
 706 0000 70B5     		push	{r4, r5, r6, lr}
 707              		.cfi_def_cfa_offset 16
 708              		.cfi_offset 4, -16
 709              		.cfi_offset 5, -12
 710              		.cfi_offset 6, -8
 711              		.cfi_offset 14, -4
 712 0002 0400     		movs	r4, r0
1253:Generated_Source\PSoC4/CapSense_Processing.c ****     sensorStatus = CapSense_dsRam.snsStatus[widgetId];
 713              		.loc 1 1253 0
 714 0004 8A7E     		ldrb	r2, [r1, #26]
 715              	.LVL123:
1254:Generated_Source\PSoC4/CapSense_Processing.c **** 
 716              		.loc 1 1254 0
 717 0006 174B     		ldr	r3, .L60
 718 0008 1B18     		adds	r3, r3, r0
 719 000a 1D7E     		ldrb	r5, [r3, #24]
 720              	.LVL124:
1256:Generated_Source\PSoC4/CapSense_Processing.c ****     {
 721              		.loc 1 1256 0
 722 000c 012A     		cmp	r2, #1
 723 000e 02D0     		beq	.L54
 724 0010 062A     		cmp	r2, #6
 725 0012 05D0     		beq	.L55
ARM GAS  C:\Users\zack.li\AppData\Local\Temp\ccr2IpWf.s 			page 43


 726 0014 09E0     		b	.L59
 727              	.L54:
1260:Generated_Source\PSoC4/CapSense_Processing.c ****             break;
 728              		.loc 1 1260 0
 729 0016 2800     		movs	r0, r5
 730              	.LVL125:
 731 0018 FFF7FEFF 		bl	CapSense_DpProcessButton
 732              	.LVL126:
 733 001c 0500     		movs	r5, r0
 734              	.LVL127:
1261:Generated_Source\PSoC4/CapSense_Processing.c ****     #endif /* #if (0u != CapSense_BUTTON_WIDGET_EN) */
 735              		.loc 1 1261 0
 736 001e 07E0     		b	.L56
 737              	.LVL128:
 738              	.L55:
1288:Generated_Source\PSoC4/CapSense_Processing.c ****             break;
 739              		.loc 1 1288 0
 740 0020 2800     		movs	r0, r5
 741              	.LVL129:
 742 0022 FFF7FEFF 		bl	CapSense_DpProcessProximity
 743              	.LVL130:
 744 0026 0500     		movs	r5, r0
 745              	.LVL131:
1289:Generated_Source\PSoC4/CapSense_Processing.c ****     #endif /* #if (0u != CapSense_PROXIMITY_WIDGET_EN) */
 746              		.loc 1 1289 0
 747 0028 02E0     		b	.L56
 748              	.LVL132:
 749              	.L59:
1293:Generated_Source\PSoC4/CapSense_Processing.c ****         break;
 750              		.loc 1 1293 0 discriminator 1
 751 002a 0020     		movs	r0, #0
 752              	.LVL133:
 753 002c FFF7FEFF 		bl	CyHalt
 754              	.LVL134:
 755              	.L56:
1297:Generated_Source\PSoC4/CapSense_Processing.c **** 
 756              		.loc 1 1297 0
 757 0030 0C4B     		ldr	r3, .L60
 758 0032 1B19     		adds	r3, r3, r4
 759 0034 1D76     		strb	r5, [r3, #24]
1300:Generated_Source\PSoC4/CapSense_Processing.c ****     wdStatusMask = CapSense_GET_WDGT_STATUS_MASK(widgetId);
 760              		.loc 1 1300 0
 761 0036 6309     		lsrs	r3, r4, #5
 762              	.LVL135:
1301:Generated_Source\PSoC4/CapSense_Processing.c **** 
 763              		.loc 1 1301 0
 764 0038 1F22     		movs	r2, #31
 765 003a 1440     		ands	r4, r2
 766              	.LVL136:
 767 003c 1E3A     		subs	r2, r2, #30
 768 003e A240     		lsls	r2, r2, r4
 769              	.LVL137:
1304:Generated_Source\PSoC4/CapSense_Processing.c ****     {
 770              		.loc 1 1304 0
 771 0040 002D     		cmp	r5, #0
 772 0042 07D1     		bne	.L57
1306:Generated_Source\PSoC4/CapSense_Processing.c ****     }
ARM GAS  C:\Users\zack.li\AppData\Local\Temp\ccr2IpWf.s 			page 44


 773              		.loc 1 1306 0
 774 0044 0433     		adds	r3, r3, #4
 775              	.LVL138:
 776 0046 9B00     		lsls	r3, r3, #2
 777              	.LVL139:
 778 0048 0649     		ldr	r1, .L60
 779 004a CB18     		adds	r3, r1, r3
 780 004c 5968     		ldr	r1, [r3, #4]
 781 004e 9143     		bics	r1, r2
 782 0050 5960     		str	r1, [r3, #4]
 783 0052 06E0     		b	.L52
 784              	.LVL140:
 785              	.L57:
1310:Generated_Source\PSoC4/CapSense_Processing.c ****     }
 786              		.loc 1 1310 0
 787 0054 0433     		adds	r3, r3, #4
 788              	.LVL141:
 789 0056 9B00     		lsls	r3, r3, #2
 790              	.LVL142:
 791 0058 0249     		ldr	r1, .L60
 792 005a CB18     		adds	r3, r1, r3
 793 005c 5968     		ldr	r1, [r3, #4]
 794 005e 0A43     		orrs	r2, r1
 795              	.LVL143:
 796 0060 5A60     		str	r2, [r3, #4]
 797              	.L52:
1312:Generated_Source\PSoC4/CapSense_Processing.c **** #endif /* #if (0u != CapSense_TOTAL_CSD_WIDGETS) */
 798              		.loc 1 1312 0
 799              		@ sp needed
 800              	.LVL144:
 801              	.LVL145:
 802 0062 70BD     		pop	{r4, r5, r6, pc}
 803              	.L61:
 804              		.align	2
 805              	.L60:
 806 0064 00000000 		.word	CapSense_dsRam
 807              		.cfi_endproc
 808              	.LFE4:
 809              		.size	CapSense_DpProcessCsdWidgetStatus, .-CapSense_DpProcessCsdWidgetStatus
 810              		.text
 811              	.Letext0:
 812              		.file 2 "Generated_Source\\PSoC4\\cytypes.h"
 813              		.file 3 "c:\\program files (x86)\\cypress\\psoc creator\\4.2\\psoc creator\\import\\gnu\\arm\\5.4.
 814              		.file 4 "Generated_Source\\PSoC4\\CapSense_Configuration.h"
 815              		.file 5 "Generated_Source\\PSoC4\\CapSense_Structure.h"
 816              		.file 6 "c:\\program files (x86)\\cypress\\psoc creator\\4.2\\psoc creator\\import\\gnu\\arm\\5.4.
 817              		.file 7 "Generated_Source\\PSoC4\\CapSense_Filter.h"
 818              		.file 8 "Generated_Source\\PSoC4\\CyLib.h"