ARM GAS  C:\Users\zack.li\AppData\Local\Temp\ccH890rU.s 			page 1


   1              		.syntax unified
   2              		.cpu cortex-m0plus
   3              		.fpu softvfp
   4              		.eabi_attribute 20, 1
   5              		.eabi_attribute 21, 1
   6              		.eabi_attribute 23, 3
   7              		.eabi_attribute 24, 1
   8              		.eabi_attribute 25, 1
   9              		.eabi_attribute 26, 1
  10              		.eabi_attribute 30, 1
  11              		.eabi_attribute 34, 0
  12              		.eabi_attribute 18, 4
  13              		.thumb
  14              		.syntax unified
  15              		.file	"CapSense_Filter.c"
  16              		.text
  17              	.Ltext0:
  18              		.cfi_sections	.debug_frame
  19              		.section	.text.CapSense_FtInitializeBaselineChannel,"ax",%progbits
  20              		.align	2
  21              		.global	CapSense_FtInitializeBaselineChannel
  22              		.code	16
  23              		.thumb_func
  24              		.type	CapSense_FtInitializeBaselineChannel, %function
  25              	CapSense_FtInitializeBaselineChannel:
  26              	.LFB10:
  27              		.file 1 "Generated_Source\\PSoC4\\CapSense_Filter.c"
   1:Generated_Source\PSoC4/CapSense_Filter.c **** /***************************************************************************//**
   2:Generated_Source\PSoC4/CapSense_Filter.c **** * \file CapSense_Filter.c
   3:Generated_Source\PSoC4/CapSense_Filter.c **** * \version 7.0
   4:Generated_Source\PSoC4/CapSense_Filter.c **** *
   5:Generated_Source\PSoC4/CapSense_Filter.c **** * \brief
   6:Generated_Source\PSoC4/CapSense_Filter.c **** *   This file contains the implementation source code to implement all
   7:Generated_Source\PSoC4/CapSense_Filter.c **** *   firmware filters.
   8:Generated_Source\PSoC4/CapSense_Filter.c **** *
   9:Generated_Source\PSoC4/CapSense_Filter.c **** * \see CapSense v7.0 Datasheet
  10:Generated_Source\PSoC4/CapSense_Filter.c **** *
  11:Generated_Source\PSoC4/CapSense_Filter.c **** *//*****************************************************************************
  12:Generated_Source\PSoC4/CapSense_Filter.c **** * Copyright (2016-2019), Cypress Semiconductor Corporation.
  13:Generated_Source\PSoC4/CapSense_Filter.c **** ********************************************************************************
  14:Generated_Source\PSoC4/CapSense_Filter.c **** * This software is owned by Cypress Semiconductor Corporation (Cypress) and is
  15:Generated_Source\PSoC4/CapSense_Filter.c **** * protected by and subject to worldwide patent protection (United States and
  16:Generated_Source\PSoC4/CapSense_Filter.c **** * foreign), United States copyright laws and international treaty provisions.
  17:Generated_Source\PSoC4/CapSense_Filter.c **** * Cypress hereby grants to licensee a personal, non-exclusive, non-transferable
  18:Generated_Source\PSoC4/CapSense_Filter.c **** * license to copy, use, modify, create derivative works of, and compile the
  19:Generated_Source\PSoC4/CapSense_Filter.c **** * Cypress Source Code and derivative works for the sole purpose of creating
  20:Generated_Source\PSoC4/CapSense_Filter.c **** * custom software in support of licensee product to be used only in conjunction
  21:Generated_Source\PSoC4/CapSense_Filter.c **** * with a Cypress integrated circuit as specified in the applicable agreement.
  22:Generated_Source\PSoC4/CapSense_Filter.c **** * Any reproduction, modification, translation, compilation, or representation of
  23:Generated_Source\PSoC4/CapSense_Filter.c **** * this software except as specified above is prohibited without the express
  24:Generated_Source\PSoC4/CapSense_Filter.c **** * written permission of Cypress.
  25:Generated_Source\PSoC4/CapSense_Filter.c **** *
  26:Generated_Source\PSoC4/CapSense_Filter.c **** * Disclaimer: CYPRESS MAKES NO WARRANTY OF ANY KIND, EXPRESS OR IMPLIED, WITH
  27:Generated_Source\PSoC4/CapSense_Filter.c **** * REGARD TO THIS MATERIAL, INCLUDING, BUT NOT LIMITED TO, THE IMPLIED
  28:Generated_Source\PSoC4/CapSense_Filter.c **** * WARRANTIES OF MERCHANTABILITY AND FITNESS FOR A PARTICULAR PURPOSE.
  29:Generated_Source\PSoC4/CapSense_Filter.c **** * Cypress reserves the right to make changes without further notice to the
  30:Generated_Source\PSoC4/CapSense_Filter.c **** * materials described herein. Cypress does not assume any liability arising out
ARM GAS  C:\Users\zack.li\AppData\Local\Temp\ccH890rU.s 			page 2


  31:Generated_Source\PSoC4/CapSense_Filter.c **** * of the application or use of any product or circuit described herein. Cypress
  32:Generated_Source\PSoC4/CapSense_Filter.c **** * does not authorize its products for use as critical components in life-support
  33:Generated_Source\PSoC4/CapSense_Filter.c **** * systems where a malfunction or failure may reasonably be expected to result in
  34:Generated_Source\PSoC4/CapSense_Filter.c **** * significant injury to the user. The inclusion of Cypress' product in a life-
  35:Generated_Source\PSoC4/CapSense_Filter.c **** * support systems application implies that the manufacturer assumes all risk of
  36:Generated_Source\PSoC4/CapSense_Filter.c **** * such use and in doing so indemnifies Cypress against all charges. Use may be
  37:Generated_Source\PSoC4/CapSense_Filter.c **** * limited by and subject to the applicable Cypress software license agreement.
  38:Generated_Source\PSoC4/CapSense_Filter.c **** *******************************************************************************/
  39:Generated_Source\PSoC4/CapSense_Filter.c **** 
  40:Generated_Source\PSoC4/CapSense_Filter.c **** #include "CapSense_Filter.h"
  41:Generated_Source\PSoC4/CapSense_Filter.c **** #include "CapSense_Configuration.h"
  42:Generated_Source\PSoC4/CapSense_Filter.c **** 
  43:Generated_Source\PSoC4/CapSense_Filter.c **** #if (0 != (CapSense_CSD_AUTOTUNE & CapSense_CSD_SS_TH_EN))
  44:Generated_Source\PSoC4/CapSense_Filter.c ****     #include "CapSense_SmartSense_LL.h"
  45:Generated_Source\PSoC4/CapSense_Filter.c **** #endif /* (0 != (CapSense_CSD_AUTOTUNE & CapSense_CSD_SS_TH_EN)) */
  46:Generated_Source\PSoC4/CapSense_Filter.c **** 
  47:Generated_Source\PSoC4/CapSense_Filter.c **** #if (CapSense_ENABLE == CapSense_SELF_TEST_EN)
  48:Generated_Source\PSoC4/CapSense_Filter.c ****     #include "CapSense_SelfTest.h"
  49:Generated_Source\PSoC4/CapSense_Filter.c **** #endif
  50:Generated_Source\PSoC4/CapSense_Filter.c **** 
  51:Generated_Source\PSoC4/CapSense_Filter.c **** /*******************************************************************************
  52:Generated_Source\PSoC4/CapSense_Filter.c **** * Function Name: CapSense_FtInitialize
  53:Generated_Source\PSoC4/CapSense_Filter.c **** ****************************************************************************//**
  54:Generated_Source\PSoC4/CapSense_Filter.c **** *
  55:Generated_Source\PSoC4/CapSense_Filter.c **** * \brief
  56:Generated_Source\PSoC4/CapSense_Filter.c **** *  Initializes all the firmware filter history, except the baseline filter.
  57:Generated_Source\PSoC4/CapSense_Filter.c **** *
  58:Generated_Source\PSoC4/CapSense_Filter.c **** * \details
  59:Generated_Source\PSoC4/CapSense_Filter.c **** *  Initializes all the firmware filter history, except the baseline filter.
  60:Generated_Source\PSoC4/CapSense_Filter.c **** *
  61:Generated_Source\PSoC4/CapSense_Filter.c **** *******************************************************************************/
  62:Generated_Source\PSoC4/CapSense_Filter.c **** void CapSense_FtInitialize(void)
  63:Generated_Source\PSoC4/CapSense_Filter.c **** {
  64:Generated_Source\PSoC4/CapSense_Filter.c ****     #if ((CapSense_ENABLE == CapSense_RC_FILTER_EN) || \
  65:Generated_Source\PSoC4/CapSense_Filter.c ****          (0u != (CapSense_CSD_AUTOTUNE & CapSense_CSD_SS_TH_EN)))
  66:Generated_Source\PSoC4/CapSense_Filter.c ****         CapSense_InitializeAllFilters();
  67:Generated_Source\PSoC4/CapSense_Filter.c ****     #endif /* ((CapSense_ENABLE == CapSense_RC_FILTER_EN) || \
  68:Generated_Source\PSoC4/CapSense_Filter.c ****                (0u != (CapSense_CSD_AUTOTUNE & CapSense_CSD_SS_TH_EN))) */
  69:Generated_Source\PSoC4/CapSense_Filter.c **** }
  70:Generated_Source\PSoC4/CapSense_Filter.c **** 
  71:Generated_Source\PSoC4/CapSense_Filter.c **** 
  72:Generated_Source\PSoC4/CapSense_Filter.c **** /*******************************************************************************
  73:Generated_Source\PSoC4/CapSense_Filter.c **** * Function Name: CapSense_UpdateAllBaselines
  74:Generated_Source\PSoC4/CapSense_Filter.c **** ****************************************************************************//**
  75:Generated_Source\PSoC4/CapSense_Filter.c **** *
  76:Generated_Source\PSoC4/CapSense_Filter.c **** * \brief
  77:Generated_Source\PSoC4/CapSense_Filter.c **** *  Updates the baseline for all the sensors in all the widgets.
  78:Generated_Source\PSoC4/CapSense_Filter.c **** *
  79:Generated_Source\PSoC4/CapSense_Filter.c **** * \details
  80:Generated_Source\PSoC4/CapSense_Filter.c **** *  Updates the baseline for all the sensors in all the widgets. Baseline updating is a
  81:Generated_Source\PSoC4/CapSense_Filter.c **** *  part of data processing performed by the process functions. So, no need to
  82:Generated_Source\PSoC4/CapSense_Filter.c **** *  call this function except a specific process flow is implemented.
  83:Generated_Source\PSoC4/CapSense_Filter.c **** *
  84:Generated_Source\PSoC4/CapSense_Filter.c **** *  This function ignores the value of the wdgtEnable register. Multiple calling
  85:Generated_Source\PSoC4/CapSense_Filter.c **** *  of this function (or any other function with a baseline updating task)
  86:Generated_Source\PSoC4/CapSense_Filter.c **** *  without scanning leads to unexpected behavior.
  87:Generated_Source\PSoC4/CapSense_Filter.c **** *
ARM GAS  C:\Users\zack.li\AppData\Local\Temp\ccH890rU.s 			page 3


  88:Generated_Source\PSoC4/CapSense_Filter.c **** *  If the Self-test library is enabled, this function executes the baseline duplication
  89:Generated_Source\PSoC4/CapSense_Filter.c **** *  test. Refer to CapSense_CheckBaselineDuplication() for details.
  90:Generated_Source\PSoC4/CapSense_Filter.c **** *
  91:Generated_Source\PSoC4/CapSense_Filter.c **** * \return
  92:Generated_Source\PSoC4/CapSense_Filter.c **** *  Returns the status of the update baseline operation of all the widgets:
  93:Generated_Source\PSoC4/CapSense_Filter.c **** *  - CYRET_SUCCESS - The operation is successfully completed.
  94:Generated_Source\PSoC4/CapSense_Filter.c **** *  - CYRET_BAD_DATA - The baseline processing failed.
  95:Generated_Source\PSoC4/CapSense_Filter.c **** *
  96:Generated_Source\PSoC4/CapSense_Filter.c **** *******************************************************************************/
  97:Generated_Source\PSoC4/CapSense_Filter.c **** cystatus CapSense_UpdateAllBaselines(void)
  98:Generated_Source\PSoC4/CapSense_Filter.c **** {
  99:Generated_Source\PSoC4/CapSense_Filter.c ****     uint32 widgetId;
 100:Generated_Source\PSoC4/CapSense_Filter.c ****     cystatus bslnStatus = CYRET_SUCCESS;
 101:Generated_Source\PSoC4/CapSense_Filter.c **** 
 102:Generated_Source\PSoC4/CapSense_Filter.c ****     for(widgetId = CapSense_TOTAL_WIDGETS; widgetId-- > 0u;)
 103:Generated_Source\PSoC4/CapSense_Filter.c ****     {
 104:Generated_Source\PSoC4/CapSense_Filter.c ****         bslnStatus |= CapSense_UpdateWidgetBaseline(widgetId);
 105:Generated_Source\PSoC4/CapSense_Filter.c ****     }
 106:Generated_Source\PSoC4/CapSense_Filter.c **** 
 107:Generated_Source\PSoC4/CapSense_Filter.c ****     return(bslnStatus);
 108:Generated_Source\PSoC4/CapSense_Filter.c **** }
 109:Generated_Source\PSoC4/CapSense_Filter.c **** 
 110:Generated_Source\PSoC4/CapSense_Filter.c **** 
 111:Generated_Source\PSoC4/CapSense_Filter.c **** /*******************************************************************************
 112:Generated_Source\PSoC4/CapSense_Filter.c **** * Function Name: CapSense_UpdateWidgetBaseline
 113:Generated_Source\PSoC4/CapSense_Filter.c **** ****************************************************************************//**
 114:Generated_Source\PSoC4/CapSense_Filter.c **** *
 115:Generated_Source\PSoC4/CapSense_Filter.c **** * \brief
 116:Generated_Source\PSoC4/CapSense_Filter.c **** *  Updates the baselines for all the sensors in a widget specified by the input
 117:Generated_Source\PSoC4/CapSense_Filter.c **** *  parameter.
 118:Generated_Source\PSoC4/CapSense_Filter.c **** *
 119:Generated_Source\PSoC4/CapSense_Filter.c **** * \details
 120:Generated_Source\PSoC4/CapSense_Filter.c **** *  This function performs exactly the same tasks as
 121:Generated_Source\PSoC4/CapSense_Filter.c **** *  CapSense_UpdateAllBaselines() but only for a specified widget.
 122:Generated_Source\PSoC4/CapSense_Filter.c **** *
 123:Generated_Source\PSoC4/CapSense_Filter.c **** *  This function ignores the value of the wdgtEnable register. Multiple calling
 124:Generated_Source\PSoC4/CapSense_Filter.c **** *  of this function (or any other function with a baseline updating task)
 125:Generated_Source\PSoC4/CapSense_Filter.c **** *  without scanning leads to unexpected behavior.
 126:Generated_Source\PSoC4/CapSense_Filter.c **** *
 127:Generated_Source\PSoC4/CapSense_Filter.c **** *  If the Self-test library is enabled, this function executes the baseline duplication
 128:Generated_Source\PSoC4/CapSense_Filter.c **** *  test. Refer to CapSense_CheckBaselineDuplication() for details.
 129:Generated_Source\PSoC4/CapSense_Filter.c **** *
 130:Generated_Source\PSoC4/CapSense_Filter.c **** * \param widgetId
 131:Generated_Source\PSoC4/CapSense_Filter.c **** *  Specifies the ID number of the widget to update the baseline of all the sensors
 132:Generated_Source\PSoC4/CapSense_Filter.c **** *  in the widget.
 133:Generated_Source\PSoC4/CapSense_Filter.c **** *  A macro for the widget ID can be found in the
 134:Generated_Source\PSoC4/CapSense_Filter.c **** *  CapSense Configuration header file defined as
 135:Generated_Source\PSoC4/CapSense_Filter.c **** *  CapSense_<WidgetName>_WDGT_ID.
 136:Generated_Source\PSoC4/CapSense_Filter.c **** *
 137:Generated_Source\PSoC4/CapSense_Filter.c **** * \return
 138:Generated_Source\PSoC4/CapSense_Filter.c **** *  Returns the status of the specified widget update baseline operation:
 139:Generated_Source\PSoC4/CapSense_Filter.c **** *  - CYRET_SUCCESS - The operation is successfully completed.
 140:Generated_Source\PSoC4/CapSense_Filter.c **** *  - CYRET_BAD_DATA - The baseline processing is failed.
 141:Generated_Source\PSoC4/CapSense_Filter.c **** *
 142:Generated_Source\PSoC4/CapSense_Filter.c **** *******************************************************************************/
 143:Generated_Source\PSoC4/CapSense_Filter.c **** cystatus CapSense_UpdateWidgetBaseline(uint32 widgetId)
 144:Generated_Source\PSoC4/CapSense_Filter.c **** {
ARM GAS  C:\Users\zack.li\AppData\Local\Temp\ccH890rU.s 			page 4


 145:Generated_Source\PSoC4/CapSense_Filter.c ****     uint32 sensorId;
 146:Generated_Source\PSoC4/CapSense_Filter.c ****     uint32 sensorsNumber;
 147:Generated_Source\PSoC4/CapSense_Filter.c **** 
 148:Generated_Source\PSoC4/CapSense_Filter.c ****     CapSense_FLASH_WD_STRUCT const *ptrWidget = &CapSense_dsFlash.wdgtArray[widgetId];
 149:Generated_Source\PSoC4/CapSense_Filter.c ****     cystatus bslnStatus = CYRET_SUCCESS;
 150:Generated_Source\PSoC4/CapSense_Filter.c **** 
 151:Generated_Source\PSoC4/CapSense_Filter.c ****     /* Find total amount of sensors in specified widget */
 152:Generated_Source\PSoC4/CapSense_Filter.c ****     sensorsNumber = CapSense_GET_SNS_CNT_BY_PTR(ptrWidget);
 153:Generated_Source\PSoC4/CapSense_Filter.c **** 
 154:Generated_Source\PSoC4/CapSense_Filter.c ****     for(sensorId = sensorsNumber; sensorId-- > 0u;)
 155:Generated_Source\PSoC4/CapSense_Filter.c ****     {
 156:Generated_Source\PSoC4/CapSense_Filter.c ****         bslnStatus |= CapSense_UpdateSensorBaseline(widgetId, sensorId);
 157:Generated_Source\PSoC4/CapSense_Filter.c ****     }
 158:Generated_Source\PSoC4/CapSense_Filter.c **** 
 159:Generated_Source\PSoC4/CapSense_Filter.c ****     return(bslnStatus);
 160:Generated_Source\PSoC4/CapSense_Filter.c **** }
 161:Generated_Source\PSoC4/CapSense_Filter.c **** 
 162:Generated_Source\PSoC4/CapSense_Filter.c **** 
 163:Generated_Source\PSoC4/CapSense_Filter.c **** /*******************************************************************************
 164:Generated_Source\PSoC4/CapSense_Filter.c **** * Function Name: CapSense_UpdateSensorBaseline
 165:Generated_Source\PSoC4/CapSense_Filter.c **** ****************************************************************************//**
 166:Generated_Source\PSoC4/CapSense_Filter.c **** *
 167:Generated_Source\PSoC4/CapSense_Filter.c **** * \brief
 168:Generated_Source\PSoC4/CapSense_Filter.c **** *  Updates the baseline for a sensor in a widget specified by the input parameters.
 169:Generated_Source\PSoC4/CapSense_Filter.c **** *
 170:Generated_Source\PSoC4/CapSense_Filter.c **** * \details
 171:Generated_Source\PSoC4/CapSense_Filter.c **** *  This function performs exactly the same tasks as
 172:Generated_Source\PSoC4/CapSense_Filter.c **** *  CapSense_UpdateAllBaselines() and
 173:Generated_Source\PSoC4/CapSense_Filter.c **** *  CapSense_UpdateWidgetBaseline() but only for a specified sensor.
 174:Generated_Source\PSoC4/CapSense_Filter.c **** *
 175:Generated_Source\PSoC4/CapSense_Filter.c **** *  This function ignores the value of the wdgtEnable register. Multiple calling
 176:Generated_Source\PSoC4/CapSense_Filter.c **** *  of this function (or any other function with a baseline updating task)
 177:Generated_Source\PSoC4/CapSense_Filter.c **** *  without scanning leads to unexpected behavior.
 178:Generated_Source\PSoC4/CapSense_Filter.c **** *
 179:Generated_Source\PSoC4/CapSense_Filter.c **** *  If the Self-test library is enabled, this function executes the baseline duplication
 180:Generated_Source\PSoC4/CapSense_Filter.c **** *  test. Refer to CapSense_CheckBaselineDuplication() for details.
 181:Generated_Source\PSoC4/CapSense_Filter.c **** *
 182:Generated_Source\PSoC4/CapSense_Filter.c **** * \param widgetId
 183:Generated_Source\PSoC4/CapSense_Filter.c **** *  Specifies the ID number of the widget to update the baseline of the sensor
 184:Generated_Source\PSoC4/CapSense_Filter.c **** *  specified by the sensorId argument.
 185:Generated_Source\PSoC4/CapSense_Filter.c **** *  A macro for the widget ID can be found in the CapSense Configuration header
 186:Generated_Source\PSoC4/CapSense_Filter.c **** *  file defined as CapSense_<WidgetName>_WDGT_ID.
 187:Generated_Source\PSoC4/CapSense_Filter.c **** *
 188:Generated_Source\PSoC4/CapSense_Filter.c **** * \param sensorId
 189:Generated_Source\PSoC4/CapSense_Filter.c **** *  Specifies the ID number of the sensor within the widget to update its baseline.
 190:Generated_Source\PSoC4/CapSense_Filter.c **** *  A macro for the sensor ID within a specified widget can be found in the
 191:Generated_Source\PSoC4/CapSense_Filter.c **** *  CapSense Configuration header file defined as
 192:Generated_Source\PSoC4/CapSense_Filter.c **** *  CapSense_<WidgetName>_SNS<SensorNumber>_ID.
 193:Generated_Source\PSoC4/CapSense_Filter.c **** *
 194:Generated_Source\PSoC4/CapSense_Filter.c **** * \return
 195:Generated_Source\PSoC4/CapSense_Filter.c **** *  Returns the status of the specified sensor update baseline operation:
 196:Generated_Source\PSoC4/CapSense_Filter.c **** *  - CYRET_SUCCESS - The operation is successfully completed.
 197:Generated_Source\PSoC4/CapSense_Filter.c **** *  - CYRET_BAD_DATA - The baseline processing failed.
 198:Generated_Source\PSoC4/CapSense_Filter.c **** *
 199:Generated_Source\PSoC4/CapSense_Filter.c **** *******************************************************************************/
 200:Generated_Source\PSoC4/CapSense_Filter.c **** cystatus CapSense_UpdateSensorBaseline(uint32 widgetId, uint32 sensorId)
 201:Generated_Source\PSoC4/CapSense_Filter.c **** {
ARM GAS  C:\Users\zack.li\AppData\Local\Temp\ccH890rU.s 			page 5


 202:Generated_Source\PSoC4/CapSense_Filter.c ****     uint32 result = CYRET_SUCCESS;
 203:Generated_Source\PSoC4/CapSense_Filter.c **** 
 204:Generated_Source\PSoC4/CapSense_Filter.c ****     CapSense_RAM_SNS_STRUCT *ptrSensor = NULL;
 205:Generated_Source\PSoC4/CapSense_Filter.c ****     CapSense_FLASH_WD_STRUCT const *ptrWidget = &CapSense_dsFlash.wdgtArray[widgetId];
 206:Generated_Source\PSoC4/CapSense_Filter.c ****     CapSense_RAM_WD_BASE_STRUCT *ptrWidgetRam = (CapSense_RAM_WD_BASE_STRUCT *)ptrWidget->ptr2WdgtR
 207:Generated_Source\PSoC4/CapSense_Filter.c **** 
 208:Generated_Source\PSoC4/CapSense_Filter.c ****     /* Find pointer to specified sensor object */
 209:Generated_Source\PSoC4/CapSense_Filter.c ****     ptrSensor = ptrWidget->ptr2SnsRam;
 210:Generated_Source\PSoC4/CapSense_Filter.c ****     ptrSensor = &ptrSensor[sensorId];
 211:Generated_Source\PSoC4/CapSense_Filter.c ****     result = CapSense_FtUpdateBaseline(ptrWidgetRam, ptrSensor, (uint32)ptrWidget->wdgtType);
 212:Generated_Source\PSoC4/CapSense_Filter.c **** 
 213:Generated_Source\PSoC4/CapSense_Filter.c ****     #if (CapSense_ENABLE == CapSense_TST_BSLN_DUPLICATION_EN)
 214:Generated_Source\PSoC4/CapSense_Filter.c ****         if (CYRET_SUCCESS != result)
 215:Generated_Source\PSoC4/CapSense_Filter.c ****         {
 216:Generated_Source\PSoC4/CapSense_Filter.c ****             result = CYRET_BAD_DATA;
 217:Generated_Source\PSoC4/CapSense_Filter.c ****             CapSense_UpdateTestResultBaselineDuplication(widgetId, sensorId);
 218:Generated_Source\PSoC4/CapSense_Filter.c ****         }
 219:Generated_Source\PSoC4/CapSense_Filter.c ****     #endif /* (CapSense_ENABLE == CapSense_TST_BSLN_DUPLICATION_EN) */
 220:Generated_Source\PSoC4/CapSense_Filter.c **** 
 221:Generated_Source\PSoC4/CapSense_Filter.c ****     return result;
 222:Generated_Source\PSoC4/CapSense_Filter.c **** }
 223:Generated_Source\PSoC4/CapSense_Filter.c **** 
 224:Generated_Source\PSoC4/CapSense_Filter.c **** /*******************************************************************************
 225:Generated_Source\PSoC4/CapSense_Filter.c **** * Function Name: CapSense_FtUpdateBaseline
 226:Generated_Source\PSoC4/CapSense_Filter.c **** ****************************************************************************//**
 227:Generated_Source\PSoC4/CapSense_Filter.c **** *
 228:Generated_Source\PSoC4/CapSense_Filter.c **** * \brief
 229:Generated_Source\PSoC4/CapSense_Filter.c **** *  Updates the baseline for a sensor specified by an input parameter.
 230:Generated_Source\PSoC4/CapSense_Filter.c **** *
 231:Generated_Source\PSoC4/CapSense_Filter.c **** * \details
 232:Generated_Source\PSoC4/CapSense_Filter.c **** *  Check a matching of present baseline and its inverse duplication. If they
 233:Generated_Source\PSoC4/CapSense_Filter.c **** *  match then updates the baseline for a sensor specified by an input parameter.
 234:Generated_Source\PSoC4/CapSense_Filter.c **** *  If don't match the function return CapSense_TST_BSLN_DUPLICATION
 235:Generated_Source\PSoC4/CapSense_Filter.c **** *  result and don't update baseline.
 236:Generated_Source\PSoC4/CapSense_Filter.c **** *
 237:Generated_Source\PSoC4/CapSense_Filter.c **** * \param ptrWidgetRam
 238:Generated_Source\PSoC4/CapSense_Filter.c **** *  The pointer to the widget RAM structure where all the widget parameters
 239:Generated_Source\PSoC4/CapSense_Filter.c **** *  are stored.
 240:Generated_Source\PSoC4/CapSense_Filter.c **** *
 241:Generated_Source\PSoC4/CapSense_Filter.c **** * \param ptrSensor
 242:Generated_Source\PSoC4/CapSense_Filter.c **** *  The pointer to the sensor RAM structure where all the sensor parameters
 243:Generated_Source\PSoC4/CapSense_Filter.c **** *  are stored.
 244:Generated_Source\PSoC4/CapSense_Filter.c **** *
 245:Generated_Source\PSoC4/CapSense_Filter.c **** * \param wdType
 246:Generated_Source\PSoC4/CapSense_Filter.c **** *  Specifies the type of a widget.
 247:Generated_Source\PSoC4/CapSense_Filter.c **** *
 248:Generated_Source\PSoC4/CapSense_Filter.c **** * \return
 249:Generated_Source\PSoC4/CapSense_Filter.c **** *  Returns a status indicating whether the baseline has been updated:
 250:Generated_Source\PSoC4/CapSense_Filter.c **** *  - CYRET_SUCCESS if baseline updating was successful.
 251:Generated_Source\PSoC4/CapSense_Filter.c **** *  - CapSense_PROCESS_BASELINE_FAILED if present sensor's any channel
 252:Generated_Source\PSoC4/CapSense_Filter.c **** *    baseline and its inversion doesn't matched.
 253:Generated_Source\PSoC4/CapSense_Filter.c **** *
 254:Generated_Source\PSoC4/CapSense_Filter.c **** *******************************************************************************/
 255:Generated_Source\PSoC4/CapSense_Filter.c **** uint32 CapSense_FtUpdateBaseline(
 256:Generated_Source\PSoC4/CapSense_Filter.c ****                                 CapSense_RAM_WD_BASE_STRUCT *ptrWidgetRam,
 257:Generated_Source\PSoC4/CapSense_Filter.c ****                                 CapSense_RAM_SNS_STRUCT *ptrSensor,
 258:Generated_Source\PSoC4/CapSense_Filter.c ****                                 uint32 wdType)
ARM GAS  C:\Users\zack.li\AppData\Local\Temp\ccH890rU.s 			page 6


 259:Generated_Source\PSoC4/CapSense_Filter.c **** {
 260:Generated_Source\PSoC4/CapSense_Filter.c ****     uint32 sign;
 261:Generated_Source\PSoC4/CapSense_Filter.c ****     uint32 difference;
 262:Generated_Source\PSoC4/CapSense_Filter.c ****     uint32 freqChannel;
 263:Generated_Source\PSoC4/CapSense_Filter.c ****     uint32 baselineCoeff;
 264:Generated_Source\PSoC4/CapSense_Filter.c ****     uint32 result = CYRET_SUCCESS;
 265:Generated_Source\PSoC4/CapSense_Filter.c **** 
 266:Generated_Source\PSoC4/CapSense_Filter.c ****     #if (CapSense_TOTAL_WIDGETS)
 267:Generated_Source\PSoC4/CapSense_Filter.c ****         uint32 history;
 268:Generated_Source\PSoC4/CapSense_Filter.c ****     #endif /* (CapSense_TOTAL_WIDGETS) */
 269:Generated_Source\PSoC4/CapSense_Filter.c **** 
 270:Generated_Source\PSoC4/CapSense_Filter.c ****     /* Apply baseline to every channel in sensor */
 271:Generated_Source\PSoC4/CapSense_Filter.c ****     for(freqChannel = CapSense_NUM_SCAN_FREQS; freqChannel-- > 0u;)
 272:Generated_Source\PSoC4/CapSense_Filter.c ****     {
 273:Generated_Source\PSoC4/CapSense_Filter.c ****         #if (CapSense_ENABLE == CapSense_TST_BSLN_DUPLICATION_EN)
 274:Generated_Source\PSoC4/CapSense_Filter.c ****             if (ptrSensor->bslnInv[freqChannel] != ((uint16) ~(ptrSensor->bsln[freqChannel])))
 275:Generated_Source\PSoC4/CapSense_Filter.c ****             {
 276:Generated_Source\PSoC4/CapSense_Filter.c ****                 result = CapSense_PROCESS_BASELINE_FAILED;
 277:Generated_Source\PSoC4/CapSense_Filter.c ****             }
 278:Generated_Source\PSoC4/CapSense_Filter.c ****             else
 279:Generated_Source\PSoC4/CapSense_Filter.c ****             {
 280:Generated_Source\PSoC4/CapSense_Filter.c ****         #endif /* (CapSense_ENABLE == CapSense_TST_BSLN_DUPLICATION_EN) */
 281:Generated_Source\PSoC4/CapSense_Filter.c **** 
 282:Generated_Source\PSoC4/CapSense_Filter.c ****         /* Calculate signal value and its sign */
 283:Generated_Source\PSoC4/CapSense_Filter.c ****         if(ptrSensor->raw[freqChannel] >= ptrSensor->bsln[freqChannel])
 284:Generated_Source\PSoC4/CapSense_Filter.c ****         {
 285:Generated_Source\PSoC4/CapSense_Filter.c ****             difference = (uint32)ptrSensor->raw[freqChannel] - (uint32)ptrSensor->bsln[freqChannel]
 286:Generated_Source\PSoC4/CapSense_Filter.c ****             sign = 1u;
 287:Generated_Source\PSoC4/CapSense_Filter.c ****             ptrSensor->negBslnRstCnt[freqChannel] = 0u;
 288:Generated_Source\PSoC4/CapSense_Filter.c ****         }
 289:Generated_Source\PSoC4/CapSense_Filter.c ****         else
 290:Generated_Source\PSoC4/CapSense_Filter.c ****         {
 291:Generated_Source\PSoC4/CapSense_Filter.c ****             difference = (uint32)ptrSensor->bsln[freqChannel] - (uint32)ptrSensor->raw[freqChannel]
 292:Generated_Source\PSoC4/CapSense_Filter.c ****             sign = 0u;
 293:Generated_Source\PSoC4/CapSense_Filter.c ****         }
 294:Generated_Source\PSoC4/CapSense_Filter.c **** 
 295:Generated_Source\PSoC4/CapSense_Filter.c ****         /* Reset baseline if condition is met */
 296:Generated_Source\PSoC4/CapSense_Filter.c ****         if((sign == 0u) && (difference > (uint32) ptrWidgetRam->nNoiseTh))
 297:Generated_Source\PSoC4/CapSense_Filter.c ****         {
 298:Generated_Source\PSoC4/CapSense_Filter.c ****             if(ptrSensor->negBslnRstCnt[freqChannel] >= ptrWidgetRam->lowBslnRst)
 299:Generated_Source\PSoC4/CapSense_Filter.c ****             {
 300:Generated_Source\PSoC4/CapSense_Filter.c ****                 CapSense_FtInitializeBaselineChannel(ptrSensor, wdType, freqChannel);
 301:Generated_Source\PSoC4/CapSense_Filter.c ****             }
 302:Generated_Source\PSoC4/CapSense_Filter.c ****             else
 303:Generated_Source\PSoC4/CapSense_Filter.c ****             {
 304:Generated_Source\PSoC4/CapSense_Filter.c ****                 ptrSensor->negBslnRstCnt[freqChannel]++;
 305:Generated_Source\PSoC4/CapSense_Filter.c ****             }
 306:Generated_Source\PSoC4/CapSense_Filter.c ****         }
 307:Generated_Source\PSoC4/CapSense_Filter.c ****         else
 308:Generated_Source\PSoC4/CapSense_Filter.c ****         {
 309:Generated_Source\PSoC4/CapSense_Filter.c ****             #if (!CapSense_SENSOR_AUTO_RESET_EN)
 310:Generated_Source\PSoC4/CapSense_Filter.c ****                 /* Update baseline only if signal is in range between noiseThreshold and negativeno
 311:Generated_Source\PSoC4/CapSense_Filter.c ****                 if ((difference <= (uint32)ptrWidgetRam->noiseTh) ||
 312:Generated_Source\PSoC4/CapSense_Filter.c ****                     ((difference <= (uint32) ptrWidgetRam->nNoiseTh) && (sign == 0u)))
 313:Generated_Source\PSoC4/CapSense_Filter.c ****                 {
 314:Generated_Source\PSoC4/CapSense_Filter.c ****             #endif /* (CapSense_CSD_AUTO_RESET == CapSense_CSD_AUTO_RESET_DISABLE) */
 315:Generated_Source\PSoC4/CapSense_Filter.c **** 
ARM GAS  C:\Users\zack.li\AppData\Local\Temp\ccH890rU.s 			page 7


 316:Generated_Source\PSoC4/CapSense_Filter.c ****             #if (CapSense_BASELINE_TYPE == CapSense_IIR_BASELINE)
 317:Generated_Source\PSoC4/CapSense_Filter.c ****                 /* Calculate baseline value */
 318:Generated_Source\PSoC4/CapSense_Filter.c ****                 if ((CapSense_WD_TYPE_ENUM)wdType != CapSense_WD_PROXIMITY_E)
 319:Generated_Source\PSoC4/CapSense_Filter.c ****                 {
 320:Generated_Source\PSoC4/CapSense_Filter.c ****                     #if (CapSense_REGULAR_SENSOR_EN)
 321:Generated_Source\PSoC4/CapSense_Filter.c ****                         #if (CapSense_REGULAR_IIR_BL_TYPE == CapSense_IIR_FILTER_PERFORMANCE)
 322:Generated_Source\PSoC4/CapSense_Filter.c ****                             history = (uint32) ptrSensor->bsln[freqChannel] << 8u;
 323:Generated_Source\PSoC4/CapSense_Filter.c ****                             history |= ptrSensor->bslnExt[freqChannel];
 324:Generated_Source\PSoC4/CapSense_Filter.c ****                         #else
 325:Generated_Source\PSoC4/CapSense_Filter.c ****                             history = ptrSensor->bsln[freqChannel];
 326:Generated_Source\PSoC4/CapSense_Filter.c ****                         #endif /* (CapSense_REGULAR_IIR_BL_TYPE == CapSense_IIR_FILTER_PERFORMANCE)
 327:Generated_Source\PSoC4/CapSense_Filter.c **** 
 328:Generated_Source\PSoC4/CapSense_Filter.c ****                         #if (CapSense_ENABLE == CapSense_WD_BSLN_COEFF_EN)
 329:Generated_Source\PSoC4/CapSense_Filter.c ****                             baselineCoeff = ptrWidgetRam->bslnCoeff;
 330:Generated_Source\PSoC4/CapSense_Filter.c ****                         #else /* (CapSense_ENABLE == CapSense_WD_BSLN_COEFF_EN) */
 331:Generated_Source\PSoC4/CapSense_Filter.c ****                             baselineCoeff = CapSense_REGULAR_IIR_BL_N;
 332:Generated_Source\PSoC4/CapSense_Filter.c ****                         #endif /* (CapSense_ENABLE == CapSense_WD_BSLN_COEFF_EN) */
 333:Generated_Source\PSoC4/CapSense_Filter.c **** 
 334:Generated_Source\PSoC4/CapSense_Filter.c ****                         history =  CapSense_FtIIR1stOrder(
 335:Generated_Source\PSoC4/CapSense_Filter.c ****                                         (uint32)ptrSensor->raw[freqChannel],
 336:Generated_Source\PSoC4/CapSense_Filter.c ****                                         history, baselineCoeff,
 337:Generated_Source\PSoC4/CapSense_Filter.c ****                                         CapSense_REGULAR_IIR_BL_SHIFT);
 338:Generated_Source\PSoC4/CapSense_Filter.c **** 
 339:Generated_Source\PSoC4/CapSense_Filter.c ****                         #if (CapSense_REGULAR_IIR_BL_TYPE == CapSense_IIR_FILTER_PERFORMANCE)
 340:Generated_Source\PSoC4/CapSense_Filter.c ****                             ptrSensor->bsln[freqChannel] = LO16(history >> 8u);
 341:Generated_Source\PSoC4/CapSense_Filter.c ****                             ptrSensor->bslnExt[freqChannel] = LO8(history);
 342:Generated_Source\PSoC4/CapSense_Filter.c ****                         #else
 343:Generated_Source\PSoC4/CapSense_Filter.c ****                             ptrSensor->bsln[freqChannel] = LO16(history);
 344:Generated_Source\PSoC4/CapSense_Filter.c ****                         #endif /* (CapSense_REGULAR_IIR_BL_TYPE == CapSense_IIR_FILTER_PERFORMANCE)
 345:Generated_Source\PSoC4/CapSense_Filter.c ****                     #endif /* (CapSense_REGULAR_SENSOR_EN) */
 346:Generated_Source\PSoC4/CapSense_Filter.c ****                 }
 347:Generated_Source\PSoC4/CapSense_Filter.c ****                 else
 348:Generated_Source\PSoC4/CapSense_Filter.c ****                 {
 349:Generated_Source\PSoC4/CapSense_Filter.c ****                     #if (CapSense_PROXIMITY_SENSOR_EN)
 350:Generated_Source\PSoC4/CapSense_Filter.c ****                         #if (CapSense_PROX_IIR_BL_TYPE == CapSense_IIR_FILTER_PERFORMANCE)
 351:Generated_Source\PSoC4/CapSense_Filter.c ****                             history = (uint32) ptrSensor->bsln[freqChannel] << 8u;
 352:Generated_Source\PSoC4/CapSense_Filter.c ****                             history |= ptrSensor->bslnExt[freqChannel];
 353:Generated_Source\PSoC4/CapSense_Filter.c ****                         #else
 354:Generated_Source\PSoC4/CapSense_Filter.c ****                             history = (uint32) ptrSensor->bsln[freqChannel];
 355:Generated_Source\PSoC4/CapSense_Filter.c ****                         #endif /* (CapSense_PROX_IIR_BL_TYPE == CapSense_IIR_FILTER_PERFORMANCE) */
 356:Generated_Source\PSoC4/CapSense_Filter.c **** 
 357:Generated_Source\PSoC4/CapSense_Filter.c ****                         #if (CapSense_ENABLE == CapSense_WD_BSLN_COEFF_EN)
 358:Generated_Source\PSoC4/CapSense_Filter.c ****                             baselineCoeff = ptrWidgetRam->bslnCoeff;
 359:Generated_Source\PSoC4/CapSense_Filter.c ****                         #else /* (CapSense_ENABLE == CapSense_WD_BSLN_COEFF_EN) */
 360:Generated_Source\PSoC4/CapSense_Filter.c ****                             baselineCoeff = CapSense_PROX_IIR_BL_N;
 361:Generated_Source\PSoC4/CapSense_Filter.c ****                         #endif /* (CapSense_ENABLE == CapSense_WD_BSLN_COEFF_EN) */
 362:Generated_Source\PSoC4/CapSense_Filter.c **** 
 363:Generated_Source\PSoC4/CapSense_Filter.c ****                         history = CapSense_FtIIR1stOrder(
 364:Generated_Source\PSoC4/CapSense_Filter.c ****                                         (uint32)ptrSensor->raw[freqChannel],
 365:Generated_Source\PSoC4/CapSense_Filter.c ****                                         history, baselineCoeff,
 366:Generated_Source\PSoC4/CapSense_Filter.c ****                                         CapSense_PROX_IIR_BL_SHIFT);
 367:Generated_Source\PSoC4/CapSense_Filter.c **** 
 368:Generated_Source\PSoC4/CapSense_Filter.c ****                         #if (CapSense_PROX_IIR_BL_TYPE == CapSense_IIR_FILTER_PERFORMANCE)
 369:Generated_Source\PSoC4/CapSense_Filter.c ****                             ptrSensor->bsln[freqChannel] = LO16(history >> 8u);
 370:Generated_Source\PSoC4/CapSense_Filter.c ****                             ptrSensor->bslnExt[freqChannel] = LO8(history);
 371:Generated_Source\PSoC4/CapSense_Filter.c ****                         #else
 372:Generated_Source\PSoC4/CapSense_Filter.c ****                             ptrSensor->bsln[freqChannel] = LO16(history);
ARM GAS  C:\Users\zack.li\AppData\Local\Temp\ccH890rU.s 			page 8


 373:Generated_Source\PSoC4/CapSense_Filter.c ****                         #endif /* (CapSense_PROX_IIR_BL_TYPE == CapSense_IIR_FILTER_PERFORMANCE) */
 374:Generated_Source\PSoC4/CapSense_Filter.c ****                     #endif /* (CapSense_PROX_SENSOR_EN) */
 375:Generated_Source\PSoC4/CapSense_Filter.c ****                 }
 376:Generated_Source\PSoC4/CapSense_Filter.c ****             #else /* (CapSense_CSD_BASELINE_TYPE == CapSense_IIR_BASELINE) */
 377:Generated_Source\PSoC4/CapSense_Filter.c **** 
 378:Generated_Source\PSoC4/CapSense_Filter.c ****                 /******************************************************************
 379:Generated_Source\PSoC4/CapSense_Filter.c ****                 * This is the place where the bucket algorithm should be implemented.
 380:Generated_Source\PSoC4/CapSense_Filter.c ****                 * The bucket method will be implemented in future Component version.
 381:Generated_Source\PSoC4/CapSense_Filter.c ****                 *******************************************************************/
 382:Generated_Source\PSoC4/CapSense_Filter.c **** 
 383:Generated_Source\PSoC4/CapSense_Filter.c ****             #endif /* (CapSense_CSD_BASELINE_TYPE == CapSense_IIR_BASELINE) */
 384:Generated_Source\PSoC4/CapSense_Filter.c **** 
 385:Generated_Source\PSoC4/CapSense_Filter.c ****             #if (!CapSense_SENSOR_AUTO_RESET_EN)
 386:Generated_Source\PSoC4/CapSense_Filter.c ****                 }
 387:Generated_Source\PSoC4/CapSense_Filter.c ****             #endif /* (!CapSense_SENSOR_AUTO_RESET_EN) */
 388:Generated_Source\PSoC4/CapSense_Filter.c ****         }
 389:Generated_Source\PSoC4/CapSense_Filter.c **** 
 390:Generated_Source\PSoC4/CapSense_Filter.c ****         #if (CapSense_ENABLE == CapSense_TST_BSLN_DUPLICATION_EN)
 391:Generated_Source\PSoC4/CapSense_Filter.c ****             /* Update baseline inversion of every channel in sensor */
 392:Generated_Source\PSoC4/CapSense_Filter.c ****             ptrSensor->bslnInv[freqChannel] = ~(ptrSensor->bsln[freqChannel]);
 393:Generated_Source\PSoC4/CapSense_Filter.c ****             }
 394:Generated_Source\PSoC4/CapSense_Filter.c ****         #endif /* (CapSense_ENABLE == CapSense_TST_BSLN_DUPLICATION_EN) */
 395:Generated_Source\PSoC4/CapSense_Filter.c **** 
 396:Generated_Source\PSoC4/CapSense_Filter.c ****     }
 397:Generated_Source\PSoC4/CapSense_Filter.c ****     return result;
 398:Generated_Source\PSoC4/CapSense_Filter.c **** }
 399:Generated_Source\PSoC4/CapSense_Filter.c **** 
 400:Generated_Source\PSoC4/CapSense_Filter.c **** 
 401:Generated_Source\PSoC4/CapSense_Filter.c **** /*******************************************************************************
 402:Generated_Source\PSoC4/CapSense_Filter.c **** * Function Name: CapSense_InitializeAllBaselines
 403:Generated_Source\PSoC4/CapSense_Filter.c **** ****************************************************************************//**
 404:Generated_Source\PSoC4/CapSense_Filter.c **** *
 405:Generated_Source\PSoC4/CapSense_Filter.c **** * \brief
 406:Generated_Source\PSoC4/CapSense_Filter.c **** *  Initializes (or re-initializes) the baselines of all the sensors of all the widgets.
 407:Generated_Source\PSoC4/CapSense_Filter.c **** *
 408:Generated_Source\PSoC4/CapSense_Filter.c **** * \details
 409:Generated_Source\PSoC4/CapSense_Filter.c **** *  Initializes the baseline for all the sensors of all the widgets. Also, this function
 410:Generated_Source\PSoC4/CapSense_Filter.c **** *  can be used to re-initialize baselines. CapSense_Start() calls this
 411:Generated_Source\PSoC4/CapSense_Filter.c **** *  API as part of CapSense operation initialization.
 412:Generated_Source\PSoC4/CapSense_Filter.c **** *
 413:Generated_Source\PSoC4/CapSense_Filter.c **** *  If any raw count filter is enabled, make sure the raw count filter history is
 414:Generated_Source\PSoC4/CapSense_Filter.c **** *  initialized as well using one of these functions:
 415:Generated_Source\PSoC4/CapSense_Filter.c **** *  - CapSense_InitializeAllFilters().
 416:Generated_Source\PSoC4/CapSense_Filter.c **** *  - CapSense_InitializeWidgetFilter().
 417:Generated_Source\PSoC4/CapSense_Filter.c **** *
 418:Generated_Source\PSoC4/CapSense_Filter.c **** *******************************************************************************/
 419:Generated_Source\PSoC4/CapSense_Filter.c **** void CapSense_InitializeAllBaselines(void)
 420:Generated_Source\PSoC4/CapSense_Filter.c **** {
 421:Generated_Source\PSoC4/CapSense_Filter.c ****     uint32 widgetId;
 422:Generated_Source\PSoC4/CapSense_Filter.c **** 
 423:Generated_Source\PSoC4/CapSense_Filter.c ****     for(widgetId = CapSense_TOTAL_WIDGETS; widgetId-- > 0u;)
 424:Generated_Source\PSoC4/CapSense_Filter.c ****     {
 425:Generated_Source\PSoC4/CapSense_Filter.c ****         CapSense_InitializeWidgetBaseline(widgetId);
 426:Generated_Source\PSoC4/CapSense_Filter.c ****     }
 427:Generated_Source\PSoC4/CapSense_Filter.c **** }
 428:Generated_Source\PSoC4/CapSense_Filter.c **** 
 429:Generated_Source\PSoC4/CapSense_Filter.c **** 
ARM GAS  C:\Users\zack.li\AppData\Local\Temp\ccH890rU.s 			page 9


 430:Generated_Source\PSoC4/CapSense_Filter.c **** /*******************************************************************************
 431:Generated_Source\PSoC4/CapSense_Filter.c **** * Function Name: CapSense_InitializeWidgetBaseline
 432:Generated_Source\PSoC4/CapSense_Filter.c **** ****************************************************************************//**
 433:Generated_Source\PSoC4/CapSense_Filter.c **** *
 434:Generated_Source\PSoC4/CapSense_Filter.c **** * \brief
 435:Generated_Source\PSoC4/CapSense_Filter.c **** *  Initializes (or re-initializes) the baselines of all the sensors in a widget
 436:Generated_Source\PSoC4/CapSense_Filter.c **** *  specified by the input parameter.
 437:Generated_Source\PSoC4/CapSense_Filter.c **** *
 438:Generated_Source\PSoC4/CapSense_Filter.c **** * \details
 439:Generated_Source\PSoC4/CapSense_Filter.c **** *  Initializes (or re-initializes) the baseline for all the sensors of the
 440:Generated_Source\PSoC4/CapSense_Filter.c **** *  specified widget.
 441:Generated_Source\PSoC4/CapSense_Filter.c **** *
 442:Generated_Source\PSoC4/CapSense_Filter.c **** *  If any raw count filter is enabled, make sure the raw count filter history is
 443:Generated_Source\PSoC4/CapSense_Filter.c **** *  initialized as well using one of these functions:
 444:Generated_Source\PSoC4/CapSense_Filter.c **** *  - CapSense_InitializeAllFilters().
 445:Generated_Source\PSoC4/CapSense_Filter.c **** *  - CapSense_InitializeWidgetFilter().
 446:Generated_Source\PSoC4/CapSense_Filter.c **** *
 447:Generated_Source\PSoC4/CapSense_Filter.c **** * \param widgetId
 448:Generated_Source\PSoC4/CapSense_Filter.c **** *  Specifies the ID number of a widget to initialize the baseline of all the sensors
 449:Generated_Source\PSoC4/CapSense_Filter.c **** *  in the widget.
 450:Generated_Source\PSoC4/CapSense_Filter.c **** *  A macro for the widget ID can be found in the
 451:Generated_Source\PSoC4/CapSense_Filter.c **** *  CapSense Configuration header file defined as
 452:Generated_Source\PSoC4/CapSense_Filter.c **** *  CapSense_<WidgetName>_WDGT_ID.
 453:Generated_Source\PSoC4/CapSense_Filter.c **** *
 454:Generated_Source\PSoC4/CapSense_Filter.c **** *******************************************************************************/
 455:Generated_Source\PSoC4/CapSense_Filter.c **** void CapSense_InitializeWidgetBaseline(uint32 widgetId)
 456:Generated_Source\PSoC4/CapSense_Filter.c **** {
 457:Generated_Source\PSoC4/CapSense_Filter.c ****     uint32 sensorId;
 458:Generated_Source\PSoC4/CapSense_Filter.c ****     uint32 sensorsNumber;
 459:Generated_Source\PSoC4/CapSense_Filter.c **** 
 460:Generated_Source\PSoC4/CapSense_Filter.c ****     CapSense_FLASH_WD_STRUCT const *ptrWidget = &CapSense_dsFlash.wdgtArray[widgetId];
 461:Generated_Source\PSoC4/CapSense_Filter.c **** 
 462:Generated_Source\PSoC4/CapSense_Filter.c ****     /* Find total amount of sensors in specified widget */
 463:Generated_Source\PSoC4/CapSense_Filter.c ****     sensorsNumber = CapSense_GET_SNS_CNT_BY_PTR(ptrWidget);
 464:Generated_Source\PSoC4/CapSense_Filter.c **** 
 465:Generated_Source\PSoC4/CapSense_Filter.c ****     for(sensorId = sensorsNumber; sensorId-- > 0u;)
 466:Generated_Source\PSoC4/CapSense_Filter.c ****     {
 467:Generated_Source\PSoC4/CapSense_Filter.c ****         CapSense_InitializeSensorBaseline(widgetId, sensorId);
 468:Generated_Source\PSoC4/CapSense_Filter.c ****     }
 469:Generated_Source\PSoC4/CapSense_Filter.c **** }
 470:Generated_Source\PSoC4/CapSense_Filter.c **** 
 471:Generated_Source\PSoC4/CapSense_Filter.c **** 
 472:Generated_Source\PSoC4/CapSense_Filter.c **** /*******************************************************************************
 473:Generated_Source\PSoC4/CapSense_Filter.c **** * Function Name: CapSense_InitializeSensorBaseline
 474:Generated_Source\PSoC4/CapSense_Filter.c **** ****************************************************************************//**
 475:Generated_Source\PSoC4/CapSense_Filter.c **** *
 476:Generated_Source\PSoC4/CapSense_Filter.c **** * \brief
 477:Generated_Source\PSoC4/CapSense_Filter.c **** *  Initializes (or re-initializes) the baseline of a sensor in a widget specified
 478:Generated_Source\PSoC4/CapSense_Filter.c **** *  by the input parameters.
 479:Generated_Source\PSoC4/CapSense_Filter.c **** *
 480:Generated_Source\PSoC4/CapSense_Filter.c **** * \details
 481:Generated_Source\PSoC4/CapSense_Filter.c **** *  Initializes (or re-initializes) the baseline for a specified sensor within
 482:Generated_Source\PSoC4/CapSense_Filter.c **** *  a specified widget.
 483:Generated_Source\PSoC4/CapSense_Filter.c **** *
 484:Generated_Source\PSoC4/CapSense_Filter.c **** * \param widgetId
 485:Generated_Source\PSoC4/CapSense_Filter.c **** *  Specifies the ID number of a widget to initialize the baseline of the sensor
 486:Generated_Source\PSoC4/CapSense_Filter.c **** *  in the widget.
ARM GAS  C:\Users\zack.li\AppData\Local\Temp\ccH890rU.s 			page 10


 487:Generated_Source\PSoC4/CapSense_Filter.c **** *  A macro for the widget ID can be found in the
 488:Generated_Source\PSoC4/CapSense_Filter.c **** *  CapSense Configuration header file defined as
 489:Generated_Source\PSoC4/CapSense_Filter.c **** *  CapSense_<WidgetName>_WDGT_ID.
 490:Generated_Source\PSoC4/CapSense_Filter.c **** *
 491:Generated_Source\PSoC4/CapSense_Filter.c **** * \param sensorId
 492:Generated_Source\PSoC4/CapSense_Filter.c **** *  Specifies the ID number of the sensor within the widget to initialize its
 493:Generated_Source\PSoC4/CapSense_Filter.c **** *  baseline.
 494:Generated_Source\PSoC4/CapSense_Filter.c **** *  A macro for the sensor ID within a specified widget can be found in the
 495:Generated_Source\PSoC4/CapSense_Filter.c **** *  CapSense Configuration header file defined as
 496:Generated_Source\PSoC4/CapSense_Filter.c **** *  CapSense_<WidgetName>_SNS<SensorNumber>_ID.
 497:Generated_Source\PSoC4/CapSense_Filter.c **** *
 498:Generated_Source\PSoC4/CapSense_Filter.c **** *******************************************************************************/
 499:Generated_Source\PSoC4/CapSense_Filter.c **** void CapSense_InitializeSensorBaseline(uint32 widgetId, uint32 sensorId)
 500:Generated_Source\PSoC4/CapSense_Filter.c **** {
 501:Generated_Source\PSoC4/CapSense_Filter.c ****     CapSense_RAM_SNS_STRUCT *ptrSensor = NULL;
 502:Generated_Source\PSoC4/CapSense_Filter.c ****     CapSense_FLASH_WD_STRUCT const *ptrWidget = NULL;
 503:Generated_Source\PSoC4/CapSense_Filter.c ****     ptrWidget = &CapSense_dsFlash.wdgtArray[widgetId];
 504:Generated_Source\PSoC4/CapSense_Filter.c **** 
 505:Generated_Source\PSoC4/CapSense_Filter.c ****     /* Find pointer to specified sensor object */
 506:Generated_Source\PSoC4/CapSense_Filter.c ****     ptrSensor = ptrWidget->ptr2SnsRam;
 507:Generated_Source\PSoC4/CapSense_Filter.c ****     ptrSensor = &ptrSensor[sensorId];
 508:Generated_Source\PSoC4/CapSense_Filter.c **** 
 509:Generated_Source\PSoC4/CapSense_Filter.c ****     CapSense_FtInitializeBaseline(ptrSensor, (uint32)ptrWidget->wdgtType);
 510:Generated_Source\PSoC4/CapSense_Filter.c **** }
 511:Generated_Source\PSoC4/CapSense_Filter.c **** 
 512:Generated_Source\PSoC4/CapSense_Filter.c **** 
 513:Generated_Source\PSoC4/CapSense_Filter.c **** /*******************************************************************************
 514:Generated_Source\PSoC4/CapSense_Filter.c **** * Function Name: CapSense_FtInitializeBaseline
 515:Generated_Source\PSoC4/CapSense_Filter.c **** ****************************************************************************//**
 516:Generated_Source\PSoC4/CapSense_Filter.c **** *
 517:Generated_Source\PSoC4/CapSense_Filter.c **** * \brief
 518:Generated_Source\PSoC4/CapSense_Filter.c **** *  Initializes the baseline history for a sensor indicated by an input
 519:Generated_Source\PSoC4/CapSense_Filter.c **** *  parameter.
 520:Generated_Source\PSoC4/CapSense_Filter.c **** *
 521:Generated_Source\PSoC4/CapSense_Filter.c **** * \details
 522:Generated_Source\PSoC4/CapSense_Filter.c **** *  Initializes the baseline history for a sensor indicated by an input
 523:Generated_Source\PSoC4/CapSense_Filter.c **** *  parameter.
 524:Generated_Source\PSoC4/CapSense_Filter.c **** *
 525:Generated_Source\PSoC4/CapSense_Filter.c **** * \param *ptrSensor
 526:Generated_Source\PSoC4/CapSense_Filter.c **** *  The pointer to the sensor RAM object.
 527:Generated_Source\PSoC4/CapSense_Filter.c **** *
 528:Generated_Source\PSoC4/CapSense_Filter.c **** * \param wdType
 529:Generated_Source\PSoC4/CapSense_Filter.c **** *  Specifies the type of a widget.
 530:Generated_Source\PSoC4/CapSense_Filter.c **** *
 531:Generated_Source\PSoC4/CapSense_Filter.c **** *******************************************************************************/
 532:Generated_Source\PSoC4/CapSense_Filter.c **** void CapSense_FtInitializeBaseline(CapSense_RAM_SNS_STRUCT *ptrSensor, uint32 wdType)
 533:Generated_Source\PSoC4/CapSense_Filter.c **** {
 534:Generated_Source\PSoC4/CapSense_Filter.c ****     uint32 freqChannel;
 535:Generated_Source\PSoC4/CapSense_Filter.c **** 
 536:Generated_Source\PSoC4/CapSense_Filter.c ****     /* Apply baseline initialization to every channel in sensor */
 537:Generated_Source\PSoC4/CapSense_Filter.c ****     for(freqChannel = CapSense_NUM_SCAN_FREQS; freqChannel-- > 0u;)
 538:Generated_Source\PSoC4/CapSense_Filter.c ****     {
 539:Generated_Source\PSoC4/CapSense_Filter.c ****         CapSense_FtInitializeBaselineChannel(ptrSensor, wdType, freqChannel);
 540:Generated_Source\PSoC4/CapSense_Filter.c ****     }
 541:Generated_Source\PSoC4/CapSense_Filter.c **** }
 542:Generated_Source\PSoC4/CapSense_Filter.c **** 
 543:Generated_Source\PSoC4/CapSense_Filter.c **** 
ARM GAS  C:\Users\zack.li\AppData\Local\Temp\ccH890rU.s 			page 11


 544:Generated_Source\PSoC4/CapSense_Filter.c **** /*******************************************************************************
 545:Generated_Source\PSoC4/CapSense_Filter.c **** * Function Name: CapSense_FtInitializeBaselineChannel
 546:Generated_Source\PSoC4/CapSense_Filter.c **** ****************************************************************************//**
 547:Generated_Source\PSoC4/CapSense_Filter.c **** *
 548:Generated_Source\PSoC4/CapSense_Filter.c **** * \brief
 549:Generated_Source\PSoC4/CapSense_Filter.c **** *  Initializes the baseline history for a sensor indicated by an input
 550:Generated_Source\PSoC4/CapSense_Filter.c **** *  parameter.
 551:Generated_Source\PSoC4/CapSense_Filter.c **** *
 552:Generated_Source\PSoC4/CapSense_Filter.c **** * \details
 553:Generated_Source\PSoC4/CapSense_Filter.c **** *  Initializes the baseline history for a sensor indicated by an input
 554:Generated_Source\PSoC4/CapSense_Filter.c **** *  parameter.
 555:Generated_Source\PSoC4/CapSense_Filter.c **** *
 556:Generated_Source\PSoC4/CapSense_Filter.c **** * \param *ptrSensor
 557:Generated_Source\PSoC4/CapSense_Filter.c **** *  The pointer to the sensor RAM object.
 558:Generated_Source\PSoC4/CapSense_Filter.c **** *
 559:Generated_Source\PSoC4/CapSense_Filter.c **** * \param wdType
 560:Generated_Source\PSoC4/CapSense_Filter.c **** *  Specifies the type of a widget.
 561:Generated_Source\PSoC4/CapSense_Filter.c **** *
 562:Generated_Source\PSoC4/CapSense_Filter.c **** * \param channel
 563:Generated_Source\PSoC4/CapSense_Filter.c **** *  Specifies the number of the channel to be initialized.
 564:Generated_Source\PSoC4/CapSense_Filter.c **** *
 565:Generated_Source\PSoC4/CapSense_Filter.c **** *******************************************************************************/
 566:Generated_Source\PSoC4/CapSense_Filter.c **** void CapSense_FtInitializeBaselineChannel(CapSense_RAM_SNS_STRUCT *ptrSensor, uint32 wdType, uint32
 567:Generated_Source\PSoC4/CapSense_Filter.c **** {
  28              		.loc 1 567 0
  29              		.cfi_startproc
  30              		@ args = 0, pretend = 0, frame = 0
  31              		@ frame_needed = 0, uses_anonymous_args = 0
  32              		@ link register save eliminated.
  33              	.LVL0:
 568:Generated_Source\PSoC4/CapSense_Filter.c ****     #if (CapSense_BASELINE_TYPE == CapSense_IIR_BASELINE)
 569:Generated_Source\PSoC4/CapSense_Filter.c ****         if ((CapSense_WD_TYPE_ENUM)wdType != CapSense_WD_PROXIMITY_E)
  34              		.loc 1 569 0
  35 0000 FF23     		movs	r3, #255
  36 0002 1940     		ands	r1, r3
  37              	.LVL1:
  38 0004 0629     		cmp	r1, #6
  39 0006 03D0     		beq	.L2
 570:Generated_Source\PSoC4/CapSense_Filter.c ****         {
 571:Generated_Source\PSoC4/CapSense_Filter.c ****             #if (CapSense_REGULAR_SENSOR_EN)
 572:Generated_Source\PSoC4/CapSense_Filter.c ****                 #if (CapSense_REGULAR_IIR_BL_TYPE == CapSense_IIR_FILTER_PERFORMANCE)
 573:Generated_Source\PSoC4/CapSense_Filter.c ****                     ptrSensor->bslnExt[channel] = 0u;
  40              		.loc 1 573 0
  41 0008 8318     		adds	r3, r0, r2
  42 000a 0021     		movs	r1, #0
  43 000c 1971     		strb	r1, [r3, #4]
  44 000e 02E0     		b	.L3
  45              	.L2:
 574:Generated_Source\PSoC4/CapSense_Filter.c ****                 #endif /* (CapSense_REGULAR_IIR_BL_TYPE == CapSense_IIR_FILTER_PERFORMANCE) */
 575:Generated_Source\PSoC4/CapSense_Filter.c ****             #endif /* (CapSense_REGULAR_SENSOR_EN) */
 576:Generated_Source\PSoC4/CapSense_Filter.c ****         }
 577:Generated_Source\PSoC4/CapSense_Filter.c ****         else
 578:Generated_Source\PSoC4/CapSense_Filter.c ****         {
 579:Generated_Source\PSoC4/CapSense_Filter.c ****             #if (CapSense_PROXIMITY_SENSOR_EN)
 580:Generated_Source\PSoC4/CapSense_Filter.c ****                 #if (CapSense_PROX_IIR_BL_TYPE == CapSense_IIR_FILTER_PERFORMANCE)
 581:Generated_Source\PSoC4/CapSense_Filter.c ****                     ptrSensor->bslnExt[channel] = 0u;
  46              		.loc 1 581 0
ARM GAS  C:\Users\zack.li\AppData\Local\Temp\ccH890rU.s 			page 12


  47 0010 8318     		adds	r3, r0, r2
  48 0012 0021     		movs	r1, #0
  49 0014 1971     		strb	r1, [r3, #4]
  50              	.L3:
 582:Generated_Source\PSoC4/CapSense_Filter.c ****                 #endif /* (CapSense_PROX_IIR_BL_TYPE == CapSense_IIR_FILTER_PERFORMANCE) */
 583:Generated_Source\PSoC4/CapSense_Filter.c ****             #endif /* (CapSense_PROX_SENSOR_EN) */
 584:Generated_Source\PSoC4/CapSense_Filter.c ****         }
 585:Generated_Source\PSoC4/CapSense_Filter.c ****     #else
 586:Generated_Source\PSoC4/CapSense_Filter.c ****         /* CapSense_BASELINE_TYPE == CapSense_BUCKET_BASELINE */
 587:Generated_Source\PSoC4/CapSense_Filter.c ****         ptrSensor->bslnExt[channel] = 0u;
 588:Generated_Source\PSoC4/CapSense_Filter.c ****     #endif /* (CapSense_BASELINE_TYPE == CapSense_IIR_BASELINE) */
 589:Generated_Source\PSoC4/CapSense_Filter.c **** 
 590:Generated_Source\PSoC4/CapSense_Filter.c ****     ptrSensor->bsln[channel] = ptrSensor->raw[channel];
  51              		.loc 1 590 0
  52 0016 5300     		lsls	r3, r2, #1
  53 0018 195A     		ldrh	r1, [r3, r0]
  54 001a C318     		adds	r3, r0, r3
  55 001c 5980     		strh	r1, [r3, #2]
 591:Generated_Source\PSoC4/CapSense_Filter.c **** 
 592:Generated_Source\PSoC4/CapSense_Filter.c ****     #if (CapSense_ENABLE == CapSense_TST_BSLN_DUPLICATION_EN)
 593:Generated_Source\PSoC4/CapSense_Filter.c ****     /* Update baseline inversion of the channel in sensor */
 594:Generated_Source\PSoC4/CapSense_Filter.c ****         ptrSensor->bslnInv[channel] = ~(ptrSensor->bsln[channel]);
 595:Generated_Source\PSoC4/CapSense_Filter.c ****     #endif /* (CapSense_ENABLE == CapSense_TST_BSLN_DUPLICATION_EN) */
 596:Generated_Source\PSoC4/CapSense_Filter.c **** 
 597:Generated_Source\PSoC4/CapSense_Filter.c ****     ptrSensor->negBslnRstCnt[channel] = 0u;
  56              		.loc 1 597 0
  57 001e 8218     		adds	r2, r0, r2
  58              	.LVL2:
  59 0020 0023     		movs	r3, #0
  60 0022 1372     		strb	r3, [r2, #8]
 598:Generated_Source\PSoC4/CapSense_Filter.c **** }
  61              		.loc 1 598 0
  62              		@ sp needed
  63 0024 7047     		bx	lr
  64              		.cfi_endproc
  65              	.LFE10:
  66              		.size	CapSense_FtInitializeBaselineChannel, .-CapSense_FtInitializeBaselineChannel
  67 0026 C046     		.section	.text.CapSense_FtInitializeBaseline,"ax",%progbits
  68              		.align	2
  69              		.global	CapSense_FtInitializeBaseline
  70              		.code	16
  71              		.thumb_func
  72              		.type	CapSense_FtInitializeBaseline, %function
  73              	CapSense_FtInitializeBaseline:
  74              	.LFB9:
 533:Generated_Source\PSoC4/CapSense_Filter.c ****     uint32 freqChannel;
  75              		.loc 1 533 0
  76              		.cfi_startproc
  77              		@ args = 0, pretend = 0, frame = 0
  78              		@ frame_needed = 0, uses_anonymous_args = 0
  79              	.LVL3:
  80 0000 70B5     		push	{r4, r5, r6, lr}
  81              		.cfi_def_cfa_offset 16
  82              		.cfi_offset 4, -16
  83              		.cfi_offset 5, -12
  84              		.cfi_offset 6, -8
  85              		.cfi_offset 14, -4
ARM GAS  C:\Users\zack.li\AppData\Local\Temp\ccH890rU.s 			page 13


  86 0002 0600     		movs	r6, r0
  87 0004 0D00     		movs	r5, r1
  88              	.LVL4:
 537:Generated_Source\PSoC4/CapSense_Filter.c ****     {
  89              		.loc 1 537 0
  90 0006 0123     		movs	r3, #1
  91 0008 05E0     		b	.L5
  92              	.LVL5:
  93              	.L6:
 539:Generated_Source\PSoC4/CapSense_Filter.c ****     }
  94              		.loc 1 539 0
  95 000a 2200     		movs	r2, r4
  96 000c 2900     		movs	r1, r5
  97 000e 3000     		movs	r0, r6
  98 0010 FFF7FEFF 		bl	CapSense_FtInitializeBaselineChannel
  99              	.LVL6:
 537:Generated_Source\PSoC4/CapSense_Filter.c ****     {
 100              		.loc 1 537 0
 101 0014 2300     		movs	r3, r4
 102              	.LVL7:
 103              	.L5:
 537:Generated_Source\PSoC4/CapSense_Filter.c ****     {
 104              		.loc 1 537 0 is_stmt 0 discriminator 1
 105 0016 5C1E     		subs	r4, r3, #1
 106              	.LVL8:
 107 0018 002B     		cmp	r3, #0
 108 001a F6D1     		bne	.L6
 541:Generated_Source\PSoC4/CapSense_Filter.c **** 
 109              		.loc 1 541 0 is_stmt 1
 110              		@ sp needed
 111              	.LVL9:
 112              	.LVL10:
 113              	.LVL11:
 114 001c 70BD     		pop	{r4, r5, r6, pc}
 115              		.cfi_endproc
 116              	.LFE9:
 117              		.size	CapSense_FtInitializeBaseline, .-CapSense_FtInitializeBaseline
 118 001e C046     		.section	.text.CapSense_InitializeSensorBaseline,"ax",%progbits
 119              		.align	2
 120              		.global	CapSense_InitializeSensorBaseline
 121              		.code	16
 122              		.thumb_func
 123              		.type	CapSense_InitializeSensorBaseline, %function
 124              	CapSense_InitializeSensorBaseline:
 125              	.LFB8:
 500:Generated_Source\PSoC4/CapSense_Filter.c ****     CapSense_RAM_SNS_STRUCT *ptrSensor = NULL;
 126              		.loc 1 500 0
 127              		.cfi_startproc
 128              		@ args = 0, pretend = 0, frame = 0
 129              		@ frame_needed = 0, uses_anonymous_args = 0
 130              	.LVL12:
 131 0000 70B5     		push	{r4, r5, r6, lr}
 132              		.cfi_def_cfa_offset 16
 133              		.cfi_offset 4, -16
 134              		.cfi_offset 5, -12
 135              		.cfi_offset 6, -8
 136              		.cfi_offset 14, -4
ARM GAS  C:\Users\zack.li\AppData\Local\Temp\ccH890rU.s 			page 14


 137              	.LVL13:
 506:Generated_Source\PSoC4/CapSense_Filter.c ****     ptrSensor = &ptrSensor[sensorId];
 138              		.loc 1 506 0
 139 0002 094C     		ldr	r4, .L8
 140 0004 C300     		lsls	r3, r0, #3
 141 0006 1D1A     		subs	r5, r3, r0
 142 0008 AA00     		lsls	r2, r5, #2
 143 000a A218     		adds	r2, r4, r2
 144 000c 9568     		ldr	r5, [r2, #8]
 145              	.LVL14:
 507:Generated_Source\PSoC4/CapSense_Filter.c **** 
 146              		.loc 1 507 0
 147 000e 8A00     		lsls	r2, r1, #2
 148 0010 5118     		adds	r1, r2, r1
 149              	.LVL15:
 150 0012 4A00     		lsls	r2, r1, #1
 151 0014 AA18     		adds	r2, r5, r2
 152              	.LVL16:
 509:Generated_Source\PSoC4/CapSense_Filter.c **** }
 153              		.loc 1 509 0
 154 0016 1B1A     		subs	r3, r3, r0
 155 0018 9900     		lsls	r1, r3, #2
 156 001a 6118     		adds	r1, r4, r1
 157 001c 897E     		ldrb	r1, [r1, #26]
 158 001e 1000     		movs	r0, r2
 159              	.LVL17:
 160 0020 FFF7FEFF 		bl	CapSense_FtInitializeBaseline
 161              	.LVL18:
 510:Generated_Source\PSoC4/CapSense_Filter.c **** 
 162              		.loc 1 510 0
 163              		@ sp needed
 164              	.LVL19:
 165 0024 70BD     		pop	{r4, r5, r6, pc}
 166              	.L9:
 167 0026 C046     		.align	2
 168              	.L8:
 169 0028 00000000 		.word	CapSense_dsFlash
 170              		.cfi_endproc
 171              	.LFE8:
 172              		.size	CapSense_InitializeSensorBaseline, .-CapSense_InitializeSensorBaseline
 173              		.section	.text.CapSense_InitializeWidgetBaseline,"ax",%progbits
 174              		.align	2
 175              		.global	CapSense_InitializeWidgetBaseline
 176              		.code	16
 177              		.thumb_func
 178              		.type	CapSense_InitializeWidgetBaseline, %function
 179              	CapSense_InitializeWidgetBaseline:
 180              	.LFB7:
 456:Generated_Source\PSoC4/CapSense_Filter.c ****     uint32 sensorId;
 181              		.loc 1 456 0
 182              		.cfi_startproc
 183              		@ args = 0, pretend = 0, frame = 0
 184              		@ frame_needed = 0, uses_anonymous_args = 0
 185              	.LVL20:
 186 0000 70B5     		push	{r4, r5, r6, lr}
 187              		.cfi_def_cfa_offset 16
 188              		.cfi_offset 4, -16
ARM GAS  C:\Users\zack.li\AppData\Local\Temp\ccH890rU.s 			page 15


 189              		.cfi_offset 5, -12
 190              		.cfi_offset 6, -8
 191              		.cfi_offset 14, -4
 192 0002 0500     		movs	r5, r0
 193              	.LVL21:
 463:Generated_Source\PSoC4/CapSense_Filter.c **** 
 194              		.loc 1 463 0
 195 0004 C200     		lsls	r2, r0, #3
 196 0006 121A     		subs	r2, r2, r0
 197 0008 9300     		lsls	r3, r2, #2
 198 000a 064A     		ldr	r2, .L13
 199 000c D318     		adds	r3, r2, r3
 200 000e 1B8B     		ldrh	r3, [r3, #24]
 201              	.LVL22:
 465:Generated_Source\PSoC4/CapSense_Filter.c ****     {
 202              		.loc 1 465 0
 203 0010 04E0     		b	.L11
 204              	.LVL23:
 205              	.L12:
 467:Generated_Source\PSoC4/CapSense_Filter.c ****     }
 206              		.loc 1 467 0
 207 0012 2100     		movs	r1, r4
 208 0014 2800     		movs	r0, r5
 209 0016 FFF7FEFF 		bl	CapSense_InitializeSensorBaseline
 210              	.LVL24:
 465:Generated_Source\PSoC4/CapSense_Filter.c ****     {
 211              		.loc 1 465 0
 212 001a 2300     		movs	r3, r4
 213              	.LVL25:
 214              	.L11:
 465:Generated_Source\PSoC4/CapSense_Filter.c ****     {
 215              		.loc 1 465 0 is_stmt 0 discriminator 1
 216 001c 5C1E     		subs	r4, r3, #1
 217              	.LVL26:
 218 001e 002B     		cmp	r3, #0
 219 0020 F7D1     		bne	.L12
 469:Generated_Source\PSoC4/CapSense_Filter.c **** 
 220              		.loc 1 469 0 is_stmt 1
 221              		@ sp needed
 222              	.LVL27:
 223              	.LVL28:
 224 0022 70BD     		pop	{r4, r5, r6, pc}
 225              	.L14:
 226              		.align	2
 227              	.L13:
 228 0024 00000000 		.word	CapSense_dsFlash
 229              		.cfi_endproc
 230              	.LFE7:
 231              		.size	CapSense_InitializeWidgetBaseline, .-CapSense_InitializeWidgetBaseline
 232              		.section	.text.CapSense_InitializeAllBaselines,"ax",%progbits
 233              		.align	2
 234              		.global	CapSense_InitializeAllBaselines
 235              		.code	16
 236              		.thumb_func
 237              		.type	CapSense_InitializeAllBaselines, %function
 238              	CapSense_InitializeAllBaselines:
 239              	.LFB6:
ARM GAS  C:\Users\zack.li\AppData\Local\Temp\ccH890rU.s 			page 16


 420:Generated_Source\PSoC4/CapSense_Filter.c ****     uint32 widgetId;
 240              		.loc 1 420 0
 241              		.cfi_startproc
 242              		@ args = 0, pretend = 0, frame = 0
 243              		@ frame_needed = 0, uses_anonymous_args = 0
 244 0000 10B5     		push	{r4, lr}
 245              		.cfi_def_cfa_offset 8
 246              		.cfi_offset 4, -8
 247              		.cfi_offset 14, -4
 248              	.LVL29:
 423:Generated_Source\PSoC4/CapSense_Filter.c ****     {
 249              		.loc 1 423 0
 250 0002 0623     		movs	r3, #6
 251 0004 03E0     		b	.L16
 252              	.LVL30:
 253              	.L17:
 425:Generated_Source\PSoC4/CapSense_Filter.c ****     }
 254              		.loc 1 425 0
 255 0006 2000     		movs	r0, r4
 256 0008 FFF7FEFF 		bl	CapSense_InitializeWidgetBaseline
 257              	.LVL31:
 423:Generated_Source\PSoC4/CapSense_Filter.c ****     {
 258              		.loc 1 423 0
 259 000c 2300     		movs	r3, r4
 260              	.LVL32:
 261              	.L16:
 423:Generated_Source\PSoC4/CapSense_Filter.c ****     {
 262              		.loc 1 423 0 is_stmt 0 discriminator 1
 263 000e 5C1E     		subs	r4, r3, #1
 264              	.LVL33:
 265 0010 002B     		cmp	r3, #0
 266 0012 F8D1     		bne	.L17
 427:Generated_Source\PSoC4/CapSense_Filter.c **** 
 267              		.loc 1 427 0 is_stmt 1
 268              		@ sp needed
 269              	.LVL34:
 270 0014 10BD     		pop	{r4, pc}
 271              		.cfi_endproc
 272              	.LFE6:
 273              		.size	CapSense_InitializeAllBaselines, .-CapSense_InitializeAllBaselines
 274 0016 C046     		.section	.text.CapSense_InitializeIIRInternal,"ax",%progbits
 275              		.align	2
 276              		.global	CapSense_InitializeIIRInternal
 277              		.code	16
 278              		.thumb_func
 279              		.type	CapSense_InitializeIIRInternal, %function
 280              	CapSense_InitializeIIRInternal:
 281              	.LFB15:
 599:Generated_Source\PSoC4/CapSense_Filter.c **** 
 600:Generated_Source\PSoC4/CapSense_Filter.c **** #if ((CapSense_ENABLE == CapSense_RC_FILTER_EN) || \
 601:Generated_Source\PSoC4/CapSense_Filter.c ****      (0u != (CapSense_CSD_AUTOTUNE & CapSense_CSD_SS_TH_EN)))
 602:Generated_Source\PSoC4/CapSense_Filter.c **** /*******************************************************************************
 603:Generated_Source\PSoC4/CapSense_Filter.c **** * Function Name: CapSense_InitializeAllFilters
 604:Generated_Source\PSoC4/CapSense_Filter.c **** ****************************************************************************//**
 605:Generated_Source\PSoC4/CapSense_Filter.c **** *
 606:Generated_Source\PSoC4/CapSense_Filter.c **** * \brief
 607:Generated_Source\PSoC4/CapSense_Filter.c **** *  Initializes (or re-initializes) the raw count filter history of all the
ARM GAS  C:\Users\zack.li\AppData\Local\Temp\ccH890rU.s 			page 17


 608:Generated_Source\PSoC4/CapSense_Filter.c **** *  sensors of all the widgets.
 609:Generated_Source\PSoC4/CapSense_Filter.c **** *
 610:Generated_Source\PSoC4/CapSense_Filter.c **** * \details
 611:Generated_Source\PSoC4/CapSense_Filter.c **** *  Initializes the raw count filter history for all the sensors of all the
 612:Generated_Source\PSoC4/CapSense_Filter.c **** *  widgets. Also, this function can be used to re-initialize baselines.
 613:Generated_Source\PSoC4/CapSense_Filter.c **** *  CapSense_Start() calls this API as part of CapSense
 614:Generated_Source\PSoC4/CapSense_Filter.c **** *  operation initialization.
 615:Generated_Source\PSoC4/CapSense_Filter.c **** *
 616:Generated_Source\PSoC4/CapSense_Filter.c **** *******************************************************************************/
 617:Generated_Source\PSoC4/CapSense_Filter.c **** void CapSense_InitializeAllFilters(void)
 618:Generated_Source\PSoC4/CapSense_Filter.c **** {
 619:Generated_Source\PSoC4/CapSense_Filter.c ****     uint32 widgetId;
 620:Generated_Source\PSoC4/CapSense_Filter.c **** 
 621:Generated_Source\PSoC4/CapSense_Filter.c ****     for(widgetId = CapSense_TOTAL_WIDGETS; widgetId-- > 0u;)
 622:Generated_Source\PSoC4/CapSense_Filter.c ****     {
 623:Generated_Source\PSoC4/CapSense_Filter.c ****         CapSense_InitializeWidgetFilter(widgetId);
 624:Generated_Source\PSoC4/CapSense_Filter.c ****     }
 625:Generated_Source\PSoC4/CapSense_Filter.c **** }
 626:Generated_Source\PSoC4/CapSense_Filter.c **** 
 627:Generated_Source\PSoC4/CapSense_Filter.c **** /*******************************************************************************
 628:Generated_Source\PSoC4/CapSense_Filter.c **** * Function Name: CapSense_InitializeWidgetFilter
 629:Generated_Source\PSoC4/CapSense_Filter.c **** ****************************************************************************//**
 630:Generated_Source\PSoC4/CapSense_Filter.c **** *
 631:Generated_Source\PSoC4/CapSense_Filter.c **** * \brief
 632:Generated_Source\PSoC4/CapSense_Filter.c **** *  Initializes (or re-initializes) the raw count filter history of all the sensors
 633:Generated_Source\PSoC4/CapSense_Filter.c **** *  in a widget specified by the input parameter.
 634:Generated_Source\PSoC4/CapSense_Filter.c **** *
 635:Generated_Source\PSoC4/CapSense_Filter.c **** * \details
 636:Generated_Source\PSoC4/CapSense_Filter.c **** *  Initializes (or re-initializes) the raw count filter history of all the sensors
 637:Generated_Source\PSoC4/CapSense_Filter.c **** *  in a widget specified by the input parameter.
 638:Generated_Source\PSoC4/CapSense_Filter.c **** *
 639:Generated_Source\PSoC4/CapSense_Filter.c **** * \param widgetId
 640:Generated_Source\PSoC4/CapSense_Filter.c **** *  Specifies the ID number of a widget to initialize the filter history of all
 641:Generated_Source\PSoC4/CapSense_Filter.c **** *  the sensors in the widget.
 642:Generated_Source\PSoC4/CapSense_Filter.c **** *  A macro for the widget ID can be found in the
 643:Generated_Source\PSoC4/CapSense_Filter.c **** *  CapSense Configuration header file defined as
 644:Generated_Source\PSoC4/CapSense_Filter.c **** *  CapSense_<WidgetName>_WDGT_ID.
 645:Generated_Source\PSoC4/CapSense_Filter.c **** *
 646:Generated_Source\PSoC4/CapSense_Filter.c **** *******************************************************************************/
 647:Generated_Source\PSoC4/CapSense_Filter.c **** void CapSense_InitializeWidgetFilter(uint32 widgetId)
 648:Generated_Source\PSoC4/CapSense_Filter.c **** {
 649:Generated_Source\PSoC4/CapSense_Filter.c ****     uint32 sensorId;
 650:Generated_Source\PSoC4/CapSense_Filter.c ****     uint32 sensorsNumber;
 651:Generated_Source\PSoC4/CapSense_Filter.c **** 
 652:Generated_Source\PSoC4/CapSense_Filter.c ****     CapSense_FLASH_WD_STRUCT const *ptrWidget;
 653:Generated_Source\PSoC4/CapSense_Filter.c ****     CapSense_RAM_SNS_STRUCT *ptrSensor = NULL;
 654:Generated_Source\PSoC4/CapSense_Filter.c ****     #if (CapSense_ENABLE == CapSense_RC_FILTER_EN)
 655:Generated_Source\PSoC4/CapSense_Filter.c ****         CapSense_PTR_FILTER_VARIANT ptrFilterHistObj;
 656:Generated_Source\PSoC4/CapSense_Filter.c ****     #endif
 657:Generated_Source\PSoC4/CapSense_Filter.c **** 
 658:Generated_Source\PSoC4/CapSense_Filter.c ****     #if (0u != (CapSense_CSD_AUTOTUNE & CapSense_CSD_SS_TH_EN))
 659:Generated_Source\PSoC4/CapSense_Filter.c ****         CapSense_RAM_WD_BASE_STRUCT *ptrWidgetRam;
 660:Generated_Source\PSoC4/CapSense_Filter.c ****         SMARTSENSE_CSD_NOISE_ENVELOPE_STRUCT *ptrNoiseEnvelope = NULL;
 661:Generated_Source\PSoC4/CapSense_Filter.c ****     #endif /* (0u != (CapSense_CSD_AUTOTUNE & CapSense_CSD_SS_TH_EN)) */
 662:Generated_Source\PSoC4/CapSense_Filter.c **** 
 663:Generated_Source\PSoC4/CapSense_Filter.c ****     ptrWidget = &CapSense_dsFlash.wdgtArray[widgetId];
 664:Generated_Source\PSoC4/CapSense_Filter.c **** 
ARM GAS  C:\Users\zack.li\AppData\Local\Temp\ccH890rU.s 			page 18


 665:Generated_Source\PSoC4/CapSense_Filter.c ****     #if (0u != (CapSense_CSD_AUTOTUNE & CapSense_CSD_SS_TH_EN))
 666:Generated_Source\PSoC4/CapSense_Filter.c ****         ptrWidgetRam = ptrWidget->ptr2WdgtRam;
 667:Generated_Source\PSoC4/CapSense_Filter.c ****     #endif /* (0u != (CapSense_CSD_AUTOTUNE & CapSense_CSD_SS_TH_EN)) */
 668:Generated_Source\PSoC4/CapSense_Filter.c **** 
 669:Generated_Source\PSoC4/CapSense_Filter.c ****     /* Find total amount of sensors in specified widget */
 670:Generated_Source\PSoC4/CapSense_Filter.c ****     sensorsNumber = CapSense_GET_SNS_CNT_BY_PTR(ptrWidget);
 671:Generated_Source\PSoC4/CapSense_Filter.c **** 
 672:Generated_Source\PSoC4/CapSense_Filter.c ****     for (sensorId = sensorsNumber; sensorId-- > 0u;)
 673:Generated_Source\PSoC4/CapSense_Filter.c ****     {
 674:Generated_Source\PSoC4/CapSense_Filter.c ****         /* Find pointer to specified sensor object */
 675:Generated_Source\PSoC4/CapSense_Filter.c ****         ptrSensor = ptrWidget->ptr2SnsRam;
 676:Generated_Source\PSoC4/CapSense_Filter.c ****         ptrSensor = &ptrSensor[sensorId];
 677:Generated_Source\PSoC4/CapSense_Filter.c **** 
 678:Generated_Source\PSoC4/CapSense_Filter.c ****         #if (CapSense_ENABLE == CapSense_RC_FILTER_EN)
 679:Generated_Source\PSoC4/CapSense_Filter.c ****             /* Find pointer to to specified filter sensor object */
 680:Generated_Source\PSoC4/CapSense_Filter.c ****             ptrFilterHistObj.ptr = ptrWidget->ptr2FltrHistory;
 681:Generated_Source\PSoC4/CapSense_Filter.c ****         #endif
 682:Generated_Source\PSoC4/CapSense_Filter.c **** 
 683:Generated_Source\PSoC4/CapSense_Filter.c ****         #if (0u != (CapSense_CSD_AUTOTUNE & CapSense_CSD_SS_TH_EN))
 684:Generated_Source\PSoC4/CapSense_Filter.c ****             /* Find pointer to specified noise envelope sensor object */
 685:Generated_Source\PSoC4/CapSense_Filter.c ****             ptrNoiseEnvelope = ptrWidget->ptr2NoiseEnvlp;
 686:Generated_Source\PSoC4/CapSense_Filter.c ****             ptrNoiseEnvelope = &ptrNoiseEnvelope[sensorId];
 687:Generated_Source\PSoC4/CapSense_Filter.c ****         #endif /* (0u != (CapSense_CSD_AUTOTUNE & CapSense_CSD_SS_TH_EN)) */
 688:Generated_Source\PSoC4/CapSense_Filter.c **** 
 689:Generated_Source\PSoC4/CapSense_Filter.c ****         if ((CapSense_WD_TYPE_ENUM)ptrWidget->wdgtType != CapSense_WD_PROXIMITY_E)
 690:Generated_Source\PSoC4/CapSense_Filter.c ****         {
 691:Generated_Source\PSoC4/CapSense_Filter.c ****             #if (0u != CapSense_REGULAR_RC_ALP_FILTER_EN)
 692:Generated_Source\PSoC4/CapSense_Filter.c ****                 ptrFilterHistObj.ptrAlp = &ptrFilterHistObj.ptrAlp[sensorId];
 693:Generated_Source\PSoC4/CapSense_Filter.c ****             #elif (0u != CapSense_REGULAR_RC_FILTER_EN)
 694:Generated_Source\PSoC4/CapSense_Filter.c ****                 ptrFilterHistObj.ptrRegular = &ptrFilterHistObj.ptrRegular[sensorId];
 695:Generated_Source\PSoC4/CapSense_Filter.c ****             #endif
 696:Generated_Source\PSoC4/CapSense_Filter.c ****         }
 697:Generated_Source\PSoC4/CapSense_Filter.c ****         else
 698:Generated_Source\PSoC4/CapSense_Filter.c ****         {
 699:Generated_Source\PSoC4/CapSense_Filter.c ****             #if (0u != CapSense_PROX_RC_ALP_FILTER_EN)
 700:Generated_Source\PSoC4/CapSense_Filter.c ****                 ptrFilterHistObj.ptrAlp = &ptrFilterHistObj.ptrAlp[sensorId];
 701:Generated_Source\PSoC4/CapSense_Filter.c ****             #elif (0u != CapSense_PROX_RC_FILTER_EN)
 702:Generated_Source\PSoC4/CapSense_Filter.c ****                 ptrFilterHistObj.ptrProx = &ptrFilterHistObj.ptrProx[sensorId];
 703:Generated_Source\PSoC4/CapSense_Filter.c ****             #endif /* #if (0u != CapSense_PROX_RC_FILTER_EN) */
 704:Generated_Source\PSoC4/CapSense_Filter.c ****         }
 705:Generated_Source\PSoC4/CapSense_Filter.c **** 
 706:Generated_Source\PSoC4/CapSense_Filter.c ****         #if (CapSense_REGULAR_RC_IIR_FILTER_EN || CapSense_PROX_RC_IIR_FILTER_EN)
 707:Generated_Source\PSoC4/CapSense_Filter.c ****             CapSense_InitializeIIRInternal(ptrFilterHistObj, ptrSensor, (uint32)ptrWidget->wdgtType
 708:Generated_Source\PSoC4/CapSense_Filter.c ****         #endif /* (CapSense_REGULAR_RC_IIR_FILTER_EN || CapSense_PROX_RC_IIR_FILTER_EN) */
 709:Generated_Source\PSoC4/CapSense_Filter.c **** 
 710:Generated_Source\PSoC4/CapSense_Filter.c ****         #if (CapSense_REGULAR_RC_MEDIAN_FILTER_EN || CapSense_PROX_RC_MEDIAN_FILTER_EN)
 711:Generated_Source\PSoC4/CapSense_Filter.c ****             CapSense_InitializeMedianInternal(ptrFilterHistObj, ptrSensor, (uint32)ptrWidget->wdgtT
 712:Generated_Source\PSoC4/CapSense_Filter.c ****         #endif /* (CapSense_REGULAR_RC_MEDIAN_FILTER_EN || CapSense_PROX_RC_MEDIAN_FILTER_EN) */
 713:Generated_Source\PSoC4/CapSense_Filter.c **** 
 714:Generated_Source\PSoC4/CapSense_Filter.c ****         #if (CapSense_REGULAR_RC_AVERAGE_FILTER_EN || CapSense_PROX_RC_AVERAGE_FILTER_EN)
 715:Generated_Source\PSoC4/CapSense_Filter.c ****             CapSense_InitializeAverageInternal(ptrFilterHistObj, ptrSensor, (uint32)ptrWidget->wdgt
 716:Generated_Source\PSoC4/CapSense_Filter.c ****         #endif /* (CapSense_REGULAR_RC_AVERAGE_FILTER_EN || CapSense_PROX_RC_AVERAGE_FILTER_EN) */
 717:Generated_Source\PSoC4/CapSense_Filter.c **** 
 718:Generated_Source\PSoC4/CapSense_Filter.c ****         #if (CapSense_ALP_FILTER_EN)
 719:Generated_Source\PSoC4/CapSense_Filter.c ****             CapSense_InitializeALPInternal(ptrFilterHistObj, ptrSensor, (uint32)ptrWidget->wdgtType
 720:Generated_Source\PSoC4/CapSense_Filter.c ****         #endif
 721:Generated_Source\PSoC4/CapSense_Filter.c **** 
ARM GAS  C:\Users\zack.li\AppData\Local\Temp\ccH890rU.s 			page 19


 722:Generated_Source\PSoC4/CapSense_Filter.c ****         #if (0u != (CapSense_CSD_AUTOTUNE & CapSense_CSD_SS_TH_EN))
 723:Generated_Source\PSoC4/CapSense_Filter.c ****             if (CapSense_SENSE_METHOD_CSD_E ==
 724:Generated_Source\PSoC4/CapSense_Filter.c ****                 CapSense_GET_SENSE_METHOD(&CapSense_dsFlash.wdgtArray[widgetId]))
 725:Generated_Source\PSoC4/CapSense_Filter.c ****             {
 726:Generated_Source\PSoC4/CapSense_Filter.c ****                 SmartSense_InitializeNoiseEnvelope(ptrSensor->raw[0u], ptrWidgetRam->sigPFC, ptrNoi
 727:Generated_Source\PSoC4/CapSense_Filter.c ****             }
 728:Generated_Source\PSoC4/CapSense_Filter.c ****         #endif /* (0u != (CapSense_CSD_AUTOTUNE & CapSense_CSD_SS_TH_EN)) */
 729:Generated_Source\PSoC4/CapSense_Filter.c ****     }
 730:Generated_Source\PSoC4/CapSense_Filter.c **** }
 731:Generated_Source\PSoC4/CapSense_Filter.c **** #endif /* ((CapSense_ENABLE == CapSense_RC_FILTER_EN) || \
 732:Generated_Source\PSoC4/CapSense_Filter.c ****            (0u != (CapSense_CSD_AUTOTUNE & CapSense_CSD_SS_TH_EN))) */
 733:Generated_Source\PSoC4/CapSense_Filter.c **** 
 734:Generated_Source\PSoC4/CapSense_Filter.c **** #if (CapSense_REGULAR_RC_IIR_FILTER_EN || CapSense_PROX_RC_IIR_FILTER_EN)
 735:Generated_Source\PSoC4/CapSense_Filter.c **** /*******************************************************************************
 736:Generated_Source\PSoC4/CapSense_Filter.c **** * Function Name: CapSense_InitializeIIR
 737:Generated_Source\PSoC4/CapSense_Filter.c **** ****************************************************************************//**
 738:Generated_Source\PSoC4/CapSense_Filter.c **** *
 739:Generated_Source\PSoC4/CapSense_Filter.c **** * \brief
 740:Generated_Source\PSoC4/CapSense_Filter.c **** *  Initialize the IIR filter history.
 741:Generated_Source\PSoC4/CapSense_Filter.c **** *
 742:Generated_Source\PSoC4/CapSense_Filter.c **** * \details
 743:Generated_Source\PSoC4/CapSense_Filter.c **** *  Initialize the IIR filter history.
 744:Generated_Source\PSoC4/CapSense_Filter.c **** *
 745:Generated_Source\PSoC4/CapSense_Filter.c **** * \param widgetId
 746:Generated_Source\PSoC4/CapSense_Filter.c **** *  Specifies the ID number of the widget.
 747:Generated_Source\PSoC4/CapSense_Filter.c **** *
 748:Generated_Source\PSoC4/CapSense_Filter.c **** * \param sensorId
 749:Generated_Source\PSoC4/CapSense_Filter.c **** *  Specifies the ID number of the sensor in the widget.
 750:Generated_Source\PSoC4/CapSense_Filter.c **** *
 751:Generated_Source\PSoC4/CapSense_Filter.c **** *******************************************************************************/
 752:Generated_Source\PSoC4/CapSense_Filter.c **** void CapSense_InitializeIIR(uint32 widgetId, uint32 sensorId)
 753:Generated_Source\PSoC4/CapSense_Filter.c **** {
 754:Generated_Source\PSoC4/CapSense_Filter.c ****     CapSense_FLASH_WD_STRUCT const *ptrWidget = &CapSense_dsFlash.wdgtArray[widgetId];
 755:Generated_Source\PSoC4/CapSense_Filter.c ****     CapSense_RAM_SNS_STRUCT *ptrSensor = NULL;
 756:Generated_Source\PSoC4/CapSense_Filter.c ****     CapSense_PTR_FILTER_VARIANT ptrFilterHistObj;
 757:Generated_Source\PSoC4/CapSense_Filter.c **** 
 758:Generated_Source\PSoC4/CapSense_Filter.c ****     /* Find pointer to specified sensor object */
 759:Generated_Source\PSoC4/CapSense_Filter.c ****     ptrSensor = ptrWidget->ptr2SnsRam;
 760:Generated_Source\PSoC4/CapSense_Filter.c ****     ptrSensor = &ptrSensor[sensorId];
 761:Generated_Source\PSoC4/CapSense_Filter.c **** 
 762:Generated_Source\PSoC4/CapSense_Filter.c ****     /* Find pointer to specified filter sensor object */
 763:Generated_Source\PSoC4/CapSense_Filter.c ****     ptrFilterHistObj.ptr = ptrWidget->ptr2FltrHistory;
 764:Generated_Source\PSoC4/CapSense_Filter.c **** 
 765:Generated_Source\PSoC4/CapSense_Filter.c ****     if ((CapSense_WD_TYPE_ENUM)ptrWidget->wdgtType != CapSense_WD_PROXIMITY_E)
 766:Generated_Source\PSoC4/CapSense_Filter.c ****     {
 767:Generated_Source\PSoC4/CapSense_Filter.c ****         #if (CapSense_REGULAR_SENSOR_EN)
 768:Generated_Source\PSoC4/CapSense_Filter.c ****             ptrFilterHistObj.ptrRegular = &ptrFilterHistObj.ptrRegular[sensorId];
 769:Generated_Source\PSoC4/CapSense_Filter.c ****         #endif /* (CapSense_REGULAR_SENSOR_EN) */
 770:Generated_Source\PSoC4/CapSense_Filter.c ****     }
 771:Generated_Source\PSoC4/CapSense_Filter.c ****     else
 772:Generated_Source\PSoC4/CapSense_Filter.c ****     {
 773:Generated_Source\PSoC4/CapSense_Filter.c ****         #if (CapSense_PROXIMITY_SENSOR_EN)
 774:Generated_Source\PSoC4/CapSense_Filter.c ****             ptrFilterHistObj.ptrProx = &ptrFilterHistObj.ptrProx[sensorId];
 775:Generated_Source\PSoC4/CapSense_Filter.c ****         #endif /* (CapSense_PROXIMITY_SENSOR_EN) */
 776:Generated_Source\PSoC4/CapSense_Filter.c ****     }
 777:Generated_Source\PSoC4/CapSense_Filter.c **** 
 778:Generated_Source\PSoC4/CapSense_Filter.c ****     CapSense_InitializeIIRInternal(ptrFilterHistObj, ptrSensor, (uint32)ptrWidget->wdgtType);
ARM GAS  C:\Users\zack.li\AppData\Local\Temp\ccH890rU.s 			page 20


 779:Generated_Source\PSoC4/CapSense_Filter.c **** }
 780:Generated_Source\PSoC4/CapSense_Filter.c **** 
 781:Generated_Source\PSoC4/CapSense_Filter.c **** 
 782:Generated_Source\PSoC4/CapSense_Filter.c **** /*******************************************************************************
 783:Generated_Source\PSoC4/CapSense_Filter.c **** * Function Name: CapSense_RunIIR
 784:Generated_Source\PSoC4/CapSense_Filter.c **** ****************************************************************************//**
 785:Generated_Source\PSoC4/CapSense_Filter.c **** *
 786:Generated_Source\PSoC4/CapSense_Filter.c **** * \brief
 787:Generated_Source\PSoC4/CapSense_Filter.c **** *  Executes the IIR filter algorithm on a sensor indicated by an input
 788:Generated_Source\PSoC4/CapSense_Filter.c **** *  parameter.
 789:Generated_Source\PSoC4/CapSense_Filter.c **** *
 790:Generated_Source\PSoC4/CapSense_Filter.c **** * \details
 791:Generated_Source\PSoC4/CapSense_Filter.c **** *  Executes the IIR filter algorithm on a sensor indicated by an input
 792:Generated_Source\PSoC4/CapSense_Filter.c **** *  parameter.
 793:Generated_Source\PSoC4/CapSense_Filter.c **** *
 794:Generated_Source\PSoC4/CapSense_Filter.c **** * \param widgetId
 795:Generated_Source\PSoC4/CapSense_Filter.c **** *  Specifies the ID number of the widget.
 796:Generated_Source\PSoC4/CapSense_Filter.c **** *
 797:Generated_Source\PSoC4/CapSense_Filter.c **** * \param sensorId
 798:Generated_Source\PSoC4/CapSense_Filter.c **** *  Specifies the ID number of the sensor in the widget.
 799:Generated_Source\PSoC4/CapSense_Filter.c **** *
 800:Generated_Source\PSoC4/CapSense_Filter.c **** *******************************************************************************/
 801:Generated_Source\PSoC4/CapSense_Filter.c **** void CapSense_RunIIR(uint32 widgetId, uint32 sensorId)
 802:Generated_Source\PSoC4/CapSense_Filter.c **** {
 803:Generated_Source\PSoC4/CapSense_Filter.c ****     CapSense_FLASH_WD_STRUCT const *ptrWidget = &CapSense_dsFlash.wdgtArray[widgetId];
 804:Generated_Source\PSoC4/CapSense_Filter.c ****     CapSense_RAM_SNS_STRUCT *ptrSensor = NULL;
 805:Generated_Source\PSoC4/CapSense_Filter.c ****     CapSense_PTR_FILTER_VARIANT ptrFilterHistObj;
 806:Generated_Source\PSoC4/CapSense_Filter.c **** 
 807:Generated_Source\PSoC4/CapSense_Filter.c ****     /* Find pointer to specified sensor object */
 808:Generated_Source\PSoC4/CapSense_Filter.c ****     ptrSensor = ptrWidget->ptr2SnsRam;
 809:Generated_Source\PSoC4/CapSense_Filter.c ****     ptrSensor = &ptrSensor[sensorId];
 810:Generated_Source\PSoC4/CapSense_Filter.c **** 
 811:Generated_Source\PSoC4/CapSense_Filter.c ****     /* Find pointer to specified filter sensor object */
 812:Generated_Source\PSoC4/CapSense_Filter.c ****     ptrFilterHistObj.ptr = ptrWidget->ptr2FltrHistory;
 813:Generated_Source\PSoC4/CapSense_Filter.c **** 
 814:Generated_Source\PSoC4/CapSense_Filter.c ****     if ((CapSense_WD_TYPE_ENUM)ptrWidget->wdgtType != CapSense_WD_PROXIMITY_E)
 815:Generated_Source\PSoC4/CapSense_Filter.c ****     {
 816:Generated_Source\PSoC4/CapSense_Filter.c ****         #if (CapSense_REGULAR_SENSOR_EN)
 817:Generated_Source\PSoC4/CapSense_Filter.c ****             ptrFilterHistObj.ptrRegular = &ptrFilterHistObj.ptrRegular[sensorId];
 818:Generated_Source\PSoC4/CapSense_Filter.c ****         #endif /* (CapSense_REGULAR_SENSOR_EN) */
 819:Generated_Source\PSoC4/CapSense_Filter.c ****     }
 820:Generated_Source\PSoC4/CapSense_Filter.c ****     else
 821:Generated_Source\PSoC4/CapSense_Filter.c ****     {
 822:Generated_Source\PSoC4/CapSense_Filter.c ****         #if (CapSense_PROXIMITY_SENSOR_EN)
 823:Generated_Source\PSoC4/CapSense_Filter.c ****             ptrFilterHistObj.ptrProx = &ptrFilterHistObj.ptrProx[sensorId];
 824:Generated_Source\PSoC4/CapSense_Filter.c ****         #endif /* (CapSense_PROXIMITY_SENSOR_EN) */
 825:Generated_Source\PSoC4/CapSense_Filter.c ****     }
 826:Generated_Source\PSoC4/CapSense_Filter.c **** 
 827:Generated_Source\PSoC4/CapSense_Filter.c ****     CapSense_RunIIRInternal(ptrFilterHistObj, ptrSensor, (uint32)ptrWidget->wdgtType);
 828:Generated_Source\PSoC4/CapSense_Filter.c **** }
 829:Generated_Source\PSoC4/CapSense_Filter.c **** 
 830:Generated_Source\PSoC4/CapSense_Filter.c **** /*******************************************************************************
 831:Generated_Source\PSoC4/CapSense_Filter.c **** * Function Name: CapSense_InitializeIIRInternal
 832:Generated_Source\PSoC4/CapSense_Filter.c **** ****************************************************************************//**
 833:Generated_Source\PSoC4/CapSense_Filter.c **** *
 834:Generated_Source\PSoC4/CapSense_Filter.c **** * \brief
 835:Generated_Source\PSoC4/CapSense_Filter.c **** *  Initializes the IIR filter history.
ARM GAS  C:\Users\zack.li\AppData\Local\Temp\ccH890rU.s 			page 21


 836:Generated_Source\PSoC4/CapSense_Filter.c **** *
 837:Generated_Source\PSoC4/CapSense_Filter.c **** * \details
 838:Generated_Source\PSoC4/CapSense_Filter.c **** *  Initializes the IIR filter history.
 839:Generated_Source\PSoC4/CapSense_Filter.c **** *
 840:Generated_Source\PSoC4/CapSense_Filter.c **** * \param ptrFilterHistObj
 841:Generated_Source\PSoC4/CapSense_Filter.c **** *  The pointer to the filter RAM object of the sensor.
 842:Generated_Source\PSoC4/CapSense_Filter.c **** *
 843:Generated_Source\PSoC4/CapSense_Filter.c **** * \param ptrSensorObj
 844:Generated_Source\PSoC4/CapSense_Filter.c **** *  The pointer to the sensor RAM object of the sensor.
 845:Generated_Source\PSoC4/CapSense_Filter.c **** *
 846:Generated_Source\PSoC4/CapSense_Filter.c **** * \param wdType
 847:Generated_Source\PSoC4/CapSense_Filter.c **** *  Specifies the type of a widget.
 848:Generated_Source\PSoC4/CapSense_Filter.c **** *
 849:Generated_Source\PSoC4/CapSense_Filter.c **** *******************************************************************************/
 850:Generated_Source\PSoC4/CapSense_Filter.c **** void CapSense_InitializeIIRInternal(CapSense_PTR_FILTER_VARIANT ptrFilterHistObj,
 851:Generated_Source\PSoC4/CapSense_Filter.c ****                                             CapSense_RAM_SNS_STRUCT *ptrSensorObj, uint32 wdType)
 852:Generated_Source\PSoC4/CapSense_Filter.c **** {
 282              		.loc 1 852 0
 283              		.cfi_startproc
 284              		@ args = 0, pretend = 0, frame = 0
 285              		@ frame_needed = 0, uses_anonymous_args = 0
 286              	.LVL35:
 287 0000 70B5     		push	{r4, r5, r6, lr}
 288              		.cfi_def_cfa_offset 16
 289              		.cfi_offset 4, -16
 290              		.cfi_offset 5, -12
 291              		.cfi_offset 6, -8
 292              		.cfi_offset 14, -4
 293              	.LVL36:
 853:Generated_Source\PSoC4/CapSense_Filter.c ****     uint32 freqChannel;
 854:Generated_Source\PSoC4/CapSense_Filter.c **** 
 855:Generated_Source\PSoC4/CapSense_Filter.c ****     for(freqChannel = CapSense_NUM_SCAN_FREQS; freqChannel-- > 0u;)
 294              		.loc 1 855 0
 295 0002 0123     		movs	r3, #1
 296 0004 0FE0     		b	.L19
 297              	.LVL37:
 298              	.L22:
 856:Generated_Source\PSoC4/CapSense_Filter.c ****     {
 857:Generated_Source\PSoC4/CapSense_Filter.c ****         if ((CapSense_WD_TYPE_ENUM)wdType != CapSense_WD_PROXIMITY_E)
 299              		.loc 1 857 0
 300 0006 FF23     		movs	r3, #255
 301 0008 1340     		ands	r3, r2
 302 000a 062B     		cmp	r3, #6
 303 000c 05D0     		beq	.L20
 858:Generated_Source\PSoC4/CapSense_Filter.c ****         {
 859:Generated_Source\PSoC4/CapSense_Filter.c ****             #if (CapSense_REGULAR_SENSOR_EN && CapSense_REGULAR_RC_IIR_FILTER_EN)
 860:Generated_Source\PSoC4/CapSense_Filter.c ****                 #if (CapSense_REGULAR_IIR_RC_TYPE == CapSense_IIR_FILTER_PERFORMANCE)
 861:Generated_Source\PSoC4/CapSense_Filter.c ****                     ptrFilterHistObj.ptrRegular->regularChannel[freqChannel].iirHistory = ptrSensor
 862:Generated_Source\PSoC4/CapSense_Filter.c ****                     ptrFilterHistObj.ptrRegular->regularChannel[freqChannel].iirHistoryLow = 0u;
 863:Generated_Source\PSoC4/CapSense_Filter.c ****                 #else
 864:Generated_Source\PSoC4/CapSense_Filter.c ****                     ptrFilterHistObj.ptrRegular->regularChannel[freqChannel].iirHistory = ptrSensor
 304              		.loc 1 864 0
 305 000e 6300     		lsls	r3, r4, #1
 306 0010 5E5A     		ldrh	r6, [r3, r1]
 307 0012 1B19     		adds	r3, r3, r4
 308 0014 9D00     		lsls	r5, r3, #2
 309 0016 2E52     		strh	r6, [r5, r0]
ARM GAS  C:\Users\zack.li\AppData\Local\Temp\ccH890rU.s 			page 22


 310 0018 04E0     		b	.L21
 311              	.L20:
 865:Generated_Source\PSoC4/CapSense_Filter.c ****                 #endif /* (CapSense_REGULAR_IIR_RC_TYPE == CapSense_IIR_FILTER_PERFORMANCE) */
 866:Generated_Source\PSoC4/CapSense_Filter.c ****             #endif /* (CapSense_REGULAR_SENSOR_EN) */
 867:Generated_Source\PSoC4/CapSense_Filter.c ****         }
 868:Generated_Source\PSoC4/CapSense_Filter.c ****         else
 869:Generated_Source\PSoC4/CapSense_Filter.c ****         {
 870:Generated_Source\PSoC4/CapSense_Filter.c ****             #if (CapSense_PROXIMITY_SENSOR_EN && CapSense_PROX_RC_IIR_FILTER_EN)
 871:Generated_Source\PSoC4/CapSense_Filter.c ****                 #if (CapSense_PROX_IIR_RC_TYPE == CapSense_IIR_FILTER_PERFORMANCE)
 872:Generated_Source\PSoC4/CapSense_Filter.c ****                     ptrFilterHistObj.ptrProx->proxChannel[freqChannel].iirHistory = ptrSensorObj->r
 873:Generated_Source\PSoC4/CapSense_Filter.c ****                     ptrFilterHistObj.ptrProx->proxChannel[freqChannel].iirHistoryLow = 0u;
 874:Generated_Source\PSoC4/CapSense_Filter.c ****                 #else
 875:Generated_Source\PSoC4/CapSense_Filter.c ****                     ptrFilterHistObj.ptrProx->proxChannel[freqChannel].iirHistory = ptrSensorObj->r
 312              		.loc 1 875 0
 313 001a 6300     		lsls	r3, r4, #1
 314 001c 5E5A     		ldrh	r6, [r3, r1]
 315 001e 1B19     		adds	r3, r3, r4
 316 0020 9D00     		lsls	r5, r3, #2
 317 0022 2E52     		strh	r6, [r5, r0]
 318              	.L21:
 852:Generated_Source\PSoC4/CapSense_Filter.c ****     uint32 freqChannel;
 319              		.loc 1 852 0 discriminator 1
 320 0024 2300     		movs	r3, r4
 321              	.LVL38:
 322              	.L19:
 855:Generated_Source\PSoC4/CapSense_Filter.c ****     {
 323              		.loc 1 855 0 discriminator 1
 324 0026 5C1E     		subs	r4, r3, #1
 325              	.LVL39:
 326 0028 002B     		cmp	r3, #0
 327 002a ECD1     		bne	.L22
 876:Generated_Source\PSoC4/CapSense_Filter.c ****                 #endif /* (CapSense_PROX_IIR_RC_TYPE == CapSense_IIR_FILTER_PERFORMANCE) */
 877:Generated_Source\PSoC4/CapSense_Filter.c ****             #endif /* (CapSense_PROX_SENSOR_EN) */
 878:Generated_Source\PSoC4/CapSense_Filter.c ****         }
 879:Generated_Source\PSoC4/CapSense_Filter.c ****     }
 880:Generated_Source\PSoC4/CapSense_Filter.c **** }
 328              		.loc 1 880 0
 329              		@ sp needed
 330              	.LVL40:
 331 002c 70BD     		pop	{r4, r5, r6, pc}
 332              		.cfi_endproc
 333              	.LFE15:
 334              		.size	CapSense_InitializeIIRInternal, .-CapSense_InitializeIIRInternal
 335 002e C046     		.section	.text.CapSense_InitializeIIR,"ax",%progbits
 336              		.align	2
 337              		.global	CapSense_InitializeIIR
 338              		.code	16
 339              		.thumb_func
 340              		.type	CapSense_InitializeIIR, %function
 341              	CapSense_InitializeIIR:
 342              	.LFB13:
 753:Generated_Source\PSoC4/CapSense_Filter.c ****     CapSense_FLASH_WD_STRUCT const *ptrWidget = &CapSense_dsFlash.wdgtArray[widgetId];
 343              		.loc 1 753 0
 344              		.cfi_startproc
 345              		@ args = 0, pretend = 0, frame = 0
 346              		@ frame_needed = 0, uses_anonymous_args = 0
 347              	.LVL41:
ARM GAS  C:\Users\zack.li\AppData\Local\Temp\ccH890rU.s 			page 23


 348 0000 70B5     		push	{r4, r5, r6, lr}
 349              		.cfi_def_cfa_offset 16
 350              		.cfi_offset 4, -16
 351              		.cfi_offset 5, -12
 352              		.cfi_offset 6, -8
 353              		.cfi_offset 14, -4
 354 0002 0B00     		movs	r3, r1
 355              	.LVL42:
 759:Generated_Source\PSoC4/CapSense_Filter.c ****     ptrSensor = &ptrSensor[sensorId];
 356              		.loc 1 759 0
 357 0004 0E4E     		ldr	r6, .L26
 358 0006 C200     		lsls	r2, r0, #3
 359 0008 111A     		subs	r1, r2, r0
 360              	.LVL43:
 361 000a 8C00     		lsls	r4, r1, #2
 362 000c 3419     		adds	r4, r6, r4
 363              	.LVL44:
 760:Generated_Source\PSoC4/CapSense_Filter.c **** 
 364              		.loc 1 760 0
 365 000e 9D00     		lsls	r5, r3, #2
 366 0010 ED18     		adds	r5, r5, r3
 367 0012 6900     		lsls	r1, r5, #1
 368 0014 A568     		ldr	r5, [r4, #8]
 369 0016 AC46     		mov	ip, r5
 370 0018 6144     		add	r1, r1, ip
 371              	.LVL45:
 763:Generated_Source\PSoC4/CapSense_Filter.c **** 
 372              		.loc 1 763 0
 373 001a E568     		ldr	r5, [r4, #12]
 765:Generated_Source\PSoC4/CapSense_Filter.c ****     {
 374              		.loc 1 765 0
 375 001c 121A     		subs	r2, r2, r0
 376 001e 9400     		lsls	r4, r2, #2
 377 0020 3419     		adds	r4, r6, r4
 378 0022 A27E     		ldrb	r2, [r4, #26]
 379 0024 062A     		cmp	r2, #6
 380 0026 04D0     		beq	.L24
 768:Generated_Source\PSoC4/CapSense_Filter.c ****         #endif /* (CapSense_REGULAR_SENSOR_EN) */
 381              		.loc 1 768 0
 382 0028 5800     		lsls	r0, r3, #1
 383              	.LVL46:
 384 002a C318     		adds	r3, r0, r3
 385              	.LVL47:
 386 002c 9800     		lsls	r0, r3, #2
 387 002e 2818     		adds	r0, r5, r0
 388              	.LVL48:
 389 0030 03E0     		b	.L25
 390              	.LVL49:
 391              	.L24:
 774:Generated_Source\PSoC4/CapSense_Filter.c ****         #endif /* (CapSense_PROXIMITY_SENSOR_EN) */
 392              		.loc 1 774 0
 393 0032 5800     		lsls	r0, r3, #1
 394              	.LVL50:
 395 0034 C318     		adds	r3, r0, r3
 396              	.LVL51:
 397 0036 9800     		lsls	r0, r3, #2
 398 0038 2818     		adds	r0, r5, r0
ARM GAS  C:\Users\zack.li\AppData\Local\Temp\ccH890rU.s 			page 24


 399              	.L25:
 778:Generated_Source\PSoC4/CapSense_Filter.c **** }
 400              		.loc 1 778 0
 401 003a FFF7FEFF 		bl	CapSense_InitializeIIRInternal
 402              	.LVL52:
 779:Generated_Source\PSoC4/CapSense_Filter.c **** 
 403              		.loc 1 779 0
 404              		@ sp needed
 405              	.LVL53:
 406              	.LVL54:
 407 003e 70BD     		pop	{r4, r5, r6, pc}
 408              	.L27:
 409              		.align	2
 410              	.L26:
 411 0040 00000000 		.word	CapSense_dsFlash
 412              		.cfi_endproc
 413              	.LFE13:
 414              		.size	CapSense_InitializeIIR, .-CapSense_InitializeIIR
 415              		.section	.text.CapSense_InitializeMedianInternal,"ax",%progbits
 416              		.align	2
 417              		.global	CapSense_InitializeMedianInternal
 418              		.code	16
 419              		.thumb_func
 420              		.type	CapSense_InitializeMedianInternal, %function
 421              	CapSense_InitializeMedianInternal:
 422              	.LFB19:
 881:Generated_Source\PSoC4/CapSense_Filter.c **** 
 882:Generated_Source\PSoC4/CapSense_Filter.c **** 
 883:Generated_Source\PSoC4/CapSense_Filter.c **** /*******************************************************************************
 884:Generated_Source\PSoC4/CapSense_Filter.c **** * Function Name: CapSense_RunIIRInternal
 885:Generated_Source\PSoC4/CapSense_Filter.c **** ****************************************************************************//**
 886:Generated_Source\PSoC4/CapSense_Filter.c **** *
 887:Generated_Source\PSoC4/CapSense_Filter.c **** * \brief
 888:Generated_Source\PSoC4/CapSense_Filter.c **** *  Run the IIR filter.
 889:Generated_Source\PSoC4/CapSense_Filter.c **** *
 890:Generated_Source\PSoC4/CapSense_Filter.c **** * \details
 891:Generated_Source\PSoC4/CapSense_Filter.c **** *  Run the IIR filter.
 892:Generated_Source\PSoC4/CapSense_Filter.c **** *
 893:Generated_Source\PSoC4/CapSense_Filter.c **** * \param ptrFilterHistObj
 894:Generated_Source\PSoC4/CapSense_Filter.c **** *  The pointer to the filter RAM object of the sensor.
 895:Generated_Source\PSoC4/CapSense_Filter.c **** *
 896:Generated_Source\PSoC4/CapSense_Filter.c **** * \param ptrSensorObj
 897:Generated_Source\PSoC4/CapSense_Filter.c **** *  The pointer to the sensor RAM object of the sensor.
 898:Generated_Source\PSoC4/CapSense_Filter.c **** *
 899:Generated_Source\PSoC4/CapSense_Filter.c **** * \param wdType
 900:Generated_Source\PSoC4/CapSense_Filter.c **** *  Specifies the type of a widget.
 901:Generated_Source\PSoC4/CapSense_Filter.c **** *
 902:Generated_Source\PSoC4/CapSense_Filter.c **** *******************************************************************************/
 903:Generated_Source\PSoC4/CapSense_Filter.c **** void CapSense_RunIIRInternal(CapSense_PTR_FILTER_VARIANT ptrFilterHistObj,
 904:Generated_Source\PSoC4/CapSense_Filter.c ****                                      CapSense_RAM_SNS_STRUCT *ptrSensorObj, uint32 wdType)
 905:Generated_Source\PSoC4/CapSense_Filter.c **** {
 906:Generated_Source\PSoC4/CapSense_Filter.c ****     uint32 freqChannel;
 907:Generated_Source\PSoC4/CapSense_Filter.c ****     uint32 temp;
 908:Generated_Source\PSoC4/CapSense_Filter.c **** 
 909:Generated_Source\PSoC4/CapSense_Filter.c ****     for(freqChannel = CapSense_NUM_SCAN_FREQS; freqChannel-- > 0u;)
 910:Generated_Source\PSoC4/CapSense_Filter.c ****     {
 911:Generated_Source\PSoC4/CapSense_Filter.c ****         if ((CapSense_WD_TYPE_ENUM)wdType != CapSense_WD_PROXIMITY_E)
ARM GAS  C:\Users\zack.li\AppData\Local\Temp\ccH890rU.s 			page 25


 912:Generated_Source\PSoC4/CapSense_Filter.c ****         {
 913:Generated_Source\PSoC4/CapSense_Filter.c ****             #if (CapSense_REGULAR_SENSOR_EN && CapSense_REGULAR_RC_IIR_FILTER_EN)
 914:Generated_Source\PSoC4/CapSense_Filter.c ****                 #if (CapSense_REGULAR_IIR_RC_TYPE == CapSense_IIR_FILTER_PERFORMANCE)
 915:Generated_Source\PSoC4/CapSense_Filter.c ****                     temp = ((uint32)ptrFilterHistObj.ptrRegular->regularChannel[freqChannel].iirHis
 916:Generated_Source\PSoC4/CapSense_Filter.c ****                     temp |= ptrFilterHistObj.ptrRegular->regularChannel[freqChannel].iirHistoryLow;
 917:Generated_Source\PSoC4/CapSense_Filter.c ****                     temp = CapSense_FtIIR1stOrder((uint32)ptrSensorObj->raw[freqChannel],
 918:Generated_Source\PSoC4/CapSense_Filter.c ****                                                         temp,
 919:Generated_Source\PSoC4/CapSense_Filter.c ****                                                         CapSense_REGULAR_IIR_RC_N,
 920:Generated_Source\PSoC4/CapSense_Filter.c ****                                                         CapSense_REGULAR_IIR_RC_SHIFT);
 921:Generated_Source\PSoC4/CapSense_Filter.c ****                     ptrFilterHistObj.ptrRegular->regularChannel[freqChannel].iirHistory = LO16(temp
 922:Generated_Source\PSoC4/CapSense_Filter.c ****                     ptrFilterHistObj.ptrRegular->regularChannel[freqChannel].iirHistoryLow = LO8(te
 923:Generated_Source\PSoC4/CapSense_Filter.c ****                     ptrSensorObj->raw[freqChannel] = LO16(temp >>CapSense_REGULAR_IIR_RC_SHIFT);
 924:Generated_Source\PSoC4/CapSense_Filter.c ****                 #else
 925:Generated_Source\PSoC4/CapSense_Filter.c ****                     temp =CapSense_FtIIR1stOrder((uint32)ptrSensorObj->raw[freqChannel],
 926:Generated_Source\PSoC4/CapSense_Filter.c ****                                                         (uint32)ptrFilterHistObj.ptrRegular->regula
 927:Generated_Source\PSoC4/CapSense_Filter.c ****                                                         CapSense_REGULAR_IIR_RC_N,
 928:Generated_Source\PSoC4/CapSense_Filter.c ****                                                         CapSense_REGULAR_IIR_RC_SHIFT);
 929:Generated_Source\PSoC4/CapSense_Filter.c ****                     ptrFilterHistObj.ptrRegular->regularChannel[freqChannel].iirHistory = LO16(temp
 930:Generated_Source\PSoC4/CapSense_Filter.c ****                     ptrSensorObj->raw[freqChannel] = LO16(temp >>CapSense_REGULAR_IIR_RC_SHIFT);
 931:Generated_Source\PSoC4/CapSense_Filter.c ****                 #endif /* (CapSense_REGULAR_IIR_RC_TYPE == CapSense_IIR_FILTER_PERFORMANCE) */
 932:Generated_Source\PSoC4/CapSense_Filter.c ****             #endif /* (CapSense_REGULAR_SENSOR_EN) */
 933:Generated_Source\PSoC4/CapSense_Filter.c ****         }
 934:Generated_Source\PSoC4/CapSense_Filter.c ****         else
 935:Generated_Source\PSoC4/CapSense_Filter.c ****         {
 936:Generated_Source\PSoC4/CapSense_Filter.c ****             #if (CapSense_PROXIMITY_SENSOR_EN && CapSense_PROX_RC_IIR_FILTER_EN)
 937:Generated_Source\PSoC4/CapSense_Filter.c ****                 #if (CapSense_PROX_IIR_RC_TYPE == CapSense_IIR_FILTER_PERFORMANCE)
 938:Generated_Source\PSoC4/CapSense_Filter.c ****                     temp =  ptrFilterHistObj.ptrProx->proxChannel[freqChannel].iirHistory << CapSen
 939:Generated_Source\PSoC4/CapSense_Filter.c ****                     temp |= ptrFilterHistObj.ptrProx->proxChannel[freqChannel].iirHistoryLow;
 940:Generated_Source\PSoC4/CapSense_Filter.c ****                     temp =CapSense_FtIIR1stOrder((uint32)ptrSensorObj->raw[freqChannel],
 941:Generated_Source\PSoC4/CapSense_Filter.c ****                                                         temp,
 942:Generated_Source\PSoC4/CapSense_Filter.c ****                                                         CapSense_PROX_IIR_RC_N,
 943:Generated_Source\PSoC4/CapSense_Filter.c ****                                                         CapSense_PROX_IIR_RC_SHIFT);
 944:Generated_Source\PSoC4/CapSense_Filter.c ****                     ptrFilterHistObj.ptrProx->proxChannel[freqChannel].iirHistory = LO16(temp >>Cap
 945:Generated_Source\PSoC4/CapSense_Filter.c ****                     ptrFilterHistObj.ptrProx->proxChannel[freqChannel].iirHistoryLow = LO8(temp);
 946:Generated_Source\PSoC4/CapSense_Filter.c ****                     ptrSensorObj->raw[freqChannel] = LO16(temp >>CapSense_PROX_IIR_RC_SHIFT);
 947:Generated_Source\PSoC4/CapSense_Filter.c ****                 #else
 948:Generated_Source\PSoC4/CapSense_Filter.c ****                     temp =CapSense_FtIIR1stOrder((uint32)ptrSensorObj->raw[freqChannel],
 949:Generated_Source\PSoC4/CapSense_Filter.c ****                                                         (uint32)ptrFilterHistObj.ptrProx->proxChann
 950:Generated_Source\PSoC4/CapSense_Filter.c ****                                                         CapSense_PROX_IIR_RC_N,
 951:Generated_Source\PSoC4/CapSense_Filter.c ****                                                         CapSense_PROX_IIR_RC_SHIFT);
 952:Generated_Source\PSoC4/CapSense_Filter.c ****                     ptrFilterHistObj.ptrProx->proxChannel[freqChannel].iirHistory = LO16(temp);
 953:Generated_Source\PSoC4/CapSense_Filter.c ****                     ptrSensorObj->raw[freqChannel] = LO16(temp >>CapSense_PROX_IIR_RC_SHIFT);
 954:Generated_Source\PSoC4/CapSense_Filter.c ****                 #endif /* (CapSense_PROX_IIR_RC_TYPE == CapSense_IIR_FILTER_PERFORMANCE) */
 955:Generated_Source\PSoC4/CapSense_Filter.c ****             #endif /* (CapSense_PROX_SENSOR_EN) */
 956:Generated_Source\PSoC4/CapSense_Filter.c ****         }
 957:Generated_Source\PSoC4/CapSense_Filter.c ****     }
 958:Generated_Source\PSoC4/CapSense_Filter.c **** }
 959:Generated_Source\PSoC4/CapSense_Filter.c **** #endif /* #if (CapSense_REGULAR_RC_IIR_FILTER_EN || CapSense_PROX_RC_IIR_FILTER_EN) */
 960:Generated_Source\PSoC4/CapSense_Filter.c **** 
 961:Generated_Source\PSoC4/CapSense_Filter.c **** 
 962:Generated_Source\PSoC4/CapSense_Filter.c **** #if (CapSense_REGULAR_RC_MEDIAN_FILTER_EN || CapSense_PROX_RC_MEDIAN_FILTER_EN)
 963:Generated_Source\PSoC4/CapSense_Filter.c **** 
 964:Generated_Source\PSoC4/CapSense_Filter.c **** /*******************************************************************************
 965:Generated_Source\PSoC4/CapSense_Filter.c **** * Function Name: CapSense_InitializeMedian
 966:Generated_Source\PSoC4/CapSense_Filter.c **** ****************************************************************************//**
 967:Generated_Source\PSoC4/CapSense_Filter.c **** *
 968:Generated_Source\PSoC4/CapSense_Filter.c **** * \brief
ARM GAS  C:\Users\zack.li\AppData\Local\Temp\ccH890rU.s 			page 26


 969:Generated_Source\PSoC4/CapSense_Filter.c **** *  Initializes the Median filter history.
 970:Generated_Source\PSoC4/CapSense_Filter.c **** *
 971:Generated_Source\PSoC4/CapSense_Filter.c **** * \details
 972:Generated_Source\PSoC4/CapSense_Filter.c **** *  Initializes the Median filter history.
 973:Generated_Source\PSoC4/CapSense_Filter.c **** *
 974:Generated_Source\PSoC4/CapSense_Filter.c **** * \param widgetId
 975:Generated_Source\PSoC4/CapSense_Filter.c **** *  Specifies the ID number of the widget.
 976:Generated_Source\PSoC4/CapSense_Filter.c **** *
 977:Generated_Source\PSoC4/CapSense_Filter.c **** * \param sensorId
 978:Generated_Source\PSoC4/CapSense_Filter.c **** *  Specifies the ID number of the sensor in the widget.
 979:Generated_Source\PSoC4/CapSense_Filter.c **** *
 980:Generated_Source\PSoC4/CapSense_Filter.c **** *******************************************************************************/
 981:Generated_Source\PSoC4/CapSense_Filter.c **** void CapSense_InitializeMedian(uint32 widgetId, uint32 sensorId)
 982:Generated_Source\PSoC4/CapSense_Filter.c **** {
 983:Generated_Source\PSoC4/CapSense_Filter.c ****     CapSense_FLASH_WD_STRUCT const *ptrWidget = &CapSense_dsFlash.wdgtArray[widgetId];
 984:Generated_Source\PSoC4/CapSense_Filter.c ****     CapSense_RAM_SNS_STRUCT *ptrSensor = NULL;
 985:Generated_Source\PSoC4/CapSense_Filter.c ****     CapSense_PTR_FILTER_VARIANT ptrFilterHistObj;
 986:Generated_Source\PSoC4/CapSense_Filter.c **** 
 987:Generated_Source\PSoC4/CapSense_Filter.c ****     /* Find pointer to specified sensor object */
 988:Generated_Source\PSoC4/CapSense_Filter.c ****     ptrSensor = ptrWidget->ptr2SnsRam;
 989:Generated_Source\PSoC4/CapSense_Filter.c ****     ptrSensor = &ptrSensor[sensorId];
 990:Generated_Source\PSoC4/CapSense_Filter.c **** 
 991:Generated_Source\PSoC4/CapSense_Filter.c ****     /* Find pointer to specified filter sensor object */
 992:Generated_Source\PSoC4/CapSense_Filter.c ****     ptrFilterHistObj.ptr = ptrWidget->ptr2FltrHistory;
 993:Generated_Source\PSoC4/CapSense_Filter.c **** 
 994:Generated_Source\PSoC4/CapSense_Filter.c ****     if ((CapSense_WD_TYPE_ENUM)ptrWidget->wdgtType != CapSense_WD_PROXIMITY_E)
 995:Generated_Source\PSoC4/CapSense_Filter.c ****     {
 996:Generated_Source\PSoC4/CapSense_Filter.c ****         #if (CapSense_REGULAR_SENSOR_EN)
 997:Generated_Source\PSoC4/CapSense_Filter.c ****             ptrFilterHistObj.ptrRegular = &ptrFilterHistObj.ptrRegular[sensorId];
 998:Generated_Source\PSoC4/CapSense_Filter.c ****         #endif /* (CapSense_REGULAR_SENSOR_EN) */
 999:Generated_Source\PSoC4/CapSense_Filter.c ****     }
1000:Generated_Source\PSoC4/CapSense_Filter.c ****     else
1001:Generated_Source\PSoC4/CapSense_Filter.c ****     {
1002:Generated_Source\PSoC4/CapSense_Filter.c ****         #if (CapSense_PROXIMITY_SENSOR_EN)
1003:Generated_Source\PSoC4/CapSense_Filter.c ****             ptrFilterHistObj.ptrProx = &ptrFilterHistObj.ptrProx[sensorId];
1004:Generated_Source\PSoC4/CapSense_Filter.c ****         #endif /* (CapSense_PROXIMITY_SENSOR_EN) */
1005:Generated_Source\PSoC4/CapSense_Filter.c ****     }
1006:Generated_Source\PSoC4/CapSense_Filter.c **** 
1007:Generated_Source\PSoC4/CapSense_Filter.c ****     CapSense_InitializeMedianInternal(ptrFilterHistObj, ptrSensor, (uint32)ptrWidget->wdgtType);
1008:Generated_Source\PSoC4/CapSense_Filter.c **** }
1009:Generated_Source\PSoC4/CapSense_Filter.c **** 
1010:Generated_Source\PSoC4/CapSense_Filter.c **** 
1011:Generated_Source\PSoC4/CapSense_Filter.c **** /*******************************************************************************
1012:Generated_Source\PSoC4/CapSense_Filter.c **** * Function Name: CapSense_RunMedian
1013:Generated_Source\PSoC4/CapSense_Filter.c **** ****************************************************************************//**
1014:Generated_Source\PSoC4/CapSense_Filter.c **** *
1015:Generated_Source\PSoC4/CapSense_Filter.c **** * \brief
1016:Generated_Source\PSoC4/CapSense_Filter.c **** *  Executes the Median filter algorithm on a sensor indicated by an input
1017:Generated_Source\PSoC4/CapSense_Filter.c **** *  parameter.
1018:Generated_Source\PSoC4/CapSense_Filter.c **** *
1019:Generated_Source\PSoC4/CapSense_Filter.c **** * \details
1020:Generated_Source\PSoC4/CapSense_Filter.c **** *  Executes the Median filter algorithm on a sensor indicated by an input
1021:Generated_Source\PSoC4/CapSense_Filter.c **** *  parameter.
1022:Generated_Source\PSoC4/CapSense_Filter.c **** *
1023:Generated_Source\PSoC4/CapSense_Filter.c **** * \param widgetId
1024:Generated_Source\PSoC4/CapSense_Filter.c **** *  Specifies the ID number of the widget.
1025:Generated_Source\PSoC4/CapSense_Filter.c **** *
ARM GAS  C:\Users\zack.li\AppData\Local\Temp\ccH890rU.s 			page 27


1026:Generated_Source\PSoC4/CapSense_Filter.c **** * \param sensorId
1027:Generated_Source\PSoC4/CapSense_Filter.c **** *  Specifies the ID number of the sensor in the widget.
1028:Generated_Source\PSoC4/CapSense_Filter.c **** *
1029:Generated_Source\PSoC4/CapSense_Filter.c **** *******************************************************************************/
1030:Generated_Source\PSoC4/CapSense_Filter.c **** void CapSense_RunMedian(uint32 widgetId, uint32 sensorId)
1031:Generated_Source\PSoC4/CapSense_Filter.c **** {
1032:Generated_Source\PSoC4/CapSense_Filter.c ****     CapSense_FLASH_WD_STRUCT const *ptrWidget = &CapSense_dsFlash.wdgtArray[widgetId];
1033:Generated_Source\PSoC4/CapSense_Filter.c ****     CapSense_RAM_SNS_STRUCT *ptrSensor = NULL;
1034:Generated_Source\PSoC4/CapSense_Filter.c ****     CapSense_PTR_FILTER_VARIANT ptrFilterHistObj;
1035:Generated_Source\PSoC4/CapSense_Filter.c **** 
1036:Generated_Source\PSoC4/CapSense_Filter.c ****     /* Find pointer to specified sensor object */
1037:Generated_Source\PSoC4/CapSense_Filter.c ****     ptrSensor = ptrWidget->ptr2SnsRam;
1038:Generated_Source\PSoC4/CapSense_Filter.c ****     ptrSensor = &ptrSensor[sensorId];
1039:Generated_Source\PSoC4/CapSense_Filter.c **** 
1040:Generated_Source\PSoC4/CapSense_Filter.c ****     /* Find pointer to specified filter sensor object */
1041:Generated_Source\PSoC4/CapSense_Filter.c ****     ptrFilterHistObj.ptr = ptrWidget->ptr2FltrHistory;
1042:Generated_Source\PSoC4/CapSense_Filter.c **** 
1043:Generated_Source\PSoC4/CapSense_Filter.c ****     if ((CapSense_WD_TYPE_ENUM)ptrWidget->wdgtType != CapSense_WD_PROXIMITY_E)
1044:Generated_Source\PSoC4/CapSense_Filter.c ****     {
1045:Generated_Source\PSoC4/CapSense_Filter.c ****         #if (CapSense_REGULAR_SENSOR_EN)
1046:Generated_Source\PSoC4/CapSense_Filter.c ****             ptrFilterHistObj.ptrRegular = &ptrFilterHistObj.ptrRegular[sensorId];
1047:Generated_Source\PSoC4/CapSense_Filter.c ****         #endif /* (CapSense_REGULAR_SENSOR_EN) */
1048:Generated_Source\PSoC4/CapSense_Filter.c ****     }
1049:Generated_Source\PSoC4/CapSense_Filter.c ****     else
1050:Generated_Source\PSoC4/CapSense_Filter.c ****     {
1051:Generated_Source\PSoC4/CapSense_Filter.c ****         #if (CapSense_PROXIMITY_SENSOR_EN)
1052:Generated_Source\PSoC4/CapSense_Filter.c ****             ptrFilterHistObj.ptrProx = &ptrFilterHistObj.ptrProx[sensorId];
1053:Generated_Source\PSoC4/CapSense_Filter.c ****         #endif /* (CapSense_PROXIMITY_SENSOR_EN) */
1054:Generated_Source\PSoC4/CapSense_Filter.c ****     }
1055:Generated_Source\PSoC4/CapSense_Filter.c **** 
1056:Generated_Source\PSoC4/CapSense_Filter.c ****     CapSense_RunMedianInternal(ptrFilterHistObj, ptrSensor, (uint32)ptrWidget->wdgtType);
1057:Generated_Source\PSoC4/CapSense_Filter.c **** }
1058:Generated_Source\PSoC4/CapSense_Filter.c **** 
1059:Generated_Source\PSoC4/CapSense_Filter.c **** 
1060:Generated_Source\PSoC4/CapSense_Filter.c **** /*******************************************************************************
1061:Generated_Source\PSoC4/CapSense_Filter.c **** * Function Name: CapSense_InitializeMedianInternal
1062:Generated_Source\PSoC4/CapSense_Filter.c **** ****************************************************************************//**
1063:Generated_Source\PSoC4/CapSense_Filter.c **** *
1064:Generated_Source\PSoC4/CapSense_Filter.c **** * \brief
1065:Generated_Source\PSoC4/CapSense_Filter.c **** *  Initializes the Median filter.
1066:Generated_Source\PSoC4/CapSense_Filter.c **** *
1067:Generated_Source\PSoC4/CapSense_Filter.c **** * \details
1068:Generated_Source\PSoC4/CapSense_Filter.c **** *  Initializes the Median filter.
1069:Generated_Source\PSoC4/CapSense_Filter.c **** *
1070:Generated_Source\PSoC4/CapSense_Filter.c **** * \param ptrFilterHistObj
1071:Generated_Source\PSoC4/CapSense_Filter.c **** *  The pointer to the filter RAM object of the sensor.
1072:Generated_Source\PSoC4/CapSense_Filter.c **** *
1073:Generated_Source\PSoC4/CapSense_Filter.c **** * \param ptrSensorObj
1074:Generated_Source\PSoC4/CapSense_Filter.c **** *  The pointer to the sensor RAM object of the sensor.
1075:Generated_Source\PSoC4/CapSense_Filter.c **** *
1076:Generated_Source\PSoC4/CapSense_Filter.c **** * \param wdType
1077:Generated_Source\PSoC4/CapSense_Filter.c **** *  Specifies the type of a widget.
1078:Generated_Source\PSoC4/CapSense_Filter.c **** *
1079:Generated_Source\PSoC4/CapSense_Filter.c **** *******************************************************************************/
1080:Generated_Source\PSoC4/CapSense_Filter.c **** void CapSense_InitializeMedianInternal(CapSense_PTR_FILTER_VARIANT ptrFilterHistObj,
1081:Generated_Source\PSoC4/CapSense_Filter.c ****                                                CapSense_RAM_SNS_STRUCT *ptrSensorObj, uint32 wdType
1082:Generated_Source\PSoC4/CapSense_Filter.c **** {
ARM GAS  C:\Users\zack.li\AppData\Local\Temp\ccH890rU.s 			page 28


 423              		.loc 1 1082 0
 424              		.cfi_startproc
 425              		@ args = 0, pretend = 0, frame = 0
 426              		@ frame_needed = 0, uses_anonymous_args = 0
 427              	.LVL55:
 428 0000 F0B5     		push	{r4, r5, r6, r7, lr}
 429              		.cfi_def_cfa_offset 20
 430              		.cfi_offset 4, -20
 431              		.cfi_offset 5, -16
 432              		.cfi_offset 6, -12
 433              		.cfi_offset 7, -8
 434              		.cfi_offset 14, -4
 435              	.LVL56:
1083:Generated_Source\PSoC4/CapSense_Filter.c ****     uint32 freqChannel;
1084:Generated_Source\PSoC4/CapSense_Filter.c **** 
1085:Generated_Source\PSoC4/CapSense_Filter.c ****     for(freqChannel = CapSense_NUM_SCAN_FREQS; freqChannel-- > 0u;)
 436              		.loc 1 1085 0
 437 0002 0123     		movs	r3, #1
 438 0004 15E0     		b	.L29
 439              	.LVL57:
 440              	.L32:
1086:Generated_Source\PSoC4/CapSense_Filter.c ****     {
1087:Generated_Source\PSoC4/CapSense_Filter.c ****         if ((CapSense_WD_TYPE_ENUM)wdType != CapSense_WD_PROXIMITY_E)
 441              		.loc 1 1087 0
 442 0006 FF23     		movs	r3, #255
 443 0008 1340     		ands	r3, r2
 444 000a 062B     		cmp	r3, #6
 445 000c 08D0     		beq	.L30
1088:Generated_Source\PSoC4/CapSense_Filter.c ****         {
1089:Generated_Source\PSoC4/CapSense_Filter.c ****             #if (CapSense_REGULAR_SENSOR_EN && CapSense_REGULAR_RC_MEDIAN_FILTER_EN)
1090:Generated_Source\PSoC4/CapSense_Filter.c ****                 ptrFilterHistObj.ptrRegular->regularChannel[freqChannel].medHistory[0u] = ptrSensor
 446              		.loc 1 1090 0
 447 000e 6500     		lsls	r5, r4, #1
 448 0010 6F5A     		ldrh	r7, [r5, r1]
 449 0012 2E19     		adds	r6, r5, r4
 450 0014 B300     		lsls	r3, r6, #2
 451 0016 C318     		adds	r3, r0, r3
 452 0018 5F80     		strh	r7, [r3, #2]
1091:Generated_Source\PSoC4/CapSense_Filter.c ****                 ptrFilterHistObj.ptrRegular->regularChannel[freqChannel].medHistory[1u] = ptrSensor
 453              		.loc 1 1091 0
 454 001a 6D5A     		ldrh	r5, [r5, r1]
 455 001c 9D80     		strh	r5, [r3, #4]
 456 001e 07E0     		b	.L31
 457              	.L30:
1092:Generated_Source\PSoC4/CapSense_Filter.c ****             #endif /* (CapSense_REGULAR_SENSOR_EN) */
1093:Generated_Source\PSoC4/CapSense_Filter.c ****         }
1094:Generated_Source\PSoC4/CapSense_Filter.c ****         else
1095:Generated_Source\PSoC4/CapSense_Filter.c ****         {
1096:Generated_Source\PSoC4/CapSense_Filter.c ****             #if (CapSense_PROXIMITY_SENSOR_EN && CapSense_PROX_RC_MEDIAN_FILTER_EN)
1097:Generated_Source\PSoC4/CapSense_Filter.c ****                 ptrFilterHistObj.ptrProx->proxChannel[freqChannel].medHistory[0u] = ptrSensorObj->r
 458              		.loc 1 1097 0
 459 0020 6500     		lsls	r5, r4, #1
 460 0022 6F5A     		ldrh	r7, [r5, r1]
 461 0024 2E19     		adds	r6, r5, r4
 462 0026 B300     		lsls	r3, r6, #2
 463 0028 C318     		adds	r3, r0, r3
 464 002a 5F80     		strh	r7, [r3, #2]
ARM GAS  C:\Users\zack.li\AppData\Local\Temp\ccH890rU.s 			page 29


1098:Generated_Source\PSoC4/CapSense_Filter.c ****                 ptrFilterHistObj.ptrProx->proxChannel[freqChannel].medHistory[1u] = ptrSensorObj->r
 465              		.loc 1 1098 0
 466 002c 6D5A     		ldrh	r5, [r5, r1]
 467 002e 9D80     		strh	r5, [r3, #4]
 468              	.L31:
1082:Generated_Source\PSoC4/CapSense_Filter.c ****     uint32 freqChannel;
 469              		.loc 1 1082 0 discriminator 1
 470 0030 2300     		movs	r3, r4
 471              	.LVL58:
 472              	.L29:
1085:Generated_Source\PSoC4/CapSense_Filter.c ****     {
 473              		.loc 1 1085 0 discriminator 1
 474 0032 5C1E     		subs	r4, r3, #1
 475              	.LVL59:
 476 0034 002B     		cmp	r3, #0
 477 0036 E6D1     		bne	.L32
1099:Generated_Source\PSoC4/CapSense_Filter.c ****             #endif /* (CapSense_PROXIMITY_SENSOR_EN) */
1100:Generated_Source\PSoC4/CapSense_Filter.c ****         }
1101:Generated_Source\PSoC4/CapSense_Filter.c ****     }
1102:Generated_Source\PSoC4/CapSense_Filter.c **** }
 478              		.loc 1 1102 0
 479              		@ sp needed
 480              	.LVL60:
 481 0038 F0BD     		pop	{r4, r5, r6, r7, pc}
 482              		.cfi_endproc
 483              	.LFE19:
 484              		.size	CapSense_InitializeMedianInternal, .-CapSense_InitializeMedianInternal
 485 003a C046     		.section	.text.CapSense_InitializeMedian,"ax",%progbits
 486              		.align	2
 487              		.global	CapSense_InitializeMedian
 488              		.code	16
 489              		.thumb_func
 490              		.type	CapSense_InitializeMedian, %function
 491              	CapSense_InitializeMedian:
 492              	.LFB17:
 982:Generated_Source\PSoC4/CapSense_Filter.c ****     CapSense_FLASH_WD_STRUCT const *ptrWidget = &CapSense_dsFlash.wdgtArray[widgetId];
 493              		.loc 1 982 0
 494              		.cfi_startproc
 495              		@ args = 0, pretend = 0, frame = 0
 496              		@ frame_needed = 0, uses_anonymous_args = 0
 497              	.LVL61:
 498 0000 70B5     		push	{r4, r5, r6, lr}
 499              		.cfi_def_cfa_offset 16
 500              		.cfi_offset 4, -16
 501              		.cfi_offset 5, -12
 502              		.cfi_offset 6, -8
 503              		.cfi_offset 14, -4
 504 0002 0B00     		movs	r3, r1
 505              	.LVL62:
 988:Generated_Source\PSoC4/CapSense_Filter.c ****     ptrSensor = &ptrSensor[sensorId];
 506              		.loc 1 988 0
 507 0004 0E4E     		ldr	r6, .L36
 508 0006 C200     		lsls	r2, r0, #3
 509 0008 111A     		subs	r1, r2, r0
 510              	.LVL63:
 511 000a 8C00     		lsls	r4, r1, #2
 512 000c 3419     		adds	r4, r6, r4
ARM GAS  C:\Users\zack.li\AppData\Local\Temp\ccH890rU.s 			page 30


 513              	.LVL64:
 989:Generated_Source\PSoC4/CapSense_Filter.c **** 
 514              		.loc 1 989 0
 515 000e 9D00     		lsls	r5, r3, #2
 516 0010 ED18     		adds	r5, r5, r3
 517 0012 6900     		lsls	r1, r5, #1
 518 0014 A568     		ldr	r5, [r4, #8]
 519 0016 AC46     		mov	ip, r5
 520 0018 6144     		add	r1, r1, ip
 521              	.LVL65:
 992:Generated_Source\PSoC4/CapSense_Filter.c **** 
 522              		.loc 1 992 0
 523 001a E568     		ldr	r5, [r4, #12]
 994:Generated_Source\PSoC4/CapSense_Filter.c ****     {
 524              		.loc 1 994 0
 525 001c 121A     		subs	r2, r2, r0
 526 001e 9400     		lsls	r4, r2, #2
 527 0020 3419     		adds	r4, r6, r4
 528 0022 A27E     		ldrb	r2, [r4, #26]
 529 0024 062A     		cmp	r2, #6
 530 0026 04D0     		beq	.L34
 997:Generated_Source\PSoC4/CapSense_Filter.c ****         #endif /* (CapSense_REGULAR_SENSOR_EN) */
 531              		.loc 1 997 0
 532 0028 5800     		lsls	r0, r3, #1
 533              	.LVL66:
 534 002a C318     		adds	r3, r0, r3
 535              	.LVL67:
 536 002c 9800     		lsls	r0, r3, #2
 537 002e 2818     		adds	r0, r5, r0
 538              	.LVL68:
 539 0030 03E0     		b	.L35
 540              	.LVL69:
 541              	.L34:
1003:Generated_Source\PSoC4/CapSense_Filter.c ****         #endif /* (CapSense_PROXIMITY_SENSOR_EN) */
 542              		.loc 1 1003 0
 543 0032 5800     		lsls	r0, r3, #1
 544              	.LVL70:
 545 0034 C318     		adds	r3, r0, r3
 546              	.LVL71:
 547 0036 9800     		lsls	r0, r3, #2
 548 0038 2818     		adds	r0, r5, r0
 549              	.L35:
1007:Generated_Source\PSoC4/CapSense_Filter.c **** }
 550              		.loc 1 1007 0
 551 003a FFF7FEFF 		bl	CapSense_InitializeMedianInternal
 552              	.LVL72:
1008:Generated_Source\PSoC4/CapSense_Filter.c **** 
 553              		.loc 1 1008 0
 554              		@ sp needed
 555              	.LVL73:
 556              	.LVL74:
 557 003e 70BD     		pop	{r4, r5, r6, pc}
 558              	.L37:
 559              		.align	2
 560              	.L36:
 561 0040 00000000 		.word	CapSense_dsFlash
 562              		.cfi_endproc
ARM GAS  C:\Users\zack.li\AppData\Local\Temp\ccH890rU.s 			page 31


 563              	.LFE17:
 564              		.size	CapSense_InitializeMedian, .-CapSense_InitializeMedian
 565              		.section	.text.CapSense_InitializeAverageInternal,"ax",%progbits
 566              		.align	2
 567              		.global	CapSense_InitializeAverageInternal
 568              		.code	16
 569              		.thumb_func
 570              		.type	CapSense_InitializeAverageInternal, %function
 571              	CapSense_InitializeAverageInternal:
 572              	.LFB23:
1103:Generated_Source\PSoC4/CapSense_Filter.c **** 
1104:Generated_Source\PSoC4/CapSense_Filter.c **** 
1105:Generated_Source\PSoC4/CapSense_Filter.c **** /*******************************************************************************
1106:Generated_Source\PSoC4/CapSense_Filter.c **** * Function Name: CapSense_RunMedianInternal
1107:Generated_Source\PSoC4/CapSense_Filter.c **** ****************************************************************************//**
1108:Generated_Source\PSoC4/CapSense_Filter.c **** *
1109:Generated_Source\PSoC4/CapSense_Filter.c **** * \brief
1110:Generated_Source\PSoC4/CapSense_Filter.c **** *  Runs the Median filter.
1111:Generated_Source\PSoC4/CapSense_Filter.c **** *
1112:Generated_Source\PSoC4/CapSense_Filter.c **** * \details
1113:Generated_Source\PSoC4/CapSense_Filter.c **** *  Runs the Median filter.
1114:Generated_Source\PSoC4/CapSense_Filter.c **** *
1115:Generated_Source\PSoC4/CapSense_Filter.c **** * \param ptrFilterHistObj
1116:Generated_Source\PSoC4/CapSense_Filter.c **** *  The pointer to the filter RAM object of the sensor.
1117:Generated_Source\PSoC4/CapSense_Filter.c **** *
1118:Generated_Source\PSoC4/CapSense_Filter.c **** * \param ptrSensorObj
1119:Generated_Source\PSoC4/CapSense_Filter.c **** *  The pointer to the sensor RAM object of the sensor.
1120:Generated_Source\PSoC4/CapSense_Filter.c **** *
1121:Generated_Source\PSoC4/CapSense_Filter.c **** * \param wdType
1122:Generated_Source\PSoC4/CapSense_Filter.c **** *  Specifies the type of a widget.
1123:Generated_Source\PSoC4/CapSense_Filter.c **** *
1124:Generated_Source\PSoC4/CapSense_Filter.c **** *******************************************************************************/
1125:Generated_Source\PSoC4/CapSense_Filter.c **** void CapSense_RunMedianInternal(CapSense_PTR_FILTER_VARIANT ptrFilterHistObj,
1126:Generated_Source\PSoC4/CapSense_Filter.c ****                                         CapSense_RAM_SNS_STRUCT *ptrSensorObj, uint32 wdType)
1127:Generated_Source\PSoC4/CapSense_Filter.c **** {
1128:Generated_Source\PSoC4/CapSense_Filter.c ****     uint32 freqChannel;
1129:Generated_Source\PSoC4/CapSense_Filter.c **** 
1130:Generated_Source\PSoC4/CapSense_Filter.c ****     #if ((CapSense_REGULAR_SENSOR_EN && CapSense_REGULAR_RC_MEDIAN_FILTER_EN) || \
1131:Generated_Source\PSoC4/CapSense_Filter.c ****          (CapSense_PROXIMITY_SENSOR_EN && CapSense_PROX_RC_MEDIAN_FILTER_EN))
1132:Generated_Source\PSoC4/CapSense_Filter.c ****         uint32 temp;
1133:Generated_Source\PSoC4/CapSense_Filter.c ****     #endif
1134:Generated_Source\PSoC4/CapSense_Filter.c **** 
1135:Generated_Source\PSoC4/CapSense_Filter.c ****     for(freqChannel = CapSense_NUM_SCAN_FREQS; freqChannel-- > 0u;)
1136:Generated_Source\PSoC4/CapSense_Filter.c ****     {
1137:Generated_Source\PSoC4/CapSense_Filter.c ****         if ((CapSense_WD_TYPE_ENUM)wdType != CapSense_WD_PROXIMITY_E)
1138:Generated_Source\PSoC4/CapSense_Filter.c ****         {
1139:Generated_Source\PSoC4/CapSense_Filter.c ****             #if (CapSense_REGULAR_SENSOR_EN && CapSense_REGULAR_RC_MEDIAN_FILTER_EN)
1140:Generated_Source\PSoC4/CapSense_Filter.c ****                 temp = CapSense_FtMedian((uint32)ptrSensorObj->raw[freqChannel],\
1141:Generated_Source\PSoC4/CapSense_Filter.c ****                                                  (uint32)ptrFilterHistObj.ptrRegular->regularChanne
1142:Generated_Source\PSoC4/CapSense_Filter.c ****                                                  (uint32)ptrFilterHistObj.ptrRegular->regularChanne
1143:Generated_Source\PSoC4/CapSense_Filter.c ****                 ptrFilterHistObj.ptrRegular->regularChannel[freqChannel].medHistory[1u] = \
1144:Generated_Source\PSoC4/CapSense_Filter.c ****                 ptrFilterHistObj.ptrRegular->regularChannel[freqChannel].medHistory[0u];
1145:Generated_Source\PSoC4/CapSense_Filter.c ****                 ptrFilterHistObj.ptrRegular->regularChannel[freqChannel].medHistory[0u] = ptrSensor
1146:Generated_Source\PSoC4/CapSense_Filter.c ****                 ptrSensorObj->raw[freqChannel] = LO16(temp);
1147:Generated_Source\PSoC4/CapSense_Filter.c ****             #endif /* (CapSense_REGULAR_SENSOR_EN) */
1148:Generated_Source\PSoC4/CapSense_Filter.c ****         }
1149:Generated_Source\PSoC4/CapSense_Filter.c ****         else
ARM GAS  C:\Users\zack.li\AppData\Local\Temp\ccH890rU.s 			page 32


1150:Generated_Source\PSoC4/CapSense_Filter.c ****         {
1151:Generated_Source\PSoC4/CapSense_Filter.c ****             #if (CapSense_PROXIMITY_SENSOR_EN && CapSense_PROX_RC_MEDIAN_FILTER_EN)
1152:Generated_Source\PSoC4/CapSense_Filter.c ****                 temp = CapSense_FtMedian((uint32)ptrSensorObj->raw[freqChannel],\
1153:Generated_Source\PSoC4/CapSense_Filter.c ****                                                  (uint32)ptrFilterHistObj.ptrProx->proxChannel[freq
1154:Generated_Source\PSoC4/CapSense_Filter.c ****                                                  (uint32)ptrFilterHistObj.ptrProx->proxChannel[freq
1155:Generated_Source\PSoC4/CapSense_Filter.c ****                 ptrFilterHistObj.ptrProx->proxChannel[freqChannel].medHistory[1u] = \
1156:Generated_Source\PSoC4/CapSense_Filter.c ****                 ptrFilterHistObj.ptrProx->proxChannel[freqChannel].medHistory[0u];
1157:Generated_Source\PSoC4/CapSense_Filter.c ****                 ptrFilterHistObj.ptrProx->proxChannel[freqChannel].medHistory[0u] = ptrSensorObj->r
1158:Generated_Source\PSoC4/CapSense_Filter.c ****                 ptrSensorObj->raw[freqChannel] = LO16(temp);
1159:Generated_Source\PSoC4/CapSense_Filter.c ****             #endif /* (CapSense_PROXIMITY_SENSOR_EN) */
1160:Generated_Source\PSoC4/CapSense_Filter.c ****         }
1161:Generated_Source\PSoC4/CapSense_Filter.c ****     }
1162:Generated_Source\PSoC4/CapSense_Filter.c **** }
1163:Generated_Source\PSoC4/CapSense_Filter.c **** #endif /* (CapSense_REGULAR_RC_MEDIAN_FILTER_EN || CapSense_PROX_RC_MEDIAN_FILTER_EN) */
1164:Generated_Source\PSoC4/CapSense_Filter.c **** 
1165:Generated_Source\PSoC4/CapSense_Filter.c **** 
1166:Generated_Source\PSoC4/CapSense_Filter.c **** #if (CapSense_REGULAR_RC_AVERAGE_FILTER_EN || CapSense_PROX_RC_AVERAGE_FILTER_EN)
1167:Generated_Source\PSoC4/CapSense_Filter.c **** 
1168:Generated_Source\PSoC4/CapSense_Filter.c **** /*******************************************************************************
1169:Generated_Source\PSoC4/CapSense_Filter.c **** * Function Name: CapSense_InitializeAverage
1170:Generated_Source\PSoC4/CapSense_Filter.c **** ****************************************************************************//**
1171:Generated_Source\PSoC4/CapSense_Filter.c **** *
1172:Generated_Source\PSoC4/CapSense_Filter.c **** * \brief
1173:Generated_Source\PSoC4/CapSense_Filter.c **** *  Initializes the average filter history.
1174:Generated_Source\PSoC4/CapSense_Filter.c **** *
1175:Generated_Source\PSoC4/CapSense_Filter.c **** * \details
1176:Generated_Source\PSoC4/CapSense_Filter.c **** *  Initializes the average filter history.
1177:Generated_Source\PSoC4/CapSense_Filter.c **** *
1178:Generated_Source\PSoC4/CapSense_Filter.c **** * \param widgetId
1179:Generated_Source\PSoC4/CapSense_Filter.c **** *  Specifies the ID number of the widget.
1180:Generated_Source\PSoC4/CapSense_Filter.c **** *
1181:Generated_Source\PSoC4/CapSense_Filter.c **** * \param sensorId
1182:Generated_Source\PSoC4/CapSense_Filter.c **** *  Specifies the ID number of the sensor in the widget.
1183:Generated_Source\PSoC4/CapSense_Filter.c **** *
1184:Generated_Source\PSoC4/CapSense_Filter.c **** *******************************************************************************/
1185:Generated_Source\PSoC4/CapSense_Filter.c **** void CapSense_InitializeAverage(uint32 widgetId, uint32 sensorId)
1186:Generated_Source\PSoC4/CapSense_Filter.c **** {
1187:Generated_Source\PSoC4/CapSense_Filter.c ****     CapSense_FLASH_WD_STRUCT const *ptrWidget = &CapSense_dsFlash.wdgtArray[widgetId];
1188:Generated_Source\PSoC4/CapSense_Filter.c ****     CapSense_RAM_SNS_STRUCT *ptrSensor = NULL;
1189:Generated_Source\PSoC4/CapSense_Filter.c ****     CapSense_PTR_FILTER_VARIANT ptrFilterHistObj;
1190:Generated_Source\PSoC4/CapSense_Filter.c **** 
1191:Generated_Source\PSoC4/CapSense_Filter.c ****     /* Find pointer to specified sensor object */
1192:Generated_Source\PSoC4/CapSense_Filter.c ****     ptrSensor = ptrWidget->ptr2SnsRam;
1193:Generated_Source\PSoC4/CapSense_Filter.c ****     ptrSensor = &ptrSensor[sensorId];
1194:Generated_Source\PSoC4/CapSense_Filter.c **** 
1195:Generated_Source\PSoC4/CapSense_Filter.c ****     /* Find pointer to specified filter sensor object */
1196:Generated_Source\PSoC4/CapSense_Filter.c ****     ptrFilterHistObj.ptr = ptrWidget->ptr2FltrHistory;
1197:Generated_Source\PSoC4/CapSense_Filter.c **** 
1198:Generated_Source\PSoC4/CapSense_Filter.c ****     if ((CapSense_WD_TYPE_ENUM)ptrWidget->wdgtType != CapSense_WD_PROXIMITY_E)
1199:Generated_Source\PSoC4/CapSense_Filter.c ****     {
1200:Generated_Source\PSoC4/CapSense_Filter.c ****         #if (CapSense_REGULAR_SENSOR_EN)
1201:Generated_Source\PSoC4/CapSense_Filter.c ****             ptrFilterHistObj.ptrRegular = &ptrFilterHistObj.ptrRegular[sensorId];
1202:Generated_Source\PSoC4/CapSense_Filter.c ****         #endif /* (CapSense_REGULAR_SENSOR_EN) */
1203:Generated_Source\PSoC4/CapSense_Filter.c ****     }
1204:Generated_Source\PSoC4/CapSense_Filter.c ****     else
1205:Generated_Source\PSoC4/CapSense_Filter.c ****     {
1206:Generated_Source\PSoC4/CapSense_Filter.c ****         #if (CapSense_PROXIMITY_SENSOR_EN)
ARM GAS  C:\Users\zack.li\AppData\Local\Temp\ccH890rU.s 			page 33


1207:Generated_Source\PSoC4/CapSense_Filter.c ****             ptrFilterHistObj.ptrProx = &ptrFilterHistObj.ptrProx[sensorId];
1208:Generated_Source\PSoC4/CapSense_Filter.c ****         #endif /* (CapSense_PROXIMITY_SENSOR_EN) */
1209:Generated_Source\PSoC4/CapSense_Filter.c ****     }
1210:Generated_Source\PSoC4/CapSense_Filter.c **** 
1211:Generated_Source\PSoC4/CapSense_Filter.c ****     CapSense_InitializeAverageInternal(ptrFilterHistObj, ptrSensor, (uint32)ptrWidget->wdgtType);
1212:Generated_Source\PSoC4/CapSense_Filter.c **** }
1213:Generated_Source\PSoC4/CapSense_Filter.c **** 
1214:Generated_Source\PSoC4/CapSense_Filter.c **** 
1215:Generated_Source\PSoC4/CapSense_Filter.c **** /*******************************************************************************
1216:Generated_Source\PSoC4/CapSense_Filter.c **** * Function Name: CapSense_RunAverage
1217:Generated_Source\PSoC4/CapSense_Filter.c **** ****************************************************************************//**
1218:Generated_Source\PSoC4/CapSense_Filter.c **** *
1219:Generated_Source\PSoC4/CapSense_Filter.c **** * \brief
1220:Generated_Source\PSoC4/CapSense_Filter.c **** *  Executes the average filter algorithm on a sensor indicated by an input
1221:Generated_Source\PSoC4/CapSense_Filter.c **** *  parameter.
1222:Generated_Source\PSoC4/CapSense_Filter.c **** *
1223:Generated_Source\PSoC4/CapSense_Filter.c **** * \details
1224:Generated_Source\PSoC4/CapSense_Filter.c **** *  Executes the average filter algorithm on a sensor indicated by an input
1225:Generated_Source\PSoC4/CapSense_Filter.c **** *  parameter.
1226:Generated_Source\PSoC4/CapSense_Filter.c **** *
1227:Generated_Source\PSoC4/CapSense_Filter.c **** * \param widgetId
1228:Generated_Source\PSoC4/CapSense_Filter.c **** *  Specifies the ID number of the widget.
1229:Generated_Source\PSoC4/CapSense_Filter.c **** *
1230:Generated_Source\PSoC4/CapSense_Filter.c **** * \param sensorId
1231:Generated_Source\PSoC4/CapSense_Filter.c **** *  Specifies the ID number of the sensor in the widget.
1232:Generated_Source\PSoC4/CapSense_Filter.c **** *
1233:Generated_Source\PSoC4/CapSense_Filter.c **** *******************************************************************************/
1234:Generated_Source\PSoC4/CapSense_Filter.c **** void CapSense_RunAverage(uint32 widgetId, uint32 sensorId)
1235:Generated_Source\PSoC4/CapSense_Filter.c **** {
1236:Generated_Source\PSoC4/CapSense_Filter.c ****     CapSense_FLASH_WD_STRUCT const *ptrWidget = &CapSense_dsFlash.wdgtArray[widgetId];
1237:Generated_Source\PSoC4/CapSense_Filter.c ****     CapSense_RAM_SNS_STRUCT *ptrSensor = NULL;
1238:Generated_Source\PSoC4/CapSense_Filter.c ****     CapSense_PTR_FILTER_VARIANT ptrFilterHistObj;
1239:Generated_Source\PSoC4/CapSense_Filter.c **** 
1240:Generated_Source\PSoC4/CapSense_Filter.c ****     /* Find pointer to specified sensor object */
1241:Generated_Source\PSoC4/CapSense_Filter.c ****     ptrSensor = ptrWidget->ptr2SnsRam;
1242:Generated_Source\PSoC4/CapSense_Filter.c ****     ptrSensor = &ptrSensor[sensorId];
1243:Generated_Source\PSoC4/CapSense_Filter.c **** 
1244:Generated_Source\PSoC4/CapSense_Filter.c ****     /* Find pointer to specified filter sensor object */
1245:Generated_Source\PSoC4/CapSense_Filter.c ****     ptrFilterHistObj.ptr = ptrWidget->ptr2FltrHistory;
1246:Generated_Source\PSoC4/CapSense_Filter.c **** 
1247:Generated_Source\PSoC4/CapSense_Filter.c ****     if ((CapSense_WD_TYPE_ENUM)ptrWidget->wdgtType != CapSense_WD_PROXIMITY_E)
1248:Generated_Source\PSoC4/CapSense_Filter.c ****     {
1249:Generated_Source\PSoC4/CapSense_Filter.c ****         #if (CapSense_REGULAR_SENSOR_EN)
1250:Generated_Source\PSoC4/CapSense_Filter.c ****             ptrFilterHistObj.ptrRegular = &ptrFilterHistObj.ptrRegular[sensorId];
1251:Generated_Source\PSoC4/CapSense_Filter.c ****         #endif /* (CapSense_REGULAR_SENSOR_EN) */
1252:Generated_Source\PSoC4/CapSense_Filter.c ****     }
1253:Generated_Source\PSoC4/CapSense_Filter.c ****     else
1254:Generated_Source\PSoC4/CapSense_Filter.c ****     {
1255:Generated_Source\PSoC4/CapSense_Filter.c ****         #if (CapSense_PROXIMITY_SENSOR_EN)
1256:Generated_Source\PSoC4/CapSense_Filter.c ****             ptrFilterHistObj.ptrProx = &ptrFilterHistObj.ptrProx[sensorId];
1257:Generated_Source\PSoC4/CapSense_Filter.c ****         #endif /* (CapSense_PROXIMITY_SENSOR_EN) */
1258:Generated_Source\PSoC4/CapSense_Filter.c ****     }
1259:Generated_Source\PSoC4/CapSense_Filter.c **** 
1260:Generated_Source\PSoC4/CapSense_Filter.c ****     CapSense_RunAverageInternal(ptrFilterHistObj, ptrSensor, (uint32)ptrWidget->wdgtType);
1261:Generated_Source\PSoC4/CapSense_Filter.c **** }
1262:Generated_Source\PSoC4/CapSense_Filter.c **** 
1263:Generated_Source\PSoC4/CapSense_Filter.c **** 
ARM GAS  C:\Users\zack.li\AppData\Local\Temp\ccH890rU.s 			page 34


1264:Generated_Source\PSoC4/CapSense_Filter.c **** /*******************************************************************************
1265:Generated_Source\PSoC4/CapSense_Filter.c **** * Function Name: CapSense_InitializeAverageInternal
1266:Generated_Source\PSoC4/CapSense_Filter.c **** ****************************************************************************//**
1267:Generated_Source\PSoC4/CapSense_Filter.c **** *
1268:Generated_Source\PSoC4/CapSense_Filter.c **** * \brief
1269:Generated_Source\PSoC4/CapSense_Filter.c **** *  Initializes the average filter.
1270:Generated_Source\PSoC4/CapSense_Filter.c **** *
1271:Generated_Source\PSoC4/CapSense_Filter.c **** * \details
1272:Generated_Source\PSoC4/CapSense_Filter.c **** *  Initializes the average filter.
1273:Generated_Source\PSoC4/CapSense_Filter.c **** *
1274:Generated_Source\PSoC4/CapSense_Filter.c **** * \param ptrFilterHistObj
1275:Generated_Source\PSoC4/CapSense_Filter.c **** *  The pointer to the filter RAM object of the sensor.
1276:Generated_Source\PSoC4/CapSense_Filter.c **** *
1277:Generated_Source\PSoC4/CapSense_Filter.c **** * \param ptrSensorObj
1278:Generated_Source\PSoC4/CapSense_Filter.c **** *  The pointer to the sensor RAM object of the sensor.
1279:Generated_Source\PSoC4/CapSense_Filter.c **** *
1280:Generated_Source\PSoC4/CapSense_Filter.c **** * \param wdType
1281:Generated_Source\PSoC4/CapSense_Filter.c **** *  Specifies the type of a widget.
1282:Generated_Source\PSoC4/CapSense_Filter.c **** *
1283:Generated_Source\PSoC4/CapSense_Filter.c **** *******************************************************************************/
1284:Generated_Source\PSoC4/CapSense_Filter.c **** void CapSense_InitializeAverageInternal(CapSense_PTR_FILTER_VARIANT ptrFilterHistObj,\
1285:Generated_Source\PSoC4/CapSense_Filter.c ****                                                   CapSense_RAM_SNS_STRUCT *ptrSensorObj, uint32 wdT
1286:Generated_Source\PSoC4/CapSense_Filter.c **** {
 573              		.loc 1 1286 0
 574              		.cfi_startproc
 575              		@ args = 0, pretend = 0, frame = 0
 576              		@ frame_needed = 0, uses_anonymous_args = 0
 577              	.LVL75:
 578 0000 F0B5     		push	{r4, r5, r6, r7, lr}
 579              		.cfi_def_cfa_offset 20
 580              		.cfi_offset 4, -20
 581              		.cfi_offset 5, -16
 582              		.cfi_offset 6, -12
 583              		.cfi_offset 7, -8
 584              		.cfi_offset 14, -4
 585              	.LVL76:
1287:Generated_Source\PSoC4/CapSense_Filter.c ****     uint32 freqChannel;
1288:Generated_Source\PSoC4/CapSense_Filter.c **** 
1289:Generated_Source\PSoC4/CapSense_Filter.c ****     for(freqChannel = CapSense_NUM_SCAN_FREQS; freqChannel-- > 0u;)
 586              		.loc 1 1289 0
 587 0002 0123     		movs	r3, #1
 588 0004 19E0     		b	.L39
 589              	.LVL77:
 590              	.L42:
1290:Generated_Source\PSoC4/CapSense_Filter.c ****     {
1291:Generated_Source\PSoC4/CapSense_Filter.c ****         if ((CapSense_WD_TYPE_ENUM)wdType != CapSense_WD_PROXIMITY_E)
 591              		.loc 1 1291 0
 592 0006 FF23     		movs	r3, #255
 593 0008 1340     		ands	r3, r2
 594 000a 062B     		cmp	r3, #6
 595 000c 0AD0     		beq	.L40
1292:Generated_Source\PSoC4/CapSense_Filter.c ****         {
1293:Generated_Source\PSoC4/CapSense_Filter.c ****             #if (CapSense_REGULAR_SENSOR_EN && CapSense_REGULAR_RC_AVERAGE_FILTER_EN)
1294:Generated_Source\PSoC4/CapSense_Filter.c ****                 ptrFilterHistObj.ptrRegular->regularChannel[freqChannel].avgHistory[0] = ptrSensorO
 596              		.loc 1 1294 0
 597 000e 6500     		lsls	r5, r4, #1
 598 0010 6F5A     		ldrh	r7, [r5, r1]
ARM GAS  C:\Users\zack.li\AppData\Local\Temp\ccH890rU.s 			page 35


 599 0012 2E19     		adds	r6, r5, r4
 600 0014 B300     		lsls	r3, r6, #2
 601 0016 C318     		adds	r3, r0, r3
 602 0018 DF80     		strh	r7, [r3, #6]
1295:Generated_Source\PSoC4/CapSense_Filter.c ****                 #if (CapSense_REGULAR_AVERAGE_LEN == CapSense_AVERAGE_FILTER_LEN_4)
1296:Generated_Source\PSoC4/CapSense_Filter.c ****                     ptrFilterHistObj.ptrRegular->regularChannel[freqChannel].avgHistory[1u] = ptrSe
 603              		.loc 1 1296 0
 604 001a 6E5A     		ldrh	r6, [r5, r1]
 605 001c 1E81     		strh	r6, [r3, #8]
1297:Generated_Source\PSoC4/CapSense_Filter.c ****                     ptrFilterHistObj.ptrRegular->regularChannel[freqChannel].avgHistory[2u] = ptrSe
 606              		.loc 1 1297 0
 607 001e 6D5A     		ldrh	r5, [r5, r1]
 608 0020 5D81     		strh	r5, [r3, #10]
 609 0022 09E0     		b	.L41
 610              	.L40:
1298:Generated_Source\PSoC4/CapSense_Filter.c ****                 #endif /* CapSense_REGULAR_AVERAGE_LEN == CapSense_AVERAGE_FILTER_LEN_4 */
1299:Generated_Source\PSoC4/CapSense_Filter.c ****             #endif /* (CapSense_REGULAR_SENSOR_EN) */
1300:Generated_Source\PSoC4/CapSense_Filter.c ****         }
1301:Generated_Source\PSoC4/CapSense_Filter.c ****         else
1302:Generated_Source\PSoC4/CapSense_Filter.c ****         {
1303:Generated_Source\PSoC4/CapSense_Filter.c ****             #if (CapSense_PROXIMITY_SENSOR_EN && CapSense_PROX_RC_AVERAGE_FILTER_EN)
1304:Generated_Source\PSoC4/CapSense_Filter.c ****                 ptrFilterHistObj.ptrProx->proxChannel[freqChannel].avgHistory[0] = ptrSensorObj->ra
 611              		.loc 1 1304 0
 612 0024 6500     		lsls	r5, r4, #1
 613 0026 6F5A     		ldrh	r7, [r5, r1]
 614 0028 2E19     		adds	r6, r5, r4
 615 002a B300     		lsls	r3, r6, #2
 616 002c C318     		adds	r3, r0, r3
 617 002e DF80     		strh	r7, [r3, #6]
1305:Generated_Source\PSoC4/CapSense_Filter.c ****                     #if (CapSense_PROX_AVERAGE_LEN == CapSense_AVERAGE_FILTER_LEN_4)
1306:Generated_Source\PSoC4/CapSense_Filter.c ****                         ptrFilterHistObj.ptrProx->proxChannel[freqChannel].avgHistory[1u] = ptrSens
 618              		.loc 1 1306 0
 619 0030 6E5A     		ldrh	r6, [r5, r1]
 620 0032 1E81     		strh	r6, [r3, #8]
1307:Generated_Source\PSoC4/CapSense_Filter.c ****                         ptrFilterHistObj.ptrProx->proxChannel[freqChannel].avgHistory[2u] = ptrSens
 621              		.loc 1 1307 0
 622 0034 6D5A     		ldrh	r5, [r5, r1]
 623 0036 5D81     		strh	r5, [r3, #10]
 624              	.L41:
1286:Generated_Source\PSoC4/CapSense_Filter.c ****     uint32 freqChannel;
 625              		.loc 1 1286 0 discriminator 1
 626 0038 2300     		movs	r3, r4
 627              	.LVL78:
 628              	.L39:
1289:Generated_Source\PSoC4/CapSense_Filter.c ****     {
 629              		.loc 1 1289 0 discriminator 1
 630 003a 5C1E     		subs	r4, r3, #1
 631              	.LVL79:
 632 003c 002B     		cmp	r3, #0
 633 003e E2D1     		bne	.L42
1308:Generated_Source\PSoC4/CapSense_Filter.c ****                     #endif /* CapSense_REGULAR_AVERAGE_LEN == CapSense_AVERAGE_FILTER_LEN_4 */
1309:Generated_Source\PSoC4/CapSense_Filter.c ****             #endif /* (CapSense_PROXIMITY_SENSOR_EN) */
1310:Generated_Source\PSoC4/CapSense_Filter.c ****         }
1311:Generated_Source\PSoC4/CapSense_Filter.c ****     }
1312:Generated_Source\PSoC4/CapSense_Filter.c **** }
 634              		.loc 1 1312 0
 635              		@ sp needed
ARM GAS  C:\Users\zack.li\AppData\Local\Temp\ccH890rU.s 			page 36


 636              	.LVL80:
 637 0040 F0BD     		pop	{r4, r5, r6, r7, pc}
 638              		.cfi_endproc
 639              	.LFE23:
 640              		.size	CapSense_InitializeAverageInternal, .-CapSense_InitializeAverageInternal
 641 0042 C046     		.section	.text.CapSense_InitializeWidgetFilter,"ax",%progbits
 642              		.align	2
 643              		.global	CapSense_InitializeWidgetFilter
 644              		.code	16
 645              		.thumb_func
 646              		.type	CapSense_InitializeWidgetFilter, %function
 647              	CapSense_InitializeWidgetFilter:
 648              	.LFB12:
 648:Generated_Source\PSoC4/CapSense_Filter.c ****     uint32 sensorId;
 649              		.loc 1 648 0
 650              		.cfi_startproc
 651              		@ args = 0, pretend = 0, frame = 0
 652              		@ frame_needed = 0, uses_anonymous_args = 0
 653              	.LVL81:
 654 0000 F0B5     		push	{r4, r5, r6, r7, lr}
 655              		.cfi_def_cfa_offset 20
 656              		.cfi_offset 4, -20
 657              		.cfi_offset 5, -16
 658              		.cfi_offset 6, -12
 659              		.cfi_offset 7, -8
 660              		.cfi_offset 14, -4
 661 0002 4746     		mov	r7, r8
 662 0004 80B4     		push	{r7}
 663              		.cfi_def_cfa_offset 24
 664              		.cfi_offset 8, -24
 665 0006 8046     		mov	r8, r0
 666              	.LVL82:
 670:Generated_Source\PSoC4/CapSense_Filter.c **** 
 667              		.loc 1 670 0
 668 0008 C200     		lsls	r2, r0, #3
 669 000a 121A     		subs	r2, r2, r0
 670 000c 9300     		lsls	r3, r2, #2
 671 000e 194A     		ldr	r2, .L48
 672 0010 D318     		adds	r3, r2, r3
 673 0012 1B8B     		ldrh	r3, [r3, #24]
 674              	.LVL83:
 672:Generated_Source\PSoC4/CapSense_Filter.c ****     {
 675              		.loc 1 672 0
 676 0014 28E0     		b	.L44
 677              	.LVL84:
 678              	.L47:
 675:Generated_Source\PSoC4/CapSense_Filter.c ****         ptrSensor = &ptrSensor[sensorId];
 679              		.loc 1 675 0
 680 0016 4346     		mov	r3, r8
 681 0018 DA00     		lsls	r2, r3, #3
 682 001a D21A     		subs	r2, r2, r3
 683 001c 9300     		lsls	r3, r2, #2
 684 001e 154A     		ldr	r2, .L48
 685              	.LVL85:
 686 0020 D318     		adds	r3, r2, r3
 687              	.LVL86:
 676:Generated_Source\PSoC4/CapSense_Filter.c **** 
ARM GAS  C:\Users\zack.li\AppData\Local\Temp\ccH890rU.s 			page 37


 688              		.loc 1 676 0
 689 0022 AA00     		lsls	r2, r5, #2
 690              	.LVL87:
 691 0024 5219     		adds	r2, r2, r5
 692 0026 5400     		lsls	r4, r2, #1
 693 0028 9A68     		ldr	r2, [r3, #8]
 694 002a 9446     		mov	ip, r2
 695 002c 6444     		add	r4, r4, ip
 696              	.LVL88:
 680:Generated_Source\PSoC4/CapSense_Filter.c ****         #endif
 697              		.loc 1 680 0
 698 002e DE68     		ldr	r6, [r3, #12]
 699              	.LVL89:
 689:Generated_Source\PSoC4/CapSense_Filter.c ****         {
 700              		.loc 1 689 0
 701 0030 9F7E     		ldrb	r7, [r3, #26]
 702 0032 062F     		cmp	r7, #6
 703 0034 04D0     		beq	.L45
 694:Generated_Source\PSoC4/CapSense_Filter.c ****             #endif
 704              		.loc 1 694 0
 705 0036 6B00     		lsls	r3, r5, #1
 706 0038 5B19     		adds	r3, r3, r5
 707 003a 9A00     		lsls	r2, r3, #2
 708 003c B618     		adds	r6, r6, r2
 709 003e 03E0     		b	.L46
 710              	.L45:
 702:Generated_Source\PSoC4/CapSense_Filter.c ****             #endif /* #if (0u != CapSense_PROX_RC_FILTER_EN) */
 711              		.loc 1 702 0
 712 0040 6B00     		lsls	r3, r5, #1
 713 0042 5B19     		adds	r3, r3, r5
 714 0044 9A00     		lsls	r2, r3, #2
 715 0046 B618     		adds	r6, r6, r2
 716              	.L46:
 707:Generated_Source\PSoC4/CapSense_Filter.c ****         #endif /* (CapSense_REGULAR_RC_IIR_FILTER_EN || CapSense_PROX_RC_IIR_FILTER_EN) */
 717              		.loc 1 707 0
 718 0048 3A00     		movs	r2, r7
 719 004a 2100     		movs	r1, r4
 720              	.LVL90:
 721 004c 3000     		movs	r0, r6
 722 004e FFF7FEFF 		bl	CapSense_InitializeIIRInternal
 723              	.LVL91:
 711:Generated_Source\PSoC4/CapSense_Filter.c ****         #endif /* (CapSense_REGULAR_RC_MEDIAN_FILTER_EN || CapSense_PROX_RC_MEDIAN_FILTER_EN) */
 724              		.loc 1 711 0
 725 0052 3A00     		movs	r2, r7
 726 0054 2100     		movs	r1, r4
 727 0056 3000     		movs	r0, r6
 728 0058 FFF7FEFF 		bl	CapSense_InitializeMedianInternal
 729              	.LVL92:
 715:Generated_Source\PSoC4/CapSense_Filter.c ****         #endif /* (CapSense_REGULAR_RC_AVERAGE_FILTER_EN || CapSense_PROX_RC_AVERAGE_FILTER_EN) */
 730              		.loc 1 715 0
 731 005c 3A00     		movs	r2, r7
 732 005e 2100     		movs	r1, r4
 733 0060 3000     		movs	r0, r6
 734 0062 FFF7FEFF 		bl	CapSense_InitializeAverageInternal
 735              	.LVL93:
 672:Generated_Source\PSoC4/CapSense_Filter.c ****     {
 736              		.loc 1 672 0
ARM GAS  C:\Users\zack.li\AppData\Local\Temp\ccH890rU.s 			page 38


 737 0066 2B00     		movs	r3, r5
 738              	.LVL94:
 739              	.L44:
 672:Generated_Source\PSoC4/CapSense_Filter.c ****     {
 740              		.loc 1 672 0 is_stmt 0 discriminator 1
 741 0068 5D1E     		subs	r5, r3, #1
 742              	.LVL95:
 743 006a 002B     		cmp	r3, #0
 744 006c D3D1     		bne	.L47
 730:Generated_Source\PSoC4/CapSense_Filter.c **** #endif /* ((CapSense_ENABLE == CapSense_RC_FILTER_EN) || \
 745              		.loc 1 730 0 is_stmt 1
 746              		@ sp needed
 747              	.LVL96:
 748              	.LVL97:
 749              	.LVL98:
 750 006e 04BC     		pop	{r2}
 751 0070 9046     		mov	r8, r2
 752 0072 F0BD     		pop	{r4, r5, r6, r7, pc}
 753              	.L49:
 754              		.align	2
 755              	.L48:
 756 0074 00000000 		.word	CapSense_dsFlash
 757              		.cfi_endproc
 758              	.LFE12:
 759              		.size	CapSense_InitializeWidgetFilter, .-CapSense_InitializeWidgetFilter
 760              		.section	.text.CapSense_InitializeAllFilters,"ax",%progbits
 761              		.align	2
 762              		.global	CapSense_InitializeAllFilters
 763              		.code	16
 764              		.thumb_func
 765              		.type	CapSense_InitializeAllFilters, %function
 766              	CapSense_InitializeAllFilters:
 767              	.LFB11:
 618:Generated_Source\PSoC4/CapSense_Filter.c ****     uint32 widgetId;
 768              		.loc 1 618 0
 769              		.cfi_startproc
 770              		@ args = 0, pretend = 0, frame = 0
 771              		@ frame_needed = 0, uses_anonymous_args = 0
 772 0000 10B5     		push	{r4, lr}
 773              		.cfi_def_cfa_offset 8
 774              		.cfi_offset 4, -8
 775              		.cfi_offset 14, -4
 776              	.LVL99:
 621:Generated_Source\PSoC4/CapSense_Filter.c ****     {
 777              		.loc 1 621 0
 778 0002 0623     		movs	r3, #6
 779 0004 03E0     		b	.L51
 780              	.LVL100:
 781              	.L52:
 623:Generated_Source\PSoC4/CapSense_Filter.c ****     }
 782              		.loc 1 623 0
 783 0006 2000     		movs	r0, r4
 784 0008 FFF7FEFF 		bl	CapSense_InitializeWidgetFilter
 785              	.LVL101:
 621:Generated_Source\PSoC4/CapSense_Filter.c ****     {
 786              		.loc 1 621 0
 787 000c 2300     		movs	r3, r4
ARM GAS  C:\Users\zack.li\AppData\Local\Temp\ccH890rU.s 			page 39


 788              	.LVL102:
 789              	.L51:
 621:Generated_Source\PSoC4/CapSense_Filter.c ****     {
 790              		.loc 1 621 0 is_stmt 0 discriminator 1
 791 000e 5C1E     		subs	r4, r3, #1
 792              	.LVL103:
 793 0010 002B     		cmp	r3, #0
 794 0012 F8D1     		bne	.L52
 625:Generated_Source\PSoC4/CapSense_Filter.c **** 
 795              		.loc 1 625 0 is_stmt 1
 796              		@ sp needed
 797              	.LVL104:
 798 0014 10BD     		pop	{r4, pc}
 799              		.cfi_endproc
 800              	.LFE11:
 801              		.size	CapSense_InitializeAllFilters, .-CapSense_InitializeAllFilters
 802 0016 C046     		.section	.text.CapSense_FtInitialize,"ax",%progbits
 803              		.align	2
 804              		.global	CapSense_FtInitialize
 805              		.code	16
 806              		.thumb_func
 807              		.type	CapSense_FtInitialize, %function
 808              	CapSense_FtInitialize:
 809              	.LFB1:
  63:Generated_Source\PSoC4/CapSense_Filter.c ****     #if ((CapSense_ENABLE == CapSense_RC_FILTER_EN) || \
 810              		.loc 1 63 0
 811              		.cfi_startproc
 812              		@ args = 0, pretend = 0, frame = 0
 813              		@ frame_needed = 0, uses_anonymous_args = 0
 814 0000 10B5     		push	{r4, lr}
 815              		.cfi_def_cfa_offset 8
 816              		.cfi_offset 4, -8
 817              		.cfi_offset 14, -4
  66:Generated_Source\PSoC4/CapSense_Filter.c ****     #endif /* ((CapSense_ENABLE == CapSense_RC_FILTER_EN) || \
 818              		.loc 1 66 0
 819 0002 FFF7FEFF 		bl	CapSense_InitializeAllFilters
 820              	.LVL105:
  69:Generated_Source\PSoC4/CapSense_Filter.c **** 
 821              		.loc 1 69 0
 822              		@ sp needed
 823 0006 10BD     		pop	{r4, pc}
 824              		.cfi_endproc
 825              	.LFE1:
 826              		.size	CapSense_FtInitialize, .-CapSense_FtInitialize
 827              		.section	.text.CapSense_InitializeAverage,"ax",%progbits
 828              		.align	2
 829              		.global	CapSense_InitializeAverage
 830              		.code	16
 831              		.thumb_func
 832              		.type	CapSense_InitializeAverage, %function
 833              	CapSense_InitializeAverage:
 834              	.LFB21:
1186:Generated_Source\PSoC4/CapSense_Filter.c ****     CapSense_FLASH_WD_STRUCT const *ptrWidget = &CapSense_dsFlash.wdgtArray[widgetId];
 835              		.loc 1 1186 0
 836              		.cfi_startproc
 837              		@ args = 0, pretend = 0, frame = 0
 838              		@ frame_needed = 0, uses_anonymous_args = 0
ARM GAS  C:\Users\zack.li\AppData\Local\Temp\ccH890rU.s 			page 40


 839              	.LVL106:
 840 0000 70B5     		push	{r4, r5, r6, lr}
 841              		.cfi_def_cfa_offset 16
 842              		.cfi_offset 4, -16
 843              		.cfi_offset 5, -12
 844              		.cfi_offset 6, -8
 845              		.cfi_offset 14, -4
 846 0002 0B00     		movs	r3, r1
 847              	.LVL107:
1192:Generated_Source\PSoC4/CapSense_Filter.c ****     ptrSensor = &ptrSensor[sensorId];
 848              		.loc 1 1192 0
 849 0004 0E4E     		ldr	r6, .L57
 850 0006 C200     		lsls	r2, r0, #3
 851 0008 111A     		subs	r1, r2, r0
 852              	.LVL108:
 853 000a 8C00     		lsls	r4, r1, #2
 854 000c 3419     		adds	r4, r6, r4
 855              	.LVL109:
1193:Generated_Source\PSoC4/CapSense_Filter.c **** 
 856              		.loc 1 1193 0
 857 000e 9D00     		lsls	r5, r3, #2
 858 0010 ED18     		adds	r5, r5, r3
 859 0012 6900     		lsls	r1, r5, #1
 860 0014 A568     		ldr	r5, [r4, #8]
 861 0016 AC46     		mov	ip, r5
 862 0018 6144     		add	r1, r1, ip
 863              	.LVL110:
1196:Generated_Source\PSoC4/CapSense_Filter.c **** 
 864              		.loc 1 1196 0
 865 001a E568     		ldr	r5, [r4, #12]
1198:Generated_Source\PSoC4/CapSense_Filter.c ****     {
 866              		.loc 1 1198 0
 867 001c 121A     		subs	r2, r2, r0
 868 001e 9400     		lsls	r4, r2, #2
 869 0020 3419     		adds	r4, r6, r4
 870 0022 A27E     		ldrb	r2, [r4, #26]
 871 0024 062A     		cmp	r2, #6
 872 0026 04D0     		beq	.L55
1201:Generated_Source\PSoC4/CapSense_Filter.c ****         #endif /* (CapSense_REGULAR_SENSOR_EN) */
 873              		.loc 1 1201 0
 874 0028 5800     		lsls	r0, r3, #1
 875              	.LVL111:
 876 002a C318     		adds	r3, r0, r3
 877              	.LVL112:
 878 002c 9800     		lsls	r0, r3, #2
 879 002e 2818     		adds	r0, r5, r0
 880              	.LVL113:
 881 0030 03E0     		b	.L56
 882              	.LVL114:
 883              	.L55:
1207:Generated_Source\PSoC4/CapSense_Filter.c ****         #endif /* (CapSense_PROXIMITY_SENSOR_EN) */
 884              		.loc 1 1207 0
 885 0032 5800     		lsls	r0, r3, #1
 886              	.LVL115:
 887 0034 C318     		adds	r3, r0, r3
 888              	.LVL116:
 889 0036 9800     		lsls	r0, r3, #2
ARM GAS  C:\Users\zack.li\AppData\Local\Temp\ccH890rU.s 			page 41


 890 0038 2818     		adds	r0, r5, r0
 891              	.L56:
1211:Generated_Source\PSoC4/CapSense_Filter.c **** }
 892              		.loc 1 1211 0
 893 003a FFF7FEFF 		bl	CapSense_InitializeAverageInternal
 894              	.LVL117:
1212:Generated_Source\PSoC4/CapSense_Filter.c **** 
 895              		.loc 1 1212 0
 896              		@ sp needed
 897              	.LVL118:
 898              	.LVL119:
 899 003e 70BD     		pop	{r4, r5, r6, pc}
 900              	.L58:
 901              		.align	2
 902              	.L57:
 903 0040 00000000 		.word	CapSense_dsFlash
 904              		.cfi_endproc
 905              	.LFE21:
 906              		.size	CapSense_InitializeAverage, .-CapSense_InitializeAverage
 907              		.section	.text.CapSense_RunAverageInternal,"ax",%progbits
 908              		.align	2
 909              		.global	CapSense_RunAverageInternal
 910              		.code	16
 911              		.thumb_func
 912              		.type	CapSense_RunAverageInternal, %function
 913              	CapSense_RunAverageInternal:
 914              	.LFB24:
1313:Generated_Source\PSoC4/CapSense_Filter.c **** 
1314:Generated_Source\PSoC4/CapSense_Filter.c **** 
1315:Generated_Source\PSoC4/CapSense_Filter.c **** /*******************************************************************************
1316:Generated_Source\PSoC4/CapSense_Filter.c **** * Function Name: CapSense_RunAverageInternal
1317:Generated_Source\PSoC4/CapSense_Filter.c **** ****************************************************************************//**
1318:Generated_Source\PSoC4/CapSense_Filter.c **** *
1319:Generated_Source\PSoC4/CapSense_Filter.c **** * \brief
1320:Generated_Source\PSoC4/CapSense_Filter.c **** *  Runs the average filter.
1321:Generated_Source\PSoC4/CapSense_Filter.c **** *
1322:Generated_Source\PSoC4/CapSense_Filter.c **** * \details
1323:Generated_Source\PSoC4/CapSense_Filter.c **** *  Runs the average filter.
1324:Generated_Source\PSoC4/CapSense_Filter.c **** *
1325:Generated_Source\PSoC4/CapSense_Filter.c **** * \param ptrFilterHistObj
1326:Generated_Source\PSoC4/CapSense_Filter.c **** *  The pointer to the filter RAM object of the sensor.
1327:Generated_Source\PSoC4/CapSense_Filter.c **** *
1328:Generated_Source\PSoC4/CapSense_Filter.c **** * \param ptrSensorObj
1329:Generated_Source\PSoC4/CapSense_Filter.c **** *  The pointer to the sensor RAM object of the sensor.
1330:Generated_Source\PSoC4/CapSense_Filter.c **** *
1331:Generated_Source\PSoC4/CapSense_Filter.c **** * \param wdType
1332:Generated_Source\PSoC4/CapSense_Filter.c **** *  Specifies the type of a widget.
1333:Generated_Source\PSoC4/CapSense_Filter.c **** *
1334:Generated_Source\PSoC4/CapSense_Filter.c **** *******************************************************************************/
1335:Generated_Source\PSoC4/CapSense_Filter.c **** void CapSense_RunAverageInternal(CapSense_PTR_FILTER_VARIANT ptrFilterHistObj,\
1336:Generated_Source\PSoC4/CapSense_Filter.c ****                                            CapSense_RAM_SNS_STRUCT *ptrSensorObj, uint32 wdType)
1337:Generated_Source\PSoC4/CapSense_Filter.c **** {
 915              		.loc 1 1337 0
 916              		.cfi_startproc
 917              		@ args = 0, pretend = 0, frame = 0
 918              		@ frame_needed = 0, uses_anonymous_args = 0
 919              	.LVL120:
ARM GAS  C:\Users\zack.li\AppData\Local\Temp\ccH890rU.s 			page 42


 920 0000 F0B5     		push	{r4, r5, r6, r7, lr}
 921              		.cfi_def_cfa_offset 20
 922              		.cfi_offset 4, -20
 923              		.cfi_offset 5, -16
 924              		.cfi_offset 6, -12
 925              		.cfi_offset 7, -8
 926              		.cfi_offset 14, -4
 927              	.LVL121:
1338:Generated_Source\PSoC4/CapSense_Filter.c ****     uint32 freqChannel;
1339:Generated_Source\PSoC4/CapSense_Filter.c ****     uint32 temp;
1340:Generated_Source\PSoC4/CapSense_Filter.c **** 
1341:Generated_Source\PSoC4/CapSense_Filter.c ****     for(freqChannel = CapSense_NUM_SCAN_FREQS; freqChannel-- > 0u;)
 928              		.loc 1 1341 0
 929 0002 0123     		movs	r3, #1
 930 0004 2FE0     		b	.L60
 931              	.LVL122:
 932              	.L63:
1342:Generated_Source\PSoC4/CapSense_Filter.c ****     {
1343:Generated_Source\PSoC4/CapSense_Filter.c ****         if ((CapSense_WD_TYPE_ENUM)wdType != CapSense_WD_PROXIMITY_E)
 933              		.loc 1 1343 0
 934 0006 FF23     		movs	r3, #255
 935 0008 1340     		ands	r3, r2
 936 000a 062B     		cmp	r3, #6
 937 000c 15D0     		beq	.L61
1344:Generated_Source\PSoC4/CapSense_Filter.c ****         {
1345:Generated_Source\PSoC4/CapSense_Filter.c ****             #if (CapSense_REGULAR_SENSOR_EN && CapSense_REGULAR_RC_AVERAGE_FILTER_EN)
1346:Generated_Source\PSoC4/CapSense_Filter.c ****                 #if (CapSense_REGULAR_AVERAGE_LEN == CapSense_AVERAGE_FILTER_LEN_2)
1347:Generated_Source\PSoC4/CapSense_Filter.c ****                     temp = ((uint32)ptrSensorObj->raw[freqChannel] +
1348:Generated_Source\PSoC4/CapSense_Filter.c ****                             (uint32)ptrFilterHistObj.ptrRegular->regularChannel[freqChannel].avgHis
1349:Generated_Source\PSoC4/CapSense_Filter.c ****                     ptrFilterHistObj.ptrRegular->regularChannel[freqChannel].avgHistory[0] = ptrSen
1350:Generated_Source\PSoC4/CapSense_Filter.c ****                     ptrSensorObj->raw[freqChannel] = LO16(temp);
1351:Generated_Source\PSoC4/CapSense_Filter.c ****                 #else
1352:Generated_Source\PSoC4/CapSense_Filter.c ****                     temp = ((uint32)ptrSensorObj->raw[freqChannel] +
 938              		.loc 1 1352 0
 939 000e 6700     		lsls	r7, r4, #1
 940 0010 7B5A     		ldrh	r3, [r7, r1]
 941 0012 9C46     		mov	ip, r3
1353:Generated_Source\PSoC4/CapSense_Filter.c ****                             (uint32)ptrFilterHistObj.ptrRegular->regularChannel[freqChannel].avgHis
 942              		.loc 1 1353 0
 943 0014 3E19     		adds	r6, r7, r4
 944 0016 B300     		lsls	r3, r6, #2
 945 0018 C318     		adds	r3, r0, r3
 946 001a DD88     		ldrh	r5, [r3, #6]
1352:Generated_Source\PSoC4/CapSense_Filter.c ****                             (uint32)ptrFilterHistObj.ptrRegular->regularChannel[freqChannel].avgHis
 947              		.loc 1 1352 0
 948 001c 6544     		add	r5, r5, ip
1354:Generated_Source\PSoC4/CapSense_Filter.c ****                             (uint32)ptrFilterHistObj.ptrRegular->regularChannel[freqChannel].avgHis
 949              		.loc 1 1354 0
 950 001e 1E89     		ldrh	r6, [r3, #8]
 951 0020 B446     		mov	ip, r6
1353:Generated_Source\PSoC4/CapSense_Filter.c ****                             (uint32)ptrFilterHistObj.ptrRegular->regularChannel[freqChannel].avgHis
 952              		.loc 1 1353 0
 953 0022 6544     		add	r5, r5, ip
1355:Generated_Source\PSoC4/CapSense_Filter.c ****                             (uint32)ptrFilterHistObj.ptrRegular->regularChannel[freqChannel].avgHis
 954              		.loc 1 1355 0
 955 0024 5E89     		ldrh	r6, [r3, #10]
1354:Generated_Source\PSoC4/CapSense_Filter.c ****                             (uint32)ptrFilterHistObj.ptrRegular->regularChannel[freqChannel].avgHis
ARM GAS  C:\Users\zack.li\AppData\Local\Temp\ccH890rU.s 			page 43


 956              		.loc 1 1354 0
 957 0026 AD19     		adds	r5, r5, r6
1352:Generated_Source\PSoC4/CapSense_Filter.c ****                             (uint32)ptrFilterHistObj.ptrRegular->regularChannel[freqChannel].avgHis
 958              		.loc 1 1352 0
 959 0028 AD08     		lsrs	r5, r5, #2
 960              	.LVL123:
1356:Generated_Source\PSoC4/CapSense_Filter.c **** 
1357:Generated_Source\PSoC4/CapSense_Filter.c ****                     ptrFilterHistObj.ptrRegular->regularChannel[freqChannel].avgHistory[2u] =
 961              		.loc 1 1357 0
 962 002a 6646     		mov	r6, ip
 963 002c 5E81     		strh	r6, [r3, #10]
1358:Generated_Source\PSoC4/CapSense_Filter.c ****                     ptrFilterHistObj.ptrRegular->regularChannel[freqChannel].avgHistory[1u];
1359:Generated_Source\PSoC4/CapSense_Filter.c ****                     ptrFilterHistObj.ptrRegular->regularChannel[freqChannel].avgHistory[1u] =
1360:Generated_Source\PSoC4/CapSense_Filter.c ****                     ptrFilterHistObj.ptrRegular->regularChannel[freqChannel].avgHistory[0];
 964              		.loc 1 1360 0
 965 002e DE88     		ldrh	r6, [r3, #6]
1359:Generated_Source\PSoC4/CapSense_Filter.c ****                     ptrFilterHistObj.ptrRegular->regularChannel[freqChannel].avgHistory[0];
 966              		.loc 1 1359 0
 967 0030 1E81     		strh	r6, [r3, #8]
1361:Generated_Source\PSoC4/CapSense_Filter.c ****                     ptrFilterHistObj.ptrRegular->regularChannel[freqChannel].avgHistory[0] = ptrSen
 968              		.loc 1 1361 0
 969 0032 7E5A     		ldrh	r6, [r7, r1]
 970 0034 DE80     		strh	r6, [r3, #6]
1362:Generated_Source\PSoC4/CapSense_Filter.c ****                     ptrSensorObj->raw[freqChannel] = LO16(temp);
 971              		.loc 1 1362 0
 972 0036 CD53     		strh	r5, [r1, r7]
 973 0038 14E0     		b	.L62
 974              	.LVL124:
 975              	.L61:
1363:Generated_Source\PSoC4/CapSense_Filter.c ****                 #endif /* CapSense_REGULAR_AVERAGE_LEN == CapSense_AVERAGE_FILTER_LEN_4 */
1364:Generated_Source\PSoC4/CapSense_Filter.c ****             #endif /* (CapSense_REGULAR_SENSOR_EN) */
1365:Generated_Source\PSoC4/CapSense_Filter.c ****         }
1366:Generated_Source\PSoC4/CapSense_Filter.c ****         else
1367:Generated_Source\PSoC4/CapSense_Filter.c ****         {
1368:Generated_Source\PSoC4/CapSense_Filter.c ****             #if (CapSense_PROXIMITY_SENSOR_EN && CapSense_PROX_RC_AVERAGE_FILTER_EN)
1369:Generated_Source\PSoC4/CapSense_Filter.c ****                 #if (CapSense_PROX_AVERAGE_LEN == CapSense_AVERAGE_FILTER_LEN_2)
1370:Generated_Source\PSoC4/CapSense_Filter.c ****                     temp = ((uint32)ptrSensorObj->raw[freqChannel] +
1371:Generated_Source\PSoC4/CapSense_Filter.c ****                             (uint32)ptrFilterHistObj.ptrProx->proxChannel[freqChannel].avgHistory[0
1372:Generated_Source\PSoC4/CapSense_Filter.c ****                     ptrFilterHistObj.ptrProx->proxChannel[freqChannel].avgHistory[0] = ptrSensorObj
1373:Generated_Source\PSoC4/CapSense_Filter.c ****                     ptrSensorObj->raw[freqChannel] = LO16(temp);
1374:Generated_Source\PSoC4/CapSense_Filter.c ****                 #else
1375:Generated_Source\PSoC4/CapSense_Filter.c ****                     temp = ((uint32)ptrSensorObj->raw[freqChannel] +
 976              		.loc 1 1375 0
 977 003a 6700     		lsls	r7, r4, #1
 978 003c 7B5A     		ldrh	r3, [r7, r1]
 979 003e 9C46     		mov	ip, r3
1376:Generated_Source\PSoC4/CapSense_Filter.c ****                             (uint32)ptrFilterHistObj.ptrProx->proxChannel[freqChannel].avgHistory[0
 980              		.loc 1 1376 0
 981 0040 3E19     		adds	r6, r7, r4
 982 0042 B300     		lsls	r3, r6, #2
 983 0044 C318     		adds	r3, r0, r3
 984 0046 DD88     		ldrh	r5, [r3, #6]
1375:Generated_Source\PSoC4/CapSense_Filter.c ****                             (uint32)ptrFilterHistObj.ptrProx->proxChannel[freqChannel].avgHistory[0
 985              		.loc 1 1375 0
 986 0048 6544     		add	r5, r5, ip
1377:Generated_Source\PSoC4/CapSense_Filter.c ****                             (uint32)ptrFilterHistObj.ptrProx->proxChannel[freqChannel].avgHistory[1
 987              		.loc 1 1377 0
ARM GAS  C:\Users\zack.li\AppData\Local\Temp\ccH890rU.s 			page 44


 988 004a 1E89     		ldrh	r6, [r3, #8]
 989 004c B446     		mov	ip, r6
1376:Generated_Source\PSoC4/CapSense_Filter.c ****                             (uint32)ptrFilterHistObj.ptrProx->proxChannel[freqChannel].avgHistory[0
 990              		.loc 1 1376 0
 991 004e 6544     		add	r5, r5, ip
1378:Generated_Source\PSoC4/CapSense_Filter.c ****                             (uint32)ptrFilterHistObj.ptrProx->proxChannel[freqChannel].avgHistory[2
 992              		.loc 1 1378 0
 993 0050 5E89     		ldrh	r6, [r3, #10]
1377:Generated_Source\PSoC4/CapSense_Filter.c ****                             (uint32)ptrFilterHistObj.ptrProx->proxChannel[freqChannel].avgHistory[1
 994              		.loc 1 1377 0
 995 0052 AD19     		adds	r5, r5, r6
1375:Generated_Source\PSoC4/CapSense_Filter.c ****                             (uint32)ptrFilterHistObj.ptrProx->proxChannel[freqChannel].avgHistory[0
 996              		.loc 1 1375 0
 997 0054 AD08     		lsrs	r5, r5, #2
 998              	.LVL125:
1379:Generated_Source\PSoC4/CapSense_Filter.c **** 
1380:Generated_Source\PSoC4/CapSense_Filter.c ****                     ptrFilterHistObj.ptrProx->proxChannel[freqChannel].avgHistory[2u] =
 999              		.loc 1 1380 0
 1000 0056 6646     		mov	r6, ip
 1001 0058 5E81     		strh	r6, [r3, #10]
1381:Generated_Source\PSoC4/CapSense_Filter.c ****                     ptrFilterHistObj.ptrProx->proxChannel[freqChannel].avgHistory[1u];
1382:Generated_Source\PSoC4/CapSense_Filter.c ****                     ptrFilterHistObj.ptrProx->proxChannel[freqChannel].avgHistory[1u] =
1383:Generated_Source\PSoC4/CapSense_Filter.c ****                     ptrFilterHistObj.ptrProx->proxChannel[freqChannel].avgHistory[0];
 1002              		.loc 1 1383 0
 1003 005a DE88     		ldrh	r6, [r3, #6]
1382:Generated_Source\PSoC4/CapSense_Filter.c ****                     ptrFilterHistObj.ptrProx->proxChannel[freqChannel].avgHistory[0];
 1004              		.loc 1 1382 0
 1005 005c 1E81     		strh	r6, [r3, #8]
1384:Generated_Source\PSoC4/CapSense_Filter.c ****                     ptrFilterHistObj.ptrProx->proxChannel[freqChannel].avgHistory[0] = ptrSensorObj
 1006              		.loc 1 1384 0
 1007 005e 7E5A     		ldrh	r6, [r7, r1]
 1008 0060 DE80     		strh	r6, [r3, #6]
1385:Generated_Source\PSoC4/CapSense_Filter.c ****                     ptrSensorObj->raw[freqChannel] = LO16(temp);
 1009              		.loc 1 1385 0
 1010 0062 CD53     		strh	r5, [r1, r7]
 1011              	.L62:
1337:Generated_Source\PSoC4/CapSense_Filter.c ****     uint32 freqChannel;
 1012              		.loc 1 1337 0 discriminator 1
 1013 0064 2300     		movs	r3, r4
 1014              	.LVL126:
 1015              	.L60:
1341:Generated_Source\PSoC4/CapSense_Filter.c ****     {
 1016              		.loc 1 1341 0 discriminator 1
 1017 0066 5C1E     		subs	r4, r3, #1
 1018              	.LVL127:
 1019 0068 002B     		cmp	r3, #0
 1020 006a CCD1     		bne	.L63
1386:Generated_Source\PSoC4/CapSense_Filter.c ****                 #endif /* CapSense_PROX_AVERAGE_LEN == CapSense_AVERAGE_FILTER_LEN_4 */
1387:Generated_Source\PSoC4/CapSense_Filter.c ****             #endif /* (CapSense_PROXIMITY_SENSOR_EN) */
1388:Generated_Source\PSoC4/CapSense_Filter.c ****         }
1389:Generated_Source\PSoC4/CapSense_Filter.c ****     }
1390:Generated_Source\PSoC4/CapSense_Filter.c **** }
 1021              		.loc 1 1390 0
 1022              		@ sp needed
 1023              	.LVL128:
 1024 006c F0BD     		pop	{r4, r5, r6, r7, pc}
 1025              		.cfi_endproc
ARM GAS  C:\Users\zack.li\AppData\Local\Temp\ccH890rU.s 			page 45


 1026              	.LFE24:
 1027              		.size	CapSense_RunAverageInternal, .-CapSense_RunAverageInternal
 1028 006e C046     		.section	.text.CapSense_RunAverage,"ax",%progbits
 1029              		.align	2
 1030              		.global	CapSense_RunAverage
 1031              		.code	16
 1032              		.thumb_func
 1033              		.type	CapSense_RunAverage, %function
 1034              	CapSense_RunAverage:
 1035              	.LFB22:
1235:Generated_Source\PSoC4/CapSense_Filter.c ****     CapSense_FLASH_WD_STRUCT const *ptrWidget = &CapSense_dsFlash.wdgtArray[widgetId];
 1036              		.loc 1 1235 0
 1037              		.cfi_startproc
 1038              		@ args = 0, pretend = 0, frame = 0
 1039              		@ frame_needed = 0, uses_anonymous_args = 0
 1040              	.LVL129:
 1041 0000 70B5     		push	{r4, r5, r6, lr}
 1042              		.cfi_def_cfa_offset 16
 1043              		.cfi_offset 4, -16
 1044              		.cfi_offset 5, -12
 1045              		.cfi_offset 6, -8
 1046              		.cfi_offset 14, -4
 1047 0002 0B00     		movs	r3, r1
 1048              	.LVL130:
1241:Generated_Source\PSoC4/CapSense_Filter.c ****     ptrSensor = &ptrSensor[sensorId];
 1049              		.loc 1 1241 0
 1050 0004 0E4E     		ldr	r6, .L67
 1051 0006 C200     		lsls	r2, r0, #3
 1052 0008 111A     		subs	r1, r2, r0
 1053              	.LVL131:
 1054 000a 8C00     		lsls	r4, r1, #2
 1055 000c 3419     		adds	r4, r6, r4
 1056              	.LVL132:
1242:Generated_Source\PSoC4/CapSense_Filter.c **** 
 1057              		.loc 1 1242 0
 1058 000e 9D00     		lsls	r5, r3, #2
 1059 0010 ED18     		adds	r5, r5, r3
 1060 0012 6900     		lsls	r1, r5, #1
 1061 0014 A568     		ldr	r5, [r4, #8]
 1062 0016 AC46     		mov	ip, r5
 1063 0018 6144     		add	r1, r1, ip
 1064              	.LVL133:
1245:Generated_Source\PSoC4/CapSense_Filter.c **** 
 1065              		.loc 1 1245 0
 1066 001a E568     		ldr	r5, [r4, #12]
1247:Generated_Source\PSoC4/CapSense_Filter.c ****     {
 1067              		.loc 1 1247 0
 1068 001c 121A     		subs	r2, r2, r0
 1069 001e 9400     		lsls	r4, r2, #2
 1070 0020 3419     		adds	r4, r6, r4
 1071 0022 A27E     		ldrb	r2, [r4, #26]
 1072 0024 062A     		cmp	r2, #6
 1073 0026 04D0     		beq	.L65
1250:Generated_Source\PSoC4/CapSense_Filter.c ****         #endif /* (CapSense_REGULAR_SENSOR_EN) */
 1074              		.loc 1 1250 0
 1075 0028 5800     		lsls	r0, r3, #1
 1076              	.LVL134:
ARM GAS  C:\Users\zack.li\AppData\Local\Temp\ccH890rU.s 			page 46


 1077 002a C318     		adds	r3, r0, r3
 1078              	.LVL135:
 1079 002c 9800     		lsls	r0, r3, #2
 1080 002e 2818     		adds	r0, r5, r0
 1081              	.LVL136:
 1082 0030 03E0     		b	.L66
 1083              	.LVL137:
 1084              	.L65:
1256:Generated_Source\PSoC4/CapSense_Filter.c ****         #endif /* (CapSense_PROXIMITY_SENSOR_EN) */
 1085              		.loc 1 1256 0
 1086 0032 5800     		lsls	r0, r3, #1
 1087              	.LVL138:
 1088 0034 C318     		adds	r3, r0, r3
 1089              	.LVL139:
 1090 0036 9800     		lsls	r0, r3, #2
 1091 0038 2818     		adds	r0, r5, r0
 1092              	.L66:
1260:Generated_Source\PSoC4/CapSense_Filter.c **** }
 1093              		.loc 1 1260 0
 1094 003a FFF7FEFF 		bl	CapSense_RunAverageInternal
 1095              	.LVL140:
1261:Generated_Source\PSoC4/CapSense_Filter.c **** 
 1096              		.loc 1 1261 0
 1097              		@ sp needed
 1098              	.LVL141:
 1099              	.LVL142:
 1100 003e 70BD     		pop	{r4, r5, r6, pc}
 1101              	.L68:
 1102              		.align	2
 1103              	.L67:
 1104 0040 00000000 		.word	CapSense_dsFlash
 1105              		.cfi_endproc
 1106              	.LFE22:
 1107              		.size	CapSense_RunAverage, .-CapSense_RunAverage
 1108              		.section	.text.CapSense_FtMedian,"ax",%progbits
 1109              		.align	2
 1110              		.global	CapSense_FtMedian
 1111              		.code	16
 1112              		.thumb_func
 1113              		.type	CapSense_FtMedian, %function
 1114              	CapSense_FtMedian:
 1115              	.LFB27:
1391:Generated_Source\PSoC4/CapSense_Filter.c **** #endif /* (CapSense_REGULAR_RC_AVERAGE_FILTER_EN || CapSense_PROX_RC_AVERAGE_FILTER_EN) */
1392:Generated_Source\PSoC4/CapSense_Filter.c **** 
1393:Generated_Source\PSoC4/CapSense_Filter.c **** #if (CapSense_ENABLE == CapSense_ALP_FILTER_EN)
1394:Generated_Source\PSoC4/CapSense_Filter.c **** /*******************************************************************************
1395:Generated_Source\PSoC4/CapSense_Filter.c **** * Function Name: CapSense_InitializeALP
1396:Generated_Source\PSoC4/CapSense_Filter.c **** ****************************************************************************//**
1397:Generated_Source\PSoC4/CapSense_Filter.c **** *
1398:Generated_Source\PSoC4/CapSense_Filter.c **** * \brief
1399:Generated_Source\PSoC4/CapSense_Filter.c **** *  Initializes the ALP filter history.
1400:Generated_Source\PSoC4/CapSense_Filter.c **** *
1401:Generated_Source\PSoC4/CapSense_Filter.c **** * \details
1402:Generated_Source\PSoC4/CapSense_Filter.c **** *  Initializes the ALP filter history.
1403:Generated_Source\PSoC4/CapSense_Filter.c **** *
1404:Generated_Source\PSoC4/CapSense_Filter.c **** * \param widgetId
1405:Generated_Source\PSoC4/CapSense_Filter.c **** *  Specifies the ID number of the widget.
ARM GAS  C:\Users\zack.li\AppData\Local\Temp\ccH890rU.s 			page 47


1406:Generated_Source\PSoC4/CapSense_Filter.c **** *
1407:Generated_Source\PSoC4/CapSense_Filter.c **** * \param sensorId
1408:Generated_Source\PSoC4/CapSense_Filter.c **** *  Specifies the ID number of the sensor in the widget.
1409:Generated_Source\PSoC4/CapSense_Filter.c **** *
1410:Generated_Source\PSoC4/CapSense_Filter.c **** *******************************************************************************/
1411:Generated_Source\PSoC4/CapSense_Filter.c **** void CapSense_InitializeALP(uint32 widgetId, uint32 sensorId)
1412:Generated_Source\PSoC4/CapSense_Filter.c **** {
1413:Generated_Source\PSoC4/CapSense_Filter.c ****     CapSense_FLASH_WD_STRUCT const *ptrWidget = &CapSense_dsFlash.wdgtArray[widgetId];
1414:Generated_Source\PSoC4/CapSense_Filter.c ****     CapSense_RAM_SNS_STRUCT *ptrSensor = NULL;
1415:Generated_Source\PSoC4/CapSense_Filter.c ****     CapSense_PTR_FILTER_VARIANT ptrFilterHistObj;
1416:Generated_Source\PSoC4/CapSense_Filter.c **** 
1417:Generated_Source\PSoC4/CapSense_Filter.c ****     /* Find pointer to specified sensor object */
1418:Generated_Source\PSoC4/CapSense_Filter.c ****     ptrSensor = ptrWidget->ptr2SnsRam;
1419:Generated_Source\PSoC4/CapSense_Filter.c ****     ptrSensor = &ptrSensor[sensorId];
1420:Generated_Source\PSoC4/CapSense_Filter.c **** 
1421:Generated_Source\PSoC4/CapSense_Filter.c ****     /* Find pointer to specified filter sensor object */
1422:Generated_Source\PSoC4/CapSense_Filter.c ****     ptrFilterHistObj.ptr = ptrWidget->ptr2FltrHistory;
1423:Generated_Source\PSoC4/CapSense_Filter.c ****     ptrFilterHistObj.ptrAlp = &ptrFilterHistObj.ptrAlp[sensorId];
1424:Generated_Source\PSoC4/CapSense_Filter.c ****     CapSense_InitializeALPInternal(ptrFilterHistObj, ptrSensor, (uint32)ptrWidget->wdgtType);
1425:Generated_Source\PSoC4/CapSense_Filter.c **** }
1426:Generated_Source\PSoC4/CapSense_Filter.c **** 
1427:Generated_Source\PSoC4/CapSense_Filter.c **** 
1428:Generated_Source\PSoC4/CapSense_Filter.c **** /*******************************************************************************
1429:Generated_Source\PSoC4/CapSense_Filter.c **** * Function Name: CapSense_RunALP
1430:Generated_Source\PSoC4/CapSense_Filter.c **** ****************************************************************************//**
1431:Generated_Source\PSoC4/CapSense_Filter.c **** *
1432:Generated_Source\PSoC4/CapSense_Filter.c **** * \brief
1433:Generated_Source\PSoC4/CapSense_Filter.c **** *  Executes the ALP filter algorithm on a sensor indicated by an input
1434:Generated_Source\PSoC4/CapSense_Filter.c **** *  parameter.
1435:Generated_Source\PSoC4/CapSense_Filter.c **** *
1436:Generated_Source\PSoC4/CapSense_Filter.c **** * \details
1437:Generated_Source\PSoC4/CapSense_Filter.c **** *  Executes the ALP filter algorithm on a sensor indicated by an input
1438:Generated_Source\PSoC4/CapSense_Filter.c **** *  parameter.
1439:Generated_Source\PSoC4/CapSense_Filter.c **** *
1440:Generated_Source\PSoC4/CapSense_Filter.c **** * \param widgetId
1441:Generated_Source\PSoC4/CapSense_Filter.c **** *  Specifies the ID number of the widget.
1442:Generated_Source\PSoC4/CapSense_Filter.c **** *
1443:Generated_Source\PSoC4/CapSense_Filter.c **** * \param sensorId
1444:Generated_Source\PSoC4/CapSense_Filter.c **** *  Specifies the ID number of the sensor in the widget.
1445:Generated_Source\PSoC4/CapSense_Filter.c **** *
1446:Generated_Source\PSoC4/CapSense_Filter.c **** *******************************************************************************/
1447:Generated_Source\PSoC4/CapSense_Filter.c **** void CapSense_RunALP(uint32 widgetId, uint32 sensorId)
1448:Generated_Source\PSoC4/CapSense_Filter.c **** {
1449:Generated_Source\PSoC4/CapSense_Filter.c ****     CapSense_FLASH_WD_STRUCT const *ptrWidget = &CapSense_dsFlash.wdgtArray[widgetId];
1450:Generated_Source\PSoC4/CapSense_Filter.c ****     CapSense_RAM_SNS_STRUCT *ptrSensor = NULL;
1451:Generated_Source\PSoC4/CapSense_Filter.c ****     CapSense_PTR_FILTER_VARIANT ptrFilterHistObj;
1452:Generated_Source\PSoC4/CapSense_Filter.c ****     ALP_FLTR_CONFIG_STRUCT alpFilterConfig;
1453:Generated_Source\PSoC4/CapSense_Filter.c ****     ALP_FLTR_CONFIG_STRUCT *ptrAlpFilterConfig = &alpFilterConfig;
1454:Generated_Source\PSoC4/CapSense_Filter.c ****     CapSense_RAM_WD_BASE_STRUCT *ptrRamWidget = ptrWidget->ptr2WdgtRam;
1455:Generated_Source\PSoC4/CapSense_Filter.c **** 
1456:Generated_Source\PSoC4/CapSense_Filter.c ****     /* Find pointer to specified sensor object */
1457:Generated_Source\PSoC4/CapSense_Filter.c ****     ptrSensor = ptrWidget->ptr2SnsRam;
1458:Generated_Source\PSoC4/CapSense_Filter.c ****     ptrSensor = &ptrSensor[sensorId];
1459:Generated_Source\PSoC4/CapSense_Filter.c **** 
1460:Generated_Source\PSoC4/CapSense_Filter.c ****     ptrAlpFilterConfig->configParam0 = ptrRamWidget->alpOnTh;
1461:Generated_Source\PSoC4/CapSense_Filter.c ****     ptrAlpFilterConfig->configParam1 = ptrRamWidget->alpOffTh;
1462:Generated_Source\PSoC4/CapSense_Filter.c ****     ptrAlpFilterConfig->configParam2 = ptrRamWidget->fingerTh;
ARM GAS  C:\Users\zack.li\AppData\Local\Temp\ccH890rU.s 			page 48


1463:Generated_Source\PSoC4/CapSense_Filter.c ****     ptrAlpFilterConfig->configParam3 = ptrRamWidget->noiseTh;
1464:Generated_Source\PSoC4/CapSense_Filter.c ****     ptrAlpFilterConfig->configParam4 = ptrRamWidget->hysteresis;
1465:Generated_Source\PSoC4/CapSense_Filter.c **** 
1466:Generated_Source\PSoC4/CapSense_Filter.c ****     /* Find pointer to specified filter sensor object */
1467:Generated_Source\PSoC4/CapSense_Filter.c ****     ptrFilterHistObj.ptr = ptrWidget->ptr2FltrHistory;
1468:Generated_Source\PSoC4/CapSense_Filter.c ****     ptrFilterHistObj.ptrAlp = &ptrFilterHistObj.ptrAlp[sensorId];
1469:Generated_Source\PSoC4/CapSense_Filter.c **** 
1470:Generated_Source\PSoC4/CapSense_Filter.c ****     if ((CapSense_WD_TYPE_ENUM)ptrWidget->wdgtType != CapSense_WD_PROXIMITY_E)
1471:Generated_Source\PSoC4/CapSense_Filter.c ****     {
1472:Generated_Source\PSoC4/CapSense_Filter.c ****         #if (CapSense_REGULAR_SENSOR_EN)
1473:Generated_Source\PSoC4/CapSense_Filter.c ****             ptrAlpFilterConfig->configParam5 = CapSense_REGULAR_RC_ALP_FILTER_COEFF;
1474:Generated_Source\PSoC4/CapSense_Filter.c ****         #endif /* (CapSense_REGULAR_SENSOR_EN) */
1475:Generated_Source\PSoC4/CapSense_Filter.c ****     }
1476:Generated_Source\PSoC4/CapSense_Filter.c ****     else
1477:Generated_Source\PSoC4/CapSense_Filter.c ****     {
1478:Generated_Source\PSoC4/CapSense_Filter.c ****         #if (CapSense_PROXIMITY_SENSOR_EN)
1479:Generated_Source\PSoC4/CapSense_Filter.c ****             ptrAlpFilterConfig->configParam5 = CapSense_PROX_RC_ALP_FILTER_COEFF;
1480:Generated_Source\PSoC4/CapSense_Filter.c ****         #endif /* (CapSense_PROXIMITY_SENSOR_EN) */
1481:Generated_Source\PSoC4/CapSense_Filter.c ****     }
1482:Generated_Source\PSoC4/CapSense_Filter.c ****     CapSense_RunALPInternal(ptrFilterHistObj, ptrAlpFilterConfig, ptrSensor, (uint32)ptrWidget->wdg
1483:Generated_Source\PSoC4/CapSense_Filter.c **** }
1484:Generated_Source\PSoC4/CapSense_Filter.c **** 
1485:Generated_Source\PSoC4/CapSense_Filter.c **** 
1486:Generated_Source\PSoC4/CapSense_Filter.c **** /*******************************************************************************
1487:Generated_Source\PSoC4/CapSense_Filter.c **** * Function Name: CapSense_InitializeALPInternal
1488:Generated_Source\PSoC4/CapSense_Filter.c **** ****************************************************************************//**
1489:Generated_Source\PSoC4/CapSense_Filter.c **** *
1490:Generated_Source\PSoC4/CapSense_Filter.c **** * \brief
1491:Generated_Source\PSoC4/CapSense_Filter.c **** *  Initializes the ALP filter.
1492:Generated_Source\PSoC4/CapSense_Filter.c **** *
1493:Generated_Source\PSoC4/CapSense_Filter.c **** * \details
1494:Generated_Source\PSoC4/CapSense_Filter.c **** *  Initializes the ALP filter.
1495:Generated_Source\PSoC4/CapSense_Filter.c **** *
1496:Generated_Source\PSoC4/CapSense_Filter.c **** * \param ptrFilterHistObj
1497:Generated_Source\PSoC4/CapSense_Filter.c **** *  The pointer to the filter RAM object of the sensor.
1498:Generated_Source\PSoC4/CapSense_Filter.c **** *
1499:Generated_Source\PSoC4/CapSense_Filter.c **** * \param ptrSensorObj
1500:Generated_Source\PSoC4/CapSense_Filter.c **** *  The pointer to the sensor RAM object of the sensor.
1501:Generated_Source\PSoC4/CapSense_Filter.c **** *
1502:Generated_Source\PSoC4/CapSense_Filter.c **** * \param wdType
1503:Generated_Source\PSoC4/CapSense_Filter.c **** *  Specifies the type of a widget.
1504:Generated_Source\PSoC4/CapSense_Filter.c **** *
1505:Generated_Source\PSoC4/CapSense_Filter.c **** *
1506:Generated_Source\PSoC4/CapSense_Filter.c **** *******************************************************************************/
1507:Generated_Source\PSoC4/CapSense_Filter.c **** void CapSense_InitializeALPInternal(CapSense_PTR_FILTER_VARIANT ptrFilterHistObj,
1508:Generated_Source\PSoC4/CapSense_Filter.c ****                                             CapSense_RAM_SNS_STRUCT *ptrSensorObj,
1509:Generated_Source\PSoC4/CapSense_Filter.c ****                                             uint32 wdType)
1510:Generated_Source\PSoC4/CapSense_Filter.c **** {
1511:Generated_Source\PSoC4/CapSense_Filter.c ****     uint32 freqChannel;
1512:Generated_Source\PSoC4/CapSense_Filter.c **** 
1513:Generated_Source\PSoC4/CapSense_Filter.c ****     for(freqChannel = CapSense_NUM_SCAN_FREQS; freqChannel-- > 0u;)
1514:Generated_Source\PSoC4/CapSense_Filter.c ****     {
1515:Generated_Source\PSoC4/CapSense_Filter.c ****         if ((CapSense_WD_TYPE_ENUM)wdType != CapSense_WD_PROXIMITY_E)
1516:Generated_Source\PSoC4/CapSense_Filter.c ****         {
1517:Generated_Source\PSoC4/CapSense_Filter.c ****             #if (CapSense_REGULAR_SENSOR_EN && CapSense_REGULAR_RC_ALP_FILTER_EN)
1518:Generated_Source\PSoC4/CapSense_Filter.c ****                 ALP_Initialize(&ptrFilterHistObj.ptrAlp->channel[freqChannel], &ptrSensorObj->raw[f
1519:Generated_Source\PSoC4/CapSense_Filter.c ****             #endif
ARM GAS  C:\Users\zack.li\AppData\Local\Temp\ccH890rU.s 			page 49


1520:Generated_Source\PSoC4/CapSense_Filter.c ****         }
1521:Generated_Source\PSoC4/CapSense_Filter.c ****         else
1522:Generated_Source\PSoC4/CapSense_Filter.c ****         {
1523:Generated_Source\PSoC4/CapSense_Filter.c ****             #if (CapSense_PROXIMITY_SENSOR_EN && CapSense_PROX_RC_ALP_FILTER_EN)
1524:Generated_Source\PSoC4/CapSense_Filter.c ****                 ALP_Initialize(&ptrFilterHistObj.ptrAlp->channel[freqChannel], &ptrSensorObj->raw[f
1525:Generated_Source\PSoC4/CapSense_Filter.c ****             #endif
1526:Generated_Source\PSoC4/CapSense_Filter.c ****         }
1527:Generated_Source\PSoC4/CapSense_Filter.c ****     }
1528:Generated_Source\PSoC4/CapSense_Filter.c **** }
1529:Generated_Source\PSoC4/CapSense_Filter.c **** 
1530:Generated_Source\PSoC4/CapSense_Filter.c **** /*******************************************************************************
1531:Generated_Source\PSoC4/CapSense_Filter.c **** * Function Name: CapSense_ConfigRunALPInternal
1532:Generated_Source\PSoC4/CapSense_Filter.c **** ****************************************************************************//**
1533:Generated_Source\PSoC4/CapSense_Filter.c **** *
1534:Generated_Source\PSoC4/CapSense_Filter.c **** * \brief
1535:Generated_Source\PSoC4/CapSense_Filter.c **** *  Prepares ALP configuration structure and runs the filter.
1536:Generated_Source\PSoC4/CapSense_Filter.c **** *
1537:Generated_Source\PSoC4/CapSense_Filter.c **** * \details
1538:Generated_Source\PSoC4/CapSense_Filter.c **** *  Prepares ALP configuration structure and runs the filter.
1539:Generated_Source\PSoC4/CapSense_Filter.c **** *
1540:Generated_Source\PSoC4/CapSense_Filter.c **** * \param ptrFilterHistObj
1541:Generated_Source\PSoC4/CapSense_Filter.c **** *  The pointer to the filter RAM object of the sensor.
1542:Generated_Source\PSoC4/CapSense_Filter.c **** *
1543:Generated_Source\PSoC4/CapSense_Filter.c **** * \param ptrRamWdgt
1544:Generated_Source\PSoC4/CapSense_Filter.c **** *  The pointer to the RAM widget object.
1545:Generated_Source\PSoC4/CapSense_Filter.c **** *
1546:Generated_Source\PSoC4/CapSense_Filter.c **** * \param ptrSensorObj
1547:Generated_Source\PSoC4/CapSense_Filter.c **** *  The pointer to the sensor RAM object of the sensor.
1548:Generated_Source\PSoC4/CapSense_Filter.c **** *
1549:Generated_Source\PSoC4/CapSense_Filter.c **** * \param wdType
1550:Generated_Source\PSoC4/CapSense_Filter.c **** *  Specifies the type of a widget.
1551:Generated_Source\PSoC4/CapSense_Filter.c **** *
1552:Generated_Source\PSoC4/CapSense_Filter.c **** *******************************************************************************/
1553:Generated_Source\PSoC4/CapSense_Filter.c **** void CapSense_ConfigRunALPInternal(CapSense_PTR_FILTER_VARIANT ptrFilterHistObj,
1554:Generated_Source\PSoC4/CapSense_Filter.c ****                                     CapSense_RAM_WD_BASE_STRUCT *ptrRamWdgt,
1555:Generated_Source\PSoC4/CapSense_Filter.c ****                                     CapSense_RAM_SNS_STRUCT *ptrSensorObj,
1556:Generated_Source\PSoC4/CapSense_Filter.c ****                                     uint32 wdType)
1557:Generated_Source\PSoC4/CapSense_Filter.c **** {
1558:Generated_Source\PSoC4/CapSense_Filter.c ****     ALP_FLTR_CONFIG_STRUCT alpFilterConfig;
1559:Generated_Source\PSoC4/CapSense_Filter.c **** 
1560:Generated_Source\PSoC4/CapSense_Filter.c ****     alpFilterConfig.configParam0 = ptrRamWdgt->alpOnTh;
1561:Generated_Source\PSoC4/CapSense_Filter.c ****     alpFilterConfig.configParam1 = ptrRamWdgt->alpOffTh;
1562:Generated_Source\PSoC4/CapSense_Filter.c ****     alpFilterConfig.configParam2 = ptrRamWdgt->fingerTh;
1563:Generated_Source\PSoC4/CapSense_Filter.c ****     alpFilterConfig.configParam3 = ptrRamWdgt->noiseTh;
1564:Generated_Source\PSoC4/CapSense_Filter.c ****     alpFilterConfig.configParam4 = ptrRamWdgt->hysteresis;
1565:Generated_Source\PSoC4/CapSense_Filter.c **** 
1566:Generated_Source\PSoC4/CapSense_Filter.c ****     CapSense_RunALPInternal(ptrFilterHistObj, &alpFilterConfig, ptrSensorObj, wdType);
1567:Generated_Source\PSoC4/CapSense_Filter.c **** }
1568:Generated_Source\PSoC4/CapSense_Filter.c **** 
1569:Generated_Source\PSoC4/CapSense_Filter.c **** /*******************************************************************************
1570:Generated_Source\PSoC4/CapSense_Filter.c **** * Function Name: CapSense_RunALPInternal
1571:Generated_Source\PSoC4/CapSense_Filter.c **** ****************************************************************************//**
1572:Generated_Source\PSoC4/CapSense_Filter.c **** *
1573:Generated_Source\PSoC4/CapSense_Filter.c **** * \brief
1574:Generated_Source\PSoC4/CapSense_Filter.c **** *  Runs the ALP filter.
1575:Generated_Source\PSoC4/CapSense_Filter.c **** *
1576:Generated_Source\PSoC4/CapSense_Filter.c **** * \details
ARM GAS  C:\Users\zack.li\AppData\Local\Temp\ccH890rU.s 			page 50


1577:Generated_Source\PSoC4/CapSense_Filter.c **** *  Runs the ALP filter.
1578:Generated_Source\PSoC4/CapSense_Filter.c **** *
1579:Generated_Source\PSoC4/CapSense_Filter.c **** * \param ptrFilterHistObj
1580:Generated_Source\PSoC4/CapSense_Filter.c **** *  The pointer to the filter RAM object of the sensor.
1581:Generated_Source\PSoC4/CapSense_Filter.c **** *
1582:Generated_Source\PSoC4/CapSense_Filter.c **** * \param ptrAlpFilterConfig
1583:Generated_Source\PSoC4/CapSense_Filter.c **** *  The pointer to the filter configuration object of the sensor.
1584:Generated_Source\PSoC4/CapSense_Filter.c **** *
1585:Generated_Source\PSoC4/CapSense_Filter.c **** * \param ptrSensorObj
1586:Generated_Source\PSoC4/CapSense_Filter.c **** *  The pointer to the sensor RAM object of the sensor.
1587:Generated_Source\PSoC4/CapSense_Filter.c **** *
1588:Generated_Source\PSoC4/CapSense_Filter.c **** * \param wdType
1589:Generated_Source\PSoC4/CapSense_Filter.c **** *  Specifies the type of a widget.
1590:Generated_Source\PSoC4/CapSense_Filter.c **** *
1591:Generated_Source\PSoC4/CapSense_Filter.c **** *******************************************************************************/
1592:Generated_Source\PSoC4/CapSense_Filter.c **** void CapSense_RunALPInternal(CapSense_PTR_FILTER_VARIANT ptrFilterHistObj,
1593:Generated_Source\PSoC4/CapSense_Filter.c ****                                     ALP_FLTR_CONFIG_STRUCT *ptrAlpFilterConfig,
1594:Generated_Source\PSoC4/CapSense_Filter.c ****                                     CapSense_RAM_SNS_STRUCT *ptrSensorObj,
1595:Generated_Source\PSoC4/CapSense_Filter.c ****                                     uint32 wdType)
1596:Generated_Source\PSoC4/CapSense_Filter.c **** {
1597:Generated_Source\PSoC4/CapSense_Filter.c ****     uint32 freqChannel;
1598:Generated_Source\PSoC4/CapSense_Filter.c **** 
1599:Generated_Source\PSoC4/CapSense_Filter.c ****     for(freqChannel = CapSense_NUM_SCAN_FREQS; freqChannel-- > 0u;)
1600:Generated_Source\PSoC4/CapSense_Filter.c ****     {
1601:Generated_Source\PSoC4/CapSense_Filter.c ****         if ((CapSense_WD_TYPE_ENUM)wdType != CapSense_WD_PROXIMITY_E)
1602:Generated_Source\PSoC4/CapSense_Filter.c ****         {
1603:Generated_Source\PSoC4/CapSense_Filter.c ****             #if (CapSense_REGULAR_SENSOR_EN && CapSense_REGULAR_RC_ALP_FILTER_EN)
1604:Generated_Source\PSoC4/CapSense_Filter.c ****                 ptrAlpFilterConfig->configParam5 = CapSense_REGULAR_RC_ALP_FILTER_COEFF;
1605:Generated_Source\PSoC4/CapSense_Filter.c ****                 ALP_Run(&ptrFilterHistObj.ptrAlp->channel[freqChannel], ptrAlpFilterConfig, &ptrSen
1606:Generated_Source\PSoC4/CapSense_Filter.c ****             #endif
1607:Generated_Source\PSoC4/CapSense_Filter.c ****         }
1608:Generated_Source\PSoC4/CapSense_Filter.c ****         else
1609:Generated_Source\PSoC4/CapSense_Filter.c ****         {
1610:Generated_Source\PSoC4/CapSense_Filter.c ****             #if (CapSense_PROXIMITY_SENSOR_EN && CapSense_PROX_RC_ALP_FILTER_EN)
1611:Generated_Source\PSoC4/CapSense_Filter.c ****                 ptrAlpFilterConfig->configParam5 = CapSense_PROX_RC_ALP_FILTER_COEFF;
1612:Generated_Source\PSoC4/CapSense_Filter.c ****                 ALP_Run(&ptrFilterHistObj.ptrAlp->channel[freqChannel], ptrAlpFilterConfig, &ptrSen
1613:Generated_Source\PSoC4/CapSense_Filter.c ****             #endif
1614:Generated_Source\PSoC4/CapSense_Filter.c ****         }
1615:Generated_Source\PSoC4/CapSense_Filter.c ****     }
1616:Generated_Source\PSoC4/CapSense_Filter.c **** }
1617:Generated_Source\PSoC4/CapSense_Filter.c **** #endif /* (CapSense_ENABLE == CapSense_ALP_FILTER_EN) */
1618:Generated_Source\PSoC4/CapSense_Filter.c **** 
1619:Generated_Source\PSoC4/CapSense_Filter.c **** #if (CapSense_ENABLE == CapSense_RC_FILTER_EN)
1620:Generated_Source\PSoC4/CapSense_Filter.c **** /*******************************************************************************
1621:Generated_Source\PSoC4/CapSense_Filter.c **** * Function Name: CapSense_FtRunEnabledFilters
1622:Generated_Source\PSoC4/CapSense_Filter.c **** ****************************************************************************//**
1623:Generated_Source\PSoC4/CapSense_Filter.c **** *
1624:Generated_Source\PSoC4/CapSense_Filter.c **** * \brief
1625:Generated_Source\PSoC4/CapSense_Filter.c **** *  Runs all enabled filters.
1626:Generated_Source\PSoC4/CapSense_Filter.c **** *
1627:Generated_Source\PSoC4/CapSense_Filter.c **** * \details
1628:Generated_Source\PSoC4/CapSense_Filter.c **** *  Runs all enabled filters.
1629:Generated_Source\PSoC4/CapSense_Filter.c **** *
1630:Generated_Source\PSoC4/CapSense_Filter.c **** * \param widgetId
1631:Generated_Source\PSoC4/CapSense_Filter.c **** *  Specifies the ID number of a widget to update the IIR filter history.
1632:Generated_Source\PSoC4/CapSense_Filter.c **** *
1633:Generated_Source\PSoC4/CapSense_Filter.c **** * \param sensorId
ARM GAS  C:\Users\zack.li\AppData\Local\Temp\ccH890rU.s 			page 51


1634:Generated_Source\PSoC4/CapSense_Filter.c **** *  Specifies the ID number of a sensor in the widget to update the IIR
1635:Generated_Source\PSoC4/CapSense_Filter.c **** *  filter history.
1636:Generated_Source\PSoC4/CapSense_Filter.c **** *
1637:Generated_Source\PSoC4/CapSense_Filter.c **** *******************************************************************************/
1638:Generated_Source\PSoC4/CapSense_Filter.c **** void CapSense_FtRunEnabledFilters(uint32 widgetId, uint32 sensorId)
1639:Generated_Source\PSoC4/CapSense_Filter.c **** {
1640:Generated_Source\PSoC4/CapSense_Filter.c ****     CapSense_FLASH_WD_STRUCT const *ptrWidget = &CapSense_dsFlash.wdgtArray[widgetId];
1641:Generated_Source\PSoC4/CapSense_Filter.c ****     CapSense_RAM_SNS_STRUCT *ptrSensor = NULL;
1642:Generated_Source\PSoC4/CapSense_Filter.c ****     CapSense_PTR_FILTER_VARIANT ptrFilterHistObj;
1643:Generated_Source\PSoC4/CapSense_Filter.c **** 
1644:Generated_Source\PSoC4/CapSense_Filter.c ****     /* Find pointer to specified sensor object */
1645:Generated_Source\PSoC4/CapSense_Filter.c ****     ptrSensor = ptrWidget->ptr2SnsRam;
1646:Generated_Source\PSoC4/CapSense_Filter.c ****     ptrSensor = &ptrSensor[sensorId];
1647:Generated_Source\PSoC4/CapSense_Filter.c **** 
1648:Generated_Source\PSoC4/CapSense_Filter.c ****     /* Find pointer to specified filter sensor object */
1649:Generated_Source\PSoC4/CapSense_Filter.c ****     ptrFilterHistObj.ptr = ptrWidget->ptr2FltrHistory;
1650:Generated_Source\PSoC4/CapSense_Filter.c **** 
1651:Generated_Source\PSoC4/CapSense_Filter.c ****     if ((CapSense_WD_TYPE_ENUM)ptrWidget->wdgtType != CapSense_WD_PROXIMITY_E)
1652:Generated_Source\PSoC4/CapSense_Filter.c ****     {
1653:Generated_Source\PSoC4/CapSense_Filter.c ****         #if (0u != CapSense_REGULAR_RC_ALP_FILTER_EN)
1654:Generated_Source\PSoC4/CapSense_Filter.c ****             ptrFilterHistObj.ptr = &ptrFilterHistObj.ptrAlp[sensorId];
1655:Generated_Source\PSoC4/CapSense_Filter.c ****         #elif (0u != CapSense_REGULAR_RC_FILTER_EN)
1656:Generated_Source\PSoC4/CapSense_Filter.c ****             ptrFilterHistObj.ptr = &ptrFilterHistObj.ptrRegular[sensorId];
1657:Generated_Source\PSoC4/CapSense_Filter.c ****         #endif
1658:Generated_Source\PSoC4/CapSense_Filter.c ****     }
1659:Generated_Source\PSoC4/CapSense_Filter.c ****     else
1660:Generated_Source\PSoC4/CapSense_Filter.c ****     {
1661:Generated_Source\PSoC4/CapSense_Filter.c ****         #if (0u != CapSense_PROX_RC_ALP_FILTER_EN)
1662:Generated_Source\PSoC4/CapSense_Filter.c ****             ptrFilterHistObj.ptr = &ptrFilterHistObj.ptrAlp[sensorId];
1663:Generated_Source\PSoC4/CapSense_Filter.c ****         #elif (0u != CapSense_PROX_RC_FILTER_EN)
1664:Generated_Source\PSoC4/CapSense_Filter.c ****             ptrFilterHistObj.ptr = &ptrFilterHistObj.ptrProx[sensorId];
1665:Generated_Source\PSoC4/CapSense_Filter.c ****         #endif
1666:Generated_Source\PSoC4/CapSense_Filter.c ****     }
1667:Generated_Source\PSoC4/CapSense_Filter.c **** 
1668:Generated_Source\PSoC4/CapSense_Filter.c ****     CapSense_FtRunEnabledFiltersInternal(ptrFilterHistObj, ptrSensor, (uint32)ptrWidget->wdgtType);
1669:Generated_Source\PSoC4/CapSense_Filter.c ****     #if (CapSense_ALP_FILTER_EN)
1670:Generated_Source\PSoC4/CapSense_Filter.c ****         CapSense_ConfigRunALPInternal(ptrFilterHistObj, ptrWidget->ptr2WdgtRam, ptrSensor, (uint32)
1671:Generated_Source\PSoC4/CapSense_Filter.c ****     #endif
1672:Generated_Source\PSoC4/CapSense_Filter.c **** }
1673:Generated_Source\PSoC4/CapSense_Filter.c **** 
1674:Generated_Source\PSoC4/CapSense_Filter.c **** 
1675:Generated_Source\PSoC4/CapSense_Filter.c **** /*******************************************************************************
1676:Generated_Source\PSoC4/CapSense_Filter.c **** * Function Name: CapSense_FtRunEnabledFiltersInternal
1677:Generated_Source\PSoC4/CapSense_Filter.c **** ****************************************************************************//**
1678:Generated_Source\PSoC4/CapSense_Filter.c **** *
1679:Generated_Source\PSoC4/CapSense_Filter.c **** * \brief
1680:Generated_Source\PSoC4/CapSense_Filter.c **** *  Runs all enabled filters.
1681:Generated_Source\PSoC4/CapSense_Filter.c **** *
1682:Generated_Source\PSoC4/CapSense_Filter.c **** * \details
1683:Generated_Source\PSoC4/CapSense_Filter.c **** *  Runs all enabled filters.
1684:Generated_Source\PSoC4/CapSense_Filter.c **** *
1685:Generated_Source\PSoC4/CapSense_Filter.c **** * \param ptrFilterHistObj
1686:Generated_Source\PSoC4/CapSense_Filter.c **** *  The pointer to the filter RAM object of the sensor.
1687:Generated_Source\PSoC4/CapSense_Filter.c **** *
1688:Generated_Source\PSoC4/CapSense_Filter.c **** * \param ptrSensorObj
1689:Generated_Source\PSoC4/CapSense_Filter.c **** *  The pointer to the sensor RAM object of the sensor.
1690:Generated_Source\PSoC4/CapSense_Filter.c **** *
ARM GAS  C:\Users\zack.li\AppData\Local\Temp\ccH890rU.s 			page 52


1691:Generated_Source\PSoC4/CapSense_Filter.c **** * \param wdType
1692:Generated_Source\PSoC4/CapSense_Filter.c **** *  Specifies the type of a widget.
1693:Generated_Source\PSoC4/CapSense_Filter.c **** *
1694:Generated_Source\PSoC4/CapSense_Filter.c **** *******************************************************************************/
1695:Generated_Source\PSoC4/CapSense_Filter.c **** void CapSense_FtRunEnabledFiltersInternal(CapSense_PTR_FILTER_VARIANT ptrFilterHistObj,
1696:Generated_Source\PSoC4/CapSense_Filter.c ****                                                   CapSense_RAM_SNS_STRUCT *ptrSensorObj, uint32 wdT
1697:Generated_Source\PSoC4/CapSense_Filter.c **** {
1698:Generated_Source\PSoC4/CapSense_Filter.c ****     #if (CapSense_REGULAR_RC_MEDIAN_FILTER_EN || CapSense_PROX_RC_MEDIAN_FILTER_EN)
1699:Generated_Source\PSoC4/CapSense_Filter.c ****         CapSense_RunMedianInternal(ptrFilterHistObj, ptrSensorObj, wdType);
1700:Generated_Source\PSoC4/CapSense_Filter.c ****     #endif /* (CapSense_REGULAR_RC_MEDIAN_FILTER_EN || CapSense_PROX_RC_MEDIAN_FILTER_EN) */
1701:Generated_Source\PSoC4/CapSense_Filter.c **** 
1702:Generated_Source\PSoC4/CapSense_Filter.c ****     #if (CapSense_REGULAR_RC_IIR_FILTER_EN || CapSense_PROX_RC_IIR_FILTER_EN)
1703:Generated_Source\PSoC4/CapSense_Filter.c ****         CapSense_RunIIRInternal(ptrFilterHistObj, ptrSensorObj, wdType);
1704:Generated_Source\PSoC4/CapSense_Filter.c ****     #endif /* (CapSense_REGULAR_RC_IIR_FILTER_EN || CapSense_PROX_RC_IIR_FILTER_EN) */
1705:Generated_Source\PSoC4/CapSense_Filter.c **** 
1706:Generated_Source\PSoC4/CapSense_Filter.c ****     #if (CapSense_REGULAR_RC_AVERAGE_FILTER_EN || CapSense_PROX_RC_AVERAGE_FILTER_EN)
1707:Generated_Source\PSoC4/CapSense_Filter.c ****         CapSense_RunAverageInternal(ptrFilterHistObj, ptrSensorObj, wdType);
1708:Generated_Source\PSoC4/CapSense_Filter.c ****     #endif /* (CapSense_REGULAR_RC_AVERAGE_FILTER_EN || CapSense_PROX_RC_AVERAGE_FILTER_EN) */
1709:Generated_Source\PSoC4/CapSense_Filter.c **** }
1710:Generated_Source\PSoC4/CapSense_Filter.c **** #endif /* (CapSense_ENABLE == CapSense_RC_FILTER_EN) */
1711:Generated_Source\PSoC4/CapSense_Filter.c **** 
1712:Generated_Source\PSoC4/CapSense_Filter.c **** 
1713:Generated_Source\PSoC4/CapSense_Filter.c **** #if (0u != (CapSense_CSD_AUTOTUNE & CapSense_CSD_SS_TH_EN))
1714:Generated_Source\PSoC4/CapSense_Filter.c **** /*******************************************************************************
1715:Generated_Source\PSoC4/CapSense_Filter.c **** * Function Name: CapSense_RunNoiseEnvelope
1716:Generated_Source\PSoC4/CapSense_Filter.c **** ****************************************************************************//**
1717:Generated_Source\PSoC4/CapSense_Filter.c **** *
1718:Generated_Source\PSoC4/CapSense_Filter.c **** * \brief
1719:Generated_Source\PSoC4/CapSense_Filter.c **** *  Executes the noise envelope  filter algorithm on a sensor indicated by
1720:Generated_Source\PSoC4/CapSense_Filter.c **** *  an input parameter to measure the pk-to-pk noise in the sensor raw count.
1721:Generated_Source\PSoC4/CapSense_Filter.c **** *
1722:Generated_Source\PSoC4/CapSense_Filter.c **** * \details
1723:Generated_Source\PSoC4/CapSense_Filter.c **** *  Executes the noise envelope  filter algorithm on a sensor indicated by
1724:Generated_Source\PSoC4/CapSense_Filter.c **** *  an input parameter to measure the pk-to-pk noise in the sensor raw count.
1725:Generated_Source\PSoC4/CapSense_Filter.c **** *
1726:Generated_Source\PSoC4/CapSense_Filter.c **** * \param widgetId
1727:Generated_Source\PSoC4/CapSense_Filter.c **** *  Specifies the ID number of the widget.
1728:Generated_Source\PSoC4/CapSense_Filter.c **** *
1729:Generated_Source\PSoC4/CapSense_Filter.c **** * \param sensorId
1730:Generated_Source\PSoC4/CapSense_Filter.c **** *  Specifies the ID number of the sensor in the widget.
1731:Generated_Source\PSoC4/CapSense_Filter.c **** *
1732:Generated_Source\PSoC4/CapSense_Filter.c **** *******************************************************************************/
1733:Generated_Source\PSoC4/CapSense_Filter.c **** void CapSense_RunNoiseEnvelope(uint32 widgetId, uint32 sensorId)
1734:Generated_Source\PSoC4/CapSense_Filter.c **** {
1735:Generated_Source\PSoC4/CapSense_Filter.c ****     CapSense_FLASH_WD_STRUCT const *ptrWidget = &CapSense_dsFlash.wdgtArray[widgetId];
1736:Generated_Source\PSoC4/CapSense_Filter.c ****     CapSense_RAM_WD_BASE_STRUCT *ptrWidgetRam = ptrWidget->ptr2WdgtRam;
1737:Generated_Source\PSoC4/CapSense_Filter.c ****     CapSense_RAM_SNS_STRUCT *ptrSensor = NULL;
1738:Generated_Source\PSoC4/CapSense_Filter.c ****     SMARTSENSE_CSD_NOISE_ENVELOPE_STRUCT *ptrNoiseEnvelope = NULL;
1739:Generated_Source\PSoC4/CapSense_Filter.c **** 
1740:Generated_Source\PSoC4/CapSense_Filter.c ****     /* Find pointer to specified sensor object */
1741:Generated_Source\PSoC4/CapSense_Filter.c ****     ptrSensor = ptrWidget->ptr2SnsRam;
1742:Generated_Source\PSoC4/CapSense_Filter.c ****     ptrSensor = &ptrSensor[sensorId];
1743:Generated_Source\PSoC4/CapSense_Filter.c **** 
1744:Generated_Source\PSoC4/CapSense_Filter.c ****     /* Find pointer to specified filter sensor object */
1745:Generated_Source\PSoC4/CapSense_Filter.c ****     ptrNoiseEnvelope = ptrWidget->ptr2NoiseEnvlp;
1746:Generated_Source\PSoC4/CapSense_Filter.c ****     ptrNoiseEnvelope = &ptrNoiseEnvelope[sensorId];
1747:Generated_Source\PSoC4/CapSense_Filter.c **** 
ARM GAS  C:\Users\zack.li\AppData\Local\Temp\ccH890rU.s 			page 53


1748:Generated_Source\PSoC4/CapSense_Filter.c ****     SmartSense_RunNoiseEnvelope(ptrSensor->raw[0u], ptrWidgetRam->sigPFC, ptrNoiseEnvelope);
1749:Generated_Source\PSoC4/CapSense_Filter.c **** }
1750:Generated_Source\PSoC4/CapSense_Filter.c **** 
1751:Generated_Source\PSoC4/CapSense_Filter.c **** 
1752:Generated_Source\PSoC4/CapSense_Filter.c **** /*******************************************************************************
1753:Generated_Source\PSoC4/CapSense_Filter.c **** * Function Name: CapSense_InitializeNoiseEnvelope
1754:Generated_Source\PSoC4/CapSense_Filter.c **** ****************************************************************************//**
1755:Generated_Source\PSoC4/CapSense_Filter.c **** *
1756:Generated_Source\PSoC4/CapSense_Filter.c **** * \brief
1757:Generated_Source\PSoC4/CapSense_Filter.c **** *  Initializes the noise-envelope filter
1758:Generated_Source\PSoC4/CapSense_Filter.c **** *
1759:Generated_Source\PSoC4/CapSense_Filter.c **** * \details
1760:Generated_Source\PSoC4/CapSense_Filter.c **** *  Initializes the noise-envelope filter
1761:Generated_Source\PSoC4/CapSense_Filter.c **** *
1762:Generated_Source\PSoC4/CapSense_Filter.c **** * \param widgetId
1763:Generated_Source\PSoC4/CapSense_Filter.c **** *  Specifies the ID number of the widget.
1764:Generated_Source\PSoC4/CapSense_Filter.c **** *
1765:Generated_Source\PSoC4/CapSense_Filter.c **** * \param sensorId
1766:Generated_Source\PSoC4/CapSense_Filter.c **** *  Specifies the ID number of the sensor in the widget.
1767:Generated_Source\PSoC4/CapSense_Filter.c **** *
1768:Generated_Source\PSoC4/CapSense_Filter.c **** *******************************************************************************/
1769:Generated_Source\PSoC4/CapSense_Filter.c **** void CapSense_InitializeNoiseEnvelope(uint32 widgetId, uint32 sensorId)
1770:Generated_Source\PSoC4/CapSense_Filter.c **** {
1771:Generated_Source\PSoC4/CapSense_Filter.c ****     CapSense_FLASH_WD_STRUCT const *ptrWidget = &CapSense_dsFlash.wdgtArray[widgetId];
1772:Generated_Source\PSoC4/CapSense_Filter.c ****     CapSense_RAM_WD_BASE_STRUCT *ptrWidgetRam = ptrWidget->ptr2WdgtRam;
1773:Generated_Source\PSoC4/CapSense_Filter.c ****     CapSense_RAM_SNS_STRUCT *ptrSensor = NULL;
1774:Generated_Source\PSoC4/CapSense_Filter.c ****     SMARTSENSE_CSD_NOISE_ENVELOPE_STRUCT *ptrNoiseEnvelope = NULL;
1775:Generated_Source\PSoC4/CapSense_Filter.c **** 
1776:Generated_Source\PSoC4/CapSense_Filter.c ****     /* Find pointer to specified sensor object */
1777:Generated_Source\PSoC4/CapSense_Filter.c ****     ptrSensor = ptrWidget->ptr2SnsRam;
1778:Generated_Source\PSoC4/CapSense_Filter.c ****     ptrSensor = &ptrSensor[sensorId];
1779:Generated_Source\PSoC4/CapSense_Filter.c **** 
1780:Generated_Source\PSoC4/CapSense_Filter.c ****     /* Find pointer to specified filter sensor object */
1781:Generated_Source\PSoC4/CapSense_Filter.c ****     ptrNoiseEnvelope = ptrWidget->ptr2NoiseEnvlp;
1782:Generated_Source\PSoC4/CapSense_Filter.c ****     ptrNoiseEnvelope = &ptrNoiseEnvelope[sensorId];
1783:Generated_Source\PSoC4/CapSense_Filter.c **** 
1784:Generated_Source\PSoC4/CapSense_Filter.c ****     SmartSense_InitializeNoiseEnvelope(ptrSensor->raw[0u], ptrWidgetRam->sigPFC, ptrNoiseEnvelope);
1785:Generated_Source\PSoC4/CapSense_Filter.c **** }
1786:Generated_Source\PSoC4/CapSense_Filter.c **** #endif /* (0u != (CapSense_CSD_AUTOTUNE & CapSense_CSD_SS_TH_EN)) */
1787:Generated_Source\PSoC4/CapSense_Filter.c **** 
1788:Generated_Source\PSoC4/CapSense_Filter.c **** 
1789:Generated_Source\PSoC4/CapSense_Filter.c **** #if (CapSense_POS_MEDIAN_FILTER_EN || CapSense_REGULAR_RC_MEDIAN_FILTER_EN || CapSense_PROX_RC_MEDI
1790:Generated_Source\PSoC4/CapSense_Filter.c **** /*******************************************************************************
1791:Generated_Source\PSoC4/CapSense_Filter.c **** * Function Name: CapSense_FtMedian
1792:Generated_Source\PSoC4/CapSense_Filter.c **** ****************************************************************************//**
1793:Generated_Source\PSoC4/CapSense_Filter.c **** *
1794:Generated_Source\PSoC4/CapSense_Filter.c **** * \brief
1795:Generated_Source\PSoC4/CapSense_Filter.c **** *  Return the median value from the three passed arguments.
1796:Generated_Source\PSoC4/CapSense_Filter.c **** *
1797:Generated_Source\PSoC4/CapSense_Filter.c **** * \details
1798:Generated_Source\PSoC4/CapSense_Filter.c **** *  Return the median value from the three passed arguments.
1799:Generated_Source\PSoC4/CapSense_Filter.c **** *
1800:Generated_Source\PSoC4/CapSense_Filter.c **** * \param x1
1801:Generated_Source\PSoC4/CapSense_Filter.c **** *  The first value to be compared.
1802:Generated_Source\PSoC4/CapSense_Filter.c **** *
1803:Generated_Source\PSoC4/CapSense_Filter.c **** * \param x2
1804:Generated_Source\PSoC4/CapSense_Filter.c **** *  The second value to be compared.
ARM GAS  C:\Users\zack.li\AppData\Local\Temp\ccH890rU.s 			page 54


1805:Generated_Source\PSoC4/CapSense_Filter.c **** *
1806:Generated_Source\PSoC4/CapSense_Filter.c **** * \param x3
1807:Generated_Source\PSoC4/CapSense_Filter.c **** *  The third value to be compared.
1808:Generated_Source\PSoC4/CapSense_Filter.c **** *
1809:Generated_Source\PSoC4/CapSense_Filter.c **** * \return
1810:Generated_Source\PSoC4/CapSense_Filter.c **** *  Returns the median value of input arguments.
1811:Generated_Source\PSoC4/CapSense_Filter.c **** *
1812:Generated_Source\PSoC4/CapSense_Filter.c **** *******************************************************************************/
1813:Generated_Source\PSoC4/CapSense_Filter.c **** uint32 CapSense_FtMedian(uint32 x1, uint32 x2, uint32 x3)
1814:Generated_Source\PSoC4/CapSense_Filter.c **** {
 1116              		.loc 1 1814 0
 1117              		.cfi_startproc
 1118              		@ args = 0, pretend = 0, frame = 0
 1119              		@ frame_needed = 0, uses_anonymous_args = 0
 1120              		@ link register save eliminated.
 1121              	.LVL143:
1815:Generated_Source\PSoC4/CapSense_Filter.c ****     uint32 tmp;
1816:Generated_Source\PSoC4/CapSense_Filter.c **** 
1817:Generated_Source\PSoC4/CapSense_Filter.c ****     if (x1 > x2)
 1122              		.loc 1 1817 0
 1123 0000 8842     		cmp	r0, r1
 1124 0002 02D9     		bls	.L70
 1125 0004 0300     		movs	r3, r0
1818:Generated_Source\PSoC4/CapSense_Filter.c ****     {
1819:Generated_Source\PSoC4/CapSense_Filter.c ****         tmp = x2;
1820:Generated_Source\PSoC4/CapSense_Filter.c ****         x2 = x1;
1821:Generated_Source\PSoC4/CapSense_Filter.c ****         x1 = tmp;
 1126              		.loc 1 1821 0
 1127 0006 0800     		movs	r0, r1
 1128              	.LVL144:
1820:Generated_Source\PSoC4/CapSense_Filter.c ****         x1 = tmp;
 1129              		.loc 1 1820 0
 1130 0008 1900     		movs	r1, r3
 1131              	.LVL145:
 1132              	.L70:
1822:Generated_Source\PSoC4/CapSense_Filter.c ****     }
1823:Generated_Source\PSoC4/CapSense_Filter.c **** 
1824:Generated_Source\PSoC4/CapSense_Filter.c ****     if (x2 > x3)
 1133              		.loc 1 1824 0
 1134 000a 9142     		cmp	r1, r2
 1135 000c 00D9     		bls	.L71
1825:Generated_Source\PSoC4/CapSense_Filter.c ****     {
1826:Generated_Source\PSoC4/CapSense_Filter.c ****         x2 = x3;
 1136              		.loc 1 1826 0
 1137 000e 1100     		movs	r1, r2
 1138              	.LVL146:
 1139              	.L71:
1827:Generated_Source\PSoC4/CapSense_Filter.c ****     }
1828:Generated_Source\PSoC4/CapSense_Filter.c **** 
1829:Generated_Source\PSoC4/CapSense_Filter.c ****     return ((x1 > x2) ? x1 : x2);
 1140              		.loc 1 1829 0
 1141 0010 8842     		cmp	r0, r1
 1142 0012 00D2     		bcs	.L72
 1143 0014 0800     		movs	r0, r1
 1144              	.LVL147:
 1145              	.L72:
1830:Generated_Source\PSoC4/CapSense_Filter.c **** }
ARM GAS  C:\Users\zack.li\AppData\Local\Temp\ccH890rU.s 			page 55


 1146              		.loc 1 1830 0
 1147              		@ sp needed
 1148 0016 7047     		bx	lr
 1149              		.cfi_endproc
 1150              	.LFE27:
 1151              		.size	CapSense_FtMedian, .-CapSense_FtMedian
 1152              		.section	.text.CapSense_RunMedianInternal,"ax",%progbits
 1153              		.align	2
 1154              		.global	CapSense_RunMedianInternal
 1155              		.code	16
 1156              		.thumb_func
 1157              		.type	CapSense_RunMedianInternal, %function
 1158              	CapSense_RunMedianInternal:
 1159              	.LFB20:
1127:Generated_Source\PSoC4/CapSense_Filter.c ****     uint32 freqChannel;
 1160              		.loc 1 1127 0
 1161              		.cfi_startproc
 1162              		@ args = 0, pretend = 0, frame = 0
 1163              		@ frame_needed = 0, uses_anonymous_args = 0
 1164              	.LVL148:
 1165 0000 F8B5     		push	{r3, r4, r5, r6, r7, lr}
 1166              		.cfi_def_cfa_offset 24
 1167              		.cfi_offset 3, -24
 1168              		.cfi_offset 4, -20
 1169              		.cfi_offset 5, -16
 1170              		.cfi_offset 6, -12
 1171              		.cfi_offset 7, -8
 1172              		.cfi_offset 14, -4
 1173 0002 5F46     		mov	r7, fp
 1174 0004 5646     		mov	r6, r10
 1175 0006 4D46     		mov	r5, r9
 1176 0008 4446     		mov	r4, r8
 1177 000a F0B4     		push	{r4, r5, r6, r7}
 1178              		.cfi_def_cfa_offset 40
 1179              		.cfi_offset 8, -40
 1180              		.cfi_offset 9, -36
 1181              		.cfi_offset 10, -32
 1182              		.cfi_offset 11, -28
 1183 000c 8046     		mov	r8, r0
 1184 000e 0E00     		movs	r6, r1
 1185 0010 9346     		mov	fp, r2
 1186              	.LVL149:
1135:Generated_Source\PSoC4/CapSense_Filter.c ****     {
 1187              		.loc 1 1135 0
 1188 0012 0123     		movs	r3, #1
 1189 0014 29E0     		b	.L76
 1190              	.LVL150:
 1191              	.L79:
1137:Generated_Source\PSoC4/CapSense_Filter.c ****         {
 1192              		.loc 1 1137 0
 1193 0016 FF23     		movs	r3, #255
 1194 0018 5A46     		mov	r2, fp
 1195 001a 1340     		ands	r3, r2
 1196 001c 062B     		cmp	r3, #6
 1197 001e 10D0     		beq	.L77
 1198              	.LVL151:
1140:Generated_Source\PSoC4/CapSense_Filter.c ****                                                  (uint32)ptrFilterHistObj.ptrRegular->regularChanne
ARM GAS  C:\Users\zack.li\AppData\Local\Temp\ccH890rU.s 			page 56


 1199              		.loc 1 1140 0
 1200 0020 6F00     		lsls	r7, r5, #1
 1201 0022 B85B     		ldrh	r0, [r7, r6]
 1202              	.LVL152:
1141:Generated_Source\PSoC4/CapSense_Filter.c ****                                                  (uint32)ptrFilterHistObj.ptrRegular->regularChanne
 1203              		.loc 1 1141 0
 1204 0024 7B19     		adds	r3, r7, r5
 1205 0026 9C00     		lsls	r4, r3, #2
 1206 0028 4444     		add	r4, r4, r8
 1207 002a 6388     		ldrh	r3, [r4, #2]
 1208 002c 9946     		mov	r9, r3
1142:Generated_Source\PSoC4/CapSense_Filter.c ****                 ptrFilterHistObj.ptrRegular->regularChannel[freqChannel].medHistory[1u] = \
 1209              		.loc 1 1142 0
 1210 002e A288     		ldrh	r2, [r4, #4]
 1211              	.LVL153:
1140:Generated_Source\PSoC4/CapSense_Filter.c ****                                                  (uint32)ptrFilterHistObj.ptrRegular->regularChanne
 1212              		.loc 1 1140 0
 1213 0030 1900     		movs	r1, r3
 1214 0032 FFF7FEFF 		bl	CapSense_FtMedian
 1215              	.LVL154:
1143:Generated_Source\PSoC4/CapSense_Filter.c ****                 ptrFilterHistObj.ptrRegular->regularChannel[freqChannel].medHistory[0u];
 1216              		.loc 1 1143 0
 1217 0036 4B46     		mov	r3, r9
 1218 0038 A380     		strh	r3, [r4, #4]
1145:Generated_Source\PSoC4/CapSense_Filter.c ****                 ptrSensorObj->raw[freqChannel] = LO16(temp);
 1219              		.loc 1 1145 0
 1220 003a BB5B     		ldrh	r3, [r7, r6]
 1221 003c 6380     		strh	r3, [r4, #2]
1146:Generated_Source\PSoC4/CapSense_Filter.c ****             #endif /* (CapSense_REGULAR_SENSOR_EN) */
 1222              		.loc 1 1146 0
 1223 003e F053     		strh	r0, [r6, r7]
 1224 0040 12E0     		b	.L78
 1225              	.LVL155:
 1226              	.L77:
1152:Generated_Source\PSoC4/CapSense_Filter.c ****                                                  (uint32)ptrFilterHistObj.ptrProx->proxChannel[freq
 1227              		.loc 1 1152 0
 1228 0042 6B00     		lsls	r3, r5, #1
 1229 0044 9A46     		mov	r10, r3
 1230 0046 985B     		ldrh	r0, [r3, r6]
 1231              	.LVL156:
1153:Generated_Source\PSoC4/CapSense_Filter.c ****                                                  (uint32)ptrFilterHistObj.ptrProx->proxChannel[freq
 1232              		.loc 1 1153 0
 1233 0048 5B19     		adds	r3, r3, r5
 1234 004a 9C00     		lsls	r4, r3, #2
 1235 004c 4444     		add	r4, r4, r8
 1236 004e 6388     		ldrh	r3, [r4, #2]
 1237 0050 9946     		mov	r9, r3
1154:Generated_Source\PSoC4/CapSense_Filter.c ****                 ptrFilterHistObj.ptrProx->proxChannel[freqChannel].medHistory[1u] = \
 1238              		.loc 1 1154 0
 1239 0052 A288     		ldrh	r2, [r4, #4]
 1240              	.LVL157:
1152:Generated_Source\PSoC4/CapSense_Filter.c ****                                                  (uint32)ptrFilterHistObj.ptrProx->proxChannel[freq
 1241              		.loc 1 1152 0
 1242 0054 1900     		movs	r1, r3
 1243 0056 FFF7FEFF 		bl	CapSense_FtMedian
 1244              	.LVL158:
1155:Generated_Source\PSoC4/CapSense_Filter.c ****                 ptrFilterHistObj.ptrProx->proxChannel[freqChannel].medHistory[0u];
ARM GAS  C:\Users\zack.li\AppData\Local\Temp\ccH890rU.s 			page 57


 1245              		.loc 1 1155 0
 1246 005a 4B46     		mov	r3, r9
 1247 005c A380     		strh	r3, [r4, #4]
1157:Generated_Source\PSoC4/CapSense_Filter.c ****                 ptrSensorObj->raw[freqChannel] = LO16(temp);
 1248              		.loc 1 1157 0
 1249 005e 5346     		mov	r3, r10
 1250 0060 9B5B     		ldrh	r3, [r3, r6]
 1251 0062 6380     		strh	r3, [r4, #2]
1158:Generated_Source\PSoC4/CapSense_Filter.c ****             #endif /* (CapSense_PROXIMITY_SENSOR_EN) */
 1252              		.loc 1 1158 0
 1253 0064 5346     		mov	r3, r10
 1254 0066 F052     		strh	r0, [r6, r3]
 1255              	.L78:
1127:Generated_Source\PSoC4/CapSense_Filter.c ****     uint32 freqChannel;
 1256              		.loc 1 1127 0 discriminator 1
 1257 0068 2B00     		movs	r3, r5
 1258              	.LVL159:
 1259              	.L76:
1135:Generated_Source\PSoC4/CapSense_Filter.c ****     {
 1260              		.loc 1 1135 0 discriminator 1
 1261 006a 5D1E     		subs	r5, r3, #1
 1262              	.LVL160:
 1263 006c 002B     		cmp	r3, #0
 1264 006e D2D1     		bne	.L79
1162:Generated_Source\PSoC4/CapSense_Filter.c **** #endif /* (CapSense_REGULAR_RC_MEDIAN_FILTER_EN || CapSense_PROX_RC_MEDIAN_FILTER_EN) */
 1265              		.loc 1 1162 0
 1266              		@ sp needed
 1267              	.LVL161:
 1268              	.LVL162:
 1269              	.LVL163:
 1270 0070 3CBC     		pop	{r2, r3, r4, r5}
 1271 0072 9046     		mov	r8, r2
 1272 0074 9946     		mov	r9, r3
 1273 0076 A246     		mov	r10, r4
 1274 0078 AB46     		mov	fp, r5
 1275 007a F8BD     		pop	{r3, r4, r5, r6, r7, pc}
 1276              		.cfi_endproc
 1277              	.LFE20:
 1278              		.size	CapSense_RunMedianInternal, .-CapSense_RunMedianInternal
 1279              		.section	.text.CapSense_RunMedian,"ax",%progbits
 1280              		.align	2
 1281              		.global	CapSense_RunMedian
 1282              		.code	16
 1283              		.thumb_func
 1284              		.type	CapSense_RunMedian, %function
 1285              	CapSense_RunMedian:
 1286              	.LFB18:
1031:Generated_Source\PSoC4/CapSense_Filter.c ****     CapSense_FLASH_WD_STRUCT const *ptrWidget = &CapSense_dsFlash.wdgtArray[widgetId];
 1287              		.loc 1 1031 0
 1288              		.cfi_startproc
 1289              		@ args = 0, pretend = 0, frame = 0
 1290              		@ frame_needed = 0, uses_anonymous_args = 0
 1291              	.LVL164:
 1292 0000 70B5     		push	{r4, r5, r6, lr}
 1293              		.cfi_def_cfa_offset 16
 1294              		.cfi_offset 4, -16
 1295              		.cfi_offset 5, -12
ARM GAS  C:\Users\zack.li\AppData\Local\Temp\ccH890rU.s 			page 58


 1296              		.cfi_offset 6, -8
 1297              		.cfi_offset 14, -4
 1298 0002 0B00     		movs	r3, r1
 1299              	.LVL165:
1037:Generated_Source\PSoC4/CapSense_Filter.c ****     ptrSensor = &ptrSensor[sensorId];
 1300              		.loc 1 1037 0
 1301 0004 0E4E     		ldr	r6, .L83
 1302 0006 C200     		lsls	r2, r0, #3
 1303 0008 111A     		subs	r1, r2, r0
 1304              	.LVL166:
 1305 000a 8C00     		lsls	r4, r1, #2
 1306 000c 3419     		adds	r4, r6, r4
 1307              	.LVL167:
1038:Generated_Source\PSoC4/CapSense_Filter.c **** 
 1308              		.loc 1 1038 0
 1309 000e 9D00     		lsls	r5, r3, #2
 1310 0010 ED18     		adds	r5, r5, r3
 1311 0012 6900     		lsls	r1, r5, #1
 1312 0014 A568     		ldr	r5, [r4, #8]
 1313 0016 AC46     		mov	ip, r5
 1314 0018 6144     		add	r1, r1, ip
 1315              	.LVL168:
1041:Generated_Source\PSoC4/CapSense_Filter.c **** 
 1316              		.loc 1 1041 0
 1317 001a E568     		ldr	r5, [r4, #12]
1043:Generated_Source\PSoC4/CapSense_Filter.c ****     {
 1318              		.loc 1 1043 0
 1319 001c 121A     		subs	r2, r2, r0
 1320 001e 9400     		lsls	r4, r2, #2
 1321 0020 3419     		adds	r4, r6, r4
 1322 0022 A27E     		ldrb	r2, [r4, #26]
 1323 0024 062A     		cmp	r2, #6
 1324 0026 04D0     		beq	.L81
1046:Generated_Source\PSoC4/CapSense_Filter.c ****         #endif /* (CapSense_REGULAR_SENSOR_EN) */
 1325              		.loc 1 1046 0
 1326 0028 5800     		lsls	r0, r3, #1
 1327              	.LVL169:
 1328 002a C318     		adds	r3, r0, r3
 1329              	.LVL170:
 1330 002c 9800     		lsls	r0, r3, #2
 1331 002e 2818     		adds	r0, r5, r0
 1332              	.LVL171:
 1333 0030 03E0     		b	.L82
 1334              	.LVL172:
 1335              	.L81:
1052:Generated_Source\PSoC4/CapSense_Filter.c ****         #endif /* (CapSense_PROXIMITY_SENSOR_EN) */
 1336              		.loc 1 1052 0
 1337 0032 5800     		lsls	r0, r3, #1
 1338              	.LVL173:
 1339 0034 C318     		adds	r3, r0, r3
 1340              	.LVL174:
 1341 0036 9800     		lsls	r0, r3, #2
 1342 0038 2818     		adds	r0, r5, r0
 1343              	.L82:
1056:Generated_Source\PSoC4/CapSense_Filter.c **** }
 1344              		.loc 1 1056 0
 1345 003a FFF7FEFF 		bl	CapSense_RunMedianInternal
ARM GAS  C:\Users\zack.li\AppData\Local\Temp\ccH890rU.s 			page 59


 1346              	.LVL175:
1057:Generated_Source\PSoC4/CapSense_Filter.c **** 
 1347              		.loc 1 1057 0
 1348              		@ sp needed
 1349              	.LVL176:
 1350              	.LVL177:
 1351 003e 70BD     		pop	{r4, r5, r6, pc}
 1352              	.L84:
 1353              		.align	2
 1354              	.L83:
 1355 0040 00000000 		.word	CapSense_dsFlash
 1356              		.cfi_endproc
 1357              	.LFE18:
 1358              		.size	CapSense_RunMedian, .-CapSense_RunMedian
 1359              		.section	.text.CapSense_FtIIR1stOrder,"ax",%progbits
 1360              		.align	2
 1361              		.global	CapSense_FtIIR1stOrder
 1362              		.code	16
 1363              		.thumb_func
 1364              		.type	CapSense_FtIIR1stOrder, %function
 1365              	CapSense_FtIIR1stOrder:
 1366              	.LFB28:
1831:Generated_Source\PSoC4/CapSense_Filter.c **** #endif /*CapSense_POS_MEDIAN_FILTER_EN || CapSense_REGULAR_RC_MEDIAN_FILTER_EN || CapSense_PROX_RC_
1832:Generated_Source\PSoC4/CapSense_Filter.c **** 
1833:Generated_Source\PSoC4/CapSense_Filter.c **** 
1834:Generated_Source\PSoC4/CapSense_Filter.c **** /*******************************************************************************
1835:Generated_Source\PSoC4/CapSense_Filter.c **** * Function Name: CapSense_FtIIR1stOrder
1836:Generated_Source\PSoC4/CapSense_Filter.c **** ****************************************************************************//**
1837:Generated_Source\PSoC4/CapSense_Filter.c **** *
1838:Generated_Source\PSoC4/CapSense_Filter.c **** * \brief
1839:Generated_Source\PSoC4/CapSense_Filter.c **** *  Return the filtered data by the IIR 1-st order algorithm
1840:Generated_Source\PSoC4/CapSense_Filter.c **** *
1841:Generated_Source\PSoC4/CapSense_Filter.c **** * \details
1842:Generated_Source\PSoC4/CapSense_Filter.c **** *  Return the filtered data by the IIR 1-st order algorithm
1843:Generated_Source\PSoC4/CapSense_Filter.c **** *
1844:Generated_Source\PSoC4/CapSense_Filter.c **** * \param input
1845:Generated_Source\PSoC4/CapSense_Filter.c **** *  The data to be filtered.
1846:Generated_Source\PSoC4/CapSense_Filter.c **** *
1847:Generated_Source\PSoC4/CapSense_Filter.c **** * \param prevOutput
1848:Generated_Source\PSoC4/CapSense_Filter.c **** *  The previous filtered data.
1849:Generated_Source\PSoC4/CapSense_Filter.c **** *
1850:Generated_Source\PSoC4/CapSense_Filter.c **** * \param n
1851:Generated_Source\PSoC4/CapSense_Filter.c **** *  The IIR filter coefficient (n/256).
1852:Generated_Source\PSoC4/CapSense_Filter.c **** *
1853:Generated_Source\PSoC4/CapSense_Filter.c **** * \param shift
1854:Generated_Source\PSoC4/CapSense_Filter.c **** *  The parameter is used to shift input data to have free LSB
1855:Generated_Source\PSoC4/CapSense_Filter.c **** *  bits for a fraction storage of the filter output calculation.
1856:Generated_Source\PSoC4/CapSense_Filter.c **** *
1857:Generated_Source\PSoC4/CapSense_Filter.c **** * \return
1858:Generated_Source\PSoC4/CapSense_Filter.c **** *  Returns the filtered data.
1859:Generated_Source\PSoC4/CapSense_Filter.c **** *
1860:Generated_Source\PSoC4/CapSense_Filter.c **** *******************************************************************************/
1861:Generated_Source\PSoC4/CapSense_Filter.c **** uint32 CapSense_FtIIR1stOrder(uint32 input, uint32 prevOutput, uint32 n, uint32 shift)
1862:Generated_Source\PSoC4/CapSense_Filter.c **** {
 1367              		.loc 1 1862 0
 1368              		.cfi_startproc
 1369              		@ args = 0, pretend = 0, frame = 0
ARM GAS  C:\Users\zack.li\AppData\Local\Temp\ccH890rU.s 			page 60


 1370              		@ frame_needed = 0, uses_anonymous_args = 0
 1371              		@ link register save eliminated.
 1372              	.LVL178:
1863:Generated_Source\PSoC4/CapSense_Filter.c ****     uint32 filteredOutput;
1864:Generated_Source\PSoC4/CapSense_Filter.c **** 
1865:Generated_Source\PSoC4/CapSense_Filter.c ****     /*
1866:Generated_Source\PSoC4/CapSense_Filter.c ****     * n - IIR filter coefficient (n/256)
1867:Generated_Source\PSoC4/CapSense_Filter.c ****     * shift - Used to shift input data to have free LSB bits
1868:Generated_Source\PSoC4/CapSense_Filter.c ****     * for fraction storage of filter output calculation
1869:Generated_Source\PSoC4/CapSense_Filter.c ****     */
1870:Generated_Source\PSoC4/CapSense_Filter.c ****     filteredOutput = ((n * (input << shift)) + ((CapSense_IIR_COEFFICIENT_K - n) * prevOutput)) >> 
 1373              		.loc 1 1870 0
 1374 0000 9840     		lsls	r0, r0, r3
 1375              	.LVL179:
 1376 0002 5043     		muls	r0, r2
 1377 0004 8023     		movs	r3, #128
 1378              	.LVL180:
 1379 0006 5B00     		lsls	r3, r3, #1
 1380 0008 9A1A     		subs	r2, r3, r2
 1381              	.LVL181:
 1382 000a 5143     		muls	r1, r2
 1383              	.LVL182:
 1384 000c 4018     		adds	r0, r0, r1
 1385 000e 000A     		lsrs	r0, r0, #8
 1386              	.LVL183:
1871:Generated_Source\PSoC4/CapSense_Filter.c **** 
1872:Generated_Source\PSoC4/CapSense_Filter.c ****     /* Shift operation of output will be done in upper level API if needed */
1873:Generated_Source\PSoC4/CapSense_Filter.c ****     return filteredOutput;
1874:Generated_Source\PSoC4/CapSense_Filter.c **** }
 1387              		.loc 1 1874 0
 1388              		@ sp needed
 1389 0010 7047     		bx	lr
 1390              		.cfi_endproc
 1391              	.LFE28:
 1392              		.size	CapSense_FtIIR1stOrder, .-CapSense_FtIIR1stOrder
 1393 0012 C046     		.section	.text.CapSense_FtUpdateBaseline,"ax",%progbits
 1394              		.align	2
 1395              		.global	CapSense_FtUpdateBaseline
 1396              		.code	16
 1397              		.thumb_func
 1398              		.type	CapSense_FtUpdateBaseline, %function
 1399              	CapSense_FtUpdateBaseline:
 1400              	.LFB5:
 259:Generated_Source\PSoC4/CapSense_Filter.c ****     uint32 sign;
 1401              		.loc 1 259 0
 1402              		.cfi_startproc
 1403              		@ args = 0, pretend = 0, frame = 8
 1404              		@ frame_needed = 0, uses_anonymous_args = 0
 1405              	.LVL184:
 1406 0000 F0B5     		push	{r4, r5, r6, r7, lr}
 1407              		.cfi_def_cfa_offset 20
 1408              		.cfi_offset 4, -20
 1409              		.cfi_offset 5, -16
 1410              		.cfi_offset 6, -12
 1411              		.cfi_offset 7, -8
 1412              		.cfi_offset 14, -4
 1413 0002 4746     		mov	r7, r8
ARM GAS  C:\Users\zack.li\AppData\Local\Temp\ccH890rU.s 			page 61


 1414 0004 80B4     		push	{r7}
 1415              		.cfi_def_cfa_offset 24
 1416              		.cfi_offset 8, -24
 1417 0006 82B0     		sub	sp, sp, #8
 1418              		.cfi_def_cfa_offset 32
 1419 0008 0700     		movs	r7, r0
 1420 000a 0E00     		movs	r6, r1
 1421 000c 0192     		str	r2, [sp, #4]
 1422              	.LVL185:
 271:Generated_Source\PSoC4/CapSense_Filter.c ****     {
 1423              		.loc 1 271 0
 1424 000e 0123     		movs	r3, #1
 1425 0010 4EE0     		b	.L87
 1426              	.LVL186:
 1427              	.L95:
 283:Generated_Source\PSoC4/CapSense_Filter.c ****         {
 1428              		.loc 1 283 0
 1429 0012 6300     		lsls	r3, r4, #1
 1430 0014 985B     		ldrh	r0, [r3, r6]
 1431 0016 F318     		adds	r3, r6, r3
 1432 0018 5988     		ldrh	r1, [r3, #2]
 1433 001a 8842     		cmp	r0, r1
 1434 001c 05D3     		bcc	.L88
 285:Generated_Source\PSoC4/CapSense_Filter.c ****             sign = 1u;
 1435              		.loc 1 285 0
 1436 001e 431A     		subs	r3, r0, r1
 1437              	.LVL187:
 287:Generated_Source\PSoC4/CapSense_Filter.c ****         }
 1438              		.loc 1 287 0
 1439 0020 3219     		adds	r2, r6, r4
 1440 0022 0025     		movs	r5, #0
 1441 0024 1572     		strb	r5, [r2, #8]
 286:Generated_Source\PSoC4/CapSense_Filter.c ****             ptrSensor->negBslnRstCnt[freqChannel] = 0u;
 1442              		.loc 1 286 0
 1443 0026 0122     		movs	r2, #1
 1444 0028 01E0     		b	.L89
 1445              	.LVL188:
 1446              	.L88:
 291:Generated_Source\PSoC4/CapSense_Filter.c ****             sign = 0u;
 1447              		.loc 1 291 0
 1448 002a 0B1A     		subs	r3, r1, r0
 1449              	.LVL189:
 292:Generated_Source\PSoC4/CapSense_Filter.c ****         }
 1450              		.loc 1 292 0
 1451 002c 0022     		movs	r2, #0
 1452              	.LVL190:
 1453              	.L89:
 296:Generated_Source\PSoC4/CapSense_Filter.c ****         {
 1454              		.loc 1 296 0
 1455 002e 002A     		cmp	r2, #0
 1456 0030 11D1     		bne	.L90
 296:Generated_Source\PSoC4/CapSense_Filter.c ****         {
 1457              		.loc 1 296 0 is_stmt 0 discriminator 1
 1458 0032 7D79     		ldrb	r5, [r7, #5]
 1459 0034 AB42     		cmp	r3, r5
 1460 0036 0ED9     		bls	.L90
 298:Generated_Source\PSoC4/CapSense_Filter.c ****             {
ARM GAS  C:\Users\zack.li\AppData\Local\Temp\ccH890rU.s 			page 62


 1461              		.loc 1 298 0 is_stmt 1
 1462 0038 3319     		adds	r3, r6, r4
 1463              	.LVL191:
 1464 003a 1B7A     		ldrb	r3, [r3, #8]
 1465 003c 3A7A     		ldrb	r2, [r7, #8]
 1466              	.LVL192:
 1467 003e 9342     		cmp	r3, r2
 1468 0040 05D3     		bcc	.L91
 300:Generated_Source\PSoC4/CapSense_Filter.c ****             }
 1469              		.loc 1 300 0
 1470 0042 2200     		movs	r2, r4
 1471 0044 0199     		ldr	r1, [sp, #4]
 1472 0046 3000     		movs	r0, r6
 1473 0048 FFF7FEFF 		bl	CapSense_FtInitializeBaselineChannel
 1474              	.LVL193:
 1475 004c 2FE0     		b	.L92
 1476              	.L91:
 304:Generated_Source\PSoC4/CapSense_Filter.c ****             }
 1477              		.loc 1 304 0
 1478 004e 3219     		adds	r2, r6, r4
 1479 0050 0133     		adds	r3, r3, #1
 1480 0052 1372     		strb	r3, [r2, #8]
 1481 0054 2BE0     		b	.L92
 1482              	.LVL194:
 1483              	.L90:
 311:Generated_Source\PSoC4/CapSense_Filter.c ****                     ((difference <= (uint32) ptrWidgetRam->nNoiseTh) && (sign == 0u)))
 1484              		.loc 1 311 0
 1485 0056 3D79     		ldrb	r5, [r7, #4]
 1486 0058 AB42     		cmp	r3, r5
 1487 005a 04D9     		bls	.L93
 312:Generated_Source\PSoC4/CapSense_Filter.c ****                 {
 1488              		.loc 1 312 0 discriminator 1
 1489 005c 7D79     		ldrb	r5, [r7, #5]
 311:Generated_Source\PSoC4/CapSense_Filter.c ****                     ((difference <= (uint32) ptrWidgetRam->nNoiseTh) && (sign == 0u)))
 1490              		.loc 1 311 0 discriminator 1
 1491 005e AB42     		cmp	r3, r5
 1492 0060 25D8     		bhi	.L92
 312:Generated_Source\PSoC4/CapSense_Filter.c ****                 {
 1493              		.loc 1 312 0
 1494 0062 002A     		cmp	r2, #0
 1495 0064 23D1     		bne	.L92
 1496              	.L93:
 318:Generated_Source\PSoC4/CapSense_Filter.c ****                 {
 1497              		.loc 1 318 0
 1498 0066 FF23     		movs	r3, #255
 1499              	.LVL195:
 1500 0068 019A     		ldr	r2, [sp, #4]
 1501              	.LVL196:
 1502 006a 1340     		ands	r3, r2
 1503 006c 062B     		cmp	r3, #6
 1504 006e 0FD0     		beq	.L94
 322:Generated_Source\PSoC4/CapSense_Filter.c ****                             history |= ptrSensor->bslnExt[freqChannel];
 1505              		.loc 1 322 0
 1506 0070 0902     		lsls	r1, r1, #8
 1507              	.LVL197:
 323:Generated_Source\PSoC4/CapSense_Filter.c ****                         #else
 1508              		.loc 1 323 0
ARM GAS  C:\Users\zack.li\AppData\Local\Temp\ccH890rU.s 			page 63


 1509 0072 3319     		adds	r3, r6, r4
 1510 0074 9846     		mov	r8, r3
 1511 0076 1B79     		ldrb	r3, [r3, #4]
 1512 0078 1943     		orrs	r1, r3
 1513              	.LVL198:
 334:Generated_Source\PSoC4/CapSense_Filter.c ****                                         (uint32)ptrSensor->raw[freqChannel],
 1514              		.loc 1 334 0
 1515 007a 0823     		movs	r3, #8
 1516 007c 0122     		movs	r2, #1
 1517 007e FFF7FEFF 		bl	CapSense_FtIIR1stOrder
 1518              	.LVL199:
 340:Generated_Source\PSoC4/CapSense_Filter.c ****                             ptrSensor->bslnExt[freqChannel] = LO8(history);
 1519              		.loc 1 340 0
 1520 0082 020A     		lsrs	r2, r0, #8
 1521 0084 6300     		lsls	r3, r4, #1
 1522 0086 F318     		adds	r3, r6, r3
 1523 0088 5A80     		strh	r2, [r3, #2]
 341:Generated_Source\PSoC4/CapSense_Filter.c ****                         #else
 1524              		.loc 1 341 0
 1525 008a 4346     		mov	r3, r8
 1526 008c 1871     		strb	r0, [r3, #4]
 1527 008e 0EE0     		b	.L92
 1528              	.LVL200:
 1529              	.L94:
 351:Generated_Source\PSoC4/CapSense_Filter.c ****                             history |= ptrSensor->bslnExt[freqChannel];
 1530              		.loc 1 351 0
 1531 0090 0902     		lsls	r1, r1, #8
 1532              	.LVL201:
 352:Generated_Source\PSoC4/CapSense_Filter.c ****                         #else
 1533              		.loc 1 352 0
 1534 0092 3319     		adds	r3, r6, r4
 1535 0094 9846     		mov	r8, r3
 1536 0096 1B79     		ldrb	r3, [r3, #4]
 1537 0098 1943     		orrs	r1, r3
 1538              	.LVL202:
 363:Generated_Source\PSoC4/CapSense_Filter.c ****                                         (uint32)ptrSensor->raw[freqChannel],
 1539              		.loc 1 363 0
 1540 009a 0823     		movs	r3, #8
 1541 009c 0122     		movs	r2, #1
 1542 009e FFF7FEFF 		bl	CapSense_FtIIR1stOrder
 1543              	.LVL203:
 369:Generated_Source\PSoC4/CapSense_Filter.c ****                             ptrSensor->bslnExt[freqChannel] = LO8(history);
 1544              		.loc 1 369 0
 1545 00a2 020A     		lsrs	r2, r0, #8
 1546 00a4 6300     		lsls	r3, r4, #1
 1547 00a6 F318     		adds	r3, r6, r3
 1548 00a8 5A80     		strh	r2, [r3, #2]
 370:Generated_Source\PSoC4/CapSense_Filter.c ****                         #else
 1549              		.loc 1 370 0
 1550 00aa 4346     		mov	r3, r8
 1551 00ac 1871     		strb	r0, [r3, #4]
 1552              	.LVL204:
 1553              	.L92:
 1554 00ae 2300     		movs	r3, r4
 1555              	.LVL205:
 1556              	.L87:
 271:Generated_Source\PSoC4/CapSense_Filter.c ****     {
ARM GAS  C:\Users\zack.li\AppData\Local\Temp\ccH890rU.s 			page 64


 1557              		.loc 1 271 0 discriminator 1
 1558 00b0 5C1E     		subs	r4, r3, #1
 1559              	.LVL206:
 1560 00b2 002B     		cmp	r3, #0
 1561 00b4 ADD1     		bne	.L95
 398:Generated_Source\PSoC4/CapSense_Filter.c **** 
 1562              		.loc 1 398 0
 1563 00b6 0020     		movs	r0, #0
 1564 00b8 02B0     		add	sp, sp, #8
 1565              		@ sp needed
 1566              	.LVL207:
 1567              	.LVL208:
 1568              	.LVL209:
 1569 00ba 04BC     		pop	{r2}
 1570 00bc 9046     		mov	r8, r2
 1571 00be F0BD     		pop	{r4, r5, r6, r7, pc}
 1572              		.cfi_endproc
 1573              	.LFE5:
 1574              		.size	CapSense_FtUpdateBaseline, .-CapSense_FtUpdateBaseline
 1575              		.section	.text.CapSense_UpdateSensorBaseline,"ax",%progbits
 1576              		.align	2
 1577              		.global	CapSense_UpdateSensorBaseline
 1578              		.code	16
 1579              		.thumb_func
 1580              		.type	CapSense_UpdateSensorBaseline, %function
 1581              	CapSense_UpdateSensorBaseline:
 1582              	.LFB4:
 201:Generated_Source\PSoC4/CapSense_Filter.c ****     uint32 result = CYRET_SUCCESS;
 1583              		.loc 1 201 0
 1584              		.cfi_startproc
 1585              		@ args = 0, pretend = 0, frame = 0
 1586              		@ frame_needed = 0, uses_anonymous_args = 0
 1587              	.LVL210:
 1588 0000 70B5     		push	{r4, r5, r6, lr}
 1589              		.cfi_def_cfa_offset 16
 1590              		.cfi_offset 4, -16
 1591              		.cfi_offset 5, -12
 1592              		.cfi_offset 6, -8
 1593              		.cfi_offset 14, -4
 1594              	.LVL211:
 206:Generated_Source\PSoC4/CapSense_Filter.c **** 
 1595              		.loc 1 206 0
 1596 0002 094D     		ldr	r5, .L97
 1597 0004 C300     		lsls	r3, r0, #3
 1598 0006 1C1A     		subs	r4, r3, r0
 1599 0008 A200     		lsls	r2, r4, #2
 1600 000a AA18     		adds	r2, r5, r2
 1601 000c 5468     		ldr	r4, [r2, #4]
 1602              	.LVL212:
 209:Generated_Source\PSoC4/CapSense_Filter.c ****     ptrSensor = &ptrSensor[sensorId];
 1603              		.loc 1 209 0
 1604 000e 9668     		ldr	r6, [r2, #8]
 1605              	.LVL213:
 210:Generated_Source\PSoC4/CapSense_Filter.c ****     result = CapSense_FtUpdateBaseline(ptrWidgetRam, ptrSensor, (uint32)ptrWidget->wdgtType);
 1606              		.loc 1 210 0
 1607 0010 8A00     		lsls	r2, r1, #2
 1608 0012 5218     		adds	r2, r2, r1
ARM GAS  C:\Users\zack.li\AppData\Local\Temp\ccH890rU.s 			page 65


 1609 0014 5100     		lsls	r1, r2, #1
 1610              	.LVL214:
 1611 0016 7118     		adds	r1, r6, r1
 1612              	.LVL215:
 211:Generated_Source\PSoC4/CapSense_Filter.c **** 
 1613              		.loc 1 211 0
 1614 0018 1B1A     		subs	r3, r3, r0
 1615 001a 9A00     		lsls	r2, r3, #2
 1616 001c AA18     		adds	r2, r5, r2
 1617 001e 927E     		ldrb	r2, [r2, #26]
 1618 0020 2000     		movs	r0, r4
 1619              	.LVL216:
 1620 0022 FFF7FEFF 		bl	CapSense_FtUpdateBaseline
 1621              	.LVL217:
 222:Generated_Source\PSoC4/CapSense_Filter.c **** 
 1622              		.loc 1 222 0
 1623              		@ sp needed
 1624              	.LVL218:
 1625              	.LVL219:
 1626              	.LVL220:
 1627 0026 70BD     		pop	{r4, r5, r6, pc}
 1628              	.L98:
 1629              		.align	2
 1630              	.L97:
 1631 0028 00000000 		.word	CapSense_dsFlash
 1632              		.cfi_endproc
 1633              	.LFE4:
 1634              		.size	CapSense_UpdateSensorBaseline, .-CapSense_UpdateSensorBaseline
 1635              		.section	.text.CapSense_UpdateWidgetBaseline,"ax",%progbits
 1636              		.align	2
 1637              		.global	CapSense_UpdateWidgetBaseline
 1638              		.code	16
 1639              		.thumb_func
 1640              		.type	CapSense_UpdateWidgetBaseline, %function
 1641              	CapSense_UpdateWidgetBaseline:
 1642              	.LFB3:
 144:Generated_Source\PSoC4/CapSense_Filter.c ****     uint32 sensorId;
 1643              		.loc 1 144 0
 1644              		.cfi_startproc
 1645              		@ args = 0, pretend = 0, frame = 0
 1646              		@ frame_needed = 0, uses_anonymous_args = 0
 1647              	.LVL221:
 1648 0000 70B5     		push	{r4, r5, r6, lr}
 1649              		.cfi_def_cfa_offset 16
 1650              		.cfi_offset 4, -16
 1651              		.cfi_offset 5, -12
 1652              		.cfi_offset 6, -8
 1653              		.cfi_offset 14, -4
 1654 0002 0600     		movs	r6, r0
 1655              	.LVL222:
 152:Generated_Source\PSoC4/CapSense_Filter.c **** 
 1656              		.loc 1 152 0
 1657 0004 C200     		lsls	r2, r0, #3
 1658 0006 121A     		subs	r2, r2, r0
 1659 0008 9300     		lsls	r3, r2, #2
 1660 000a 084A     		ldr	r2, .L102
 1661 000c D318     		adds	r3, r2, r3
ARM GAS  C:\Users\zack.li\AppData\Local\Temp\ccH890rU.s 			page 66


 1662 000e 1B8B     		ldrh	r3, [r3, #24]
 1663              	.LVL223:
 149:Generated_Source\PSoC4/CapSense_Filter.c **** 
 1664              		.loc 1 149 0
 1665 0010 0025     		movs	r5, #0
 154:Generated_Source\PSoC4/CapSense_Filter.c ****     {
 1666              		.loc 1 154 0
 1667 0012 05E0     		b	.L100
 1668              	.LVL224:
 1669              	.L101:
 156:Generated_Source\PSoC4/CapSense_Filter.c ****     }
 1670              		.loc 1 156 0
 1671 0014 2100     		movs	r1, r4
 1672 0016 3000     		movs	r0, r6
 1673 0018 FFF7FEFF 		bl	CapSense_UpdateSensorBaseline
 1674              	.LVL225:
 1675 001c 0543     		orrs	r5, r0
 1676              	.LVL226:
 154:Generated_Source\PSoC4/CapSense_Filter.c ****     {
 1677              		.loc 1 154 0
 1678 001e 2300     		movs	r3, r4
 1679              	.LVL227:
 1680              	.L100:
 154:Generated_Source\PSoC4/CapSense_Filter.c ****     {
 1681              		.loc 1 154 0 is_stmt 0 discriminator 1
 1682 0020 5C1E     		subs	r4, r3, #1
 1683              	.LVL228:
 1684 0022 002B     		cmp	r3, #0
 1685 0024 F6D1     		bne	.L101
 160:Generated_Source\PSoC4/CapSense_Filter.c **** 
 1686              		.loc 1 160 0 is_stmt 1
 1687 0026 2800     		movs	r0, r5
 1688              		@ sp needed
 1689              	.LVL229:
 1690              	.LVL230:
 1691              	.LVL231:
 1692 0028 70BD     		pop	{r4, r5, r6, pc}
 1693              	.L103:
 1694 002a C046     		.align	2
 1695              	.L102:
 1696 002c 00000000 		.word	CapSense_dsFlash
 1697              		.cfi_endproc
 1698              	.LFE3:
 1699              		.size	CapSense_UpdateWidgetBaseline, .-CapSense_UpdateWidgetBaseline
 1700              		.section	.text.CapSense_UpdateAllBaselines,"ax",%progbits
 1701              		.align	2
 1702              		.global	CapSense_UpdateAllBaselines
 1703              		.code	16
 1704              		.thumb_func
 1705              		.type	CapSense_UpdateAllBaselines, %function
 1706              	CapSense_UpdateAllBaselines:
 1707              	.LFB2:
  98:Generated_Source\PSoC4/CapSense_Filter.c ****     uint32 widgetId;
 1708              		.loc 1 98 0
 1709              		.cfi_startproc
 1710              		@ args = 0, pretend = 0, frame = 0
 1711              		@ frame_needed = 0, uses_anonymous_args = 0
ARM GAS  C:\Users\zack.li\AppData\Local\Temp\ccH890rU.s 			page 67


 1712 0000 70B5     		push	{r4, r5, r6, lr}
 1713              		.cfi_def_cfa_offset 16
 1714              		.cfi_offset 4, -16
 1715              		.cfi_offset 5, -12
 1716              		.cfi_offset 6, -8
 1717              		.cfi_offset 14, -4
 1718              	.LVL232:
 100:Generated_Source\PSoC4/CapSense_Filter.c **** 
 1719              		.loc 1 100 0
 1720 0002 0025     		movs	r5, #0
 102:Generated_Source\PSoC4/CapSense_Filter.c ****     {
 1721              		.loc 1 102 0
 1722 0004 0623     		movs	r3, #6
 1723 0006 04E0     		b	.L105
 1724              	.LVL233:
 1725              	.L106:
 104:Generated_Source\PSoC4/CapSense_Filter.c ****     }
 1726              		.loc 1 104 0
 1727 0008 2000     		movs	r0, r4
 1728 000a FFF7FEFF 		bl	CapSense_UpdateWidgetBaseline
 1729              	.LVL234:
 1730 000e 0543     		orrs	r5, r0
 1731              	.LVL235:
 102:Generated_Source\PSoC4/CapSense_Filter.c ****     {
 1732              		.loc 1 102 0
 1733 0010 2300     		movs	r3, r4
 1734              	.LVL236:
 1735              	.L105:
 102:Generated_Source\PSoC4/CapSense_Filter.c ****     {
 1736              		.loc 1 102 0 is_stmt 0 discriminator 1
 1737 0012 5C1E     		subs	r4, r3, #1
 1738              	.LVL237:
 1739 0014 002B     		cmp	r3, #0
 1740 0016 F7D1     		bne	.L106
 108:Generated_Source\PSoC4/CapSense_Filter.c **** 
 1741              		.loc 1 108 0 is_stmt 1
 1742 0018 2800     		movs	r0, r5
 1743              		@ sp needed
 1744              	.LVL238:
 1745              	.LVL239:
 1746 001a 70BD     		pop	{r4, r5, r6, pc}
 1747              		.cfi_endproc
 1748              	.LFE2:
 1749              		.size	CapSense_UpdateAllBaselines, .-CapSense_UpdateAllBaselines
 1750              		.section	.text.CapSense_RunIIRInternal,"ax",%progbits
 1751              		.align	2
 1752              		.global	CapSense_RunIIRInternal
 1753              		.code	16
 1754              		.thumb_func
 1755              		.type	CapSense_RunIIRInternal, %function
 1756              	CapSense_RunIIRInternal:
 1757              	.LFB16:
 905:Generated_Source\PSoC4/CapSense_Filter.c ****     uint32 freqChannel;
 1758              		.loc 1 905 0
 1759              		.cfi_startproc
 1760              		@ args = 0, pretend = 0, frame = 0
 1761              		@ frame_needed = 0, uses_anonymous_args = 0
ARM GAS  C:\Users\zack.li\AppData\Local\Temp\ccH890rU.s 			page 68


 1762              	.LVL240:
 1763 0000 F0B5     		push	{r4, r5, r6, r7, lr}
 1764              		.cfi_def_cfa_offset 20
 1765              		.cfi_offset 4, -20
 1766              		.cfi_offset 5, -16
 1767              		.cfi_offset 6, -12
 1768              		.cfi_offset 7, -8
 1769              		.cfi_offset 14, -4
 1770 0002 4746     		mov	r7, r8
 1771 0004 80B4     		push	{r7}
 1772              		.cfi_def_cfa_offset 24
 1773              		.cfi_offset 8, -24
 1774 0006 0700     		movs	r7, r0
 1775 0008 0E00     		movs	r6, r1
 1776 000a 9046     		mov	r8, r2
 1777              	.LVL241:
 909:Generated_Source\PSoC4/CapSense_Filter.c ****     {
 1778              		.loc 1 909 0
 1779 000c 0123     		movs	r3, #1
 1780 000e 22E0     		b	.L108
 1781              	.LVL242:
 1782              	.L111:
 911:Generated_Source\PSoC4/CapSense_Filter.c ****         {
 1783              		.loc 1 911 0
 1784 0010 FF23     		movs	r3, #255
 1785 0012 4246     		mov	r2, r8
 1786 0014 1340     		ands	r3, r2
 1787 0016 062B     		cmp	r3, #6
 1788 0018 0ED0     		beq	.L109
 1789              	.LVL243:
 925:Generated_Source\PSoC4/CapSense_Filter.c ****                                                         (uint32)ptrFilterHistObj.ptrRegular->regula
 1790              		.loc 1 925 0
 1791 001a 6500     		lsls	r5, r4, #1
 1792 001c A85B     		ldrh	r0, [r5, r6]
 1793              	.LVL244:
 926:Generated_Source\PSoC4/CapSense_Filter.c ****                                                         CapSense_REGULAR_IIR_RC_N,
 1794              		.loc 1 926 0
 1795 001e 2A19     		adds	r2, r5, r4
 1796              	.LVL245:
 1797 0020 9300     		lsls	r3, r2, #2
 1798 0022 D95B     		ldrh	r1, [r3, r7]
 925:Generated_Source\PSoC4/CapSense_Filter.c ****                                                         (uint32)ptrFilterHistObj.ptrRegular->regula
 1799              		.loc 1 925 0
 1800 0024 0023     		movs	r3, #0
 1801 0026 4022     		movs	r2, #64
 1802 0028 FFF7FEFF 		bl	CapSense_FtIIR1stOrder
 1803              	.LVL246:
 929:Generated_Source\PSoC4/CapSense_Filter.c ****                     ptrSensorObj->raw[freqChannel] = LO16(temp >>CapSense_REGULAR_IIR_RC_SHIFT);
 1804              		.loc 1 929 0
 1805 002c 80B2     		uxth	r0, r0
 1806              	.LVL247:
 1807 002e 2A19     		adds	r2, r5, r4
 1808 0030 9300     		lsls	r3, r2, #2
 1809 0032 D853     		strh	r0, [r3, r7]
 930:Generated_Source\PSoC4/CapSense_Filter.c ****                 #endif /* (CapSense_REGULAR_IIR_RC_TYPE == CapSense_IIR_FILTER_PERFORMANCE) */
 1810              		.loc 1 930 0
 1811 0034 A853     		strh	r0, [r5, r6]
ARM GAS  C:\Users\zack.li\AppData\Local\Temp\ccH890rU.s 			page 69


 1812 0036 0DE0     		b	.L110
 1813              	.LVL248:
 1814              	.L109:
 948:Generated_Source\PSoC4/CapSense_Filter.c ****                                                         (uint32)ptrFilterHistObj.ptrProx->proxChann
 1815              		.loc 1 948 0
 1816 0038 6500     		lsls	r5, r4, #1
 1817 003a A85B     		ldrh	r0, [r5, r6]
 1818              	.LVL249:
 949:Generated_Source\PSoC4/CapSense_Filter.c ****                                                         CapSense_PROX_IIR_RC_N,
 1819              		.loc 1 949 0
 1820 003c 2A19     		adds	r2, r5, r4
 1821              	.LVL250:
 1822 003e 9300     		lsls	r3, r2, #2
 1823 0040 D95B     		ldrh	r1, [r3, r7]
 948:Generated_Source\PSoC4/CapSense_Filter.c ****                                                         (uint32)ptrFilterHistObj.ptrProx->proxChann
 1824              		.loc 1 948 0
 1825 0042 0023     		movs	r3, #0
 1826 0044 4022     		movs	r2, #64
 1827 0046 FFF7FEFF 		bl	CapSense_FtIIR1stOrder
 1828              	.LVL251:
 952:Generated_Source\PSoC4/CapSense_Filter.c ****                     ptrSensorObj->raw[freqChannel] = LO16(temp >>CapSense_PROX_IIR_RC_SHIFT);
 1829              		.loc 1 952 0
 1830 004a 80B2     		uxth	r0, r0
 1831              	.LVL252:
 1832 004c 2A19     		adds	r2, r5, r4
 1833 004e 9300     		lsls	r3, r2, #2
 1834 0050 D853     		strh	r0, [r3, r7]
 953:Generated_Source\PSoC4/CapSense_Filter.c ****                 #endif /* (CapSense_PROX_IIR_RC_TYPE == CapSense_IIR_FILTER_PERFORMANCE) */
 1835              		.loc 1 953 0
 1836 0052 A853     		strh	r0, [r5, r6]
 1837              	.L110:
 905:Generated_Source\PSoC4/CapSense_Filter.c ****     uint32 freqChannel;
 1838              		.loc 1 905 0 discriminator 1
 1839 0054 2300     		movs	r3, r4
 1840              	.LVL253:
 1841              	.L108:
 909:Generated_Source\PSoC4/CapSense_Filter.c ****     {
 1842              		.loc 1 909 0 discriminator 1
 1843 0056 5C1E     		subs	r4, r3, #1
 1844              	.LVL254:
 1845 0058 002B     		cmp	r3, #0
 1846 005a D9D1     		bne	.L111
 958:Generated_Source\PSoC4/CapSense_Filter.c **** #endif /* #if (CapSense_REGULAR_RC_IIR_FILTER_EN || CapSense_PROX_RC_IIR_FILTER_EN) */
 1847              		.loc 1 958 0
 1848              		@ sp needed
 1849              	.LVL255:
 1850              	.LVL256:
 1851              	.LVL257:
 1852 005c 04BC     		pop	{r2}
 1853 005e 9046     		mov	r8, r2
 1854 0060 F0BD     		pop	{r4, r5, r6, r7, pc}
 1855              		.cfi_endproc
 1856              	.LFE16:
 1857              		.size	CapSense_RunIIRInternal, .-CapSense_RunIIRInternal
 1858 0062 C046     		.section	.text.CapSense_RunIIR,"ax",%progbits
 1859              		.align	2
 1860              		.global	CapSense_RunIIR
ARM GAS  C:\Users\zack.li\AppData\Local\Temp\ccH890rU.s 			page 70


 1861              		.code	16
 1862              		.thumb_func
 1863              		.type	CapSense_RunIIR, %function
 1864              	CapSense_RunIIR:
 1865              	.LFB14:
 802:Generated_Source\PSoC4/CapSense_Filter.c ****     CapSense_FLASH_WD_STRUCT const *ptrWidget = &CapSense_dsFlash.wdgtArray[widgetId];
 1866              		.loc 1 802 0
 1867              		.cfi_startproc
 1868              		@ args = 0, pretend = 0, frame = 0
 1869              		@ frame_needed = 0, uses_anonymous_args = 0
 1870              	.LVL258:
 1871 0000 70B5     		push	{r4, r5, r6, lr}
 1872              		.cfi_def_cfa_offset 16
 1873              		.cfi_offset 4, -16
 1874              		.cfi_offset 5, -12
 1875              		.cfi_offset 6, -8
 1876              		.cfi_offset 14, -4
 1877 0002 0B00     		movs	r3, r1
 1878              	.LVL259:
 808:Generated_Source\PSoC4/CapSense_Filter.c ****     ptrSensor = &ptrSensor[sensorId];
 1879              		.loc 1 808 0
 1880 0004 0E4E     		ldr	r6, .L115
 1881 0006 C200     		lsls	r2, r0, #3
 1882 0008 111A     		subs	r1, r2, r0
 1883              	.LVL260:
 1884 000a 8C00     		lsls	r4, r1, #2
 1885 000c 3419     		adds	r4, r6, r4
 1886              	.LVL261:
 809:Generated_Source\PSoC4/CapSense_Filter.c **** 
 1887              		.loc 1 809 0
 1888 000e 9D00     		lsls	r5, r3, #2
 1889 0010 ED18     		adds	r5, r5, r3
 1890 0012 6900     		lsls	r1, r5, #1
 1891 0014 A568     		ldr	r5, [r4, #8]
 1892 0016 AC46     		mov	ip, r5
 1893 0018 6144     		add	r1, r1, ip
 1894              	.LVL262:
 812:Generated_Source\PSoC4/CapSense_Filter.c **** 
 1895              		.loc 1 812 0
 1896 001a E568     		ldr	r5, [r4, #12]
 814:Generated_Source\PSoC4/CapSense_Filter.c ****     {
 1897              		.loc 1 814 0
 1898 001c 121A     		subs	r2, r2, r0
 1899 001e 9400     		lsls	r4, r2, #2
 1900 0020 3419     		adds	r4, r6, r4
 1901 0022 A27E     		ldrb	r2, [r4, #26]
 1902 0024 062A     		cmp	r2, #6
 1903 0026 04D0     		beq	.L113
 817:Generated_Source\PSoC4/CapSense_Filter.c ****         #endif /* (CapSense_REGULAR_SENSOR_EN) */
 1904              		.loc 1 817 0
 1905 0028 5800     		lsls	r0, r3, #1
 1906              	.LVL263:
 1907 002a C318     		adds	r3, r0, r3
 1908              	.LVL264:
 1909 002c 9800     		lsls	r0, r3, #2
 1910 002e 2818     		adds	r0, r5, r0
 1911              	.LVL265:
ARM GAS  C:\Users\zack.li\AppData\Local\Temp\ccH890rU.s 			page 71


 1912 0030 03E0     		b	.L114
 1913              	.LVL266:
 1914              	.L113:
 823:Generated_Source\PSoC4/CapSense_Filter.c ****         #endif /* (CapSense_PROXIMITY_SENSOR_EN) */
 1915              		.loc 1 823 0
 1916 0032 5800     		lsls	r0, r3, #1
 1917              	.LVL267:
 1918 0034 C318     		adds	r3, r0, r3
 1919              	.LVL268:
 1920 0036 9800     		lsls	r0, r3, #2
 1921 0038 2818     		adds	r0, r5, r0
 1922              	.L114:
 827:Generated_Source\PSoC4/CapSense_Filter.c **** }
 1923              		.loc 1 827 0
 1924 003a FFF7FEFF 		bl	CapSense_RunIIRInternal
 1925              	.LVL269:
 828:Generated_Source\PSoC4/CapSense_Filter.c **** 
 1926              		.loc 1 828 0
 1927              		@ sp needed
 1928              	.LVL270:
 1929              	.LVL271:
 1930 003e 70BD     		pop	{r4, r5, r6, pc}
 1931              	.L116:
 1932              		.align	2
 1933              	.L115:
 1934 0040 00000000 		.word	CapSense_dsFlash
 1935              		.cfi_endproc
 1936              	.LFE14:
 1937              		.size	CapSense_RunIIR, .-CapSense_RunIIR
 1938              		.section	.text.CapSense_FtRunEnabledFiltersInternal,"ax",%progbits
 1939              		.align	2
 1940              		.global	CapSense_FtRunEnabledFiltersInternal
 1941              		.code	16
 1942              		.thumb_func
 1943              		.type	CapSense_FtRunEnabledFiltersInternal, %function
 1944              	CapSense_FtRunEnabledFiltersInternal:
 1945              	.LFB26:
1697:Generated_Source\PSoC4/CapSense_Filter.c ****     #if (CapSense_REGULAR_RC_MEDIAN_FILTER_EN || CapSense_PROX_RC_MEDIAN_FILTER_EN)
 1946              		.loc 1 1697 0
 1947              		.cfi_startproc
 1948              		@ args = 0, pretend = 0, frame = 0
 1949              		@ frame_needed = 0, uses_anonymous_args = 0
 1950              	.LVL272:
 1951 0000 70B5     		push	{r4, r5, r6, lr}
 1952              		.cfi_def_cfa_offset 16
 1953              		.cfi_offset 4, -16
 1954              		.cfi_offset 5, -12
 1955              		.cfi_offset 6, -8
 1956              		.cfi_offset 14, -4
 1957 0002 0400     		movs	r4, r0
 1958 0004 0D00     		movs	r5, r1
 1959 0006 1600     		movs	r6, r2
1699:Generated_Source\PSoC4/CapSense_Filter.c ****     #endif /* (CapSense_REGULAR_RC_MEDIAN_FILTER_EN || CapSense_PROX_RC_MEDIAN_FILTER_EN) */
 1960              		.loc 1 1699 0
 1961 0008 FFF7FEFF 		bl	CapSense_RunMedianInternal
 1962              	.LVL273:
1703:Generated_Source\PSoC4/CapSense_Filter.c ****     #endif /* (CapSense_REGULAR_RC_IIR_FILTER_EN || CapSense_PROX_RC_IIR_FILTER_EN) */
ARM GAS  C:\Users\zack.li\AppData\Local\Temp\ccH890rU.s 			page 72


 1963              		.loc 1 1703 0
 1964 000c 3200     		movs	r2, r6
 1965 000e 2900     		movs	r1, r5
 1966              	.LVL274:
 1967 0010 2000     		movs	r0, r4
 1968 0012 FFF7FEFF 		bl	CapSense_RunIIRInternal
 1969              	.LVL275:
1707:Generated_Source\PSoC4/CapSense_Filter.c ****     #endif /* (CapSense_REGULAR_RC_AVERAGE_FILTER_EN || CapSense_PROX_RC_AVERAGE_FILTER_EN) */
 1970              		.loc 1 1707 0
 1971 0016 3200     		movs	r2, r6
 1972 0018 2900     		movs	r1, r5
 1973 001a 2000     		movs	r0, r4
 1974 001c FFF7FEFF 		bl	CapSense_RunAverageInternal
 1975              	.LVL276:
1709:Generated_Source\PSoC4/CapSense_Filter.c **** #endif /* (CapSense_ENABLE == CapSense_RC_FILTER_EN) */
 1976              		.loc 1 1709 0
 1977              		@ sp needed
 1978              	.LVL277:
 1979              	.LVL278:
 1980              	.LVL279:
 1981 0020 70BD     		pop	{r4, r5, r6, pc}
 1982              		.cfi_endproc
 1983              	.LFE26:
 1984              		.size	CapSense_FtRunEnabledFiltersInternal, .-CapSense_FtRunEnabledFiltersInternal
 1985 0022 C046     		.section	.text.CapSense_FtRunEnabledFilters,"ax",%progbits
 1986              		.align	2
 1987              		.global	CapSense_FtRunEnabledFilters
 1988              		.code	16
 1989              		.thumb_func
 1990              		.type	CapSense_FtRunEnabledFilters, %function
 1991              	CapSense_FtRunEnabledFilters:
 1992              	.LFB25:
1639:Generated_Source\PSoC4/CapSense_Filter.c ****     CapSense_FLASH_WD_STRUCT const *ptrWidget = &CapSense_dsFlash.wdgtArray[widgetId];
 1993              		.loc 1 1639 0
 1994              		.cfi_startproc
 1995              		@ args = 0, pretend = 0, frame = 0
 1996              		@ frame_needed = 0, uses_anonymous_args = 0
 1997              	.LVL280:
 1998 0000 70B5     		push	{r4, r5, r6, lr}
 1999              		.cfi_def_cfa_offset 16
 2000              		.cfi_offset 4, -16
 2001              		.cfi_offset 5, -12
 2002              		.cfi_offset 6, -8
 2003              		.cfi_offset 14, -4
 2004 0002 0B00     		movs	r3, r1
 2005              	.LVL281:
1645:Generated_Source\PSoC4/CapSense_Filter.c ****     ptrSensor = &ptrSensor[sensorId];
 2006              		.loc 1 1645 0
 2007 0004 0E4E     		ldr	r6, .L121
 2008 0006 C200     		lsls	r2, r0, #3
 2009 0008 111A     		subs	r1, r2, r0
 2010              	.LVL282:
 2011 000a 8C00     		lsls	r4, r1, #2
 2012 000c 3419     		adds	r4, r6, r4
 2013              	.LVL283:
1646:Generated_Source\PSoC4/CapSense_Filter.c **** 
 2014              		.loc 1 1646 0
ARM GAS  C:\Users\zack.li\AppData\Local\Temp\ccH890rU.s 			page 73


 2015 000e 9D00     		lsls	r5, r3, #2
 2016 0010 ED18     		adds	r5, r5, r3
 2017 0012 6900     		lsls	r1, r5, #1
 2018 0014 A568     		ldr	r5, [r4, #8]
 2019 0016 AC46     		mov	ip, r5
 2020 0018 6144     		add	r1, r1, ip
 2021              	.LVL284:
1649:Generated_Source\PSoC4/CapSense_Filter.c **** 
 2022              		.loc 1 1649 0
 2023 001a E568     		ldr	r5, [r4, #12]
1651:Generated_Source\PSoC4/CapSense_Filter.c ****     {
 2024              		.loc 1 1651 0
 2025 001c 121A     		subs	r2, r2, r0
 2026 001e 9400     		lsls	r4, r2, #2
 2027 0020 3419     		adds	r4, r6, r4
 2028 0022 A27E     		ldrb	r2, [r4, #26]
 2029 0024 062A     		cmp	r2, #6
 2030 0026 04D0     		beq	.L119
1656:Generated_Source\PSoC4/CapSense_Filter.c ****         #endif
 2031              		.loc 1 1656 0
 2032 0028 5800     		lsls	r0, r3, #1
 2033              	.LVL285:
 2034 002a C318     		adds	r3, r0, r3
 2035              	.LVL286:
 2036 002c 9800     		lsls	r0, r3, #2
 2037 002e 2818     		adds	r0, r5, r0
 2038              	.LVL287:
 2039 0030 03E0     		b	.L120
 2040              	.LVL288:
 2041              	.L119:
1664:Generated_Source\PSoC4/CapSense_Filter.c ****         #endif
 2042              		.loc 1 1664 0
 2043 0032 5800     		lsls	r0, r3, #1
 2044              	.LVL289:
 2045 0034 C318     		adds	r3, r0, r3
 2046              	.LVL290:
 2047 0036 9800     		lsls	r0, r3, #2
 2048 0038 2818     		adds	r0, r5, r0
 2049              	.L120:
1668:Generated_Source\PSoC4/CapSense_Filter.c ****     #if (CapSense_ALP_FILTER_EN)
 2050              		.loc 1 1668 0
 2051 003a FFF7FEFF 		bl	CapSense_FtRunEnabledFiltersInternal
 2052              	.LVL291:
1672:Generated_Source\PSoC4/CapSense_Filter.c **** 
 2053              		.loc 1 1672 0
 2054              		@ sp needed
 2055              	.LVL292:
 2056              	.LVL293:
 2057 003e 70BD     		pop	{r4, r5, r6, pc}
 2058              	.L122:
 2059              		.align	2
 2060              	.L121:
 2061 0040 00000000 		.word	CapSense_dsFlash
 2062              		.cfi_endproc
 2063              	.LFE25:
 2064              		.size	CapSense_FtRunEnabledFilters, .-CapSense_FtRunEnabledFilters
 2065              		.text
ARM GAS  C:\Users\zack.li\AppData\Local\Temp\ccH890rU.s 			page 74


 2066              	.Letext0:
 2067              		.file 2 "Generated_Source\\PSoC4\\cytypes.h"
 2068              		.file 3 "Generated_Source\\PSoC4\\CapSense_Configuration.h"
 2069              		.file 4 "Generated_Source\\PSoC4\\CapSense_Structure.h"
 2070              		.section	.debug_info,"",%progbits
 2071              	.Ldebug_info0:
 2072 0000 77100000 		.4byte	0x1077
 2073 0004 0400     		.2byte	0x4
 2074 0006 00000000 		.4byte	.Ldebug_abbrev0
 2075 000a 04       		.byte	0x4
 2076 000b 01       		.uleb128 0x1
 2077 000c EE010000 		.4byte	.LASF120
 2078 0010 0C       		.byte	0xc
 2079 0011 C3080000 		.4byte	.LASF121
 2080 0015 8E000000 		.4byte	.LASF122
 2081 0019 00000000 		.4byte	.Ldebug_ranges0+0
 2082 001d 00000000 		.4byte	0
 2083 0021 00000000 		.4byte	.Ldebug_line0
 2084 0025 02       		.uleb128 0x2
 2085 0026 01       		.byte	0x1
 2086 0027 06       		.byte	0x6
 2087 0028 34080000 		.4byte	.LASF0
 2088 002c 02       		.uleb128 0x2
 2089 002d 01       		.byte	0x1
 2090 002e 08       		.byte	0x8
 2091 002f D8070000 		.4byte	.LASF1
 2092 0033 02       		.uleb128 0x2
 2093 0034 02       		.byte	0x2
 2094 0035 05       		.byte	0x5
 2095 0036 86060000 		.4byte	.LASF2
 2096 003a 02       		.uleb128 0x2
 2097 003b 02       		.byte	0x2
 2098 003c 07       		.byte	0x7
 2099 003d 67080000 		.4byte	.LASF3
 2100 0041 02       		.uleb128 0x2
 2101 0042 04       		.byte	0x4
 2102 0043 05       		.byte	0x5
 2103 0044 AD060000 		.4byte	.LASF4
 2104 0048 02       		.uleb128 0x2
 2105 0049 04       		.byte	0x4
 2106 004a 07       		.byte	0x7
 2107 004b 7D070000 		.4byte	.LASF5
 2108 004f 02       		.uleb128 0x2
 2109 0050 08       		.byte	0x8
 2110 0051 05       		.byte	0x5
 2111 0052 9E040000 		.4byte	.LASF6
 2112 0056 02       		.uleb128 0x2
 2113 0057 08       		.byte	0x8
 2114 0058 07       		.byte	0x7
 2115 0059 AC020000 		.4byte	.LASF7
 2116 005d 03       		.uleb128 0x3
 2117 005e 04       		.byte	0x4
 2118 005f 05       		.byte	0x5
 2119 0060 696E7400 		.ascii	"int\000"
 2120 0064 02       		.uleb128 0x2
 2121 0065 04       		.byte	0x4
 2122 0066 07       		.byte	0x7
ARM GAS  C:\Users\zack.li\AppData\Local\Temp\ccH890rU.s 			page 75


 2123 0067 4E000000 		.4byte	.LASF8
 2124 006b 04       		.uleb128 0x4
 2125 006c 87080000 		.4byte	.LASF9
 2126 0070 02       		.byte	0x2
 2127 0071 E401     		.2byte	0x1e4
 2128 0073 2C000000 		.4byte	0x2c
 2129 0077 04       		.uleb128 0x4
 2130 0078 59040000 		.4byte	.LASF10
 2131 007c 02       		.byte	0x2
 2132 007d E501     		.2byte	0x1e5
 2133 007f 3A000000 		.4byte	0x3a
 2134 0083 04       		.uleb128 0x4
 2135 0084 90050000 		.4byte	.LASF11
 2136 0088 02       		.byte	0x2
 2137 0089 E601     		.2byte	0x1e6
 2138 008b 48000000 		.4byte	0x48
 2139 008f 02       		.uleb128 0x2
 2140 0090 04       		.byte	0x4
 2141 0091 04       		.byte	0x4
 2142 0092 E2010000 		.4byte	.LASF12
 2143 0096 02       		.uleb128 0x2
 2144 0097 08       		.byte	0x8
 2145 0098 04       		.byte	0x4
 2146 0099 8D080000 		.4byte	.LASF13
 2147 009d 02       		.uleb128 0x2
 2148 009e 01       		.byte	0x1
 2149 009f 08       		.byte	0x8
 2150 00a0 2D040000 		.4byte	.LASF14
 2151 00a4 04       		.uleb128 0x4
 2152 00a5 CF070000 		.4byte	.LASF15
 2153 00a9 02       		.byte	0x2
 2154 00aa 8602     		.2byte	0x286
 2155 00ac 48000000 		.4byte	0x48
 2156 00b0 02       		.uleb128 0x2
 2157 00b1 08       		.byte	0x8
 2158 00b2 04       		.byte	0x4
 2159 00b3 0E060000 		.4byte	.LASF16
 2160 00b7 02       		.uleb128 0x2
 2161 00b8 04       		.byte	0x4
 2162 00b9 07       		.byte	0x7
 2163 00ba 74070000 		.4byte	.LASF17
 2164 00be 05       		.uleb128 0x5
 2165 00bf 04       		.byte	0x4
 2166 00c0 04       		.uleb128 0x4
 2167 00c1 FF070000 		.4byte	.LASF18
 2168 00c5 03       		.byte	0x3
 2169 00c6 3201     		.2byte	0x132
 2170 00c8 77000000 		.4byte	0x77
 2171 00cc 04       		.uleb128 0x4
 2172 00cd 6B040000 		.4byte	.LASF19
 2173 00d1 03       		.byte	0x3
 2174 00d2 3601     		.2byte	0x136
 2175 00d4 6B000000 		.4byte	0x6b
 2176 00d8 06       		.uleb128 0x6
 2177 00d9 01       		.byte	0x1
 2178 00da 2C000000 		.4byte	0x2c
 2179 00de 04       		.byte	0x4
ARM GAS  C:\Users\zack.li\AppData\Local\Temp\ccH890rU.s 			page 76


 2180 00df 61       		.byte	0x61
 2181 00e0 0F010000 		.4byte	0x10f
 2182 00e4 07       		.uleb128 0x7
 2183 00e5 FA060000 		.4byte	.LASF20
 2184 00e9 01       		.byte	0x1
 2185 00ea 07       		.uleb128 0x7
 2186 00eb D5050000 		.4byte	.LASF21
 2187 00ef 02       		.byte	0x2
 2188 00f0 07       		.uleb128 0x7
 2189 00f1 D9030000 		.4byte	.LASF22
 2190 00f5 03       		.byte	0x3
 2191 00f6 07       		.uleb128 0x7
 2192 00f7 C3020000 		.4byte	.LASF23
 2193 00fb 04       		.byte	0x4
 2194 00fc 07       		.uleb128 0x7
 2195 00fd 3E010000 		.4byte	.LASF24
 2196 0101 05       		.byte	0x5
 2197 0102 07       		.uleb128 0x7
 2198 0103 00000000 		.4byte	.LASF25
 2199 0107 06       		.byte	0x6
 2200 0108 07       		.uleb128 0x7
 2201 0109 38060000 		.4byte	.LASF26
 2202 010d 07       		.byte	0x7
 2203 010e 00       		.byte	0
 2204 010f 08       		.uleb128 0x8
 2205 0110 6E050000 		.4byte	.LASF27
 2206 0114 04       		.byte	0x4
 2207 0115 69       		.byte	0x69
 2208 0116 D8000000 		.4byte	0xd8
 2209 011a 09       		.uleb128 0x9
 2210 011b 10       		.byte	0x10
 2211 011c 04       		.byte	0x4
 2212 011d AD       		.byte	0xad
 2213 011e A7010000 		.4byte	0x1a7
 2214 0122 0A       		.uleb128 0xa
 2215 0123 60040000 		.4byte	.LASF28
 2216 0127 04       		.byte	0x4
 2217 0128 B2       		.byte	0xb2
 2218 0129 77000000 		.4byte	0x77
 2219 012d 00       		.byte	0
 2220 012e 0A       		.uleb128 0xa
 2221 012f BE070000 		.4byte	.LASF29
 2222 0133 04       		.byte	0x4
 2223 0134 B7       		.byte	0xb7
 2224 0135 C0000000 		.4byte	0xc0
 2225 0139 02       		.byte	0x2
 2226 013a 0A       		.uleb128 0xa
 2227 013b 25040000 		.4byte	.LASF30
 2228 013f 04       		.byte	0x4
 2229 0140 BC       		.byte	0xbc
 2230 0141 6B000000 		.4byte	0x6b
 2231 0145 04       		.byte	0x4
 2232 0146 0A       		.uleb128 0xa
 2233 0147 41050000 		.4byte	.LASF31
 2234 014b 04       		.byte	0x4
 2235 014c C1       		.byte	0xc1
 2236 014d 6B000000 		.4byte	0x6b
ARM GAS  C:\Users\zack.li\AppData\Local\Temp\ccH890rU.s 			page 77


 2237 0151 05       		.byte	0x5
 2238 0152 0A       		.uleb128 0xa
 2239 0153 CE030000 		.4byte	.LASF32
 2240 0157 04       		.byte	0x4
 2241 0158 C7       		.byte	0xc7
 2242 0159 6B000000 		.4byte	0x6b
 2243 015d 06       		.byte	0x6
 2244 015e 0A       		.uleb128 0xa
 2245 015f CE040000 		.4byte	.LASF33
 2246 0163 04       		.byte	0x4
 2247 0164 CD       		.byte	0xcd
 2248 0165 6B000000 		.4byte	0x6b
 2249 0169 07       		.byte	0x7
 2250 016a 0A       		.uleb128 0xa
 2251 016b 0E040000 		.4byte	.LASF34
 2252 016f 04       		.byte	0x4
 2253 0170 D4       		.byte	0xd4
 2254 0171 CC000000 		.4byte	0xcc
 2255 0175 08       		.byte	0x8
 2256 0176 0A       		.uleb128 0xa
 2257 0177 A6070000 		.4byte	.LASF35
 2258 017b 04       		.byte	0x4
 2259 017c DB       		.byte	0xdb
 2260 017d A7010000 		.4byte	0x1a7
 2261 0181 09       		.byte	0x9
 2262 0182 0A       		.uleb128 0xa
 2263 0183 96010000 		.4byte	.LASF36
 2264 0187 04       		.byte	0x4
 2265 0188 E0       		.byte	0xe0
 2266 0189 6B000000 		.4byte	0x6b
 2267 018d 0A       		.byte	0xa
 2268 018e 0A       		.uleb128 0xa
 2269 018f 2D080000 		.4byte	.LASF37
 2270 0193 04       		.byte	0x4
 2271 0194 E8       		.byte	0xe8
 2272 0195 77000000 		.4byte	0x77
 2273 0199 0C       		.byte	0xc
 2274 019a 0A       		.uleb128 0xa
 2275 019b 52060000 		.4byte	.LASF38
 2276 019f 04       		.byte	0x4
 2277 01a0 ED       		.byte	0xed
 2278 01a1 6B000000 		.4byte	0x6b
 2279 01a5 0E       		.byte	0xe
 2280 01a6 00       		.byte	0
 2281 01a7 0B       		.uleb128 0xb
 2282 01a8 6B000000 		.4byte	0x6b
 2283 01ac B7010000 		.4byte	0x1b7
 2284 01b0 0C       		.uleb128 0xc
 2285 01b1 B7000000 		.4byte	0xb7
 2286 01b5 00       		.byte	0
 2287 01b6 00       		.byte	0
 2288 01b7 08       		.uleb128 0x8
 2289 01b8 52050000 		.4byte	.LASF39
 2290 01bc 04       		.byte	0x4
 2291 01bd EE       		.byte	0xee
 2292 01be 1A010000 		.4byte	0x11a
 2293 01c2 0D       		.uleb128 0xd
ARM GAS  C:\Users\zack.li\AppData\Local\Temp\ccH890rU.s 			page 78


 2294 01c3 0A       		.byte	0xa
 2295 01c4 04       		.byte	0x4
 2296 01c5 AA01     		.2byte	0x1aa
 2297 01c7 1A020000 		.4byte	0x21a
 2298 01cb 0E       		.uleb128 0xe
 2299 01cc 72617700 		.ascii	"raw\000"
 2300 01d0 04       		.byte	0x4
 2301 01d1 AF01     		.2byte	0x1af
 2302 01d3 1A020000 		.4byte	0x21a
 2303 01d7 00       		.byte	0
 2304 01d8 0F       		.uleb128 0xf
 2305 01d9 40080000 		.4byte	.LASF40
 2306 01dd 04       		.byte	0x4
 2307 01de B401     		.2byte	0x1b4
 2308 01e0 1A020000 		.4byte	0x21a
 2309 01e4 02       		.byte	0x2
 2310 01e5 0F       		.uleb128 0xf
 2311 01e6 C7070000 		.4byte	.LASF41
 2312 01ea 04       		.byte	0x4
 2313 01eb BA01     		.2byte	0x1ba
 2314 01ed A7010000 		.4byte	0x1a7
 2315 01f1 04       		.byte	0x4
 2316 01f2 0F       		.uleb128 0xf
 2317 01f3 CA060000 		.4byte	.LASF42
 2318 01f7 04       		.byte	0x4
 2319 01f8 BF01     		.2byte	0x1bf
 2320 01fa C0000000 		.4byte	0xc0
 2321 01fe 06       		.byte	0x6
 2322 01ff 0F       		.uleb128 0xf
 2323 0200 94080000 		.4byte	.LASF43
 2324 0204 04       		.byte	0x4
 2325 0205 C401     		.2byte	0x1c4
 2326 0207 2A020000 		.4byte	0x22a
 2327 020b 08       		.byte	0x8
 2328 020c 0F       		.uleb128 0xf
 2329 020d 86040000 		.4byte	.LASF44
 2330 0211 04       		.byte	0x4
 2331 0212 C901     		.2byte	0x1c9
 2332 0214 A7010000 		.4byte	0x1a7
 2333 0218 09       		.byte	0x9
 2334 0219 00       		.byte	0
 2335 021a 0B       		.uleb128 0xb
 2336 021b 77000000 		.4byte	0x77
 2337 021f 2A020000 		.4byte	0x22a
 2338 0223 0C       		.uleb128 0xc
 2339 0224 B7000000 		.4byte	0xb7
 2340 0228 00       		.byte	0
 2341 0229 00       		.byte	0
 2342 022a 0B       		.uleb128 0xb
 2343 022b CC000000 		.4byte	0xcc
 2344 022f 3A020000 		.4byte	0x23a
 2345 0233 0C       		.uleb128 0xc
 2346 0234 B7000000 		.4byte	0xb7
 2347 0238 00       		.byte	0
 2348 0239 00       		.byte	0
 2349 023a 04       		.uleb128 0x4
 2350 023b 91030000 		.4byte	.LASF45
ARM GAS  C:\Users\zack.li\AppData\Local\Temp\ccH890rU.s 			page 79


 2351 023f 04       		.byte	0x4
 2352 0240 CA01     		.2byte	0x1ca
 2353 0242 C2010000 		.4byte	0x1c2
 2354 0246 0D       		.uleb128 0xd
 2355 0247 1C       		.byte	0x1c
 2356 0248 04       		.byte	0x4
 2357 0249 CE02     		.2byte	0x2ce
 2358 024b C5020000 		.4byte	0x2c5
 2359 024f 0F       		.uleb128 0xf
 2360 0250 7A080000 		.4byte	.LASF46
 2361 0254 04       		.byte	0x4
 2362 0255 D702     		.2byte	0x2d7
 2363 0257 C5020000 		.4byte	0x2c5
 2364 025b 00       		.byte	0
 2365 025c 0F       		.uleb128 0xf
 2366 025d F3070000 		.4byte	.LASF47
 2367 0261 04       		.byte	0x4
 2368 0262 DE02     		.2byte	0x2de
 2369 0264 BE000000 		.4byte	0xbe
 2370 0268 04       		.byte	0x4
 2371 0269 0F       		.uleb128 0xf
 2372 026a 1A060000 		.4byte	.LASF48
 2373 026e 04       		.byte	0x4
 2374 026f E402     		.2byte	0x2e4
 2375 0271 CC020000 		.4byte	0x2cc
 2376 0275 08       		.byte	0x8
 2377 0276 0F       		.uleb128 0xf
 2378 0277 A2050000 		.4byte	.LASF49
 2379 027b 04       		.byte	0x4
 2380 027c EA02     		.2byte	0x2ea
 2381 027e BE000000 		.4byte	0xbe
 2382 0282 0C       		.byte	0xc
 2383 0283 0F       		.uleb128 0xf
 2384 0284 AE070000 		.4byte	.LASF50
 2385 0288 04       		.byte	0x4
 2386 0289 F102     		.2byte	0x2f1
 2387 028b D2020000 		.4byte	0x2d2
 2388 028f 10       		.byte	0x10
 2389 0290 0F       		.uleb128 0xf
 2390 0291 E6070000 		.4byte	.LASF51
 2391 0295 04       		.byte	0x4
 2392 0296 F602     		.2byte	0x2f6
 2393 0298 83000000 		.4byte	0x83
 2394 029c 14       		.byte	0x14
 2395 029d 0F       		.uleb128 0xf
 2396 029e 19040000 		.4byte	.LASF52
 2397 02a2 04       		.byte	0x4
 2398 02a3 FD02     		.2byte	0x2fd
 2399 02a5 77000000 		.4byte	0x77
 2400 02a9 18       		.byte	0x18
 2401 02aa 0F       		.uleb128 0xf
 2402 02ab 1B030000 		.4byte	.LASF53
 2403 02af 04       		.byte	0x4
 2404 02b0 0403     		.2byte	0x304
 2405 02b2 6B000000 		.4byte	0x6b
 2406 02b6 1A       		.byte	0x1a
 2407 02b7 0F       		.uleb128 0xf
ARM GAS  C:\Users\zack.li\AppData\Local\Temp\ccH890rU.s 			page 80


 2408 02b8 AC040000 		.4byte	.LASF54
 2409 02bc 04       		.byte	0x4
 2410 02bd 0E03     		.2byte	0x30e
 2411 02bf 6B000000 		.4byte	0x6b
 2412 02c3 1B       		.byte	0x1b
 2413 02c4 00       		.byte	0
 2414 02c5 10       		.uleb128 0x10
 2415 02c6 04       		.byte	0x4
 2416 02c7 CB020000 		.4byte	0x2cb
 2417 02cb 11       		.uleb128 0x11
 2418 02cc 10       		.uleb128 0x10
 2419 02cd 04       		.byte	0x4
 2420 02ce 3A020000 		.4byte	0x23a
 2421 02d2 10       		.uleb128 0x10
 2422 02d3 04       		.byte	0x4
 2423 02d4 6B000000 		.4byte	0x6b
 2424 02d8 04       		.uleb128 0x4
 2425 02d9 F5030000 		.4byte	.LASF55
 2426 02dd 04       		.byte	0x4
 2427 02de 0F03     		.2byte	0x30f
 2428 02e0 46020000 		.4byte	0x246
 2429 02e4 0D       		.uleb128 0xd
 2430 02e5 A8       		.byte	0xa8
 2431 02e6 04       		.byte	0x4
 2432 02e7 1503     		.2byte	0x315
 2433 02e9 FB020000 		.4byte	0x2fb
 2434 02ed 0F       		.uleb128 0xf
 2435 02ee 21090000 		.4byte	.LASF56
 2436 02f2 04       		.byte	0x4
 2437 02f3 1A03     		.2byte	0x31a
 2438 02f5 FB020000 		.4byte	0x2fb
 2439 02f9 00       		.byte	0
 2440 02fa 00       		.byte	0
 2441 02fb 0B       		.uleb128 0xb
 2442 02fc D8020000 		.4byte	0x2d8
 2443 0300 0B030000 		.4byte	0x30b
 2444 0304 0C       		.uleb128 0xc
 2445 0305 B7000000 		.4byte	0xb7
 2446 0309 05       		.byte	0x5
 2447 030a 00       		.byte	0
 2448 030b 04       		.uleb128 0x4
 2449 030c D9040000 		.4byte	.LASF57
 2450 0310 04       		.byte	0x4
 2451 0311 1B03     		.2byte	0x31b
 2452 0313 E4020000 		.4byte	0x2e4
 2453 0317 0D       		.uleb128 0xd
 2454 0318 0C       		.byte	0xc
 2455 0319 04       		.byte	0x4
 2456 031a 7903     		.2byte	0x379
 2457 031c 48030000 		.4byte	0x348
 2458 0320 0F       		.uleb128 0xf
 2459 0321 17080000 		.4byte	.LASF58
 2460 0325 04       		.byte	0x4
 2461 0326 7E03     		.2byte	0x37e
 2462 0328 77000000 		.4byte	0x77
 2463 032c 00       		.byte	0
 2464 032d 0F       		.uleb128 0xf
ARM GAS  C:\Users\zack.li\AppData\Local\Temp\ccH890rU.s 			page 81


 2465 032e F1050000 		.4byte	.LASF59
 2466 0332 04       		.byte	0x4
 2467 0333 8403     		.2byte	0x384
 2468 0335 48030000 		.4byte	0x348
 2469 0339 02       		.byte	0x2
 2470 033a 0F       		.uleb128 0xf
 2471 033b 2D060000 		.4byte	.LASF60
 2472 033f 04       		.byte	0x4
 2473 0340 8903     		.2byte	0x389
 2474 0342 58030000 		.4byte	0x358
 2475 0346 06       		.byte	0x6
 2476 0347 00       		.byte	0
 2477 0348 0B       		.uleb128 0xb
 2478 0349 77000000 		.4byte	0x77
 2479 034d 58030000 		.4byte	0x358
 2480 0351 0C       		.uleb128 0xc
 2481 0352 B7000000 		.4byte	0xb7
 2482 0356 01       		.byte	0x1
 2483 0357 00       		.byte	0
 2484 0358 0B       		.uleb128 0xb
 2485 0359 77000000 		.4byte	0x77
 2486 035d 68030000 		.4byte	0x368
 2487 0361 0C       		.uleb128 0xc
 2488 0362 B7000000 		.4byte	0xb7
 2489 0366 02       		.byte	0x2
 2490 0367 00       		.byte	0
 2491 0368 04       		.uleb128 0x4
 2492 0369 0F070000 		.4byte	.LASF61
 2493 036d 04       		.byte	0x4
 2494 036e 8A03     		.2byte	0x38a
 2495 0370 17030000 		.4byte	0x317
 2496 0374 0D       		.uleb128 0xd
 2497 0375 0C       		.byte	0xc
 2498 0376 04       		.byte	0x4
 2499 0377 8F03     		.2byte	0x38f
 2500 0379 A5030000 		.4byte	0x3a5
 2501 037d 0F       		.uleb128 0xf
 2502 037e 17080000 		.4byte	.LASF58
 2503 0382 04       		.byte	0x4
 2504 0383 9403     		.2byte	0x394
 2505 0385 77000000 		.4byte	0x77
 2506 0389 00       		.byte	0
 2507 038a 0F       		.uleb128 0xf
 2508 038b F1050000 		.4byte	.LASF59
 2509 038f 04       		.byte	0x4
 2510 0390 9903     		.2byte	0x399
 2511 0392 48030000 		.4byte	0x348
 2512 0396 02       		.byte	0x2
 2513 0397 0F       		.uleb128 0xf
 2514 0398 2D060000 		.4byte	.LASF60
 2515 039c 04       		.byte	0x4
 2516 039d 9E03     		.2byte	0x39e
 2517 039f 58030000 		.4byte	0x358
 2518 03a3 06       		.byte	0x6
 2519 03a4 00       		.byte	0
 2520 03a5 04       		.uleb128 0x4
 2521 03a6 41070000 		.4byte	.LASF62
ARM GAS  C:\Users\zack.li\AppData\Local\Temp\ccH890rU.s 			page 82


 2522 03aa 04       		.byte	0x4
 2523 03ab 9F03     		.2byte	0x39f
 2524 03ad 74030000 		.4byte	0x374
 2525 03b1 0D       		.uleb128 0xd
 2526 03b2 0C       		.byte	0xc
 2527 03b3 04       		.byte	0x4
 2528 03b4 A403     		.2byte	0x3a4
 2529 03b6 C8030000 		.4byte	0x3c8
 2530 03ba 0F       		.uleb128 0xf
 2531 03bb 82030000 		.4byte	.LASF63
 2532 03bf 04       		.byte	0x4
 2533 03c0 A903     		.2byte	0x3a9
 2534 03c2 C8030000 		.4byte	0x3c8
 2535 03c6 00       		.byte	0
 2536 03c7 00       		.byte	0
 2537 03c8 0B       		.uleb128 0xb
 2538 03c9 68030000 		.4byte	0x368
 2539 03cd D8030000 		.4byte	0x3d8
 2540 03d1 0C       		.uleb128 0xc
 2541 03d2 B7000000 		.4byte	0xb7
 2542 03d6 00       		.byte	0
 2543 03d7 00       		.byte	0
 2544 03d8 04       		.uleb128 0x4
 2545 03d9 90060000 		.4byte	.LASF64
 2546 03dd 04       		.byte	0x4
 2547 03de AA03     		.2byte	0x3aa
 2548 03e0 B1030000 		.4byte	0x3b1
 2549 03e4 0D       		.uleb128 0xd
 2550 03e5 0C       		.byte	0xc
 2551 03e6 04       		.byte	0x4
 2552 03e7 AF03     		.2byte	0x3af
 2553 03e9 FB030000 		.4byte	0x3fb
 2554 03ed 0F       		.uleb128 0xf
 2555 03ee 80020000 		.4byte	.LASF65
 2556 03f2 04       		.byte	0x4
 2557 03f3 B403     		.2byte	0x3b4
 2558 03f5 FB030000 		.4byte	0x3fb
 2559 03f9 00       		.byte	0
 2560 03fa 00       		.byte	0
 2561 03fb 0B       		.uleb128 0xb
 2562 03fc A5030000 		.4byte	0x3a5
 2563 0400 0B040000 		.4byte	0x40b
 2564 0404 0C       		.uleb128 0xc
 2565 0405 B7000000 		.4byte	0xb7
 2566 0409 00       		.byte	0
 2567 040a 00       		.byte	0
 2568 040b 04       		.uleb128 0x4
 2569 040c B4040000 		.4byte	.LASF66
 2570 0410 04       		.byte	0x4
 2571 0411 B503     		.2byte	0x3b5
 2572 0413 E4030000 		.4byte	0x3e4
 2573 0417 12       		.uleb128 0x12
 2574 0418 04       		.byte	0x4
 2575 0419 04       		.byte	0x4
 2576 041a BB03     		.2byte	0x3bb
 2577 041c 45040000 		.4byte	0x445
 2578 0420 13       		.uleb128 0x13
ARM GAS  C:\Users\zack.li\AppData\Local\Temp\ccH890rU.s 			page 83


 2579 0421 70747200 		.ascii	"ptr\000"
 2580 0425 04       		.byte	0x4
 2581 0426 C003     		.2byte	0x3c0
 2582 0428 BE000000 		.4byte	0xbe
 2583 042c 14       		.uleb128 0x14
 2584 042d DF020000 		.4byte	.LASF67
 2585 0431 04       		.byte	0x4
 2586 0432 C503     		.2byte	0x3c5
 2587 0434 45040000 		.4byte	0x445
 2588 0438 14       		.uleb128 0x14
 2589 0439 A4020000 		.4byte	.LASF68
 2590 043d 04       		.byte	0x4
 2591 043e CA03     		.2byte	0x3ca
 2592 0440 4B040000 		.4byte	0x44b
 2593 0444 00       		.byte	0
 2594 0445 10       		.uleb128 0x10
 2595 0446 04       		.byte	0x4
 2596 0447 D8030000 		.4byte	0x3d8
 2597 044b 10       		.uleb128 0x10
 2598 044c 04       		.byte	0x4
 2599 044d 0B040000 		.4byte	0x40b
 2600 0451 04       		.uleb128 0x4
 2601 0452 66030000 		.4byte	.LASF69
 2602 0456 04       		.byte	0x4
 2603 0457 CB03     		.2byte	0x3cb
 2604 0459 17040000 		.4byte	0x417
 2605 045d 15       		.uleb128 0x15
 2606 045e 69000000 		.4byte	.LASF73
 2607 0462 01       		.byte	0x1
 2608 0463 3602     		.2byte	0x236
 2609 0465 00000000 		.4byte	.LFB10
 2610 0469 26000000 		.4byte	.LFE10-.LFB10
 2611 046d 01       		.uleb128 0x1
 2612 046e 9C       		.byte	0x9c
 2613 046f A2040000 		.4byte	0x4a2
 2614 0473 16       		.uleb128 0x16
 2615 0474 4F040000 		.4byte	.LASF70
 2616 0478 01       		.byte	0x1
 2617 0479 3602     		.2byte	0x236
 2618 047b CC020000 		.4byte	0x2cc
 2619 047f 01       		.uleb128 0x1
 2620 0480 50       		.byte	0x50
 2621 0481 17       		.uleb128 0x17
 2622 0482 B3080000 		.4byte	.LASF71
 2623 0486 01       		.byte	0x1
 2624 0487 3602     		.2byte	0x236
 2625 0489 83000000 		.4byte	0x83
 2626 048d 00000000 		.4byte	.LLST0
 2627 0491 17       		.uleb128 0x17
 2628 0492 25060000 		.4byte	.LASF72
 2629 0496 01       		.byte	0x1
 2630 0497 3602     		.2byte	0x236
 2631 0499 83000000 		.4byte	0x83
 2632 049d 21000000 		.4byte	.LLST1
 2633 04a1 00       		.byte	0
 2634 04a2 15       		.uleb128 0x15
 2635 04a3 FD020000 		.4byte	.LASF74
ARM GAS  C:\Users\zack.li\AppData\Local\Temp\ccH890rU.s 			page 84


 2636 04a7 01       		.byte	0x1
 2637 04a8 1402     		.2byte	0x214
 2638 04aa 00000000 		.4byte	.LFB9
 2639 04ae 1E000000 		.4byte	.LFE9-.LFB9
 2640 04b2 01       		.uleb128 0x1
 2641 04b3 9C       		.byte	0x9c
 2642 04b4 05050000 		.4byte	0x505
 2643 04b8 17       		.uleb128 0x17
 2644 04b9 4F040000 		.4byte	.LASF70
 2645 04bd 01       		.byte	0x1
 2646 04be 1402     		.2byte	0x214
 2647 04c0 CC020000 		.4byte	0x2cc
 2648 04c4 42000000 		.4byte	.LLST2
 2649 04c8 17       		.uleb128 0x17
 2650 04c9 B3080000 		.4byte	.LASF71
 2651 04cd 01       		.byte	0x1
 2652 04ce 1402     		.2byte	0x214
 2653 04d0 83000000 		.4byte	0x83
 2654 04d4 6E000000 		.4byte	.LLST3
 2655 04d8 18       		.uleb128 0x18
 2656 04d9 84050000 		.4byte	.LASF78
 2657 04dd 01       		.byte	0x1
 2658 04de 1602     		.2byte	0x216
 2659 04e0 83000000 		.4byte	0x83
 2660 04e4 9A000000 		.4byte	.LLST4
 2661 04e8 19       		.uleb128 0x19
 2662 04e9 14000000 		.4byte	.LVL6
 2663 04ed 5D040000 		.4byte	0x45d
 2664 04f1 1A       		.uleb128 0x1a
 2665 04f2 01       		.uleb128 0x1
 2666 04f3 50       		.byte	0x50
 2667 04f4 02       		.uleb128 0x2
 2668 04f5 76       		.byte	0x76
 2669 04f6 00       		.sleb128 0
 2670 04f7 1A       		.uleb128 0x1a
 2671 04f8 01       		.uleb128 0x1
 2672 04f9 51       		.byte	0x51
 2673 04fa 02       		.uleb128 0x2
 2674 04fb 75       		.byte	0x75
 2675 04fc 00       		.sleb128 0
 2676 04fd 1A       		.uleb128 0x1a
 2677 04fe 01       		.uleb128 0x1
 2678 04ff 52       		.byte	0x52
 2679 0500 02       		.uleb128 0x2
 2680 0501 74       		.byte	0x74
 2681 0502 00       		.sleb128 0
 2682 0503 00       		.byte	0
 2683 0504 00       		.byte	0
 2684 0505 15       		.uleb128 0x15
 2685 0506 E2000000 		.4byte	.LASF75
 2686 050a 01       		.byte	0x1
 2687 050b F301     		.2byte	0x1f3
 2688 050d 00000000 		.4byte	.LFB8
 2689 0511 2C000000 		.4byte	.LFE8-.LFB8
 2690 0515 01       		.uleb128 0x1
 2691 0516 9C       		.byte	0x9c
 2692 0517 8D050000 		.4byte	0x58d
ARM GAS  C:\Users\zack.li\AppData\Local\Temp\ccH890rU.s 			page 85


 2693 051b 17       		.uleb128 0x17
 2694 051c BA080000 		.4byte	.LASF76
 2695 0520 01       		.byte	0x1
 2696 0521 F301     		.2byte	0x1f3
 2697 0523 83000000 		.4byte	0x83
 2698 0527 DC000000 		.4byte	.LLST5
 2699 052b 17       		.uleb128 0x17
 2700 052c 6C010000 		.4byte	.LASF77
 2701 0530 01       		.byte	0x1
 2702 0531 F301     		.2byte	0x1f3
 2703 0533 83000000 		.4byte	0x83
 2704 0537 FD000000 		.4byte	.LLST6
 2705 053b 18       		.uleb128 0x18
 2706 053c 4F040000 		.4byte	.LASF70
 2707 0540 01       		.byte	0x1
 2708 0541 F501     		.2byte	0x1f5
 2709 0543 CC020000 		.4byte	0x2cc
 2710 0547 1E010000 		.4byte	.LLST7
 2711 054b 1B       		.uleb128 0x1b
 2712 054c F0060000 		.4byte	.LASF81
 2713 0550 01       		.byte	0x1
 2714 0551 F601     		.2byte	0x1f6
 2715 0553 8D050000 		.4byte	0x58d
 2716 0557 19       		.uleb128 0x19
 2717 0558 24000000 		.4byte	.LVL18
 2718 055c A2040000 		.4byte	0x4a2
 2719 0560 1A       		.uleb128 0x1a
 2720 0561 01       		.uleb128 0x1
 2721 0562 50       		.byte	0x50
 2722 0563 0E       		.uleb128 0xe
 2723 0564 F3       		.byte	0xf3
 2724 0565 01       		.uleb128 0x1
 2725 0566 51       		.byte	0x51
 2726 0567 32       		.byte	0x32
 2727 0568 24       		.byte	0x24
 2728 0569 F3       		.byte	0xf3
 2729 056a 01       		.uleb128 0x1
 2730 056b 51       		.byte	0x51
 2731 056c 22       		.byte	0x22
 2732 056d 31       		.byte	0x31
 2733 056e 24       		.byte	0x24
 2734 056f 75       		.byte	0x75
 2735 0570 00       		.sleb128 0
 2736 0571 22       		.byte	0x22
 2737 0572 1A       		.uleb128 0x1a
 2738 0573 01       		.uleb128 0x1
 2739 0574 51       		.byte	0x51
 2740 0575 15       		.uleb128 0x15
 2741 0576 F3       		.byte	0xf3
 2742 0577 01       		.uleb128 0x1
 2743 0578 50       		.byte	0x50
 2744 0579 33       		.byte	0x33
 2745 057a 24       		.byte	0x24
 2746 057b F3       		.byte	0xf3
 2747 057c 01       		.uleb128 0x1
 2748 057d 50       		.byte	0x50
 2749 057e 1C       		.byte	0x1c
ARM GAS  C:\Users\zack.li\AppData\Local\Temp\ccH890rU.s 			page 86


 2750 057f 32       		.byte	0x32
 2751 0580 24       		.byte	0x24
 2752 0581 74       		.byte	0x74
 2753 0582 00       		.sleb128 0
 2754 0583 22       		.byte	0x22
 2755 0584 23       		.byte	0x23
 2756 0585 1A       		.uleb128 0x1a
 2757 0586 94       		.byte	0x94
 2758 0587 01       		.byte	0x1
 2759 0588 08       		.byte	0x8
 2760 0589 FF       		.byte	0xff
 2761 058a 1A       		.byte	0x1a
 2762 058b 00       		.byte	0
 2763 058c 00       		.byte	0
 2764 058d 10       		.uleb128 0x10
 2765 058e 04       		.byte	0x4
 2766 058f 93050000 		.4byte	0x593
 2767 0593 1C       		.uleb128 0x1c
 2768 0594 D8020000 		.4byte	0x2d8
 2769 0598 15       		.uleb128 0x15
 2770 0599 45080000 		.4byte	.LASF79
 2771 059d 01       		.byte	0x1
 2772 059e C701     		.2byte	0x1c7
 2773 05a0 00000000 		.4byte	.LFB7
 2774 05a4 28000000 		.4byte	.LFE7-.LFB7
 2775 05a8 01       		.uleb128 0x1
 2776 05a9 9C       		.byte	0x9c
 2777 05aa 01060000 		.4byte	0x601
 2778 05ae 17       		.uleb128 0x17
 2779 05af BA080000 		.4byte	.LASF76
 2780 05b3 01       		.byte	0x1
 2781 05b4 C701     		.2byte	0x1c7
 2782 05b6 83000000 		.4byte	0x83
 2783 05ba 61010000 		.4byte	.LLST8
 2784 05be 18       		.uleb128 0x18
 2785 05bf 6C010000 		.4byte	.LASF77
 2786 05c3 01       		.byte	0x1
 2787 05c4 C901     		.2byte	0x1c9
 2788 05c6 83000000 		.4byte	0x83
 2789 05ca 8D010000 		.4byte	.LLST9
 2790 05ce 18       		.uleb128 0x18
 2791 05cf 5B000000 		.4byte	.LASF80
 2792 05d3 01       		.byte	0x1
 2793 05d4 CA01     		.2byte	0x1ca
 2794 05d6 83000000 		.4byte	0x83
 2795 05da CE010000 		.4byte	.LLST10
 2796 05de 1B       		.uleb128 0x1b
 2797 05df F0060000 		.4byte	.LASF81
 2798 05e3 01       		.byte	0x1
 2799 05e4 CC01     		.2byte	0x1cc
 2800 05e6 8D050000 		.4byte	0x58d
 2801 05ea 19       		.uleb128 0x19
 2802 05eb 1A000000 		.4byte	.LVL24
 2803 05ef 05050000 		.4byte	0x505
 2804 05f3 1A       		.uleb128 0x1a
 2805 05f4 01       		.uleb128 0x1
 2806 05f5 50       		.byte	0x50
ARM GAS  C:\Users\zack.li\AppData\Local\Temp\ccH890rU.s 			page 87


 2807 05f6 02       		.uleb128 0x2
 2808 05f7 75       		.byte	0x75
 2809 05f8 00       		.sleb128 0
 2810 05f9 1A       		.uleb128 0x1a
 2811 05fa 01       		.uleb128 0x1
 2812 05fb 51       		.byte	0x51
 2813 05fc 02       		.uleb128 0x2
 2814 05fd 74       		.byte	0x74
 2815 05fe 00       		.sleb128 0
 2816 05ff 00       		.byte	0
 2817 0600 00       		.byte	0
 2818 0601 15       		.uleb128 0x15
 2819 0602 AE030000 		.4byte	.LASF82
 2820 0606 01       		.byte	0x1
 2821 0607 A301     		.2byte	0x1a3
 2822 0609 00000000 		.4byte	.LFB6
 2823 060d 16000000 		.4byte	.LFE6-.LFB6
 2824 0611 01       		.uleb128 0x1
 2825 0612 9C       		.byte	0x9c
 2826 0613 38060000 		.4byte	0x638
 2827 0617 18       		.uleb128 0x18
 2828 0618 BA080000 		.4byte	.LASF76
 2829 061c 01       		.byte	0x1
 2830 061d A501     		.2byte	0x1a5
 2831 061f 83000000 		.4byte	0x83
 2832 0623 E1010000 		.4byte	.LLST11
 2833 0627 19       		.uleb128 0x19
 2834 0628 0C000000 		.4byte	.LVL31
 2835 062c 98050000 		.4byte	0x598
 2836 0630 1A       		.uleb128 0x1a
 2837 0631 01       		.uleb128 0x1
 2838 0632 50       		.byte	0x50
 2839 0633 02       		.uleb128 0x2
 2840 0634 74       		.byte	0x74
 2841 0635 00       		.sleb128 0
 2842 0636 00       		.byte	0
 2843 0637 00       		.byte	0
 2844 0638 15       		.uleb128 0x15
 2845 0639 04010000 		.4byte	.LASF83
 2846 063d 01       		.byte	0x1
 2847 063e 5203     		.2byte	0x352
 2848 0640 00000000 		.4byte	.LFB15
 2849 0644 2E000000 		.4byte	.LFE15-.LFB15
 2850 0648 01       		.uleb128 0x1
 2851 0649 9C       		.byte	0x9c
 2852 064a 89060000 		.4byte	0x689
 2853 064e 16       		.uleb128 0x16
 2854 064f A2080000 		.4byte	.LASF84
 2855 0653 01       		.byte	0x1
 2856 0654 5203     		.2byte	0x352
 2857 0656 51040000 		.4byte	0x451
 2858 065a 01       		.uleb128 0x1
 2859 065b 50       		.byte	0x50
 2860 065c 16       		.uleb128 0x16
 2861 065d 34070000 		.4byte	.LASF85
 2862 0661 01       		.byte	0x1
 2863 0662 5303     		.2byte	0x353
ARM GAS  C:\Users\zack.li\AppData\Local\Temp\ccH890rU.s 			page 88


 2864 0664 CC020000 		.4byte	0x2cc
 2865 0668 01       		.uleb128 0x1
 2866 0669 51       		.byte	0x51
 2867 066a 16       		.uleb128 0x16
 2868 066b B3080000 		.4byte	.LASF71
 2869 066f 01       		.byte	0x1
 2870 0670 5303     		.2byte	0x353
 2871 0672 83000000 		.4byte	0x83
 2872 0676 01       		.uleb128 0x1
 2873 0677 52       		.byte	0x52
 2874 0678 18       		.uleb128 0x18
 2875 0679 84050000 		.4byte	.LASF78
 2876 067d 01       		.byte	0x1
 2877 067e 5503     		.2byte	0x355
 2878 0680 83000000 		.4byte	0x83
 2879 0684 23020000 		.4byte	.LLST12
 2880 0688 00       		.byte	0
 2881 0689 15       		.uleb128 0x15
 2882 068a 55010000 		.4byte	.LASF86
 2883 068e 01       		.byte	0x1
 2884 068f F002     		.2byte	0x2f0
 2885 0691 00000000 		.4byte	.LFB13
 2886 0695 44000000 		.4byte	.LFE13-.LFB13
 2887 0699 01       		.uleb128 0x1
 2888 069a 9C       		.byte	0x9c
 2889 069b F1060000 		.4byte	0x6f1
 2890 069f 17       		.uleb128 0x17
 2891 06a0 BA080000 		.4byte	.LASF76
 2892 06a4 01       		.byte	0x1
 2893 06a5 F002     		.2byte	0x2f0
 2894 06a7 83000000 		.4byte	0x83
 2895 06ab 65020000 		.4byte	.LLST13
 2896 06af 17       		.uleb128 0x17
 2897 06b0 6C010000 		.4byte	.LASF77
 2898 06b4 01       		.byte	0x1
 2899 06b5 F002     		.2byte	0x2f0
 2900 06b7 83000000 		.4byte	0x83
 2901 06bb 9F020000 		.4byte	.LLST14
 2902 06bf 1B       		.uleb128 0x1b
 2903 06c0 F0060000 		.4byte	.LASF81
 2904 06c4 01       		.byte	0x1
 2905 06c5 F202     		.2byte	0x2f2
 2906 06c7 8D050000 		.4byte	0x58d
 2907 06cb 18       		.uleb128 0x18
 2908 06cc 4F040000 		.4byte	.LASF70
 2909 06d0 01       		.byte	0x1
 2910 06d1 F302     		.2byte	0x2f3
 2911 06d3 CC020000 		.4byte	0x2cc
 2912 06d7 E4020000 		.4byte	.LLST15
 2913 06db 1B       		.uleb128 0x1b
 2914 06dc A2080000 		.4byte	.LASF84
 2915 06e0 01       		.byte	0x1
 2916 06e1 F402     		.2byte	0x2f4
 2917 06e3 51040000 		.4byte	0x451
 2918 06e7 1D       		.uleb128 0x1d
 2919 06e8 3E000000 		.4byte	.LVL52
 2920 06ec 38060000 		.4byte	0x638
ARM GAS  C:\Users\zack.li\AppData\Local\Temp\ccH890rU.s 			page 89


 2921 06f0 00       		.byte	0
 2922 06f1 15       		.uleb128 0x15
 2923 06f2 26000000 		.4byte	.LASF87
 2924 06f6 01       		.byte	0x1
 2925 06f7 3804     		.2byte	0x438
 2926 06f9 00000000 		.4byte	.LFB19
 2927 06fd 3A000000 		.4byte	.LFE19-.LFB19
 2928 0701 01       		.uleb128 0x1
 2929 0702 9C       		.byte	0x9c
 2930 0703 42070000 		.4byte	0x742
 2931 0707 16       		.uleb128 0x16
 2932 0708 A2080000 		.4byte	.LASF84
 2933 070c 01       		.byte	0x1
 2934 070d 3804     		.2byte	0x438
 2935 070f 51040000 		.4byte	0x451
 2936 0713 01       		.uleb128 0x1
 2937 0714 50       		.byte	0x50
 2938 0715 16       		.uleb128 0x16
 2939 0716 34070000 		.4byte	.LASF85
 2940 071a 01       		.byte	0x1
 2941 071b 3904     		.2byte	0x439
 2942 071d CC020000 		.4byte	0x2cc
 2943 0721 01       		.uleb128 0x1
 2944 0722 51       		.byte	0x51
 2945 0723 16       		.uleb128 0x16
 2946 0724 B3080000 		.4byte	.LASF71
 2947 0728 01       		.byte	0x1
 2948 0729 3904     		.2byte	0x439
 2949 072b 83000000 		.4byte	0x83
 2950 072f 01       		.uleb128 0x1
 2951 0730 52       		.byte	0x52
 2952 0731 18       		.uleb128 0x18
 2953 0732 84050000 		.4byte	.LASF78
 2954 0736 01       		.byte	0x1
 2955 0737 3B04     		.2byte	0x43b
 2956 0739 83000000 		.4byte	0x83
 2957 073d 51030000 		.4byte	.LLST16
 2958 0741 00       		.byte	0
 2959 0742 15       		.uleb128 0x15
 2960 0743 EC080000 		.4byte	.LASF88
 2961 0747 01       		.byte	0x1
 2962 0748 D503     		.2byte	0x3d5
 2963 074a 00000000 		.4byte	.LFB17
 2964 074e 44000000 		.4byte	.LFE17-.LFB17
 2965 0752 01       		.uleb128 0x1
 2966 0753 9C       		.byte	0x9c
 2967 0754 AA070000 		.4byte	0x7aa
 2968 0758 17       		.uleb128 0x17
 2969 0759 BA080000 		.4byte	.LASF76
 2970 075d 01       		.byte	0x1
 2971 075e D503     		.2byte	0x3d5
 2972 0760 83000000 		.4byte	0x83
 2973 0764 93030000 		.4byte	.LLST17
 2974 0768 17       		.uleb128 0x17
 2975 0769 6C010000 		.4byte	.LASF77
 2976 076d 01       		.byte	0x1
 2977 076e D503     		.2byte	0x3d5
ARM GAS  C:\Users\zack.li\AppData\Local\Temp\ccH890rU.s 			page 90


 2978 0770 83000000 		.4byte	0x83
 2979 0774 CD030000 		.4byte	.LLST18
 2980 0778 1B       		.uleb128 0x1b
 2981 0779 F0060000 		.4byte	.LASF81
 2982 077d 01       		.byte	0x1
 2983 077e D703     		.2byte	0x3d7
 2984 0780 8D050000 		.4byte	0x58d
 2985 0784 18       		.uleb128 0x18
 2986 0785 4F040000 		.4byte	.LASF70
 2987 0789 01       		.byte	0x1
 2988 078a D803     		.2byte	0x3d8
 2989 078c CC020000 		.4byte	0x2cc
 2990 0790 12040000 		.4byte	.LLST19
 2991 0794 1B       		.uleb128 0x1b
 2992 0795 A2080000 		.4byte	.LASF84
 2993 0799 01       		.byte	0x1
 2994 079a D903     		.2byte	0x3d9
 2995 079c 51040000 		.4byte	0x451
 2996 07a0 1D       		.uleb128 0x1d
 2997 07a1 3E000000 		.4byte	.LVL72
 2998 07a5 F1060000 		.4byte	0x6f1
 2999 07a9 00       		.byte	0
 3000 07aa 15       		.uleb128 0x15
 3001 07ab B2050000 		.4byte	.LASF89
 3002 07af 01       		.byte	0x1
 3003 07b0 0405     		.2byte	0x504
 3004 07b2 00000000 		.4byte	.LFB23
 3005 07b6 42000000 		.4byte	.LFE23-.LFB23
 3006 07ba 01       		.uleb128 0x1
 3007 07bb 9C       		.byte	0x9c
 3008 07bc FB070000 		.4byte	0x7fb
 3009 07c0 16       		.uleb128 0x16
 3010 07c1 A2080000 		.4byte	.LASF84
 3011 07c5 01       		.byte	0x1
 3012 07c6 0405     		.2byte	0x504
 3013 07c8 51040000 		.4byte	0x451
 3014 07cc 01       		.uleb128 0x1
 3015 07cd 50       		.byte	0x50
 3016 07ce 16       		.uleb128 0x16
 3017 07cf 34070000 		.4byte	.LASF85
 3018 07d3 01       		.byte	0x1
 3019 07d4 0505     		.2byte	0x505
 3020 07d6 CC020000 		.4byte	0x2cc
 3021 07da 01       		.uleb128 0x1
 3022 07db 51       		.byte	0x51
 3023 07dc 16       		.uleb128 0x16
 3024 07dd B3080000 		.4byte	.LASF71
 3025 07e1 01       		.byte	0x1
 3026 07e2 0505     		.2byte	0x505
 3027 07e4 83000000 		.4byte	0x83
 3028 07e8 01       		.uleb128 0x1
 3029 07e9 52       		.byte	0x52
 3030 07ea 18       		.uleb128 0x18
 3031 07eb 84050000 		.4byte	.LASF78
 3032 07ef 01       		.byte	0x1
 3033 07f0 0705     		.2byte	0x507
 3034 07f2 83000000 		.4byte	0x83
ARM GAS  C:\Users\zack.li\AppData\Local\Temp\ccH890rU.s 			page 91


 3035 07f6 7F040000 		.4byte	.LLST20
 3036 07fa 00       		.byte	0
 3037 07fb 15       		.uleb128 0x15
 3038 07fc C2010000 		.4byte	.LASF90
 3039 0800 01       		.byte	0x1
 3040 0801 8702     		.2byte	0x287
 3041 0803 00000000 		.4byte	.LFB12
 3042 0807 78000000 		.4byte	.LFE12-.LFB12
 3043 080b 01       		.uleb128 0x1
 3044 080c 9C       		.byte	0x9c
 3045 080d CA080000 		.4byte	0x8ca
 3046 0811 17       		.uleb128 0x17
 3047 0812 BA080000 		.4byte	.LASF76
 3048 0816 01       		.byte	0x1
 3049 0817 8702     		.2byte	0x287
 3050 0819 83000000 		.4byte	0x83
 3051 081d C1040000 		.4byte	.LLST21
 3052 0821 18       		.uleb128 0x18
 3053 0822 6C010000 		.4byte	.LASF77
 3054 0826 01       		.byte	0x1
 3055 0827 8902     		.2byte	0x289
 3056 0829 83000000 		.4byte	0x83
 3057 082d ED040000 		.4byte	.LLST22
 3058 0831 18       		.uleb128 0x18
 3059 0832 5B000000 		.4byte	.LASF80
 3060 0836 01       		.byte	0x1
 3061 0837 8A02     		.2byte	0x28a
 3062 0839 83000000 		.4byte	0x83
 3063 083d 2E050000 		.4byte	.LLST23
 3064 0841 1B       		.uleb128 0x1b
 3065 0842 F0060000 		.4byte	.LASF81
 3066 0846 01       		.byte	0x1
 3067 0847 8C02     		.2byte	0x28c
 3068 0849 8D050000 		.4byte	0x58d
 3069 084d 18       		.uleb128 0x18
 3070 084e 4F040000 		.4byte	.LASF70
 3071 0852 01       		.byte	0x1
 3072 0853 8D02     		.2byte	0x28d
 3073 0855 CC020000 		.4byte	0x2cc
 3074 0859 60050000 		.4byte	.LLST24
 3075 085d 18       		.uleb128 0x18
 3076 085e A2080000 		.4byte	.LASF84
 3077 0862 01       		.byte	0x1
 3078 0863 8F02     		.2byte	0x28f
 3079 0865 51040000 		.4byte	0x451
 3080 0869 8B050000 		.4byte	.LLST25
 3081 086d 1E       		.uleb128 0x1e
 3082 086e 52000000 		.4byte	.LVL91
 3083 0872 38060000 		.4byte	0x638
 3084 0876 8D080000 		.4byte	0x88d
 3085 087a 1A       		.uleb128 0x1a
 3086 087b 01       		.uleb128 0x1
 3087 087c 50       		.byte	0x50
 3088 087d 02       		.uleb128 0x2
 3089 087e 76       		.byte	0x76
 3090 087f 00       		.sleb128 0
 3091 0880 1A       		.uleb128 0x1a
ARM GAS  C:\Users\zack.li\AppData\Local\Temp\ccH890rU.s 			page 92


 3092 0881 01       		.uleb128 0x1
 3093 0882 51       		.byte	0x51
 3094 0883 02       		.uleb128 0x2
 3095 0884 74       		.byte	0x74
 3096 0885 00       		.sleb128 0
 3097 0886 1A       		.uleb128 0x1a
 3098 0887 01       		.uleb128 0x1
 3099 0888 52       		.byte	0x52
 3100 0889 02       		.uleb128 0x2
 3101 088a 77       		.byte	0x77
 3102 088b 00       		.sleb128 0
 3103 088c 00       		.byte	0
 3104 088d 1E       		.uleb128 0x1e
 3105 088e 5C000000 		.4byte	.LVL92
 3106 0892 F1060000 		.4byte	0x6f1
 3107 0896 AD080000 		.4byte	0x8ad
 3108 089a 1A       		.uleb128 0x1a
 3109 089b 01       		.uleb128 0x1
 3110 089c 50       		.byte	0x50
 3111 089d 02       		.uleb128 0x2
 3112 089e 76       		.byte	0x76
 3113 089f 00       		.sleb128 0
 3114 08a0 1A       		.uleb128 0x1a
 3115 08a1 01       		.uleb128 0x1
 3116 08a2 51       		.byte	0x51
 3117 08a3 02       		.uleb128 0x2
 3118 08a4 74       		.byte	0x74
 3119 08a5 00       		.sleb128 0
 3120 08a6 1A       		.uleb128 0x1a
 3121 08a7 01       		.uleb128 0x1
 3122 08a8 52       		.byte	0x52
 3123 08a9 02       		.uleb128 0x2
 3124 08aa 77       		.byte	0x77
 3125 08ab 00       		.sleb128 0
 3126 08ac 00       		.byte	0
 3127 08ad 19       		.uleb128 0x19
 3128 08ae 66000000 		.4byte	.LVL93
 3129 08b2 AA070000 		.4byte	0x7aa
 3130 08b6 1A       		.uleb128 0x1a
 3131 08b7 01       		.uleb128 0x1
 3132 08b8 50       		.byte	0x50
 3133 08b9 02       		.uleb128 0x2
 3134 08ba 76       		.byte	0x76
 3135 08bb 00       		.sleb128 0
 3136 08bc 1A       		.uleb128 0x1a
 3137 08bd 01       		.uleb128 0x1
 3138 08be 51       		.byte	0x51
 3139 08bf 02       		.uleb128 0x2
 3140 08c0 74       		.byte	0x74
 3141 08c1 00       		.sleb128 0
 3142 08c2 1A       		.uleb128 0x1a
 3143 08c3 01       		.uleb128 0x1
 3144 08c4 52       		.byte	0x52
 3145 08c5 02       		.uleb128 0x2
 3146 08c6 77       		.byte	0x77
 3147 08c7 00       		.sleb128 0
 3148 08c8 00       		.byte	0
ARM GAS  C:\Users\zack.li\AppData\Local\Temp\ccH890rU.s 			page 93


 3149 08c9 00       		.byte	0
 3150 08ca 15       		.uleb128 0x15
 3151 08cb 0D050000 		.4byte	.LASF91
 3152 08cf 01       		.byte	0x1
 3153 08d0 6902     		.2byte	0x269
 3154 08d2 00000000 		.4byte	.LFB11
 3155 08d6 16000000 		.4byte	.LFE11-.LFB11
 3156 08da 01       		.uleb128 0x1
 3157 08db 9C       		.byte	0x9c
 3158 08dc 01090000 		.4byte	0x901
 3159 08e0 18       		.uleb128 0x18
 3160 08e1 BA080000 		.4byte	.LASF76
 3161 08e5 01       		.byte	0x1
 3162 08e6 6B02     		.2byte	0x26b
 3163 08e8 83000000 		.4byte	0x83
 3164 08ec A9050000 		.4byte	.LLST26
 3165 08f0 19       		.uleb128 0x19
 3166 08f1 0C000000 		.4byte	.LVL101
 3167 08f5 FB070000 		.4byte	0x7fb
 3168 08f9 1A       		.uleb128 0x1a
 3169 08fa 01       		.uleb128 0x1
 3170 08fb 50       		.byte	0x50
 3171 08fc 02       		.uleb128 0x2
 3172 08fd 74       		.byte	0x74
 3173 08fe 00       		.sleb128 0
 3174 08ff 00       		.byte	0
 3175 0900 00       		.byte	0
 3176 0901 1F       		.uleb128 0x1f
 3177 0902 2B050000 		.4byte	.LASF92
 3178 0906 01       		.byte	0x1
 3179 0907 3E       		.byte	0x3e
 3180 0908 00000000 		.4byte	.LFB1
 3181 090c 08000000 		.4byte	.LFE1-.LFB1
 3182 0910 01       		.uleb128 0x1
 3183 0911 9C       		.byte	0x9c
 3184 0912 20090000 		.4byte	0x920
 3185 0916 1D       		.uleb128 0x1d
 3186 0917 06000000 		.4byte	.LVL105
 3187 091b CA080000 		.4byte	0x8ca
 3188 091f 00       		.byte	0
 3189 0920 15       		.uleb128 0x15
 3190 0921 23010000 		.4byte	.LASF93
 3191 0925 01       		.byte	0x1
 3192 0926 A104     		.2byte	0x4a1
 3193 0928 00000000 		.4byte	.LFB21
 3194 092c 44000000 		.4byte	.LFE21-.LFB21
 3195 0930 01       		.uleb128 0x1
 3196 0931 9C       		.byte	0x9c
 3197 0932 88090000 		.4byte	0x988
 3198 0936 17       		.uleb128 0x17
 3199 0937 BA080000 		.4byte	.LASF76
 3200 093b 01       		.byte	0x1
 3201 093c A104     		.2byte	0x4a1
 3202 093e 83000000 		.4byte	0x83
 3203 0942 EB050000 		.4byte	.LLST27
 3204 0946 17       		.uleb128 0x17
 3205 0947 6C010000 		.4byte	.LASF77
ARM GAS  C:\Users\zack.li\AppData\Local\Temp\ccH890rU.s 			page 94


 3206 094b 01       		.byte	0x1
 3207 094c A104     		.2byte	0x4a1
 3208 094e 83000000 		.4byte	0x83
 3209 0952 25060000 		.4byte	.LLST28
 3210 0956 1B       		.uleb128 0x1b
 3211 0957 F0060000 		.4byte	.LASF81
 3212 095b 01       		.byte	0x1
 3213 095c A304     		.2byte	0x4a3
 3214 095e 8D050000 		.4byte	0x58d
 3215 0962 18       		.uleb128 0x18
 3216 0963 4F040000 		.4byte	.LASF70
 3217 0967 01       		.byte	0x1
 3218 0968 A404     		.2byte	0x4a4
 3219 096a CC020000 		.4byte	0x2cc
 3220 096e 6A060000 		.4byte	.LLST29
 3221 0972 1B       		.uleb128 0x1b
 3222 0973 A2080000 		.4byte	.LASF84
 3223 0977 01       		.byte	0x1
 3224 0978 A504     		.2byte	0x4a5
 3225 097a 51040000 		.4byte	0x451
 3226 097e 1D       		.uleb128 0x1d
 3227 097f 3E000000 		.4byte	.LVL117
 3228 0983 AA070000 		.4byte	0x7aa
 3229 0987 00       		.byte	0
 3230 0988 15       		.uleb128 0x15
 3231 0989 5F060000 		.4byte	.LASF94
 3232 098d 01       		.byte	0x1
 3233 098e 3705     		.2byte	0x537
 3234 0990 00000000 		.4byte	.LFB24
 3235 0994 6E000000 		.4byte	.LFE24-.LFB24
 3236 0998 01       		.uleb128 0x1
 3237 0999 9C       		.byte	0x9c
 3238 099a E9090000 		.4byte	0x9e9
 3239 099e 16       		.uleb128 0x16
 3240 099f A2080000 		.4byte	.LASF84
 3241 09a3 01       		.byte	0x1
 3242 09a4 3705     		.2byte	0x537
 3243 09a6 51040000 		.4byte	0x451
 3244 09aa 01       		.uleb128 0x1
 3245 09ab 50       		.byte	0x50
 3246 09ac 16       		.uleb128 0x16
 3247 09ad 34070000 		.4byte	.LASF85
 3248 09b1 01       		.byte	0x1
 3249 09b2 3805     		.2byte	0x538
 3250 09b4 CC020000 		.4byte	0x2cc
 3251 09b8 01       		.uleb128 0x1
 3252 09b9 51       		.byte	0x51
 3253 09ba 16       		.uleb128 0x16
 3254 09bb B3080000 		.4byte	.LASF71
 3255 09bf 01       		.byte	0x1
 3256 09c0 3805     		.2byte	0x538
 3257 09c2 83000000 		.4byte	0x83
 3258 09c6 01       		.uleb128 0x1
 3259 09c7 52       		.byte	0x52
 3260 09c8 18       		.uleb128 0x18
 3261 09c9 84050000 		.4byte	.LASF78
 3262 09cd 01       		.byte	0x1
ARM GAS  C:\Users\zack.li\AppData\Local\Temp\ccH890rU.s 			page 95


 3263 09ce 3A05     		.2byte	0x53a
 3264 09d0 83000000 		.4byte	0x83
 3265 09d4 D7060000 		.4byte	.LLST30
 3266 09d8 18       		.uleb128 0x18
 3267 09d9 EB060000 		.4byte	.LASF95
 3268 09dd 01       		.byte	0x1
 3269 09de 3B05     		.2byte	0x53b
 3270 09e0 83000000 		.4byte	0x83
 3271 09e4 19070000 		.4byte	.LLST31
 3272 09e8 00       		.byte	0
 3273 09e9 15       		.uleb128 0x15
 3274 09ea B6060000 		.4byte	.LASF96
 3275 09ee 01       		.byte	0x1
 3276 09ef D204     		.2byte	0x4d2
 3277 09f1 00000000 		.4byte	.LFB22
 3278 09f5 44000000 		.4byte	.LFE22-.LFB22
 3279 09f9 01       		.uleb128 0x1
 3280 09fa 9C       		.byte	0x9c
 3281 09fb 510A0000 		.4byte	0xa51
 3282 09ff 17       		.uleb128 0x17
 3283 0a00 BA080000 		.4byte	.LASF76
 3284 0a04 01       		.byte	0x1
 3285 0a05 D204     		.2byte	0x4d2
 3286 0a07 83000000 		.4byte	0x83
 3287 0a0b 37070000 		.4byte	.LLST32
 3288 0a0f 17       		.uleb128 0x17
 3289 0a10 6C010000 		.4byte	.LASF77
 3290 0a14 01       		.byte	0x1
 3291 0a15 D204     		.2byte	0x4d2
 3292 0a17 83000000 		.4byte	0x83
 3293 0a1b 71070000 		.4byte	.LLST33
 3294 0a1f 1B       		.uleb128 0x1b
 3295 0a20 F0060000 		.4byte	.LASF81
 3296 0a24 01       		.byte	0x1
 3297 0a25 D404     		.2byte	0x4d4
 3298 0a27 8D050000 		.4byte	0x58d
 3299 0a2b 18       		.uleb128 0x18
 3300 0a2c 4F040000 		.4byte	.LASF70
 3301 0a30 01       		.byte	0x1
 3302 0a31 D504     		.2byte	0x4d5
 3303 0a33 CC020000 		.4byte	0x2cc
 3304 0a37 B6070000 		.4byte	.LLST34
 3305 0a3b 1B       		.uleb128 0x1b
 3306 0a3c A2080000 		.4byte	.LASF84
 3307 0a40 01       		.byte	0x1
 3308 0a41 D604     		.2byte	0x4d6
 3309 0a43 51040000 		.4byte	0x451
 3310 0a47 1D       		.uleb128 0x1d
 3311 0a48 3E000000 		.4byte	.LVL140
 3312 0a4c 88090000 		.4byte	0x988
 3313 0a50 00       		.byte	0
 3314 0a51 20       		.uleb128 0x20
 3315 0a52 FC050000 		.4byte	.LASF99
 3316 0a56 01       		.byte	0x1
 3317 0a57 1507     		.2byte	0x715
 3318 0a59 83000000 		.4byte	0x83
 3319 0a5d 00000000 		.4byte	.LFB27
ARM GAS  C:\Users\zack.li\AppData\Local\Temp\ccH890rU.s 			page 96


 3320 0a61 18000000 		.4byte	.LFE27-.LFB27
 3321 0a65 01       		.uleb128 0x1
 3322 0a66 9C       		.byte	0x9c
 3323 0a67 A30A0000 		.4byte	0xaa3
 3324 0a6b 21       		.uleb128 0x21
 3325 0a6c 783100   		.ascii	"x1\000"
 3326 0a6f 01       		.byte	0x1
 3327 0a70 1507     		.2byte	0x715
 3328 0a72 83000000 		.4byte	0x83
 3329 0a76 23080000 		.4byte	.LLST35
 3330 0a7a 21       		.uleb128 0x21
 3331 0a7b 783200   		.ascii	"x2\000"
 3332 0a7e 01       		.byte	0x1
 3333 0a7f 1507     		.2byte	0x715
 3334 0a81 83000000 		.4byte	0x83
 3335 0a85 4C080000 		.4byte	.LLST36
 3336 0a89 22       		.uleb128 0x22
 3337 0a8a 783300   		.ascii	"x3\000"
 3338 0a8d 01       		.byte	0x1
 3339 0a8e 1507     		.2byte	0x715
 3340 0a90 83000000 		.4byte	0x83
 3341 0a94 01       		.uleb128 0x1
 3342 0a95 52       		.byte	0x52
 3343 0a96 23       		.uleb128 0x23
 3344 0a97 746D7000 		.ascii	"tmp\000"
 3345 0a9b 01       		.byte	0x1
 3346 0a9c 1707     		.2byte	0x717
 3347 0a9e 83000000 		.4byte	0x83
 3348 0aa2 00       		.byte	0
 3349 0aa3 15       		.uleb128 0x15
 3350 0aa4 06090000 		.4byte	.LASF97
 3351 0aa8 01       		.byte	0x1
 3352 0aa9 6504     		.2byte	0x465
 3353 0aab 00000000 		.4byte	.LFB20
 3354 0aaf 7C000000 		.4byte	.LFE20-.LFB20
 3355 0ab3 01       		.uleb128 0x1
 3356 0ab4 9C       		.byte	0x9c
 3357 0ab5 2E0B0000 		.4byte	0xb2e
 3358 0ab9 17       		.uleb128 0x17
 3359 0aba A2080000 		.4byte	.LASF84
 3360 0abe 01       		.byte	0x1
 3361 0abf 6504     		.2byte	0x465
 3362 0ac1 51040000 		.4byte	0x451
 3363 0ac5 6A080000 		.4byte	.LLST37
 3364 0ac9 17       		.uleb128 0x17
 3365 0aca 34070000 		.4byte	.LASF85
 3366 0ace 01       		.byte	0x1
 3367 0acf 6604     		.2byte	0x466
 3368 0ad1 CC020000 		.4byte	0x2cc
 3369 0ad5 A9080000 		.4byte	.LLST38
 3370 0ad9 17       		.uleb128 0x17
 3371 0ada B3080000 		.4byte	.LASF71
 3372 0ade 01       		.byte	0x1
 3373 0adf 6604     		.2byte	0x466
 3374 0ae1 83000000 		.4byte	0x83
 3375 0ae5 D5080000 		.4byte	.LLST39
 3376 0ae9 18       		.uleb128 0x18
ARM GAS  C:\Users\zack.li\AppData\Local\Temp\ccH890rU.s 			page 97


 3377 0aea 84050000 		.4byte	.LASF78
 3378 0aee 01       		.byte	0x1
 3379 0aef 6804     		.2byte	0x468
 3380 0af1 83000000 		.4byte	0x83
 3381 0af5 2D090000 		.4byte	.LLST40
 3382 0af9 18       		.uleb128 0x18
 3383 0afa EB060000 		.4byte	.LASF95
 3384 0afe 01       		.byte	0x1
 3385 0aff 6C04     		.2byte	0x46c
 3386 0b01 83000000 		.4byte	0x83
 3387 0b05 6F090000 		.4byte	.LLST41
 3388 0b09 1E       		.uleb128 0x1e
 3389 0b0a 36000000 		.4byte	.LVL154
 3390 0b0e 510A0000 		.4byte	0xa51
 3391 0b12 1D0B0000 		.4byte	0xb1d
 3392 0b16 1A       		.uleb128 0x1a
 3393 0b17 01       		.uleb128 0x1
 3394 0b18 51       		.byte	0x51
 3395 0b19 02       		.uleb128 0x2
 3396 0b1a 79       		.byte	0x79
 3397 0b1b 00       		.sleb128 0
 3398 0b1c 00       		.byte	0
 3399 0b1d 19       		.uleb128 0x19
 3400 0b1e 5A000000 		.4byte	.LVL158
 3401 0b22 510A0000 		.4byte	0xa51
 3402 0b26 1A       		.uleb128 0x1a
 3403 0b27 01       		.uleb128 0x1
 3404 0b28 51       		.byte	0x51
 3405 0b29 02       		.uleb128 0x2
 3406 0b2a 79       		.byte	0x79
 3407 0b2b 00       		.sleb128 0
 3408 0b2c 00       		.byte	0
 3409 0b2d 00       		.byte	0
 3410 0b2e 15       		.uleb128 0x15
 3411 0b2f EA020000 		.4byte	.LASF98
 3412 0b33 01       		.byte	0x1
 3413 0b34 0604     		.2byte	0x406
 3414 0b36 00000000 		.4byte	.LFB18
 3415 0b3a 44000000 		.4byte	.LFE18-.LFB18
 3416 0b3e 01       		.uleb128 0x1
 3417 0b3f 9C       		.byte	0x9c
 3418 0b40 960B0000 		.4byte	0xb96
 3419 0b44 17       		.uleb128 0x17
 3420 0b45 BA080000 		.4byte	.LASF76
 3421 0b49 01       		.byte	0x1
 3422 0b4a 0604     		.2byte	0x406
 3423 0b4c 83000000 		.4byte	0x83
 3424 0b50 8D090000 		.4byte	.LLST42
 3425 0b54 17       		.uleb128 0x17
 3426 0b55 6C010000 		.4byte	.LASF77
 3427 0b59 01       		.byte	0x1
 3428 0b5a 0604     		.2byte	0x406
 3429 0b5c 83000000 		.4byte	0x83
 3430 0b60 C7090000 		.4byte	.LLST43
 3431 0b64 1B       		.uleb128 0x1b
 3432 0b65 F0060000 		.4byte	.LASF81
 3433 0b69 01       		.byte	0x1
ARM GAS  C:\Users\zack.li\AppData\Local\Temp\ccH890rU.s 			page 98


 3434 0b6a 0804     		.2byte	0x408
 3435 0b6c 8D050000 		.4byte	0x58d
 3436 0b70 18       		.uleb128 0x18
 3437 0b71 4F040000 		.4byte	.LASF70
 3438 0b75 01       		.byte	0x1
 3439 0b76 0904     		.2byte	0x409
 3440 0b78 CC020000 		.4byte	0x2cc
 3441 0b7c 0C0A0000 		.4byte	.LLST44
 3442 0b80 1B       		.uleb128 0x1b
 3443 0b81 A2080000 		.4byte	.LASF84
 3444 0b85 01       		.byte	0x1
 3445 0b86 0A04     		.2byte	0x40a
 3446 0b88 51040000 		.4byte	0x451
 3447 0b8c 1D       		.uleb128 0x1d
 3448 0b8d 3E000000 		.4byte	.LVL175
 3449 0b91 A30A0000 		.4byte	0xaa3
 3450 0b95 00       		.byte	0
 3451 0b96 20       		.uleb128 0x20
 3452 0b97 8F070000 		.4byte	.LASF100
 3453 0b9b 01       		.byte	0x1
 3454 0b9c 4507     		.2byte	0x745
 3455 0b9e 83000000 		.4byte	0x83
 3456 0ba2 00000000 		.4byte	.LFB28
 3457 0ba6 12000000 		.4byte	.LFE28-.LFB28
 3458 0baa 01       		.uleb128 0x1
 3459 0bab 9C       		.byte	0x9c
 3460 0bac FD0B0000 		.4byte	0xbfd
 3461 0bb0 17       		.uleb128 0x17
 3462 0bb1 48000000 		.4byte	.LASF101
 3463 0bb5 01       		.byte	0x1
 3464 0bb6 4507     		.2byte	0x745
 3465 0bb8 83000000 		.4byte	0x83
 3466 0bbc 790A0000 		.4byte	.LLST45
 3467 0bc0 17       		.uleb128 0x17
 3468 0bc1 7B060000 		.4byte	.LASF102
 3469 0bc5 01       		.byte	0x1
 3470 0bc6 4507     		.2byte	0x745
 3471 0bc8 83000000 		.4byte	0x83
 3472 0bcc 9A0A0000 		.4byte	.LLST46
 3473 0bd0 21       		.uleb128 0x21
 3474 0bd1 6E00     		.ascii	"n\000"
 3475 0bd3 01       		.byte	0x1
 3476 0bd4 4507     		.2byte	0x745
 3477 0bd6 83000000 		.4byte	0x83
 3478 0bda BB0A0000 		.4byte	.LLST47
 3479 0bde 17       		.uleb128 0x17
 3480 0bdf E8010000 		.4byte	.LASF103
 3481 0be3 01       		.byte	0x1
 3482 0be4 4507     		.2byte	0x745
 3483 0be6 83000000 		.4byte	0x83
 3484 0bea DC0A0000 		.4byte	.LLST48
 3485 0bee 24       		.uleb128 0x24
 3486 0bef 8F040000 		.4byte	.LASF104
 3487 0bf3 01       		.byte	0x1
 3488 0bf4 4707     		.2byte	0x747
 3489 0bf6 83000000 		.4byte	0x83
 3490 0bfa 01       		.uleb128 0x1
ARM GAS  C:\Users\zack.li\AppData\Local\Temp\ccH890rU.s 			page 99


 3491 0bfb 50       		.byte	0x50
 3492 0bfc 00       		.byte	0
 3493 0bfd 25       		.uleb128 0x25
 3494 0bfe 75010000 		.4byte	.LASF105
 3495 0c02 01       		.byte	0x1
 3496 0c03 FF       		.byte	0xff
 3497 0c04 83000000 		.4byte	0x83
 3498 0c08 00000000 		.4byte	.LFB5
 3499 0c0c C0000000 		.4byte	.LFE5-.LFB5
 3500 0c10 01       		.uleb128 0x1
 3501 0c11 9C       		.byte	0x9c
 3502 0c12 F10C0000 		.4byte	0xcf1
 3503 0c16 17       		.uleb128 0x17
 3504 0c17 34030000 		.4byte	.LASF106
 3505 0c1b 01       		.byte	0x1
 3506 0c1c 0001     		.2byte	0x100
 3507 0c1e F10C0000 		.4byte	0xcf1
 3508 0c22 FD0A0000 		.4byte	.LLST49
 3509 0c26 17       		.uleb128 0x17
 3510 0c27 4F040000 		.4byte	.LASF70
 3511 0c2b 01       		.byte	0x1
 3512 0c2c 0101     		.2byte	0x101
 3513 0c2e CC020000 		.4byte	0x2cc
 3514 0c32 290B0000 		.4byte	.LLST50
 3515 0c36 17       		.uleb128 0x17
 3516 0c37 B3080000 		.4byte	.LASF71
 3517 0c3b 01       		.byte	0x1
 3518 0c3c 0201     		.2byte	0x102
 3519 0c3e 83000000 		.4byte	0x83
 3520 0c42 550B0000 		.4byte	.LLST51
 3521 0c46 18       		.uleb128 0x18
 3522 0c47 A9030000 		.4byte	.LASF107
 3523 0c4b 01       		.byte	0x1
 3524 0c4c 0401     		.2byte	0x104
 3525 0c4e 83000000 		.4byte	0x83
 3526 0c52 740B0000 		.4byte	.LLST52
 3527 0c56 18       		.uleb128 0x18
 3528 0c57 22080000 		.4byte	.LASF108
 3529 0c5b 01       		.byte	0x1
 3530 0c5c 0501     		.2byte	0x105
 3531 0c5e 83000000 		.4byte	0x83
 3532 0c62 AA0B0000 		.4byte	.LLST53
 3533 0c66 18       		.uleb128 0x18
 3534 0c67 84050000 		.4byte	.LASF78
 3535 0c6b 01       		.byte	0x1
 3536 0c6c 0601     		.2byte	0x106
 3537 0c6e 83000000 		.4byte	0x83
 3538 0c72 D30B0000 		.4byte	.LLST54
 3539 0c76 18       		.uleb128 0x18
 3540 0c77 18000000 		.4byte	.LASF109
 3541 0c7b 01       		.byte	0x1
 3542 0c7c 0701     		.2byte	0x107
 3543 0c7e 83000000 		.4byte	0x83
 3544 0c82 150C0000 		.4byte	.LLST55
 3545 0c86 26       		.uleb128 0x26
 3546 0c87 8F010000 		.4byte	.LASF110
 3547 0c8b 01       		.byte	0x1
ARM GAS  C:\Users\zack.li\AppData\Local\Temp\ccH890rU.s 			page 100


 3548 0c8c 0801     		.2byte	0x108
 3549 0c8e 83000000 		.4byte	0x83
 3550 0c92 00       		.byte	0
 3551 0c93 18       		.uleb128 0x18
 3552 0c94 4A050000 		.4byte	.LASF111
 3553 0c98 01       		.byte	0x1
 3554 0c99 0B01     		.2byte	0x10b
 3555 0c9b 83000000 		.4byte	0x83
 3556 0c9f 350C0000 		.4byte	.LLST56
 3557 0ca3 1E       		.uleb128 0x1e
 3558 0ca4 4C000000 		.4byte	.LVL193
 3559 0ca8 5D040000 		.4byte	0x45d
 3560 0cac C40C0000 		.4byte	0xcc4
 3561 0cb0 1A       		.uleb128 0x1a
 3562 0cb1 01       		.uleb128 0x1
 3563 0cb2 50       		.byte	0x50
 3564 0cb3 02       		.uleb128 0x2
 3565 0cb4 76       		.byte	0x76
 3566 0cb5 00       		.sleb128 0
 3567 0cb6 1A       		.uleb128 0x1a
 3568 0cb7 01       		.uleb128 0x1
 3569 0cb8 51       		.byte	0x51
 3570 0cb9 03       		.uleb128 0x3
 3571 0cba 91       		.byte	0x91
 3572 0cbb 64       		.sleb128 -28
 3573 0cbc 06       		.byte	0x6
 3574 0cbd 1A       		.uleb128 0x1a
 3575 0cbe 01       		.uleb128 0x1
 3576 0cbf 52       		.byte	0x52
 3577 0cc0 02       		.uleb128 0x2
 3578 0cc1 74       		.byte	0x74
 3579 0cc2 00       		.sleb128 0
 3580 0cc3 00       		.byte	0
 3581 0cc4 1E       		.uleb128 0x1e
 3582 0cc5 82000000 		.4byte	.LVL199
 3583 0cc9 960B0000 		.4byte	0xb96
 3584 0ccd DC0C0000 		.4byte	0xcdc
 3585 0cd1 1A       		.uleb128 0x1a
 3586 0cd2 01       		.uleb128 0x1
 3587 0cd3 52       		.byte	0x52
 3588 0cd4 01       		.uleb128 0x1
 3589 0cd5 31       		.byte	0x31
 3590 0cd6 1A       		.uleb128 0x1a
 3591 0cd7 01       		.uleb128 0x1
 3592 0cd8 53       		.byte	0x53
 3593 0cd9 01       		.uleb128 0x1
 3594 0cda 38       		.byte	0x38
 3595 0cdb 00       		.byte	0
 3596 0cdc 19       		.uleb128 0x19
 3597 0cdd A2000000 		.4byte	.LVL203
 3598 0ce1 960B0000 		.4byte	0xb96
 3599 0ce5 1A       		.uleb128 0x1a
 3600 0ce6 01       		.uleb128 0x1
 3601 0ce7 52       		.byte	0x52
 3602 0ce8 01       		.uleb128 0x1
 3603 0ce9 31       		.byte	0x31
 3604 0cea 1A       		.uleb128 0x1a
ARM GAS  C:\Users\zack.li\AppData\Local\Temp\ccH890rU.s 			page 101


 3605 0ceb 01       		.uleb128 0x1
 3606 0cec 53       		.byte	0x53
 3607 0ced 01       		.uleb128 0x1
 3608 0cee 38       		.byte	0x38
 3609 0cef 00       		.byte	0
 3610 0cf0 00       		.byte	0
 3611 0cf1 10       		.uleb128 0x10
 3612 0cf2 04       		.byte	0x4
 3613 0cf3 B7010000 		.4byte	0x1b7
 3614 0cf7 25       		.uleb128 0x25
 3615 0cf8 EF040000 		.4byte	.LASF112
 3616 0cfc 01       		.byte	0x1
 3617 0cfd C8       		.byte	0xc8
 3618 0cfe A4000000 		.4byte	0xa4
 3619 0d02 00000000 		.4byte	.LFB4
 3620 0d06 2C000000 		.4byte	.LFE4-.LFB4
 3621 0d0a 01       		.uleb128 0x1
 3622 0d0b 9C       		.byte	0x9c
 3623 0d0c A20D0000 		.4byte	0xda2
 3624 0d10 27       		.uleb128 0x27
 3625 0d11 BA080000 		.4byte	.LASF76
 3626 0d15 01       		.byte	0x1
 3627 0d16 C8       		.byte	0xc8
 3628 0d17 83000000 		.4byte	0x83
 3629 0d1b 690C0000 		.4byte	.LLST57
 3630 0d1f 27       		.uleb128 0x27
 3631 0d20 6C010000 		.4byte	.LASF77
 3632 0d24 01       		.byte	0x1
 3633 0d25 C8       		.byte	0xc8
 3634 0d26 83000000 		.4byte	0x83
 3635 0d2a 8A0C0000 		.4byte	.LLST58
 3636 0d2e 28       		.uleb128 0x28
 3637 0d2f 8F010000 		.4byte	.LASF110
 3638 0d33 01       		.byte	0x1
 3639 0d34 CA       		.byte	0xca
 3640 0d35 83000000 		.4byte	0x83
 3641 0d39 AB0C0000 		.4byte	.LLST59
 3642 0d3d 28       		.uleb128 0x28
 3643 0d3e 4F040000 		.4byte	.LASF70
 3644 0d42 01       		.byte	0x1
 3645 0d43 CC       		.byte	0xcc
 3646 0d44 CC020000 		.4byte	0x2cc
 3647 0d48 CA0C0000 		.4byte	.LLST60
 3648 0d4c 29       		.uleb128 0x29
 3649 0d4d F0060000 		.4byte	.LASF81
 3650 0d51 01       		.byte	0x1
 3651 0d52 CD       		.byte	0xcd
 3652 0d53 8D050000 		.4byte	0x58d
 3653 0d57 28       		.uleb128 0x28
 3654 0d58 34030000 		.4byte	.LASF106
 3655 0d5c 01       		.byte	0x1
 3656 0d5d CE       		.byte	0xce
 3657 0d5e F10C0000 		.4byte	0xcf1
 3658 0d62 0D0D0000 		.4byte	.LLST61
 3659 0d66 19       		.uleb128 0x19
 3660 0d67 26000000 		.4byte	.LVL217
 3661 0d6b FD0B0000 		.4byte	0xbfd
ARM GAS  C:\Users\zack.li\AppData\Local\Temp\ccH890rU.s 			page 102


 3662 0d6f 1A       		.uleb128 0x1a
 3663 0d70 01       		.uleb128 0x1
 3664 0d71 50       		.byte	0x50
 3665 0d72 02       		.uleb128 0x2
 3666 0d73 74       		.byte	0x74
 3667 0d74 00       		.sleb128 0
 3668 0d75 1A       		.uleb128 0x1a
 3669 0d76 01       		.uleb128 0x1
 3670 0d77 51       		.byte	0x51
 3671 0d78 0E       		.uleb128 0xe
 3672 0d79 F3       		.byte	0xf3
 3673 0d7a 01       		.uleb128 0x1
 3674 0d7b 51       		.byte	0x51
 3675 0d7c 32       		.byte	0x32
 3676 0d7d 24       		.byte	0x24
 3677 0d7e F3       		.byte	0xf3
 3678 0d7f 01       		.uleb128 0x1
 3679 0d80 51       		.byte	0x51
 3680 0d81 22       		.byte	0x22
 3681 0d82 31       		.byte	0x31
 3682 0d83 24       		.byte	0x24
 3683 0d84 76       		.byte	0x76
 3684 0d85 00       		.sleb128 0
 3685 0d86 22       		.byte	0x22
 3686 0d87 1A       		.uleb128 0x1a
 3687 0d88 01       		.uleb128 0x1
 3688 0d89 52       		.byte	0x52
 3689 0d8a 15       		.uleb128 0x15
 3690 0d8b F3       		.byte	0xf3
 3691 0d8c 01       		.uleb128 0x1
 3692 0d8d 50       		.byte	0x50
 3693 0d8e 33       		.byte	0x33
 3694 0d8f 24       		.byte	0x24
 3695 0d90 F3       		.byte	0xf3
 3696 0d91 01       		.uleb128 0x1
 3697 0d92 50       		.byte	0x50
 3698 0d93 1C       		.byte	0x1c
 3699 0d94 32       		.byte	0x32
 3700 0d95 24       		.byte	0x24
 3701 0d96 75       		.byte	0x75
 3702 0d97 00       		.sleb128 0
 3703 0d98 22       		.byte	0x22
 3704 0d99 23       		.byte	0x23
 3705 0d9a 1A       		.uleb128 0x1a
 3706 0d9b 94       		.byte	0x94
 3707 0d9c 01       		.byte	0x1
 3708 0d9d 08       		.byte	0x8
 3709 0d9e FF       		.byte	0xff
 3710 0d9f 1A       		.byte	0x1a
 3711 0da0 00       		.byte	0
 3712 0da1 00       		.byte	0
 3713 0da2 25       		.uleb128 0x25
 3714 0da3 A4010000 		.4byte	.LASF113
 3715 0da7 01       		.byte	0x1
 3716 0da8 8F       		.byte	0x8f
 3717 0da9 A4000000 		.4byte	0xa4
 3718 0dad 00000000 		.4byte	.LFB3
ARM GAS  C:\Users\zack.li\AppData\Local\Temp\ccH890rU.s 			page 103


 3719 0db1 30000000 		.4byte	.LFE3-.LFB3
 3720 0db5 01       		.uleb128 0x1
 3721 0db6 9C       		.byte	0x9c
 3722 0db7 190E0000 		.4byte	0xe19
 3723 0dbb 27       		.uleb128 0x27
 3724 0dbc BA080000 		.4byte	.LASF76
 3725 0dc0 01       		.byte	0x1
 3726 0dc1 8F       		.byte	0x8f
 3727 0dc2 83000000 		.4byte	0x83
 3728 0dc6 3A0D0000 		.4byte	.LLST62
 3729 0dca 28       		.uleb128 0x28
 3730 0dcb 6C010000 		.4byte	.LASF77
 3731 0dcf 01       		.byte	0x1
 3732 0dd0 91       		.byte	0x91
 3733 0dd1 83000000 		.4byte	0x83
 3734 0dd5 660D0000 		.4byte	.LLST63
 3735 0dd9 28       		.uleb128 0x28
 3736 0dda 5B000000 		.4byte	.LASF80
 3737 0dde 01       		.byte	0x1
 3738 0ddf 92       		.byte	0x92
 3739 0de0 83000000 		.4byte	0x83
 3740 0de4 A70D0000 		.4byte	.LLST64
 3741 0de8 29       		.uleb128 0x29
 3742 0de9 F0060000 		.4byte	.LASF81
 3743 0ded 01       		.byte	0x1
 3744 0dee 94       		.byte	0x94
 3745 0def 8D050000 		.4byte	0x58d
 3746 0df3 28       		.uleb128 0x28
 3747 0df4 97050000 		.4byte	.LASF114
 3748 0df8 01       		.byte	0x1
 3749 0df9 95       		.byte	0x95
 3750 0dfa A4000000 		.4byte	0xa4
 3751 0dfe BA0D0000 		.4byte	.LLST65
 3752 0e02 19       		.uleb128 0x19
 3753 0e03 1C000000 		.4byte	.LVL225
 3754 0e07 F70C0000 		.4byte	0xcf7
 3755 0e0b 1A       		.uleb128 0x1a
 3756 0e0c 01       		.uleb128 0x1
 3757 0e0d 50       		.byte	0x50
 3758 0e0e 02       		.uleb128 0x2
 3759 0e0f 76       		.byte	0x76
 3760 0e10 00       		.sleb128 0
 3761 0e11 1A       		.uleb128 0x1a
 3762 0e12 01       		.uleb128 0x1
 3763 0e13 51       		.byte	0x51
 3764 0e14 02       		.uleb128 0x2
 3765 0e15 74       		.byte	0x74
 3766 0e16 00       		.sleb128 0
 3767 0e17 00       		.byte	0
 3768 0e18 00       		.byte	0
 3769 0e19 25       		.uleb128 0x25
 3770 0e1a CF060000 		.4byte	.LASF115
 3771 0e1e 01       		.byte	0x1
 3772 0e1f 61       		.byte	0x61
 3773 0e20 A4000000 		.4byte	0xa4
 3774 0e24 00000000 		.4byte	.LFB2
 3775 0e28 1C000000 		.4byte	.LFE2-.LFB2
ARM GAS  C:\Users\zack.li\AppData\Local\Temp\ccH890rU.s 			page 104


 3776 0e2c 01       		.uleb128 0x1
 3777 0e2d 9C       		.byte	0x9c
 3778 0e2e 610E0000 		.4byte	0xe61
 3779 0e32 28       		.uleb128 0x28
 3780 0e33 BA080000 		.4byte	.LASF76
 3781 0e37 01       		.byte	0x1
 3782 0e38 63       		.byte	0x63
 3783 0e39 83000000 		.4byte	0x83
 3784 0e3d E40D0000 		.4byte	.LLST66
 3785 0e41 28       		.uleb128 0x28
 3786 0e42 97050000 		.4byte	.LASF114
 3787 0e46 01       		.byte	0x1
 3788 0e47 64       		.byte	0x64
 3789 0e48 A4000000 		.4byte	0xa4
 3790 0e4c 260E0000 		.4byte	.LLST67
 3791 0e50 19       		.uleb128 0x19
 3792 0e51 0E000000 		.4byte	.LVL234
 3793 0e55 A20D0000 		.4byte	0xda2
 3794 0e59 1A       		.uleb128 0x1a
 3795 0e5a 01       		.uleb128 0x1
 3796 0e5b 50       		.byte	0x50
 3797 0e5c 02       		.uleb128 0x2
 3798 0e5d 74       		.byte	0x74
 3799 0e5e 00       		.sleb128 0
 3800 0e5f 00       		.byte	0
 3801 0e60 00       		.byte	0
 3802 0e61 15       		.uleb128 0x15
 3803 0e62 8C020000 		.4byte	.LASF116
 3804 0e66 01       		.byte	0x1
 3805 0e67 8703     		.2byte	0x387
 3806 0e69 00000000 		.4byte	.LFB16
 3807 0e6d 62000000 		.4byte	.LFE16-.LFB16
 3808 0e71 01       		.uleb128 0x1
 3809 0e72 9C       		.byte	0x9c
 3810 0e73 F60E0000 		.4byte	0xef6
 3811 0e77 17       		.uleb128 0x17
 3812 0e78 A2080000 		.4byte	.LASF84
 3813 0e7c 01       		.byte	0x1
 3814 0e7d 8703     		.2byte	0x387
 3815 0e7f 51040000 		.4byte	0x451
 3816 0e83 500E0000 		.4byte	.LLST68
 3817 0e87 17       		.uleb128 0x17
 3818 0e88 34070000 		.4byte	.LASF85
 3819 0e8c 01       		.byte	0x1
 3820 0e8d 8803     		.2byte	0x388
 3821 0e8f CC020000 		.4byte	0x2cc
 3822 0e93 8F0E0000 		.4byte	.LLST69
 3823 0e97 17       		.uleb128 0x17
 3824 0e98 B3080000 		.4byte	.LASF71
 3825 0e9c 01       		.byte	0x1
 3826 0e9d 8803     		.2byte	0x388
 3827 0e9f 83000000 		.4byte	0x83
 3828 0ea3 BB0E0000 		.4byte	.LLST70
 3829 0ea7 18       		.uleb128 0x18
 3830 0ea8 84050000 		.4byte	.LASF78
 3831 0eac 01       		.byte	0x1
 3832 0ead 8A03     		.2byte	0x38a
ARM GAS  C:\Users\zack.li\AppData\Local\Temp\ccH890rU.s 			page 105


 3833 0eaf 83000000 		.4byte	0x83
 3834 0eb3 130F0000 		.4byte	.LLST71
 3835 0eb7 18       		.uleb128 0x18
 3836 0eb8 EB060000 		.4byte	.LASF95
 3837 0ebc 01       		.byte	0x1
 3838 0ebd 8B03     		.2byte	0x38b
 3839 0ebf 83000000 		.4byte	0x83
 3840 0ec3 550F0000 		.4byte	.LLST72
 3841 0ec7 1E       		.uleb128 0x1e
 3842 0ec8 2C000000 		.4byte	.LVL246
 3843 0ecc 960B0000 		.4byte	0xb96
 3844 0ed0 E00E0000 		.4byte	0xee0
 3845 0ed4 1A       		.uleb128 0x1a
 3846 0ed5 01       		.uleb128 0x1
 3847 0ed6 52       		.byte	0x52
 3848 0ed7 02       		.uleb128 0x2
 3849 0ed8 08       		.byte	0x8
 3850 0ed9 40       		.byte	0x40
 3851 0eda 1A       		.uleb128 0x1a
 3852 0edb 01       		.uleb128 0x1
 3853 0edc 53       		.byte	0x53
 3854 0edd 01       		.uleb128 0x1
 3855 0ede 30       		.byte	0x30
 3856 0edf 00       		.byte	0
 3857 0ee0 19       		.uleb128 0x19
 3858 0ee1 4A000000 		.4byte	.LVL251
 3859 0ee5 960B0000 		.4byte	0xb96
 3860 0ee9 1A       		.uleb128 0x1a
 3861 0eea 01       		.uleb128 0x1
 3862 0eeb 52       		.byte	0x52
 3863 0eec 02       		.uleb128 0x2
 3864 0eed 08       		.byte	0x8
 3865 0eee 40       		.byte	0x40
 3866 0eef 1A       		.uleb128 0x1a
 3867 0ef0 01       		.uleb128 0x1
 3868 0ef1 53       		.byte	0x53
 3869 0ef2 01       		.uleb128 0x1
 3870 0ef3 30       		.byte	0x30
 3871 0ef4 00       		.byte	0
 3872 0ef5 00       		.byte	0
 3873 0ef6 15       		.uleb128 0x15
 3874 0ef7 24030000 		.4byte	.LASF117
 3875 0efb 01       		.byte	0x1
 3876 0efc 2103     		.2byte	0x321
 3877 0efe 00000000 		.4byte	.LFB14
 3878 0f02 44000000 		.4byte	.LFE14-.LFB14
 3879 0f06 01       		.uleb128 0x1
 3880 0f07 9C       		.byte	0x9c
 3881 0f08 5E0F0000 		.4byte	0xf5e
 3882 0f0c 17       		.uleb128 0x17
 3883 0f0d BA080000 		.4byte	.LASF76
 3884 0f11 01       		.byte	0x1
 3885 0f12 2103     		.2byte	0x321
 3886 0f14 83000000 		.4byte	0x83
 3887 0f18 730F0000 		.4byte	.LLST73
 3888 0f1c 17       		.uleb128 0x17
 3889 0f1d 6C010000 		.4byte	.LASF77
ARM GAS  C:\Users\zack.li\AppData\Local\Temp\ccH890rU.s 			page 106


 3890 0f21 01       		.byte	0x1
 3891 0f22 2103     		.2byte	0x321
 3892 0f24 83000000 		.4byte	0x83
 3893 0f28 AD0F0000 		.4byte	.LLST74
 3894 0f2c 1B       		.uleb128 0x1b
 3895 0f2d F0060000 		.4byte	.LASF81
 3896 0f31 01       		.byte	0x1
 3897 0f32 2303     		.2byte	0x323
 3898 0f34 8D050000 		.4byte	0x58d
 3899 0f38 18       		.uleb128 0x18
 3900 0f39 4F040000 		.4byte	.LASF70
 3901 0f3d 01       		.byte	0x1
 3902 0f3e 2403     		.2byte	0x324
 3903 0f40 CC020000 		.4byte	0x2cc
 3904 0f44 F20F0000 		.4byte	.LLST75
 3905 0f48 1B       		.uleb128 0x1b
 3906 0f49 A2080000 		.4byte	.LASF84
 3907 0f4d 01       		.byte	0x1
 3908 0f4e 2503     		.2byte	0x325
 3909 0f50 51040000 		.4byte	0x451
 3910 0f54 1D       		.uleb128 0x1d
 3911 0f55 3E000000 		.4byte	.LVL269
 3912 0f59 610E0000 		.4byte	0xe61
 3913 0f5d 00       		.byte	0
 3914 0f5e 15       		.uleb128 0x15
 3915 0f5f 41030000 		.4byte	.LASF118
 3916 0f63 01       		.byte	0x1
 3917 0f64 9F06     		.2byte	0x69f
 3918 0f66 00000000 		.4byte	.LFB26
 3919 0f6a 22000000 		.4byte	.LFE26-.LFB26
 3920 0f6e 01       		.uleb128 0x1
 3921 0f6f 9C       		.byte	0x9c
 3922 0f70 01100000 		.4byte	0x1001
 3923 0f74 17       		.uleb128 0x17
 3924 0f75 A2080000 		.4byte	.LASF84
 3925 0f79 01       		.byte	0x1
 3926 0f7a 9F06     		.2byte	0x69f
 3927 0f7c 51040000 		.4byte	0x451
 3928 0f80 5F100000 		.4byte	.LLST76
 3929 0f84 17       		.uleb128 0x17
 3930 0f85 34070000 		.4byte	.LASF85
 3931 0f89 01       		.byte	0x1
 3932 0f8a A006     		.2byte	0x6a0
 3933 0f8c CC020000 		.4byte	0x2cc
 3934 0f90 7D100000 		.4byte	.LLST77
 3935 0f94 17       		.uleb128 0x17
 3936 0f95 B3080000 		.4byte	.LASF71
 3937 0f99 01       		.byte	0x1
 3938 0f9a A006     		.2byte	0x6a0
 3939 0f9c 83000000 		.4byte	0x83
 3940 0fa0 A9100000 		.4byte	.LLST78
 3941 0fa4 1E       		.uleb128 0x1e
 3942 0fa5 0C000000 		.4byte	.LVL273
 3943 0fa9 A30A0000 		.4byte	0xaa3
 3944 0fad C40F0000 		.4byte	0xfc4
 3945 0fb1 1A       		.uleb128 0x1a
 3946 0fb2 01       		.uleb128 0x1
ARM GAS  C:\Users\zack.li\AppData\Local\Temp\ccH890rU.s 			page 107


 3947 0fb3 50       		.byte	0x50
 3948 0fb4 02       		.uleb128 0x2
 3949 0fb5 74       		.byte	0x74
 3950 0fb6 00       		.sleb128 0
 3951 0fb7 1A       		.uleb128 0x1a
 3952 0fb8 01       		.uleb128 0x1
 3953 0fb9 51       		.byte	0x51
 3954 0fba 02       		.uleb128 0x2
 3955 0fbb 75       		.byte	0x75
 3956 0fbc 00       		.sleb128 0
 3957 0fbd 1A       		.uleb128 0x1a
 3958 0fbe 01       		.uleb128 0x1
 3959 0fbf 52       		.byte	0x52
 3960 0fc0 02       		.uleb128 0x2
 3961 0fc1 76       		.byte	0x76
 3962 0fc2 00       		.sleb128 0
 3963 0fc3 00       		.byte	0
 3964 0fc4 1E       		.uleb128 0x1e
 3965 0fc5 16000000 		.4byte	.LVL275
 3966 0fc9 610E0000 		.4byte	0xe61
 3967 0fcd E40F0000 		.4byte	0xfe4
 3968 0fd1 1A       		.uleb128 0x1a
 3969 0fd2 01       		.uleb128 0x1
 3970 0fd3 50       		.byte	0x50
 3971 0fd4 02       		.uleb128 0x2
 3972 0fd5 74       		.byte	0x74
 3973 0fd6 00       		.sleb128 0
 3974 0fd7 1A       		.uleb128 0x1a
 3975 0fd8 01       		.uleb128 0x1
 3976 0fd9 51       		.byte	0x51
 3977 0fda 02       		.uleb128 0x2
 3978 0fdb 75       		.byte	0x75
 3979 0fdc 00       		.sleb128 0
 3980 0fdd 1A       		.uleb128 0x1a
 3981 0fde 01       		.uleb128 0x1
 3982 0fdf 52       		.byte	0x52
 3983 0fe0 02       		.uleb128 0x2
 3984 0fe1 76       		.byte	0x76
 3985 0fe2 00       		.sleb128 0
 3986 0fe3 00       		.byte	0
 3987 0fe4 19       		.uleb128 0x19
 3988 0fe5 20000000 		.4byte	.LVL276
 3989 0fe9 88090000 		.4byte	0x988
 3990 0fed 1A       		.uleb128 0x1a
 3991 0fee 01       		.uleb128 0x1
 3992 0fef 50       		.byte	0x50
 3993 0ff0 02       		.uleb128 0x2
 3994 0ff1 74       		.byte	0x74
 3995 0ff2 00       		.sleb128 0
 3996 0ff3 1A       		.uleb128 0x1a
 3997 0ff4 01       		.uleb128 0x1
 3998 0ff5 51       		.byte	0x51
 3999 0ff6 02       		.uleb128 0x2
 4000 0ff7 75       		.byte	0x75
 4001 0ff8 00       		.sleb128 0
 4002 0ff9 1A       		.uleb128 0x1a
 4003 0ffa 01       		.uleb128 0x1
ARM GAS  C:\Users\zack.li\AppData\Local\Temp\ccH890rU.s 			page 108


 4004 0ffb 52       		.byte	0x52
 4005 0ffc 02       		.uleb128 0x2
 4006 0ffd 76       		.byte	0x76
 4007 0ffe 00       		.sleb128 0
 4008 0fff 00       		.byte	0
 4009 1000 00       		.byte	0
 4010 1001 15       		.uleb128 0x15
 4011 1002 32040000 		.4byte	.LASF119
 4012 1006 01       		.byte	0x1
 4013 1007 6606     		.2byte	0x666
 4014 1009 00000000 		.4byte	.LFB25
 4015 100d 44000000 		.4byte	.LFE25-.LFB25
 4016 1011 01       		.uleb128 0x1
 4017 1012 9C       		.byte	0x9c
 4018 1013 69100000 		.4byte	0x1069
 4019 1017 17       		.uleb128 0x17
 4020 1018 BA080000 		.4byte	.LASF76
 4021 101c 01       		.byte	0x1
 4022 101d 6606     		.2byte	0x666
 4023 101f 83000000 		.4byte	0x83
 4024 1023 D5100000 		.4byte	.LLST79
 4025 1027 17       		.uleb128 0x17
 4026 1028 6C010000 		.4byte	.LASF77
 4027 102c 01       		.byte	0x1
 4028 102d 6606     		.2byte	0x666
 4029 102f 83000000 		.4byte	0x83
 4030 1033 0F110000 		.4byte	.LLST80
 4031 1037 1B       		.uleb128 0x1b
 4032 1038 F0060000 		.4byte	.LASF81
 4033 103c 01       		.byte	0x1
 4034 103d 6806     		.2byte	0x668
 4035 103f 8D050000 		.4byte	0x58d
 4036 1043 18       		.uleb128 0x18
 4037 1044 4F040000 		.4byte	.LASF70
 4038 1048 01       		.byte	0x1
 4039 1049 6906     		.2byte	0x669
 4040 104b CC020000 		.4byte	0x2cc
 4041 104f 54110000 		.4byte	.LLST81
 4042 1053 1B       		.uleb128 0x1b
 4043 1054 A2080000 		.4byte	.LASF84
 4044 1058 01       		.byte	0x1
 4045 1059 6A06     		.2byte	0x66a
 4046 105b 51040000 		.4byte	0x451
 4047 105f 1D       		.uleb128 0x1d
 4048 1060 3E000000 		.4byte	.LVL291
 4049 1064 5E0F0000 		.4byte	0xf5e
 4050 1068 00       		.byte	0
 4051 1069 2A       		.uleb128 0x2a
 4052 106a 63070000 		.4byte	.LASF123
 4053 106e 04       		.byte	0x4
 4054 106f 0D05     		.2byte	0x50d
 4055 1071 75100000 		.4byte	0x1075
 4056 1075 1C       		.uleb128 0x1c
 4057 1076 0B030000 		.4byte	0x30b
 4058 107a 00       		.byte	0
 4059              		.section	.debug_abbrev,"",%progbits
 4060              	.Ldebug_abbrev0:
ARM GAS  C:\Users\zack.li\AppData\Local\Temp\ccH890rU.s 			page 109


 4061 0000 01       		.uleb128 0x1
 4062 0001 11       		.uleb128 0x11
 4063 0002 01       		.byte	0x1
 4064 0003 25       		.uleb128 0x25
 4065 0004 0E       		.uleb128 0xe
 4066 0005 13       		.uleb128 0x13
 4067 0006 0B       		.uleb128 0xb
 4068 0007 03       		.uleb128 0x3
 4069 0008 0E       		.uleb128 0xe
 4070 0009 1B       		.uleb128 0x1b
 4071 000a 0E       		.uleb128 0xe
 4072 000b 55       		.uleb128 0x55
 4073 000c 17       		.uleb128 0x17
 4074 000d 11       		.uleb128 0x11
 4075 000e 01       		.uleb128 0x1
 4076 000f 10       		.uleb128 0x10
 4077 0010 17       		.uleb128 0x17
 4078 0011 00       		.byte	0
 4079 0012 00       		.byte	0
 4080 0013 02       		.uleb128 0x2
 4081 0014 24       		.uleb128 0x24
 4082 0015 00       		.byte	0
 4083 0016 0B       		.uleb128 0xb
 4084 0017 0B       		.uleb128 0xb
 4085 0018 3E       		.uleb128 0x3e
 4086 0019 0B       		.uleb128 0xb
 4087 001a 03       		.uleb128 0x3
 4088 001b 0E       		.uleb128 0xe
 4089 001c 00       		.byte	0
 4090 001d 00       		.byte	0
 4091 001e 03       		.uleb128 0x3
 4092 001f 24       		.uleb128 0x24
 4093 0020 00       		.byte	0
 4094 0021 0B       		.uleb128 0xb
 4095 0022 0B       		.uleb128 0xb
 4096 0023 3E       		.uleb128 0x3e
 4097 0024 0B       		.uleb128 0xb
 4098 0025 03       		.uleb128 0x3
 4099 0026 08       		.uleb128 0x8
 4100 0027 00       		.byte	0
 4101 0028 00       		.byte	0
 4102 0029 04       		.uleb128 0x4
 4103 002a 16       		.uleb128 0x16
 4104 002b 00       		.byte	0
 4105 002c 03       		.uleb128 0x3
 4106 002d 0E       		.uleb128 0xe
 4107 002e 3A       		.uleb128 0x3a
 4108 002f 0B       		.uleb128 0xb
 4109 0030 3B       		.uleb128 0x3b
 4110 0031 05       		.uleb128 0x5
 4111 0032 49       		.uleb128 0x49
 4112 0033 13       		.uleb128 0x13
 4113 0034 00       		.byte	0
 4114 0035 00       		.byte	0
 4115 0036 05       		.uleb128 0x5
 4116 0037 0F       		.uleb128 0xf
 4117 0038 00       		.byte	0
ARM GAS  C:\Users\zack.li\AppData\Local\Temp\ccH890rU.s 			page 110


 4118 0039 0B       		.uleb128 0xb
 4119 003a 0B       		.uleb128 0xb
 4120 003b 00       		.byte	0
 4121 003c 00       		.byte	0
 4122 003d 06       		.uleb128 0x6
 4123 003e 04       		.uleb128 0x4
 4124 003f 01       		.byte	0x1
 4125 0040 0B       		.uleb128 0xb
 4126 0041 0B       		.uleb128 0xb
 4127 0042 49       		.uleb128 0x49
 4128 0043 13       		.uleb128 0x13
 4129 0044 3A       		.uleb128 0x3a
 4130 0045 0B       		.uleb128 0xb
 4131 0046 3B       		.uleb128 0x3b
 4132 0047 0B       		.uleb128 0xb
 4133 0048 01       		.uleb128 0x1
 4134 0049 13       		.uleb128 0x13
 4135 004a 00       		.byte	0
 4136 004b 00       		.byte	0
 4137 004c 07       		.uleb128 0x7
 4138 004d 28       		.uleb128 0x28
 4139 004e 00       		.byte	0
 4140 004f 03       		.uleb128 0x3
 4141 0050 0E       		.uleb128 0xe
 4142 0051 1C       		.uleb128 0x1c
 4143 0052 0B       		.uleb128 0xb
 4144 0053 00       		.byte	0
 4145 0054 00       		.byte	0
 4146 0055 08       		.uleb128 0x8
 4147 0056 16       		.uleb128 0x16
 4148 0057 00       		.byte	0
 4149 0058 03       		.uleb128 0x3
 4150 0059 0E       		.uleb128 0xe
 4151 005a 3A       		.uleb128 0x3a
 4152 005b 0B       		.uleb128 0xb
 4153 005c 3B       		.uleb128 0x3b
 4154 005d 0B       		.uleb128 0xb
 4155 005e 49       		.uleb128 0x49
 4156 005f 13       		.uleb128 0x13
 4157 0060 00       		.byte	0
 4158 0061 00       		.byte	0
 4159 0062 09       		.uleb128 0x9
 4160 0063 13       		.uleb128 0x13
 4161 0064 01       		.byte	0x1
 4162 0065 0B       		.uleb128 0xb
 4163 0066 0B       		.uleb128 0xb
 4164 0067 3A       		.uleb128 0x3a
 4165 0068 0B       		.uleb128 0xb
 4166 0069 3B       		.uleb128 0x3b
 4167 006a 0B       		.uleb128 0xb
 4168 006b 01       		.uleb128 0x1
 4169 006c 13       		.uleb128 0x13
 4170 006d 00       		.byte	0
 4171 006e 00       		.byte	0
 4172 006f 0A       		.uleb128 0xa
 4173 0070 0D       		.uleb128 0xd
 4174 0071 00       		.byte	0
ARM GAS  C:\Users\zack.li\AppData\Local\Temp\ccH890rU.s 			page 111


 4175 0072 03       		.uleb128 0x3
 4176 0073 0E       		.uleb128 0xe
 4177 0074 3A       		.uleb128 0x3a
 4178 0075 0B       		.uleb128 0xb
 4179 0076 3B       		.uleb128 0x3b
 4180 0077 0B       		.uleb128 0xb
 4181 0078 49       		.uleb128 0x49
 4182 0079 13       		.uleb128 0x13
 4183 007a 38       		.uleb128 0x38
 4184 007b 0B       		.uleb128 0xb
 4185 007c 00       		.byte	0
 4186 007d 00       		.byte	0
 4187 007e 0B       		.uleb128 0xb
 4188 007f 01       		.uleb128 0x1
 4189 0080 01       		.byte	0x1
 4190 0081 49       		.uleb128 0x49
 4191 0082 13       		.uleb128 0x13
 4192 0083 01       		.uleb128 0x1
 4193 0084 13       		.uleb128 0x13
 4194 0085 00       		.byte	0
 4195 0086 00       		.byte	0
 4196 0087 0C       		.uleb128 0xc
 4197 0088 21       		.uleb128 0x21
 4198 0089 00       		.byte	0
 4199 008a 49       		.uleb128 0x49
 4200 008b 13       		.uleb128 0x13
 4201 008c 2F       		.uleb128 0x2f
 4202 008d 0B       		.uleb128 0xb
 4203 008e 00       		.byte	0
 4204 008f 00       		.byte	0
 4205 0090 0D       		.uleb128 0xd
 4206 0091 13       		.uleb128 0x13
 4207 0092 01       		.byte	0x1
 4208 0093 0B       		.uleb128 0xb
 4209 0094 0B       		.uleb128 0xb
 4210 0095 3A       		.uleb128 0x3a
 4211 0096 0B       		.uleb128 0xb
 4212 0097 3B       		.uleb128 0x3b
 4213 0098 05       		.uleb128 0x5
 4214 0099 01       		.uleb128 0x1
 4215 009a 13       		.uleb128 0x13
 4216 009b 00       		.byte	0
 4217 009c 00       		.byte	0
 4218 009d 0E       		.uleb128 0xe
 4219 009e 0D       		.uleb128 0xd
 4220 009f 00       		.byte	0
 4221 00a0 03       		.uleb128 0x3
 4222 00a1 08       		.uleb128 0x8
 4223 00a2 3A       		.uleb128 0x3a
 4224 00a3 0B       		.uleb128 0xb
 4225 00a4 3B       		.uleb128 0x3b
 4226 00a5 05       		.uleb128 0x5
 4227 00a6 49       		.uleb128 0x49
 4228 00a7 13       		.uleb128 0x13
 4229 00a8 38       		.uleb128 0x38
 4230 00a9 0B       		.uleb128 0xb
 4231 00aa 00       		.byte	0
ARM GAS  C:\Users\zack.li\AppData\Local\Temp\ccH890rU.s 			page 112


 4232 00ab 00       		.byte	0
 4233 00ac 0F       		.uleb128 0xf
 4234 00ad 0D       		.uleb128 0xd
 4235 00ae 00       		.byte	0
 4236 00af 03       		.uleb128 0x3
 4237 00b0 0E       		.uleb128 0xe
 4238 00b1 3A       		.uleb128 0x3a
 4239 00b2 0B       		.uleb128 0xb
 4240 00b3 3B       		.uleb128 0x3b
 4241 00b4 05       		.uleb128 0x5
 4242 00b5 49       		.uleb128 0x49
 4243 00b6 13       		.uleb128 0x13
 4244 00b7 38       		.uleb128 0x38
 4245 00b8 0B       		.uleb128 0xb
 4246 00b9 00       		.byte	0
 4247 00ba 00       		.byte	0
 4248 00bb 10       		.uleb128 0x10
 4249 00bc 0F       		.uleb128 0xf
 4250 00bd 00       		.byte	0
 4251 00be 0B       		.uleb128 0xb
 4252 00bf 0B       		.uleb128 0xb
 4253 00c0 49       		.uleb128 0x49
 4254 00c1 13       		.uleb128 0x13
 4255 00c2 00       		.byte	0
 4256 00c3 00       		.byte	0
 4257 00c4 11       		.uleb128 0x11
 4258 00c5 26       		.uleb128 0x26
 4259 00c6 00       		.byte	0
 4260 00c7 00       		.byte	0
 4261 00c8 00       		.byte	0
 4262 00c9 12       		.uleb128 0x12
 4263 00ca 17       		.uleb128 0x17
 4264 00cb 01       		.byte	0x1
 4265 00cc 0B       		.uleb128 0xb
 4266 00cd 0B       		.uleb128 0xb
 4267 00ce 3A       		.uleb128 0x3a
 4268 00cf 0B       		.uleb128 0xb
 4269 00d0 3B       		.uleb128 0x3b
 4270 00d1 05       		.uleb128 0x5
 4271 00d2 01       		.uleb128 0x1
 4272 00d3 13       		.uleb128 0x13
 4273 00d4 00       		.byte	0
 4274 00d5 00       		.byte	0
 4275 00d6 13       		.uleb128 0x13
 4276 00d7 0D       		.uleb128 0xd
 4277 00d8 00       		.byte	0
 4278 00d9 03       		.uleb128 0x3
 4279 00da 08       		.uleb128 0x8
 4280 00db 3A       		.uleb128 0x3a
 4281 00dc 0B       		.uleb128 0xb
 4282 00dd 3B       		.uleb128 0x3b
 4283 00de 05       		.uleb128 0x5
 4284 00df 49       		.uleb128 0x49
 4285 00e0 13       		.uleb128 0x13
 4286 00e1 00       		.byte	0
 4287 00e2 00       		.byte	0
 4288 00e3 14       		.uleb128 0x14
ARM GAS  C:\Users\zack.li\AppData\Local\Temp\ccH890rU.s 			page 113


 4289 00e4 0D       		.uleb128 0xd
 4290 00e5 00       		.byte	0
 4291 00e6 03       		.uleb128 0x3
 4292 00e7 0E       		.uleb128 0xe
 4293 00e8 3A       		.uleb128 0x3a
 4294 00e9 0B       		.uleb128 0xb
 4295 00ea 3B       		.uleb128 0x3b
 4296 00eb 05       		.uleb128 0x5
 4297 00ec 49       		.uleb128 0x49
 4298 00ed 13       		.uleb128 0x13
 4299 00ee 00       		.byte	0
 4300 00ef 00       		.byte	0
 4301 00f0 15       		.uleb128 0x15
 4302 00f1 2E       		.uleb128 0x2e
 4303 00f2 01       		.byte	0x1
 4304 00f3 3F       		.uleb128 0x3f
 4305 00f4 19       		.uleb128 0x19
 4306 00f5 03       		.uleb128 0x3
 4307 00f6 0E       		.uleb128 0xe
 4308 00f7 3A       		.uleb128 0x3a
 4309 00f8 0B       		.uleb128 0xb
 4310 00f9 3B       		.uleb128 0x3b
 4311 00fa 05       		.uleb128 0x5
 4312 00fb 27       		.uleb128 0x27
 4313 00fc 19       		.uleb128 0x19
 4314 00fd 11       		.uleb128 0x11
 4315 00fe 01       		.uleb128 0x1
 4316 00ff 12       		.uleb128 0x12
 4317 0100 06       		.uleb128 0x6
 4318 0101 40       		.uleb128 0x40
 4319 0102 18       		.uleb128 0x18
 4320 0103 9742     		.uleb128 0x2117
 4321 0105 19       		.uleb128 0x19
 4322 0106 01       		.uleb128 0x1
 4323 0107 13       		.uleb128 0x13
 4324 0108 00       		.byte	0
 4325 0109 00       		.byte	0
 4326 010a 16       		.uleb128 0x16
 4327 010b 05       		.uleb128 0x5
 4328 010c 00       		.byte	0
 4329 010d 03       		.uleb128 0x3
 4330 010e 0E       		.uleb128 0xe
 4331 010f 3A       		.uleb128 0x3a
 4332 0110 0B       		.uleb128 0xb
 4333 0111 3B       		.uleb128 0x3b
 4334 0112 05       		.uleb128 0x5
 4335 0113 49       		.uleb128 0x49
 4336 0114 13       		.uleb128 0x13
 4337 0115 02       		.uleb128 0x2
 4338 0116 18       		.uleb128 0x18
 4339 0117 00       		.byte	0
 4340 0118 00       		.byte	0
 4341 0119 17       		.uleb128 0x17
 4342 011a 05       		.uleb128 0x5
 4343 011b 00       		.byte	0
 4344 011c 03       		.uleb128 0x3
 4345 011d 0E       		.uleb128 0xe
ARM GAS  C:\Users\zack.li\AppData\Local\Temp\ccH890rU.s 			page 114


 4346 011e 3A       		.uleb128 0x3a
 4347 011f 0B       		.uleb128 0xb
 4348 0120 3B       		.uleb128 0x3b
 4349 0121 05       		.uleb128 0x5
 4350 0122 49       		.uleb128 0x49
 4351 0123 13       		.uleb128 0x13
 4352 0124 02       		.uleb128 0x2
 4353 0125 17       		.uleb128 0x17
 4354 0126 00       		.byte	0
 4355 0127 00       		.byte	0
 4356 0128 18       		.uleb128 0x18
 4357 0129 34       		.uleb128 0x34
 4358 012a 00       		.byte	0
 4359 012b 03       		.uleb128 0x3
 4360 012c 0E       		.uleb128 0xe
 4361 012d 3A       		.uleb128 0x3a
 4362 012e 0B       		.uleb128 0xb
 4363 012f 3B       		.uleb128 0x3b
 4364 0130 05       		.uleb128 0x5
 4365 0131 49       		.uleb128 0x49
 4366 0132 13       		.uleb128 0x13
 4367 0133 02       		.uleb128 0x2
 4368 0134 17       		.uleb128 0x17
 4369 0135 00       		.byte	0
 4370 0136 00       		.byte	0
 4371 0137 19       		.uleb128 0x19
 4372 0138 898201   		.uleb128 0x4109
 4373 013b 01       		.byte	0x1
 4374 013c 11       		.uleb128 0x11
 4375 013d 01       		.uleb128 0x1
 4376 013e 31       		.uleb128 0x31
 4377 013f 13       		.uleb128 0x13
 4378 0140 00       		.byte	0
 4379 0141 00       		.byte	0
 4380 0142 1A       		.uleb128 0x1a
 4381 0143 8A8201   		.uleb128 0x410a
 4382 0146 00       		.byte	0
 4383 0147 02       		.uleb128 0x2
 4384 0148 18       		.uleb128 0x18
 4385 0149 9142     		.uleb128 0x2111
 4386 014b 18       		.uleb128 0x18
 4387 014c 00       		.byte	0
 4388 014d 00       		.byte	0
 4389 014e 1B       		.uleb128 0x1b
 4390 014f 34       		.uleb128 0x34
 4391 0150 00       		.byte	0
 4392 0151 03       		.uleb128 0x3
 4393 0152 0E       		.uleb128 0xe
 4394 0153 3A       		.uleb128 0x3a
 4395 0154 0B       		.uleb128 0xb
 4396 0155 3B       		.uleb128 0x3b
 4397 0156 05       		.uleb128 0x5
 4398 0157 49       		.uleb128 0x49
 4399 0158 13       		.uleb128 0x13
 4400 0159 00       		.byte	0
 4401 015a 00       		.byte	0
 4402 015b 1C       		.uleb128 0x1c
ARM GAS  C:\Users\zack.li\AppData\Local\Temp\ccH890rU.s 			page 115


 4403 015c 26       		.uleb128 0x26
 4404 015d 00       		.byte	0
 4405 015e 49       		.uleb128 0x49
 4406 015f 13       		.uleb128 0x13
 4407 0160 00       		.byte	0
 4408 0161 00       		.byte	0
 4409 0162 1D       		.uleb128 0x1d
 4410 0163 898201   		.uleb128 0x4109
 4411 0166 00       		.byte	0
 4412 0167 11       		.uleb128 0x11
 4413 0168 01       		.uleb128 0x1
 4414 0169 31       		.uleb128 0x31
 4415 016a 13       		.uleb128 0x13
 4416 016b 00       		.byte	0
 4417 016c 00       		.byte	0
 4418 016d 1E       		.uleb128 0x1e
 4419 016e 898201   		.uleb128 0x4109
 4420 0171 01       		.byte	0x1
 4421 0172 11       		.uleb128 0x11
 4422 0173 01       		.uleb128 0x1
 4423 0174 31       		.uleb128 0x31
 4424 0175 13       		.uleb128 0x13
 4425 0176 01       		.uleb128 0x1
 4426 0177 13       		.uleb128 0x13
 4427 0178 00       		.byte	0
 4428 0179 00       		.byte	0
 4429 017a 1F       		.uleb128 0x1f
 4430 017b 2E       		.uleb128 0x2e
 4431 017c 01       		.byte	0x1
 4432 017d 3F       		.uleb128 0x3f
 4433 017e 19       		.uleb128 0x19
 4434 017f 03       		.uleb128 0x3
 4435 0180 0E       		.uleb128 0xe
 4436 0181 3A       		.uleb128 0x3a
 4437 0182 0B       		.uleb128 0xb
 4438 0183 3B       		.uleb128 0x3b
 4439 0184 0B       		.uleb128 0xb
 4440 0185 27       		.uleb128 0x27
 4441 0186 19       		.uleb128 0x19
 4442 0187 11       		.uleb128 0x11
 4443 0188 01       		.uleb128 0x1
 4444 0189 12       		.uleb128 0x12
 4445 018a 06       		.uleb128 0x6
 4446 018b 40       		.uleb128 0x40
 4447 018c 18       		.uleb128 0x18
 4448 018d 9742     		.uleb128 0x2117
 4449 018f 19       		.uleb128 0x19
 4450 0190 01       		.uleb128 0x1
 4451 0191 13       		.uleb128 0x13
 4452 0192 00       		.byte	0
 4453 0193 00       		.byte	0
 4454 0194 20       		.uleb128 0x20
 4455 0195 2E       		.uleb128 0x2e
 4456 0196 01       		.byte	0x1
 4457 0197 3F       		.uleb128 0x3f
 4458 0198 19       		.uleb128 0x19
 4459 0199 03       		.uleb128 0x3
ARM GAS  C:\Users\zack.li\AppData\Local\Temp\ccH890rU.s 			page 116


 4460 019a 0E       		.uleb128 0xe
 4461 019b 3A       		.uleb128 0x3a
 4462 019c 0B       		.uleb128 0xb
 4463 019d 3B       		.uleb128 0x3b
 4464 019e 05       		.uleb128 0x5
 4465 019f 27       		.uleb128 0x27
 4466 01a0 19       		.uleb128 0x19
 4467 01a1 49       		.uleb128 0x49
 4468 01a2 13       		.uleb128 0x13
 4469 01a3 11       		.uleb128 0x11
 4470 01a4 01       		.uleb128 0x1
 4471 01a5 12       		.uleb128 0x12
 4472 01a6 06       		.uleb128 0x6
 4473 01a7 40       		.uleb128 0x40
 4474 01a8 18       		.uleb128 0x18
 4475 01a9 9742     		.uleb128 0x2117
 4476 01ab 19       		.uleb128 0x19
 4477 01ac 01       		.uleb128 0x1
 4478 01ad 13       		.uleb128 0x13
 4479 01ae 00       		.byte	0
 4480 01af 00       		.byte	0
 4481 01b0 21       		.uleb128 0x21
 4482 01b1 05       		.uleb128 0x5
 4483 01b2 00       		.byte	0
 4484 01b3 03       		.uleb128 0x3
 4485 01b4 08       		.uleb128 0x8
 4486 01b5 3A       		.uleb128 0x3a
 4487 01b6 0B       		.uleb128 0xb
 4488 01b7 3B       		.uleb128 0x3b
 4489 01b8 05       		.uleb128 0x5
 4490 01b9 49       		.uleb128 0x49
 4491 01ba 13       		.uleb128 0x13
 4492 01bb 02       		.uleb128 0x2
 4493 01bc 17       		.uleb128 0x17
 4494 01bd 00       		.byte	0
 4495 01be 00       		.byte	0
 4496 01bf 22       		.uleb128 0x22
 4497 01c0 05       		.uleb128 0x5
 4498 01c1 00       		.byte	0
 4499 01c2 03       		.uleb128 0x3
 4500 01c3 08       		.uleb128 0x8
 4501 01c4 3A       		.uleb128 0x3a
 4502 01c5 0B       		.uleb128 0xb
 4503 01c6 3B       		.uleb128 0x3b
 4504 01c7 05       		.uleb128 0x5
 4505 01c8 49       		.uleb128 0x49
 4506 01c9 13       		.uleb128 0x13
 4507 01ca 02       		.uleb128 0x2
 4508 01cb 18       		.uleb128 0x18
 4509 01cc 00       		.byte	0
 4510 01cd 00       		.byte	0
 4511 01ce 23       		.uleb128 0x23
 4512 01cf 34       		.uleb128 0x34
 4513 01d0 00       		.byte	0
 4514 01d1 03       		.uleb128 0x3
 4515 01d2 08       		.uleb128 0x8
 4516 01d3 3A       		.uleb128 0x3a
ARM GAS  C:\Users\zack.li\AppData\Local\Temp\ccH890rU.s 			page 117


 4517 01d4 0B       		.uleb128 0xb
 4518 01d5 3B       		.uleb128 0x3b
 4519 01d6 05       		.uleb128 0x5
 4520 01d7 49       		.uleb128 0x49
 4521 01d8 13       		.uleb128 0x13
 4522 01d9 00       		.byte	0
 4523 01da 00       		.byte	0
 4524 01db 24       		.uleb128 0x24
 4525 01dc 34       		.uleb128 0x34
 4526 01dd 00       		.byte	0
 4527 01de 03       		.uleb128 0x3
 4528 01df 0E       		.uleb128 0xe
 4529 01e0 3A       		.uleb128 0x3a
 4530 01e1 0B       		.uleb128 0xb
 4531 01e2 3B       		.uleb128 0x3b
 4532 01e3 05       		.uleb128 0x5
 4533 01e4 49       		.uleb128 0x49
 4534 01e5 13       		.uleb128 0x13
 4535 01e6 02       		.uleb128 0x2
 4536 01e7 18       		.uleb128 0x18
 4537 01e8 00       		.byte	0
 4538 01e9 00       		.byte	0
 4539 01ea 25       		.uleb128 0x25
 4540 01eb 2E       		.uleb128 0x2e
 4541 01ec 01       		.byte	0x1
 4542 01ed 3F       		.uleb128 0x3f
 4543 01ee 19       		.uleb128 0x19
 4544 01ef 03       		.uleb128 0x3
 4545 01f0 0E       		.uleb128 0xe
 4546 01f1 3A       		.uleb128 0x3a
 4547 01f2 0B       		.uleb128 0xb
 4548 01f3 3B       		.uleb128 0x3b
 4549 01f4 0B       		.uleb128 0xb
 4550 01f5 27       		.uleb128 0x27
 4551 01f6 19       		.uleb128 0x19
 4552 01f7 49       		.uleb128 0x49
 4553 01f8 13       		.uleb128 0x13
 4554 01f9 11       		.uleb128 0x11
 4555 01fa 01       		.uleb128 0x1
 4556 01fb 12       		.uleb128 0x12
 4557 01fc 06       		.uleb128 0x6
 4558 01fd 40       		.uleb128 0x40
 4559 01fe 18       		.uleb128 0x18
 4560 01ff 9742     		.uleb128 0x2117
 4561 0201 19       		.uleb128 0x19
 4562 0202 01       		.uleb128 0x1
 4563 0203 13       		.uleb128 0x13
 4564 0204 00       		.byte	0
 4565 0205 00       		.byte	0
 4566 0206 26       		.uleb128 0x26
 4567 0207 34       		.uleb128 0x34
 4568 0208 00       		.byte	0
 4569 0209 03       		.uleb128 0x3
 4570 020a 0E       		.uleb128 0xe
 4571 020b 3A       		.uleb128 0x3a
 4572 020c 0B       		.uleb128 0xb
 4573 020d 3B       		.uleb128 0x3b
ARM GAS  C:\Users\zack.li\AppData\Local\Temp\ccH890rU.s 			page 118


 4574 020e 05       		.uleb128 0x5
 4575 020f 49       		.uleb128 0x49
 4576 0210 13       		.uleb128 0x13
 4577 0211 1C       		.uleb128 0x1c
 4578 0212 0B       		.uleb128 0xb
 4579 0213 00       		.byte	0
 4580 0214 00       		.byte	0
 4581 0215 27       		.uleb128 0x27
 4582 0216 05       		.uleb128 0x5
 4583 0217 00       		.byte	0
 4584 0218 03       		.uleb128 0x3
 4585 0219 0E       		.uleb128 0xe
 4586 021a 3A       		.uleb128 0x3a
 4587 021b 0B       		.uleb128 0xb
 4588 021c 3B       		.uleb128 0x3b
 4589 021d 0B       		.uleb128 0xb
 4590 021e 49       		.uleb128 0x49
 4591 021f 13       		.uleb128 0x13
 4592 0220 02       		.uleb128 0x2
 4593 0221 17       		.uleb128 0x17
 4594 0222 00       		.byte	0
 4595 0223 00       		.byte	0
 4596 0224 28       		.uleb128 0x28
 4597 0225 34       		.uleb128 0x34
 4598 0226 00       		.byte	0
 4599 0227 03       		.uleb128 0x3
 4600 0228 0E       		.uleb128 0xe
 4601 0229 3A       		.uleb128 0x3a
 4602 022a 0B       		.uleb128 0xb
 4603 022b 3B       		.uleb128 0x3b
 4604 022c 0B       		.uleb128 0xb
 4605 022d 49       		.uleb128 0x49
 4606 022e 13       		.uleb128 0x13
 4607 022f 02       		.uleb128 0x2
 4608 0230 17       		.uleb128 0x17
 4609 0231 00       		.byte	0
 4610 0232 00       		.byte	0
 4611 0233 29       		.uleb128 0x29
 4612 0234 34       		.uleb128 0x34
 4613 0235 00       		.byte	0
 4614 0236 03       		.uleb128 0x3
 4615 0237 0E       		.uleb128 0xe
 4616 0238 3A       		.uleb128 0x3a
 4617 0239 0B       		.uleb128 0xb
 4618 023a 3B       		.uleb128 0x3b
 4619 023b 0B       		.uleb128 0xb
 4620 023c 49       		.uleb128 0x49
 4621 023d 13       		.uleb128 0x13
 4622 023e 00       		.byte	0
 4623 023f 00       		.byte	0
 4624 0240 2A       		.uleb128 0x2a
 4625 0241 34       		.uleb128 0x34
 4626 0242 00       		.byte	0
 4627 0243 03       		.uleb128 0x3
 4628 0244 0E       		.uleb128 0xe
 4629 0245 3A       		.uleb128 0x3a
 4630 0246 0B       		.uleb128 0xb
ARM GAS  C:\Users\zack.li\AppData\Local\Temp\ccH890rU.s 			page 119


 4631 0247 3B       		.uleb128 0x3b
 4632 0248 05       		.uleb128 0x5
 4633 0249 49       		.uleb128 0x49
 4634 024a 13       		.uleb128 0x13
 4635 024b 3F       		.uleb128 0x3f
 4636 024c 19       		.uleb128 0x19
 4637 024d 3C       		.uleb128 0x3c
 4638 024e 19       		.uleb128 0x19
 4639 024f 00       		.byte	0
 4640 0250 00       		.byte	0
 4641 0251 00       		.byte	0
 4642              		.section	.debug_loc,"",%progbits
 4643              	.Ldebug_loc0:
 4644              	.LLST0:
 4645 0000 00000000 		.4byte	.LVL0
 4646 0004 04000000 		.4byte	.LVL1
 4647 0008 0100     		.2byte	0x1
 4648 000a 51       		.byte	0x51
 4649 000b 04000000 		.4byte	.LVL1
 4650 000f 26000000 		.4byte	.LFE10
 4651 0013 0400     		.2byte	0x4
 4652 0015 F3       		.byte	0xf3
 4653 0016 01       		.uleb128 0x1
 4654 0017 51       		.byte	0x51
 4655 0018 9F       		.byte	0x9f
 4656 0019 00000000 		.4byte	0
 4657 001d 00000000 		.4byte	0
 4658              	.LLST1:
 4659 0021 00000000 		.4byte	.LVL0
 4660 0025 20000000 		.4byte	.LVL2
 4661 0029 0100     		.2byte	0x1
 4662 002b 52       		.byte	0x52
 4663 002c 20000000 		.4byte	.LVL2
 4664 0030 26000000 		.4byte	.LFE10
 4665 0034 0400     		.2byte	0x4
 4666 0036 F3       		.byte	0xf3
 4667 0037 01       		.uleb128 0x1
 4668 0038 52       		.byte	0x52
 4669 0039 9F       		.byte	0x9f
 4670 003a 00000000 		.4byte	0
 4671 003e 00000000 		.4byte	0
 4672              	.LLST2:
 4673 0042 00000000 		.4byte	.LVL3
 4674 0046 0A000000 		.4byte	.LVL5
 4675 004a 0100     		.2byte	0x1
 4676 004c 50       		.byte	0x50
 4677 004d 0A000000 		.4byte	.LVL5
 4678 0051 1C000000 		.4byte	.LVL11
 4679 0055 0100     		.2byte	0x1
 4680 0057 56       		.byte	0x56
 4681 0058 1C000000 		.4byte	.LVL11
 4682 005c 1E000000 		.4byte	.LFE9
 4683 0060 0400     		.2byte	0x4
 4684 0062 F3       		.byte	0xf3
 4685 0063 01       		.uleb128 0x1
 4686 0064 50       		.byte	0x50
 4687 0065 9F       		.byte	0x9f
ARM GAS  C:\Users\zack.li\AppData\Local\Temp\ccH890rU.s 			page 120


 4688 0066 00000000 		.4byte	0
 4689 006a 00000000 		.4byte	0
 4690              	.LLST3:
 4691 006e 00000000 		.4byte	.LVL3
 4692 0072 0A000000 		.4byte	.LVL5
 4693 0076 0100     		.2byte	0x1
 4694 0078 51       		.byte	0x51
 4695 0079 0A000000 		.4byte	.LVL5
 4696 007d 1C000000 		.4byte	.LVL10
 4697 0081 0100     		.2byte	0x1
 4698 0083 55       		.byte	0x55
 4699 0084 1C000000 		.4byte	.LVL10
 4700 0088 1E000000 		.4byte	.LFE9
 4701 008c 0400     		.2byte	0x4
 4702 008e F3       		.byte	0xf3
 4703 008f 01       		.uleb128 0x1
 4704 0090 51       		.byte	0x51
 4705 0091 9F       		.byte	0x9f
 4706 0092 00000000 		.4byte	0
 4707 0096 00000000 		.4byte	0
 4708              	.LLST4:
 4709 009a 06000000 		.4byte	.LVL4
 4710 009e 0A000000 		.4byte	.LVL5
 4711 00a2 0200     		.2byte	0x2
 4712 00a4 31       		.byte	0x31
 4713 00a5 9F       		.byte	0x9f
 4714 00a6 0A000000 		.4byte	.LVL5
 4715 00aa 16000000 		.4byte	.LVL7
 4716 00ae 0100     		.2byte	0x1
 4717 00b0 54       		.byte	0x54
 4718 00b1 16000000 		.4byte	.LVL7
 4719 00b5 18000000 		.4byte	.LVL8
 4720 00b9 0100     		.2byte	0x1
 4721 00bb 53       		.byte	0x53
 4722 00bc 18000000 		.4byte	.LVL8
 4723 00c0 1C000000 		.4byte	.LVL9
 4724 00c4 0100     		.2byte	0x1
 4725 00c6 54       		.byte	0x54
 4726 00c7 1C000000 		.4byte	.LVL9
 4727 00cb 1E000000 		.4byte	.LFE9
 4728 00cf 0300     		.2byte	0x3
 4729 00d1 73       		.byte	0x73
 4730 00d2 7F       		.sleb128 -1
 4731 00d3 9F       		.byte	0x9f
 4732 00d4 00000000 		.4byte	0
 4733 00d8 00000000 		.4byte	0
 4734              	.LLST5:
 4735 00dc 00000000 		.4byte	.LVL12
 4736 00e0 20000000 		.4byte	.LVL17
 4737 00e4 0100     		.2byte	0x1
 4738 00e6 50       		.byte	0x50
 4739 00e7 20000000 		.4byte	.LVL17
 4740 00eb 2C000000 		.4byte	.LFE8
 4741 00ef 0400     		.2byte	0x4
 4742 00f1 F3       		.byte	0xf3
 4743 00f2 01       		.uleb128 0x1
 4744 00f3 50       		.byte	0x50
ARM GAS  C:\Users\zack.li\AppData\Local\Temp\ccH890rU.s 			page 121


 4745 00f4 9F       		.byte	0x9f
 4746 00f5 00000000 		.4byte	0
 4747 00f9 00000000 		.4byte	0
 4748              	.LLST6:
 4749 00fd 00000000 		.4byte	.LVL12
 4750 0101 12000000 		.4byte	.LVL15
 4751 0105 0100     		.2byte	0x1
 4752 0107 51       		.byte	0x51
 4753 0108 12000000 		.4byte	.LVL15
 4754 010c 2C000000 		.4byte	.LFE8
 4755 0110 0400     		.2byte	0x4
 4756 0112 F3       		.byte	0xf3
 4757 0113 01       		.uleb128 0x1
 4758 0114 51       		.byte	0x51
 4759 0115 9F       		.byte	0x9f
 4760 0116 00000000 		.4byte	0
 4761 011a 00000000 		.4byte	0
 4762              	.LLST7:
 4763 011e 02000000 		.4byte	.LVL13
 4764 0122 0E000000 		.4byte	.LVL14
 4765 0126 0200     		.2byte	0x2
 4766 0128 30       		.byte	0x30
 4767 0129 9F       		.byte	0x9f
 4768 012a 0E000000 		.4byte	.LVL14
 4769 012e 16000000 		.4byte	.LVL16
 4770 0132 0100     		.2byte	0x1
 4771 0134 55       		.byte	0x55
 4772 0135 16000000 		.4byte	.LVL16
 4773 0139 23000000 		.4byte	.LVL18-1
 4774 013d 0100     		.2byte	0x1
 4775 013f 52       		.byte	0x52
 4776 0140 23000000 		.4byte	.LVL18-1
 4777 0144 24000000 		.4byte	.LVL19
 4778 0148 0F00     		.2byte	0xf
 4779 014a F3       		.byte	0xf3
 4780 014b 01       		.uleb128 0x1
 4781 014c 51       		.byte	0x51
 4782 014d 32       		.byte	0x32
 4783 014e 24       		.byte	0x24
 4784 014f F3       		.byte	0xf3
 4785 0150 01       		.uleb128 0x1
 4786 0151 51       		.byte	0x51
 4787 0152 22       		.byte	0x22
 4788 0153 31       		.byte	0x31
 4789 0154 24       		.byte	0x24
 4790 0155 75       		.byte	0x75
 4791 0156 00       		.sleb128 0
 4792 0157 22       		.byte	0x22
 4793 0158 9F       		.byte	0x9f
 4794 0159 00000000 		.4byte	0
 4795 015d 00000000 		.4byte	0
 4796              	.LLST8:
 4797 0161 00000000 		.4byte	.LVL20
 4798 0165 12000000 		.4byte	.LVL23
 4799 0169 0100     		.2byte	0x1
 4800 016b 50       		.byte	0x50
 4801 016c 12000000 		.4byte	.LVL23
ARM GAS  C:\Users\zack.li\AppData\Local\Temp\ccH890rU.s 			page 122


 4802 0170 22000000 		.4byte	.LVL28
 4803 0174 0100     		.2byte	0x1
 4804 0176 55       		.byte	0x55
 4805 0177 22000000 		.4byte	.LVL28
 4806 017b 28000000 		.4byte	.LFE7
 4807 017f 0400     		.2byte	0x4
 4808 0181 F3       		.byte	0xf3
 4809 0182 01       		.uleb128 0x1
 4810 0183 50       		.byte	0x50
 4811 0184 9F       		.byte	0x9f
 4812 0185 00000000 		.4byte	0
 4813 0189 00000000 		.4byte	0
 4814              	.LLST9:
 4815 018d 10000000 		.4byte	.LVL22
 4816 0191 12000000 		.4byte	.LVL23
 4817 0195 0100     		.2byte	0x1
 4818 0197 53       		.byte	0x53
 4819 0198 12000000 		.4byte	.LVL23
 4820 019c 1C000000 		.4byte	.LVL25
 4821 01a0 0100     		.2byte	0x1
 4822 01a2 54       		.byte	0x54
 4823 01a3 1C000000 		.4byte	.LVL25
 4824 01a7 1E000000 		.4byte	.LVL26
 4825 01ab 0100     		.2byte	0x1
 4826 01ad 53       		.byte	0x53
 4827 01ae 1E000000 		.4byte	.LVL26
 4828 01b2 22000000 		.4byte	.LVL27
 4829 01b6 0100     		.2byte	0x1
 4830 01b8 54       		.byte	0x54
 4831 01b9 22000000 		.4byte	.LVL27
 4832 01bd 28000000 		.4byte	.LFE7
 4833 01c1 0300     		.2byte	0x3
 4834 01c3 73       		.byte	0x73
 4835 01c4 7F       		.sleb128 -1
 4836 01c5 9F       		.byte	0x9f
 4837 01c6 00000000 		.4byte	0
 4838 01ca 00000000 		.4byte	0
 4839              	.LLST10:
 4840 01ce 10000000 		.4byte	.LVL22
 4841 01d2 12000000 		.4byte	.LVL23
 4842 01d6 0100     		.2byte	0x1
 4843 01d8 53       		.byte	0x53
 4844 01d9 00000000 		.4byte	0
 4845 01dd 00000000 		.4byte	0
 4846              	.LLST11:
 4847 01e1 02000000 		.4byte	.LVL29
 4848 01e5 06000000 		.4byte	.LVL30
 4849 01e9 0200     		.2byte	0x2
 4850 01eb 36       		.byte	0x36
 4851 01ec 9F       		.byte	0x9f
 4852 01ed 06000000 		.4byte	.LVL30
 4853 01f1 0E000000 		.4byte	.LVL32
 4854 01f5 0100     		.2byte	0x1
 4855 01f7 54       		.byte	0x54
 4856 01f8 0E000000 		.4byte	.LVL32
 4857 01fc 10000000 		.4byte	.LVL33
 4858 0200 0100     		.2byte	0x1
ARM GAS  C:\Users\zack.li\AppData\Local\Temp\ccH890rU.s 			page 123


 4859 0202 53       		.byte	0x53
 4860 0203 10000000 		.4byte	.LVL33
 4861 0207 14000000 		.4byte	.LVL34
 4862 020b 0100     		.2byte	0x1
 4863 020d 54       		.byte	0x54
 4864 020e 14000000 		.4byte	.LVL34
 4865 0212 16000000 		.4byte	.LFE6
 4866 0216 0300     		.2byte	0x3
 4867 0218 73       		.byte	0x73
 4868 0219 7F       		.sleb128 -1
 4869 021a 9F       		.byte	0x9f
 4870 021b 00000000 		.4byte	0
 4871 021f 00000000 		.4byte	0
 4872              	.LLST12:
 4873 0223 02000000 		.4byte	.LVL36
 4874 0227 06000000 		.4byte	.LVL37
 4875 022b 0200     		.2byte	0x2
 4876 022d 31       		.byte	0x31
 4877 022e 9F       		.byte	0x9f
 4878 022f 06000000 		.4byte	.LVL37
 4879 0233 26000000 		.4byte	.LVL38
 4880 0237 0100     		.2byte	0x1
 4881 0239 54       		.byte	0x54
 4882 023a 26000000 		.4byte	.LVL38
 4883 023e 28000000 		.4byte	.LVL39
 4884 0242 0100     		.2byte	0x1
 4885 0244 53       		.byte	0x53
 4886 0245 28000000 		.4byte	.LVL39
 4887 0249 2C000000 		.4byte	.LVL40
 4888 024d 0100     		.2byte	0x1
 4889 024f 54       		.byte	0x54
 4890 0250 2C000000 		.4byte	.LVL40
 4891 0254 2E000000 		.4byte	.LFE15
 4892 0258 0300     		.2byte	0x3
 4893 025a 73       		.byte	0x73
 4894 025b 7F       		.sleb128 -1
 4895 025c 9F       		.byte	0x9f
 4896 025d 00000000 		.4byte	0
 4897 0261 00000000 		.4byte	0
 4898              	.LLST13:
 4899 0265 00000000 		.4byte	.LVL41
 4900 0269 2A000000 		.4byte	.LVL46
 4901 026d 0100     		.2byte	0x1
 4902 026f 50       		.byte	0x50
 4903 0270 2A000000 		.4byte	.LVL46
 4904 0274 32000000 		.4byte	.LVL49
 4905 0278 0400     		.2byte	0x4
 4906 027a F3       		.byte	0xf3
 4907 027b 01       		.uleb128 0x1
 4908 027c 50       		.byte	0x50
 4909 027d 9F       		.byte	0x9f
 4910 027e 32000000 		.4byte	.LVL49
 4911 0282 34000000 		.4byte	.LVL50
 4912 0286 0100     		.2byte	0x1
 4913 0288 50       		.byte	0x50
 4914 0289 34000000 		.4byte	.LVL50
 4915 028d 44000000 		.4byte	.LFE13
ARM GAS  C:\Users\zack.li\AppData\Local\Temp\ccH890rU.s 			page 124


 4916 0291 0400     		.2byte	0x4
 4917 0293 F3       		.byte	0xf3
 4918 0294 01       		.uleb128 0x1
 4919 0295 50       		.byte	0x50
 4920 0296 9F       		.byte	0x9f
 4921 0297 00000000 		.4byte	0
 4922 029b 00000000 		.4byte	0
 4923              	.LLST14:
 4924 029f 00000000 		.4byte	.LVL41
 4925 02a3 0A000000 		.4byte	.LVL43
 4926 02a7 0100     		.2byte	0x1
 4927 02a9 51       		.byte	0x51
 4928 02aa 0A000000 		.4byte	.LVL43
 4929 02ae 2C000000 		.4byte	.LVL47
 4930 02b2 0100     		.2byte	0x1
 4931 02b4 53       		.byte	0x53
 4932 02b5 2C000000 		.4byte	.LVL47
 4933 02b9 32000000 		.4byte	.LVL49
 4934 02bd 0400     		.2byte	0x4
 4935 02bf F3       		.byte	0xf3
 4936 02c0 01       		.uleb128 0x1
 4937 02c1 51       		.byte	0x51
 4938 02c2 9F       		.byte	0x9f
 4939 02c3 32000000 		.4byte	.LVL49
 4940 02c7 36000000 		.4byte	.LVL51
 4941 02cb 0100     		.2byte	0x1
 4942 02cd 53       		.byte	0x53
 4943 02ce 36000000 		.4byte	.LVL51
 4944 02d2 44000000 		.4byte	.LFE13
 4945 02d6 0400     		.2byte	0x4
 4946 02d8 F3       		.byte	0xf3
 4947 02d9 01       		.uleb128 0x1
 4948 02da 51       		.byte	0x51
 4949 02db 9F       		.byte	0x9f
 4950 02dc 00000000 		.4byte	0
 4951 02e0 00000000 		.4byte	0
 4952              	.LLST15:
 4953 02e4 04000000 		.4byte	.LVL42
 4954 02e8 0E000000 		.4byte	.LVL44
 4955 02ec 0200     		.2byte	0x2
 4956 02ee 30       		.byte	0x30
 4957 02ef 9F       		.byte	0x9f
 4958 02f0 0E000000 		.4byte	.LVL44
 4959 02f4 1A000000 		.4byte	.LVL45
 4960 02f8 0200     		.2byte	0x2
 4961 02fa 74       		.byte	0x74
 4962 02fb 08       		.sleb128 8
 4963 02fc 1A000000 		.4byte	.LVL45
 4964 0300 3D000000 		.4byte	.LVL52-1
 4965 0304 0100     		.2byte	0x1
 4966 0306 51       		.byte	0x51
 4967 0307 3D000000 		.4byte	.LVL52-1
 4968 030b 3E000000 		.4byte	.LVL53
 4969 030f 1000     		.2byte	0x10
 4970 0311 F3       		.byte	0xf3
 4971 0312 01       		.uleb128 0x1
 4972 0313 51       		.byte	0x51
ARM GAS  C:\Users\zack.li\AppData\Local\Temp\ccH890rU.s 			page 125


 4973 0314 32       		.byte	0x32
 4974 0315 24       		.byte	0x24
 4975 0316 F3       		.byte	0xf3
 4976 0317 01       		.uleb128 0x1
 4977 0318 51       		.byte	0x51
 4978 0319 22       		.byte	0x22
 4979 031a 31       		.byte	0x31
 4980 031b 24       		.byte	0x24
 4981 031c 74       		.byte	0x74
 4982 031d 08       		.sleb128 8
 4983 031e 06       		.byte	0x6
 4984 031f 22       		.byte	0x22
 4985 0320 9F       		.byte	0x9f
 4986 0321 3E000000 		.4byte	.LVL53
 4987 0325 3E000000 		.4byte	.LVL54
 4988 0329 1E00     		.2byte	0x1e
 4989 032b F3       		.byte	0xf3
 4990 032c 01       		.uleb128 0x1
 4991 032d 51       		.byte	0x51
 4992 032e 32       		.byte	0x32
 4993 032f 24       		.byte	0x24
 4994 0330 F3       		.byte	0xf3
 4995 0331 01       		.uleb128 0x1
 4996 0332 51       		.byte	0x51
 4997 0333 22       		.byte	0x22
 4998 0334 31       		.byte	0x31
 4999 0335 24       		.byte	0x24
 5000 0336 F3       		.byte	0xf3
 5001 0337 01       		.uleb128 0x1
 5002 0338 50       		.byte	0x50
 5003 0339 33       		.byte	0x33
 5004 033a 24       		.byte	0x24
 5005 033b F3       		.byte	0xf3
 5006 033c 01       		.uleb128 0x1
 5007 033d 50       		.byte	0x50
 5008 033e 1C       		.byte	0x1c
 5009 033f 32       		.byte	0x32
 5010 0340 24       		.byte	0x24
 5011 0341 76       		.byte	0x76
 5012 0342 00       		.sleb128 0
 5013 0343 22       		.byte	0x22
 5014 0344 23       		.byte	0x23
 5015 0345 08       		.uleb128 0x8
 5016 0346 06       		.byte	0x6
 5017 0347 22       		.byte	0x22
 5018 0348 9F       		.byte	0x9f
 5019 0349 00000000 		.4byte	0
 5020 034d 00000000 		.4byte	0
 5021              	.LLST16:
 5022 0351 02000000 		.4byte	.LVL56
 5023 0355 06000000 		.4byte	.LVL57
 5024 0359 0200     		.2byte	0x2
 5025 035b 31       		.byte	0x31
 5026 035c 9F       		.byte	0x9f
 5027 035d 06000000 		.4byte	.LVL57
 5028 0361 32000000 		.4byte	.LVL58
 5029 0365 0100     		.2byte	0x1
ARM GAS  C:\Users\zack.li\AppData\Local\Temp\ccH890rU.s 			page 126


 5030 0367 54       		.byte	0x54
 5031 0368 32000000 		.4byte	.LVL58
 5032 036c 34000000 		.4byte	.LVL59
 5033 0370 0100     		.2byte	0x1
 5034 0372 53       		.byte	0x53
 5035 0373 34000000 		.4byte	.LVL59
 5036 0377 38000000 		.4byte	.LVL60
 5037 037b 0100     		.2byte	0x1
 5038 037d 54       		.byte	0x54
 5039 037e 38000000 		.4byte	.LVL60
 5040 0382 3A000000 		.4byte	.LFE19
 5041 0386 0300     		.2byte	0x3
 5042 0388 73       		.byte	0x73
 5043 0389 7F       		.sleb128 -1
 5044 038a 9F       		.byte	0x9f
 5045 038b 00000000 		.4byte	0
 5046 038f 00000000 		.4byte	0
 5047              	.LLST17:
 5048 0393 00000000 		.4byte	.LVL61
 5049 0397 2A000000 		.4byte	.LVL66
 5050 039b 0100     		.2byte	0x1
 5051 039d 50       		.byte	0x50
 5052 039e 2A000000 		.4byte	.LVL66
 5053 03a2 32000000 		.4byte	.LVL69
 5054 03a6 0400     		.2byte	0x4
 5055 03a8 F3       		.byte	0xf3
 5056 03a9 01       		.uleb128 0x1
 5057 03aa 50       		.byte	0x50
 5058 03ab 9F       		.byte	0x9f
 5059 03ac 32000000 		.4byte	.LVL69
 5060 03b0 34000000 		.4byte	.LVL70
 5061 03b4 0100     		.2byte	0x1
 5062 03b6 50       		.byte	0x50
 5063 03b7 34000000 		.4byte	.LVL70
 5064 03bb 44000000 		.4byte	.LFE17
 5065 03bf 0400     		.2byte	0x4
 5066 03c1 F3       		.byte	0xf3
 5067 03c2 01       		.uleb128 0x1
 5068 03c3 50       		.byte	0x50
 5069 03c4 9F       		.byte	0x9f
 5070 03c5 00000000 		.4byte	0
 5071 03c9 00000000 		.4byte	0
 5072              	.LLST18:
 5073 03cd 00000000 		.4byte	.LVL61
 5074 03d1 0A000000 		.4byte	.LVL63
 5075 03d5 0100     		.2byte	0x1
 5076 03d7 51       		.byte	0x51
 5077 03d8 0A000000 		.4byte	.LVL63
 5078 03dc 2C000000 		.4byte	.LVL67
 5079 03e0 0100     		.2byte	0x1
 5080 03e2 53       		.byte	0x53
 5081 03e3 2C000000 		.4byte	.LVL67
 5082 03e7 32000000 		.4byte	.LVL69
 5083 03eb 0400     		.2byte	0x4
 5084 03ed F3       		.byte	0xf3
 5085 03ee 01       		.uleb128 0x1
 5086 03ef 51       		.byte	0x51
ARM GAS  C:\Users\zack.li\AppData\Local\Temp\ccH890rU.s 			page 127


 5087 03f0 9F       		.byte	0x9f
 5088 03f1 32000000 		.4byte	.LVL69
 5089 03f5 36000000 		.4byte	.LVL71
 5090 03f9 0100     		.2byte	0x1
 5091 03fb 53       		.byte	0x53
 5092 03fc 36000000 		.4byte	.LVL71
 5093 0400 44000000 		.4byte	.LFE17
 5094 0404 0400     		.2byte	0x4
 5095 0406 F3       		.byte	0xf3
 5096 0407 01       		.uleb128 0x1
 5097 0408 51       		.byte	0x51
 5098 0409 9F       		.byte	0x9f
 5099 040a 00000000 		.4byte	0
 5100 040e 00000000 		.4byte	0
 5101              	.LLST19:
 5102 0412 04000000 		.4byte	.LVL62
 5103 0416 0E000000 		.4byte	.LVL64
 5104 041a 0200     		.2byte	0x2
 5105 041c 30       		.byte	0x30
 5106 041d 9F       		.byte	0x9f
 5107 041e 0E000000 		.4byte	.LVL64
 5108 0422 1A000000 		.4byte	.LVL65
 5109 0426 0200     		.2byte	0x2
 5110 0428 74       		.byte	0x74
 5111 0429 08       		.sleb128 8
 5112 042a 1A000000 		.4byte	.LVL65
 5113 042e 3D000000 		.4byte	.LVL72-1
 5114 0432 0100     		.2byte	0x1
 5115 0434 51       		.byte	0x51
 5116 0435 3D000000 		.4byte	.LVL72-1
 5117 0439 3E000000 		.4byte	.LVL73
 5118 043d 1000     		.2byte	0x10
 5119 043f F3       		.byte	0xf3
 5120 0440 01       		.uleb128 0x1
 5121 0441 51       		.byte	0x51
 5122 0442 32       		.byte	0x32
 5123 0443 24       		.byte	0x24
 5124 0444 F3       		.byte	0xf3
 5125 0445 01       		.uleb128 0x1
 5126 0446 51       		.byte	0x51
 5127 0447 22       		.byte	0x22
 5128 0448 31       		.byte	0x31
 5129 0449 24       		.byte	0x24
 5130 044a 74       		.byte	0x74
 5131 044b 08       		.sleb128 8
 5132 044c 06       		.byte	0x6
 5133 044d 22       		.byte	0x22
 5134 044e 9F       		.byte	0x9f
 5135 044f 3E000000 		.4byte	.LVL73
 5136 0453 3E000000 		.4byte	.LVL74
 5137 0457 1E00     		.2byte	0x1e
 5138 0459 F3       		.byte	0xf3
 5139 045a 01       		.uleb128 0x1
 5140 045b 51       		.byte	0x51
 5141 045c 32       		.byte	0x32
 5142 045d 24       		.byte	0x24
 5143 045e F3       		.byte	0xf3
ARM GAS  C:\Users\zack.li\AppData\Local\Temp\ccH890rU.s 			page 128


 5144 045f 01       		.uleb128 0x1
 5145 0460 51       		.byte	0x51
 5146 0461 22       		.byte	0x22
 5147 0462 31       		.byte	0x31
 5148 0463 24       		.byte	0x24
 5149 0464 F3       		.byte	0xf3
 5150 0465 01       		.uleb128 0x1
 5151 0466 50       		.byte	0x50
 5152 0467 33       		.byte	0x33
 5153 0468 24       		.byte	0x24
 5154 0469 F3       		.byte	0xf3
 5155 046a 01       		.uleb128 0x1
 5156 046b 50       		.byte	0x50
 5157 046c 1C       		.byte	0x1c
 5158 046d 32       		.byte	0x32
 5159 046e 24       		.byte	0x24
 5160 046f 76       		.byte	0x76
 5161 0470 00       		.sleb128 0
 5162 0471 22       		.byte	0x22
 5163 0472 23       		.byte	0x23
 5164 0473 08       		.uleb128 0x8
 5165 0474 06       		.byte	0x6
 5166 0475 22       		.byte	0x22
 5167 0476 9F       		.byte	0x9f
 5168 0477 00000000 		.4byte	0
 5169 047b 00000000 		.4byte	0
 5170              	.LLST20:
 5171 047f 02000000 		.4byte	.LVL76
 5172 0483 06000000 		.4byte	.LVL77
 5173 0487 0200     		.2byte	0x2
 5174 0489 31       		.byte	0x31
 5175 048a 9F       		.byte	0x9f
 5176 048b 06000000 		.4byte	.LVL77
 5177 048f 3A000000 		.4byte	.LVL78
 5178 0493 0100     		.2byte	0x1
 5179 0495 54       		.byte	0x54
 5180 0496 3A000000 		.4byte	.LVL78
 5181 049a 3C000000 		.4byte	.LVL79
 5182 049e 0100     		.2byte	0x1
 5183 04a0 53       		.byte	0x53
 5184 04a1 3C000000 		.4byte	.LVL79
 5185 04a5 40000000 		.4byte	.LVL80
 5186 04a9 0100     		.2byte	0x1
 5187 04ab 54       		.byte	0x54
 5188 04ac 40000000 		.4byte	.LVL80
 5189 04b0 42000000 		.4byte	.LFE23
 5190 04b4 0300     		.2byte	0x3
 5191 04b6 73       		.byte	0x73
 5192 04b7 7F       		.sleb128 -1
 5193 04b8 9F       		.byte	0x9f
 5194 04b9 00000000 		.4byte	0
 5195 04bd 00000000 		.4byte	0
 5196              	.LLST21:
 5197 04c1 00000000 		.4byte	.LVL81
 5198 04c5 16000000 		.4byte	.LVL84
 5199 04c9 0100     		.2byte	0x1
 5200 04cb 50       		.byte	0x50
ARM GAS  C:\Users\zack.li\AppData\Local\Temp\ccH890rU.s 			page 129


 5201 04cc 16000000 		.4byte	.LVL84
 5202 04d0 6E000000 		.4byte	.LVL98
 5203 04d4 0100     		.2byte	0x1
 5204 04d6 58       		.byte	0x58
 5205 04d7 6E000000 		.4byte	.LVL98
 5206 04db 78000000 		.4byte	.LFE12
 5207 04df 0400     		.2byte	0x4
 5208 04e1 F3       		.byte	0xf3
 5209 04e2 01       		.uleb128 0x1
 5210 04e3 50       		.byte	0x50
 5211 04e4 9F       		.byte	0x9f
 5212 04e5 00000000 		.4byte	0
 5213 04e9 00000000 		.4byte	0
 5214              	.LLST22:
 5215 04ed 14000000 		.4byte	.LVL83
 5216 04f1 16000000 		.4byte	.LVL84
 5217 04f5 0100     		.2byte	0x1
 5218 04f7 53       		.byte	0x53
 5219 04f8 16000000 		.4byte	.LVL84
 5220 04fc 68000000 		.4byte	.LVL94
 5221 0500 0100     		.2byte	0x1
 5222 0502 55       		.byte	0x55
 5223 0503 68000000 		.4byte	.LVL94
 5224 0507 6A000000 		.4byte	.LVL95
 5225 050b 0100     		.2byte	0x1
 5226 050d 53       		.byte	0x53
 5227 050e 6A000000 		.4byte	.LVL95
 5228 0512 6E000000 		.4byte	.LVL96
 5229 0516 0100     		.2byte	0x1
 5230 0518 55       		.byte	0x55
 5231 0519 6E000000 		.4byte	.LVL96
 5232 051d 78000000 		.4byte	.LFE12
 5233 0521 0300     		.2byte	0x3
 5234 0523 73       		.byte	0x73
 5235 0524 7F       		.sleb128 -1
 5236 0525 9F       		.byte	0x9f
 5237 0526 00000000 		.4byte	0
 5238 052a 00000000 		.4byte	0
 5239              	.LLST23:
 5240 052e 14000000 		.4byte	.LVL83
 5241 0532 16000000 		.4byte	.LVL84
 5242 0536 0100     		.2byte	0x1
 5243 0538 53       		.byte	0x53
 5244 0539 20000000 		.4byte	.LVL85
 5245 053d 24000000 		.4byte	.LVL87
 5246 0541 1500     		.2byte	0x15
 5247 0543 78       		.byte	0x78
 5248 0544 00       		.sleb128 0
 5249 0545 33       		.byte	0x33
 5250 0546 24       		.byte	0x24
 5251 0547 78       		.byte	0x78
 5252 0548 00       		.sleb128 0
 5253 0549 1C       		.byte	0x1c
 5254 054a 32       		.byte	0x32
 5255 054b 24       		.byte	0x24
 5256 054c 72       		.byte	0x72
 5257 054d 00       		.sleb128 0
ARM GAS  C:\Users\zack.li\AppData\Local\Temp\ccH890rU.s 			page 130


 5258 054e 22       		.byte	0x22
 5259 054f 23       		.byte	0x23
 5260 0550 18       		.uleb128 0x18
 5261 0551 94       		.byte	0x94
 5262 0552 02       		.byte	0x2
 5263 0553 0A       		.byte	0xa
 5264 0554 FFFF     		.2byte	0xffff
 5265 0556 1A       		.byte	0x1a
 5266 0557 9F       		.byte	0x9f
 5267 0558 00000000 		.4byte	0
 5268 055c 00000000 		.4byte	0
 5269              	.LLST24:
 5270 0560 08000000 		.4byte	.LVL82
 5271 0564 16000000 		.4byte	.LVL84
 5272 0568 0200     		.2byte	0x2
 5273 056a 30       		.byte	0x30
 5274 056b 9F       		.byte	0x9f
 5275 056c 22000000 		.4byte	.LVL86
 5276 0570 2E000000 		.4byte	.LVL88
 5277 0574 0200     		.2byte	0x2
 5278 0576 73       		.byte	0x73
 5279 0577 08       		.sleb128 8
 5280 0578 2E000000 		.4byte	.LVL88
 5281 057c 68000000 		.4byte	.LVL94
 5282 0580 0100     		.2byte	0x1
 5283 0582 54       		.byte	0x54
 5284 0583 00000000 		.4byte	0
 5285 0587 00000000 		.4byte	0
 5286              	.LLST25:
 5287 058b 16000000 		.4byte	.LVL84
 5288 058f 30000000 		.4byte	.LVL89
 5289 0593 0100     		.2byte	0x1
 5290 0595 56       		.byte	0x56
 5291 0596 4C000000 		.4byte	.LVL90
 5292 059a 6E000000 		.4byte	.LVL97
 5293 059e 0100     		.2byte	0x1
 5294 05a0 56       		.byte	0x56
 5295 05a1 00000000 		.4byte	0
 5296 05a5 00000000 		.4byte	0
 5297              	.LLST26:
 5298 05a9 02000000 		.4byte	.LVL99
 5299 05ad 06000000 		.4byte	.LVL100
 5300 05b1 0200     		.2byte	0x2
 5301 05b3 36       		.byte	0x36
 5302 05b4 9F       		.byte	0x9f
 5303 05b5 06000000 		.4byte	.LVL100
 5304 05b9 0E000000 		.4byte	.LVL102
 5305 05bd 0100     		.2byte	0x1
 5306 05bf 54       		.byte	0x54
 5307 05c0 0E000000 		.4byte	.LVL102
 5308 05c4 10000000 		.4byte	.LVL103
 5309 05c8 0100     		.2byte	0x1
 5310 05ca 53       		.byte	0x53
 5311 05cb 10000000 		.4byte	.LVL103
 5312 05cf 14000000 		.4byte	.LVL104
 5313 05d3 0100     		.2byte	0x1
 5314 05d5 54       		.byte	0x54
ARM GAS  C:\Users\zack.li\AppData\Local\Temp\ccH890rU.s 			page 131


 5315 05d6 14000000 		.4byte	.LVL104
 5316 05da 16000000 		.4byte	.LFE11
 5317 05de 0300     		.2byte	0x3
 5318 05e0 73       		.byte	0x73
 5319 05e1 7F       		.sleb128 -1
 5320 05e2 9F       		.byte	0x9f
 5321 05e3 00000000 		.4byte	0
 5322 05e7 00000000 		.4byte	0
 5323              	.LLST27:
 5324 05eb 00000000 		.4byte	.LVL106
 5325 05ef 2A000000 		.4byte	.LVL111
 5326 05f3 0100     		.2byte	0x1
 5327 05f5 50       		.byte	0x50
 5328 05f6 2A000000 		.4byte	.LVL111
 5329 05fa 32000000 		.4byte	.LVL114
 5330 05fe 0400     		.2byte	0x4
 5331 0600 F3       		.byte	0xf3
 5332 0601 01       		.uleb128 0x1
 5333 0602 50       		.byte	0x50
 5334 0603 9F       		.byte	0x9f
 5335 0604 32000000 		.4byte	.LVL114
 5336 0608 34000000 		.4byte	.LVL115
 5337 060c 0100     		.2byte	0x1
 5338 060e 50       		.byte	0x50
 5339 060f 34000000 		.4byte	.LVL115
 5340 0613 44000000 		.4byte	.LFE21
 5341 0617 0400     		.2byte	0x4
 5342 0619 F3       		.byte	0xf3
 5343 061a 01       		.uleb128 0x1
 5344 061b 50       		.byte	0x50
 5345 061c 9F       		.byte	0x9f
 5346 061d 00000000 		.4byte	0
 5347 0621 00000000 		.4byte	0
 5348              	.LLST28:
 5349 0625 00000000 		.4byte	.LVL106
 5350 0629 0A000000 		.4byte	.LVL108
 5351 062d 0100     		.2byte	0x1
 5352 062f 51       		.byte	0x51
 5353 0630 0A000000 		.4byte	.LVL108
 5354 0634 2C000000 		.4byte	.LVL112
 5355 0638 0100     		.2byte	0x1
 5356 063a 53       		.byte	0x53
 5357 063b 2C000000 		.4byte	.LVL112
 5358 063f 32000000 		.4byte	.LVL114
 5359 0643 0400     		.2byte	0x4
 5360 0645 F3       		.byte	0xf3
 5361 0646 01       		.uleb128 0x1
 5362 0647 51       		.byte	0x51
 5363 0648 9F       		.byte	0x9f
 5364 0649 32000000 		.4byte	.LVL114
 5365 064d 36000000 		.4byte	.LVL116
 5366 0651 0100     		.2byte	0x1
 5367 0653 53       		.byte	0x53
 5368 0654 36000000 		.4byte	.LVL116
 5369 0658 44000000 		.4byte	.LFE21
 5370 065c 0400     		.2byte	0x4
 5371 065e F3       		.byte	0xf3
ARM GAS  C:\Users\zack.li\AppData\Local\Temp\ccH890rU.s 			page 132


 5372 065f 01       		.uleb128 0x1
 5373 0660 51       		.byte	0x51
 5374 0661 9F       		.byte	0x9f
 5375 0662 00000000 		.4byte	0
 5376 0666 00000000 		.4byte	0
 5377              	.LLST29:
 5378 066a 04000000 		.4byte	.LVL107
 5379 066e 0E000000 		.4byte	.LVL109
 5380 0672 0200     		.2byte	0x2
 5381 0674 30       		.byte	0x30
 5382 0675 9F       		.byte	0x9f
 5383 0676 0E000000 		.4byte	.LVL109
 5384 067a 1A000000 		.4byte	.LVL110
 5385 067e 0200     		.2byte	0x2
 5386 0680 74       		.byte	0x74
 5387 0681 08       		.sleb128 8
 5388 0682 1A000000 		.4byte	.LVL110
 5389 0686 3D000000 		.4byte	.LVL117-1
 5390 068a 0100     		.2byte	0x1
 5391 068c 51       		.byte	0x51
 5392 068d 3D000000 		.4byte	.LVL117-1
 5393 0691 3E000000 		.4byte	.LVL118
 5394 0695 1000     		.2byte	0x10
 5395 0697 F3       		.byte	0xf3
 5396 0698 01       		.uleb128 0x1
 5397 0699 51       		.byte	0x51
 5398 069a 32       		.byte	0x32
 5399 069b 24       		.byte	0x24
 5400 069c F3       		.byte	0xf3
 5401 069d 01       		.uleb128 0x1
 5402 069e 51       		.byte	0x51
 5403 069f 22       		.byte	0x22
 5404 06a0 31       		.byte	0x31
 5405 06a1 24       		.byte	0x24
 5406 06a2 74       		.byte	0x74
 5407 06a3 08       		.sleb128 8
 5408 06a4 06       		.byte	0x6
 5409 06a5 22       		.byte	0x22
 5410 06a6 9F       		.byte	0x9f
 5411 06a7 3E000000 		.4byte	.LVL118
 5412 06ab 3E000000 		.4byte	.LVL119
 5413 06af 1E00     		.2byte	0x1e
 5414 06b1 F3       		.byte	0xf3
 5415 06b2 01       		.uleb128 0x1
 5416 06b3 51       		.byte	0x51
 5417 06b4 32       		.byte	0x32
 5418 06b5 24       		.byte	0x24
 5419 06b6 F3       		.byte	0xf3
 5420 06b7 01       		.uleb128 0x1
 5421 06b8 51       		.byte	0x51
 5422 06b9 22       		.byte	0x22
 5423 06ba 31       		.byte	0x31
 5424 06bb 24       		.byte	0x24
 5425 06bc F3       		.byte	0xf3
 5426 06bd 01       		.uleb128 0x1
 5427 06be 50       		.byte	0x50
 5428 06bf 33       		.byte	0x33
ARM GAS  C:\Users\zack.li\AppData\Local\Temp\ccH890rU.s 			page 133


 5429 06c0 24       		.byte	0x24
 5430 06c1 F3       		.byte	0xf3
 5431 06c2 01       		.uleb128 0x1
 5432 06c3 50       		.byte	0x50
 5433 06c4 1C       		.byte	0x1c
 5434 06c5 32       		.byte	0x32
 5435 06c6 24       		.byte	0x24
 5436 06c7 76       		.byte	0x76
 5437 06c8 00       		.sleb128 0
 5438 06c9 22       		.byte	0x22
 5439 06ca 23       		.byte	0x23
 5440 06cb 08       		.uleb128 0x8
 5441 06cc 06       		.byte	0x6
 5442 06cd 22       		.byte	0x22
 5443 06ce 9F       		.byte	0x9f
 5444 06cf 00000000 		.4byte	0
 5445 06d3 00000000 		.4byte	0
 5446              	.LLST30:
 5447 06d7 02000000 		.4byte	.LVL121
 5448 06db 06000000 		.4byte	.LVL122
 5449 06df 0200     		.2byte	0x2
 5450 06e1 31       		.byte	0x31
 5451 06e2 9F       		.byte	0x9f
 5452 06e3 06000000 		.4byte	.LVL122
 5453 06e7 66000000 		.4byte	.LVL126
 5454 06eb 0100     		.2byte	0x1
 5455 06ed 54       		.byte	0x54
 5456 06ee 66000000 		.4byte	.LVL126
 5457 06f2 68000000 		.4byte	.LVL127
 5458 06f6 0100     		.2byte	0x1
 5459 06f8 53       		.byte	0x53
 5460 06f9 68000000 		.4byte	.LVL127
 5461 06fd 6C000000 		.4byte	.LVL128
 5462 0701 0100     		.2byte	0x1
 5463 0703 54       		.byte	0x54
 5464 0704 6C000000 		.4byte	.LVL128
 5465 0708 6E000000 		.4byte	.LFE24
 5466 070c 0300     		.2byte	0x3
 5467 070e 73       		.byte	0x73
 5468 070f 7F       		.sleb128 -1
 5469 0710 9F       		.byte	0x9f
 5470 0711 00000000 		.4byte	0
 5471 0715 00000000 		.4byte	0
 5472              	.LLST31:
 5473 0719 2A000000 		.4byte	.LVL123
 5474 071d 3A000000 		.4byte	.LVL124
 5475 0721 0100     		.2byte	0x1
 5476 0723 55       		.byte	0x55
 5477 0724 56000000 		.4byte	.LVL125
 5478 0728 66000000 		.4byte	.LVL126
 5479 072c 0100     		.2byte	0x1
 5480 072e 55       		.byte	0x55
 5481 072f 00000000 		.4byte	0
 5482 0733 00000000 		.4byte	0
 5483              	.LLST32:
 5484 0737 00000000 		.4byte	.LVL129
 5485 073b 2A000000 		.4byte	.LVL134
ARM GAS  C:\Users\zack.li\AppData\Local\Temp\ccH890rU.s 			page 134


 5486 073f 0100     		.2byte	0x1
 5487 0741 50       		.byte	0x50
 5488 0742 2A000000 		.4byte	.LVL134
 5489 0746 32000000 		.4byte	.LVL137
 5490 074a 0400     		.2byte	0x4
 5491 074c F3       		.byte	0xf3
 5492 074d 01       		.uleb128 0x1
 5493 074e 50       		.byte	0x50
 5494 074f 9F       		.byte	0x9f
 5495 0750 32000000 		.4byte	.LVL137
 5496 0754 34000000 		.4byte	.LVL138
 5497 0758 0100     		.2byte	0x1
 5498 075a 50       		.byte	0x50
 5499 075b 34000000 		.4byte	.LVL138
 5500 075f 44000000 		.4byte	.LFE22
 5501 0763 0400     		.2byte	0x4
 5502 0765 F3       		.byte	0xf3
 5503 0766 01       		.uleb128 0x1
 5504 0767 50       		.byte	0x50
 5505 0768 9F       		.byte	0x9f
 5506 0769 00000000 		.4byte	0
 5507 076d 00000000 		.4byte	0
 5508              	.LLST33:
 5509 0771 00000000 		.4byte	.LVL129
 5510 0775 0A000000 		.4byte	.LVL131
 5511 0779 0100     		.2byte	0x1
 5512 077b 51       		.byte	0x51
 5513 077c 0A000000 		.4byte	.LVL131
 5514 0780 2C000000 		.4byte	.LVL135
 5515 0784 0100     		.2byte	0x1
 5516 0786 53       		.byte	0x53
 5517 0787 2C000000 		.4byte	.LVL135
 5518 078b 32000000 		.4byte	.LVL137
 5519 078f 0400     		.2byte	0x4
 5520 0791 F3       		.byte	0xf3
 5521 0792 01       		.uleb128 0x1
 5522 0793 51       		.byte	0x51
 5523 0794 9F       		.byte	0x9f
 5524 0795 32000000 		.4byte	.LVL137
 5525 0799 36000000 		.4byte	.LVL139
 5526 079d 0100     		.2byte	0x1
 5527 079f 53       		.byte	0x53
 5528 07a0 36000000 		.4byte	.LVL139
 5529 07a4 44000000 		.4byte	.LFE22
 5530 07a8 0400     		.2byte	0x4
 5531 07aa F3       		.byte	0xf3
 5532 07ab 01       		.uleb128 0x1
 5533 07ac 51       		.byte	0x51
 5534 07ad 9F       		.byte	0x9f
 5535 07ae 00000000 		.4byte	0
 5536 07b2 00000000 		.4byte	0
 5537              	.LLST34:
 5538 07b6 04000000 		.4byte	.LVL130
 5539 07ba 0E000000 		.4byte	.LVL132
 5540 07be 0200     		.2byte	0x2
 5541 07c0 30       		.byte	0x30
 5542 07c1 9F       		.byte	0x9f
ARM GAS  C:\Users\zack.li\AppData\Local\Temp\ccH890rU.s 			page 135


 5543 07c2 0E000000 		.4byte	.LVL132
 5544 07c6 1A000000 		.4byte	.LVL133
 5545 07ca 0200     		.2byte	0x2
 5546 07cc 74       		.byte	0x74
 5547 07cd 08       		.sleb128 8
 5548 07ce 1A000000 		.4byte	.LVL133
 5549 07d2 3D000000 		.4byte	.LVL140-1
 5550 07d6 0100     		.2byte	0x1
 5551 07d8 51       		.byte	0x51
 5552 07d9 3D000000 		.4byte	.LVL140-1
 5553 07dd 3E000000 		.4byte	.LVL141
 5554 07e1 1000     		.2byte	0x10
 5555 07e3 F3       		.byte	0xf3
 5556 07e4 01       		.uleb128 0x1
 5557 07e5 51       		.byte	0x51
 5558 07e6 32       		.byte	0x32
 5559 07e7 24       		.byte	0x24
 5560 07e8 F3       		.byte	0xf3
 5561 07e9 01       		.uleb128 0x1
 5562 07ea 51       		.byte	0x51
 5563 07eb 22       		.byte	0x22
 5564 07ec 31       		.byte	0x31
 5565 07ed 24       		.byte	0x24
 5566 07ee 74       		.byte	0x74
 5567 07ef 08       		.sleb128 8
 5568 07f0 06       		.byte	0x6
 5569 07f1 22       		.byte	0x22
 5570 07f2 9F       		.byte	0x9f
 5571 07f3 3E000000 		.4byte	.LVL141
 5572 07f7 3E000000 		.4byte	.LVL142
 5573 07fb 1E00     		.2byte	0x1e
 5574 07fd F3       		.byte	0xf3
 5575 07fe 01       		.uleb128 0x1
 5576 07ff 51       		.byte	0x51
 5577 0800 32       		.byte	0x32
 5578 0801 24       		.byte	0x24
 5579 0802 F3       		.byte	0xf3
 5580 0803 01       		.uleb128 0x1
 5581 0804 51       		.byte	0x51
 5582 0805 22       		.byte	0x22
 5583 0806 31       		.byte	0x31
 5584 0807 24       		.byte	0x24
 5585 0808 F3       		.byte	0xf3
 5586 0809 01       		.uleb128 0x1
 5587 080a 50       		.byte	0x50
 5588 080b 33       		.byte	0x33
 5589 080c 24       		.byte	0x24
 5590 080d F3       		.byte	0xf3
 5591 080e 01       		.uleb128 0x1
 5592 080f 50       		.byte	0x50
 5593 0810 1C       		.byte	0x1c
 5594 0811 32       		.byte	0x32
 5595 0812 24       		.byte	0x24
 5596 0813 76       		.byte	0x76
 5597 0814 00       		.sleb128 0
 5598 0815 22       		.byte	0x22
 5599 0816 23       		.byte	0x23
ARM GAS  C:\Users\zack.li\AppData\Local\Temp\ccH890rU.s 			page 136


 5600 0817 08       		.uleb128 0x8
 5601 0818 06       		.byte	0x6
 5602 0819 22       		.byte	0x22
 5603 081a 9F       		.byte	0x9f
 5604 081b 00000000 		.4byte	0
 5605 081f 00000000 		.4byte	0
 5606              	.LLST35:
 5607 0823 00000000 		.4byte	.LVL143
 5608 0827 08000000 		.4byte	.LVL144
 5609 082b 0100     		.2byte	0x1
 5610 082d 50       		.byte	0x50
 5611 082e 08000000 		.4byte	.LVL144
 5612 0832 0A000000 		.4byte	.LVL145
 5613 0836 0100     		.2byte	0x1
 5614 0838 53       		.byte	0x53
 5615 0839 0A000000 		.4byte	.LVL145
 5616 083d 16000000 		.4byte	.LVL147
 5617 0841 0100     		.2byte	0x1
 5618 0843 50       		.byte	0x50
 5619 0844 00000000 		.4byte	0
 5620 0848 00000000 		.4byte	0
 5621              	.LLST36:
 5622 084c 00000000 		.4byte	.LVL143
 5623 0850 0A000000 		.4byte	.LVL145
 5624 0854 0100     		.2byte	0x1
 5625 0856 51       		.byte	0x51
 5626 0857 0A000000 		.4byte	.LVL145
 5627 085b 18000000 		.4byte	.LFE27
 5628 085f 0100     		.2byte	0x1
 5629 0861 51       		.byte	0x51
 5630 0862 00000000 		.4byte	0
 5631 0866 00000000 		.4byte	0
 5632              	.LLST37:
 5633 086a 00000000 		.4byte	.LVL148
 5634 086e 24000000 		.4byte	.LVL152
 5635 0872 0100     		.2byte	0x1
 5636 0874 50       		.byte	0x50
 5637 0875 24000000 		.4byte	.LVL152
 5638 0879 42000000 		.4byte	.LVL155
 5639 087d 0100     		.2byte	0x1
 5640 087f 58       		.byte	0x58
 5641 0880 42000000 		.4byte	.LVL155
 5642 0884 48000000 		.4byte	.LVL156
 5643 0888 0100     		.2byte	0x1
 5644 088a 50       		.byte	0x50
 5645 088b 48000000 		.4byte	.LVL156
 5646 088f 6A000000 		.4byte	.LVL159
 5647 0893 0100     		.2byte	0x1
 5648 0895 58       		.byte	0x58
 5649 0896 6A000000 		.4byte	.LVL159
 5650 089a 7C000000 		.4byte	.LFE20
 5651 089e 0100     		.2byte	0x1
 5652 08a0 50       		.byte	0x50
 5653 08a1 00000000 		.4byte	0
 5654 08a5 00000000 		.4byte	0
 5655              	.LLST38:
 5656 08a9 00000000 		.4byte	.LVL148
ARM GAS  C:\Users\zack.li\AppData\Local\Temp\ccH890rU.s 			page 137


 5657 08ad 16000000 		.4byte	.LVL150
 5658 08b1 0100     		.2byte	0x1
 5659 08b3 51       		.byte	0x51
 5660 08b4 16000000 		.4byte	.LVL150
 5661 08b8 70000000 		.4byte	.LVL162
 5662 08bc 0100     		.2byte	0x1
 5663 08be 56       		.byte	0x56
 5664 08bf 70000000 		.4byte	.LVL162
 5665 08c3 7C000000 		.4byte	.LFE20
 5666 08c7 0400     		.2byte	0x4
 5667 08c9 F3       		.byte	0xf3
 5668 08ca 01       		.uleb128 0x1
 5669 08cb 51       		.byte	0x51
 5670 08cc 9F       		.byte	0x9f
 5671 08cd 00000000 		.4byte	0
 5672 08d1 00000000 		.4byte	0
 5673              	.LLST39:
 5674 08d5 00000000 		.4byte	.LVL148
 5675 08d9 16000000 		.4byte	.LVL150
 5676 08dd 0100     		.2byte	0x1
 5677 08df 52       		.byte	0x52
 5678 08e0 16000000 		.4byte	.LVL150
 5679 08e4 20000000 		.4byte	.LVL151
 5680 08e8 0100     		.2byte	0x1
 5681 08ea 5B       		.byte	0x5b
 5682 08eb 20000000 		.4byte	.LVL151
 5683 08ef 30000000 		.4byte	.LVL153
 5684 08f3 0100     		.2byte	0x1
 5685 08f5 52       		.byte	0x52
 5686 08f6 30000000 		.4byte	.LVL153
 5687 08fa 42000000 		.4byte	.LVL155
 5688 08fe 0100     		.2byte	0x1
 5689 0900 5B       		.byte	0x5b
 5690 0901 42000000 		.4byte	.LVL155
 5691 0905 54000000 		.4byte	.LVL157
 5692 0909 0100     		.2byte	0x1
 5693 090b 52       		.byte	0x52
 5694 090c 54000000 		.4byte	.LVL157
 5695 0910 70000000 		.4byte	.LVL163
 5696 0914 0100     		.2byte	0x1
 5697 0916 5B       		.byte	0x5b
 5698 0917 70000000 		.4byte	.LVL163
 5699 091b 7C000000 		.4byte	.LFE20
 5700 091f 0400     		.2byte	0x4
 5701 0921 F3       		.byte	0xf3
 5702 0922 01       		.uleb128 0x1
 5703 0923 52       		.byte	0x52
 5704 0924 9F       		.byte	0x9f
 5705 0925 00000000 		.4byte	0
 5706 0929 00000000 		.4byte	0
 5707              	.LLST40:
 5708 092d 12000000 		.4byte	.LVL149
 5709 0931 16000000 		.4byte	.LVL150
 5710 0935 0200     		.2byte	0x2
 5711 0937 31       		.byte	0x31
 5712 0938 9F       		.byte	0x9f
 5713 0939 16000000 		.4byte	.LVL150
ARM GAS  C:\Users\zack.li\AppData\Local\Temp\ccH890rU.s 			page 138


 5714 093d 6A000000 		.4byte	.LVL159
 5715 0941 0100     		.2byte	0x1
 5716 0943 55       		.byte	0x55
 5717 0944 6A000000 		.4byte	.LVL159
 5718 0948 6C000000 		.4byte	.LVL160
 5719 094c 0100     		.2byte	0x1
 5720 094e 53       		.byte	0x53
 5721 094f 6C000000 		.4byte	.LVL160
 5722 0953 70000000 		.4byte	.LVL161
 5723 0957 0100     		.2byte	0x1
 5724 0959 55       		.byte	0x55
 5725 095a 70000000 		.4byte	.LVL161
 5726 095e 7C000000 		.4byte	.LFE20
 5727 0962 0300     		.2byte	0x3
 5728 0964 73       		.byte	0x73
 5729 0965 7F       		.sleb128 -1
 5730 0966 9F       		.byte	0x9f
 5731 0967 00000000 		.4byte	0
 5732 096b 00000000 		.4byte	0
 5733              	.LLST41:
 5734 096f 36000000 		.4byte	.LVL154
 5735 0973 42000000 		.4byte	.LVL155
 5736 0977 0100     		.2byte	0x1
 5737 0979 50       		.byte	0x50
 5738 097a 5A000000 		.4byte	.LVL158
 5739 097e 6A000000 		.4byte	.LVL159
 5740 0982 0100     		.2byte	0x1
 5741 0984 50       		.byte	0x50
 5742 0985 00000000 		.4byte	0
 5743 0989 00000000 		.4byte	0
 5744              	.LLST42:
 5745 098d 00000000 		.4byte	.LVL164
 5746 0991 2A000000 		.4byte	.LVL169
 5747 0995 0100     		.2byte	0x1
 5748 0997 50       		.byte	0x50
 5749 0998 2A000000 		.4byte	.LVL169
 5750 099c 32000000 		.4byte	.LVL172
 5751 09a0 0400     		.2byte	0x4
 5752 09a2 F3       		.byte	0xf3
 5753 09a3 01       		.uleb128 0x1
 5754 09a4 50       		.byte	0x50
 5755 09a5 9F       		.byte	0x9f
 5756 09a6 32000000 		.4byte	.LVL172
 5757 09aa 34000000 		.4byte	.LVL173
 5758 09ae 0100     		.2byte	0x1
 5759 09b0 50       		.byte	0x50
 5760 09b1 34000000 		.4byte	.LVL173
 5761 09b5 44000000 		.4byte	.LFE18
 5762 09b9 0400     		.2byte	0x4
 5763 09bb F3       		.byte	0xf3
 5764 09bc 01       		.uleb128 0x1
 5765 09bd 50       		.byte	0x50
 5766 09be 9F       		.byte	0x9f
 5767 09bf 00000000 		.4byte	0
 5768 09c3 00000000 		.4byte	0
 5769              	.LLST43:
 5770 09c7 00000000 		.4byte	.LVL164
ARM GAS  C:\Users\zack.li\AppData\Local\Temp\ccH890rU.s 			page 139


 5771 09cb 0A000000 		.4byte	.LVL166
 5772 09cf 0100     		.2byte	0x1
 5773 09d1 51       		.byte	0x51
 5774 09d2 0A000000 		.4byte	.LVL166
 5775 09d6 2C000000 		.4byte	.LVL170
 5776 09da 0100     		.2byte	0x1
 5777 09dc 53       		.byte	0x53
 5778 09dd 2C000000 		.4byte	.LVL170
 5779 09e1 32000000 		.4byte	.LVL172
 5780 09e5 0400     		.2byte	0x4
 5781 09e7 F3       		.byte	0xf3
 5782 09e8 01       		.uleb128 0x1
 5783 09e9 51       		.byte	0x51
 5784 09ea 9F       		.byte	0x9f
 5785 09eb 32000000 		.4byte	.LVL172
 5786 09ef 36000000 		.4byte	.LVL174
 5787 09f3 0100     		.2byte	0x1
 5788 09f5 53       		.byte	0x53
 5789 09f6 36000000 		.4byte	.LVL174
 5790 09fa 44000000 		.4byte	.LFE18
 5791 09fe 0400     		.2byte	0x4
 5792 0a00 F3       		.byte	0xf3
 5793 0a01 01       		.uleb128 0x1
 5794 0a02 51       		.byte	0x51
 5795 0a03 9F       		.byte	0x9f
 5796 0a04 00000000 		.4byte	0
 5797 0a08 00000000 		.4byte	0
 5798              	.LLST44:
 5799 0a0c 04000000 		.4byte	.LVL165
 5800 0a10 0E000000 		.4byte	.LVL167
 5801 0a14 0200     		.2byte	0x2
 5802 0a16 30       		.byte	0x30
 5803 0a17 9F       		.byte	0x9f
 5804 0a18 0E000000 		.4byte	.LVL167
 5805 0a1c 1A000000 		.4byte	.LVL168
 5806 0a20 0200     		.2byte	0x2
 5807 0a22 74       		.byte	0x74
 5808 0a23 08       		.sleb128 8
 5809 0a24 1A000000 		.4byte	.LVL168
 5810 0a28 3D000000 		.4byte	.LVL175-1
 5811 0a2c 0100     		.2byte	0x1
 5812 0a2e 51       		.byte	0x51
 5813 0a2f 3D000000 		.4byte	.LVL175-1
 5814 0a33 3E000000 		.4byte	.LVL176
 5815 0a37 1000     		.2byte	0x10
 5816 0a39 F3       		.byte	0xf3
 5817 0a3a 01       		.uleb128 0x1
 5818 0a3b 51       		.byte	0x51
 5819 0a3c 32       		.byte	0x32
 5820 0a3d 24       		.byte	0x24
 5821 0a3e F3       		.byte	0xf3
 5822 0a3f 01       		.uleb128 0x1
 5823 0a40 51       		.byte	0x51
 5824 0a41 22       		.byte	0x22
 5825 0a42 31       		.byte	0x31
 5826 0a43 24       		.byte	0x24
 5827 0a44 74       		.byte	0x74
ARM GAS  C:\Users\zack.li\AppData\Local\Temp\ccH890rU.s 			page 140


 5828 0a45 08       		.sleb128 8
 5829 0a46 06       		.byte	0x6
 5830 0a47 22       		.byte	0x22
 5831 0a48 9F       		.byte	0x9f
 5832 0a49 3E000000 		.4byte	.LVL176
 5833 0a4d 3E000000 		.4byte	.LVL177
 5834 0a51 1E00     		.2byte	0x1e
 5835 0a53 F3       		.byte	0xf3
 5836 0a54 01       		.uleb128 0x1
 5837 0a55 51       		.byte	0x51
 5838 0a56 32       		.byte	0x32
 5839 0a57 24       		.byte	0x24
 5840 0a58 F3       		.byte	0xf3
 5841 0a59 01       		.uleb128 0x1
 5842 0a5a 51       		.byte	0x51
 5843 0a5b 22       		.byte	0x22
 5844 0a5c 31       		.byte	0x31
 5845 0a5d 24       		.byte	0x24
 5846 0a5e F3       		.byte	0xf3
 5847 0a5f 01       		.uleb128 0x1
 5848 0a60 50       		.byte	0x50
 5849 0a61 33       		.byte	0x33
 5850 0a62 24       		.byte	0x24
 5851 0a63 F3       		.byte	0xf3
 5852 0a64 01       		.uleb128 0x1
 5853 0a65 50       		.byte	0x50
 5854 0a66 1C       		.byte	0x1c
 5855 0a67 32       		.byte	0x32
 5856 0a68 24       		.byte	0x24
 5857 0a69 76       		.byte	0x76
 5858 0a6a 00       		.sleb128 0
 5859 0a6b 22       		.byte	0x22
 5860 0a6c 23       		.byte	0x23
 5861 0a6d 08       		.uleb128 0x8
 5862 0a6e 06       		.byte	0x6
 5863 0a6f 22       		.byte	0x22
 5864 0a70 9F       		.byte	0x9f
 5865 0a71 00000000 		.4byte	0
 5866 0a75 00000000 		.4byte	0
 5867              	.LLST45:
 5868 0a79 00000000 		.4byte	.LVL178
 5869 0a7d 02000000 		.4byte	.LVL179
 5870 0a81 0100     		.2byte	0x1
 5871 0a83 50       		.byte	0x50
 5872 0a84 02000000 		.4byte	.LVL179
 5873 0a88 12000000 		.4byte	.LFE28
 5874 0a8c 0400     		.2byte	0x4
 5875 0a8e F3       		.byte	0xf3
 5876 0a8f 01       		.uleb128 0x1
 5877 0a90 50       		.byte	0x50
 5878 0a91 9F       		.byte	0x9f
 5879 0a92 00000000 		.4byte	0
 5880 0a96 00000000 		.4byte	0
 5881              	.LLST46:
 5882 0a9a 00000000 		.4byte	.LVL178
 5883 0a9e 0C000000 		.4byte	.LVL182
 5884 0aa2 0100     		.2byte	0x1
ARM GAS  C:\Users\zack.li\AppData\Local\Temp\ccH890rU.s 			page 141


 5885 0aa4 51       		.byte	0x51
 5886 0aa5 0C000000 		.4byte	.LVL182
 5887 0aa9 12000000 		.4byte	.LFE28
 5888 0aad 0400     		.2byte	0x4
 5889 0aaf F3       		.byte	0xf3
 5890 0ab0 01       		.uleb128 0x1
 5891 0ab1 51       		.byte	0x51
 5892 0ab2 9F       		.byte	0x9f
 5893 0ab3 00000000 		.4byte	0
 5894 0ab7 00000000 		.4byte	0
 5895              	.LLST47:
 5896 0abb 00000000 		.4byte	.LVL178
 5897 0abf 0A000000 		.4byte	.LVL181
 5898 0ac3 0100     		.2byte	0x1
 5899 0ac5 52       		.byte	0x52
 5900 0ac6 0A000000 		.4byte	.LVL181
 5901 0aca 12000000 		.4byte	.LFE28
 5902 0ace 0400     		.2byte	0x4
 5903 0ad0 F3       		.byte	0xf3
 5904 0ad1 01       		.uleb128 0x1
 5905 0ad2 52       		.byte	0x52
 5906 0ad3 9F       		.byte	0x9f
 5907 0ad4 00000000 		.4byte	0
 5908 0ad8 00000000 		.4byte	0
 5909              	.LLST48:
 5910 0adc 00000000 		.4byte	.LVL178
 5911 0ae0 06000000 		.4byte	.LVL180
 5912 0ae4 0100     		.2byte	0x1
 5913 0ae6 53       		.byte	0x53
 5914 0ae7 06000000 		.4byte	.LVL180
 5915 0aeb 12000000 		.4byte	.LFE28
 5916 0aef 0400     		.2byte	0x4
 5917 0af1 F3       		.byte	0xf3
 5918 0af2 01       		.uleb128 0x1
 5919 0af3 53       		.byte	0x53
 5920 0af4 9F       		.byte	0x9f
 5921 0af5 00000000 		.4byte	0
 5922 0af9 00000000 		.4byte	0
 5923              	.LLST49:
 5924 0afd 00000000 		.4byte	.LVL184
 5925 0b01 12000000 		.4byte	.LVL186
 5926 0b05 0100     		.2byte	0x1
 5927 0b07 50       		.byte	0x50
 5928 0b08 12000000 		.4byte	.LVL186
 5929 0b0c BA000000 		.4byte	.LVL209
 5930 0b10 0100     		.2byte	0x1
 5931 0b12 57       		.byte	0x57
 5932 0b13 BA000000 		.4byte	.LVL209
 5933 0b17 C0000000 		.4byte	.LFE5
 5934 0b1b 0400     		.2byte	0x4
 5935 0b1d F3       		.byte	0xf3
 5936 0b1e 01       		.uleb128 0x1
 5937 0b1f 50       		.byte	0x50
 5938 0b20 9F       		.byte	0x9f
 5939 0b21 00000000 		.4byte	0
 5940 0b25 00000000 		.4byte	0
 5941              	.LLST50:
ARM GAS  C:\Users\zack.li\AppData\Local\Temp\ccH890rU.s 			page 142


 5942 0b29 00000000 		.4byte	.LVL184
 5943 0b2d 12000000 		.4byte	.LVL186
 5944 0b31 0100     		.2byte	0x1
 5945 0b33 51       		.byte	0x51
 5946 0b34 12000000 		.4byte	.LVL186
 5947 0b38 BA000000 		.4byte	.LVL208
 5948 0b3c 0100     		.2byte	0x1
 5949 0b3e 56       		.byte	0x56
 5950 0b3f BA000000 		.4byte	.LVL208
 5951 0b43 C0000000 		.4byte	.LFE5
 5952 0b47 0400     		.2byte	0x4
 5953 0b49 F3       		.byte	0xf3
 5954 0b4a 01       		.uleb128 0x1
 5955 0b4b 51       		.byte	0x51
 5956 0b4c 9F       		.byte	0x9f
 5957 0b4d 00000000 		.4byte	0
 5958 0b51 00000000 		.4byte	0
 5959              	.LLST51:
 5960 0b55 00000000 		.4byte	.LVL184
 5961 0b59 12000000 		.4byte	.LVL186
 5962 0b5d 0100     		.2byte	0x1
 5963 0b5f 52       		.byte	0x52
 5964 0b60 12000000 		.4byte	.LVL186
 5965 0b64 C0000000 		.4byte	.LFE5
 5966 0b68 0200     		.2byte	0x2
 5967 0b6a 91       		.byte	0x91
 5968 0b6b 64       		.sleb128 -28
 5969 0b6c 00000000 		.4byte	0
 5970 0b70 00000000 		.4byte	0
 5971              	.LLST52:
 5972 0b74 20000000 		.4byte	.LVL187
 5973 0b78 2A000000 		.4byte	.LVL188
 5974 0b7c 0200     		.2byte	0x2
 5975 0b7e 31       		.byte	0x31
 5976 0b7f 9F       		.byte	0x9f
 5977 0b80 2C000000 		.4byte	.LVL189
 5978 0b84 2E000000 		.4byte	.LVL190
 5979 0b88 0200     		.2byte	0x2
 5980 0b8a 30       		.byte	0x30
 5981 0b8b 9F       		.byte	0x9f
 5982 0b8c 2E000000 		.4byte	.LVL190
 5983 0b90 3E000000 		.4byte	.LVL192
 5984 0b94 0100     		.2byte	0x1
 5985 0b96 52       		.byte	0x52
 5986 0b97 56000000 		.4byte	.LVL194
 5987 0b9b 6A000000 		.4byte	.LVL196
 5988 0b9f 0100     		.2byte	0x1
 5989 0ba1 52       		.byte	0x52
 5990 0ba2 00000000 		.4byte	0
 5991 0ba6 00000000 		.4byte	0
 5992              	.LLST53:
 5993 0baa 20000000 		.4byte	.LVL187
 5994 0bae 2A000000 		.4byte	.LVL188
 5995 0bb2 0100     		.2byte	0x1
 5996 0bb4 53       		.byte	0x53
 5997 0bb5 2C000000 		.4byte	.LVL189
 5998 0bb9 3A000000 		.4byte	.LVL191
ARM GAS  C:\Users\zack.li\AppData\Local\Temp\ccH890rU.s 			page 143


 5999 0bbd 0100     		.2byte	0x1
 6000 0bbf 53       		.byte	0x53
 6001 0bc0 56000000 		.4byte	.LVL194
 6002 0bc4 68000000 		.4byte	.LVL195
 6003 0bc8 0100     		.2byte	0x1
 6004 0bca 53       		.byte	0x53
 6005 0bcb 00000000 		.4byte	0
 6006 0bcf 00000000 		.4byte	0
 6007              	.LLST54:
 6008 0bd3 0E000000 		.4byte	.LVL185
 6009 0bd7 12000000 		.4byte	.LVL186
 6010 0bdb 0200     		.2byte	0x2
 6011 0bdd 31       		.byte	0x31
 6012 0bde 9F       		.byte	0x9f
 6013 0bdf 12000000 		.4byte	.LVL186
 6014 0be3 B0000000 		.4byte	.LVL205
 6015 0be7 0100     		.2byte	0x1
 6016 0be9 54       		.byte	0x54
 6017 0bea B0000000 		.4byte	.LVL205
 6018 0bee B2000000 		.4byte	.LVL206
 6019 0bf2 0100     		.2byte	0x1
 6020 0bf4 53       		.byte	0x53
 6021 0bf5 B2000000 		.4byte	.LVL206
 6022 0bf9 BA000000 		.4byte	.LVL207
 6023 0bfd 0100     		.2byte	0x1
 6024 0bff 54       		.byte	0x54
 6025 0c00 BA000000 		.4byte	.LVL207
 6026 0c04 C0000000 		.4byte	.LFE5
 6027 0c08 0300     		.2byte	0x3
 6028 0c0a 73       		.byte	0x73
 6029 0c0b 7F       		.sleb128 -1
 6030 0c0c 9F       		.byte	0x9f
 6031 0c0d 00000000 		.4byte	0
 6032 0c11 00000000 		.4byte	0
 6033              	.LLST55:
 6034 0c15 7A000000 		.4byte	.LVL198
 6035 0c19 90000000 		.4byte	.LVL200
 6036 0c1d 0200     		.2byte	0x2
 6037 0c1f 31       		.byte	0x31
 6038 0c20 9F       		.byte	0x9f
 6039 0c21 9A000000 		.4byte	.LVL202
 6040 0c25 AE000000 		.4byte	.LVL204
 6041 0c29 0200     		.2byte	0x2
 6042 0c2b 31       		.byte	0x31
 6043 0c2c 9F       		.byte	0x9f
 6044 0c2d 00000000 		.4byte	0
 6045 0c31 00000000 		.4byte	0
 6046              	.LLST56:
 6047 0c35 72000000 		.4byte	.LVL197
 6048 0c39 81000000 		.4byte	.LVL199-1
 6049 0c3d 0100     		.2byte	0x1
 6050 0c3f 51       		.byte	0x51
 6051 0c40 82000000 		.4byte	.LVL199
 6052 0c44 90000000 		.4byte	.LVL200
 6053 0c48 0100     		.2byte	0x1
 6054 0c4a 50       		.byte	0x50
 6055 0c4b 92000000 		.4byte	.LVL201
ARM GAS  C:\Users\zack.li\AppData\Local\Temp\ccH890rU.s 			page 144


 6056 0c4f A1000000 		.4byte	.LVL203-1
 6057 0c53 0100     		.2byte	0x1
 6058 0c55 51       		.byte	0x51
 6059 0c56 A2000000 		.4byte	.LVL203
 6060 0c5a AE000000 		.4byte	.LVL204
 6061 0c5e 0100     		.2byte	0x1
 6062 0c60 50       		.byte	0x50
 6063 0c61 00000000 		.4byte	0
 6064 0c65 00000000 		.4byte	0
 6065              	.LLST57:
 6066 0c69 00000000 		.4byte	.LVL210
 6067 0c6d 22000000 		.4byte	.LVL216
 6068 0c71 0100     		.2byte	0x1
 6069 0c73 50       		.byte	0x50
 6070 0c74 22000000 		.4byte	.LVL216
 6071 0c78 2C000000 		.4byte	.LFE4
 6072 0c7c 0400     		.2byte	0x4
 6073 0c7e F3       		.byte	0xf3
 6074 0c7f 01       		.uleb128 0x1
 6075 0c80 50       		.byte	0x50
 6076 0c81 9F       		.byte	0x9f
 6077 0c82 00000000 		.4byte	0
 6078 0c86 00000000 		.4byte	0
 6079              	.LLST58:
 6080 0c8a 00000000 		.4byte	.LVL210
 6081 0c8e 16000000 		.4byte	.LVL214
 6082 0c92 0100     		.2byte	0x1
 6083 0c94 51       		.byte	0x51
 6084 0c95 16000000 		.4byte	.LVL214
 6085 0c99 2C000000 		.4byte	.LFE4
 6086 0c9d 0400     		.2byte	0x4
 6087 0c9f F3       		.byte	0xf3
 6088 0ca0 01       		.uleb128 0x1
 6089 0ca1 51       		.byte	0x51
 6090 0ca2 9F       		.byte	0x9f
 6091 0ca3 00000000 		.4byte	0
 6092 0ca7 00000000 		.4byte	0
 6093              	.LLST59:
 6094 0cab 02000000 		.4byte	.LVL211
 6095 0caf 26000000 		.4byte	.LVL217
 6096 0cb3 0200     		.2byte	0x2
 6097 0cb5 30       		.byte	0x30
 6098 0cb6 9F       		.byte	0x9f
 6099 0cb7 26000000 		.4byte	.LVL217
 6100 0cbb 2C000000 		.4byte	.LFE4
 6101 0cbf 0100     		.2byte	0x1
 6102 0cc1 50       		.byte	0x50
 6103 0cc2 00000000 		.4byte	0
 6104 0cc6 00000000 		.4byte	0
 6105              	.LLST60:
 6106 0cca 02000000 		.4byte	.LVL211
 6107 0cce 10000000 		.4byte	.LVL213
 6108 0cd2 0200     		.2byte	0x2
 6109 0cd4 30       		.byte	0x30
 6110 0cd5 9F       		.byte	0x9f
 6111 0cd6 10000000 		.4byte	.LVL213
 6112 0cda 18000000 		.4byte	.LVL215
ARM GAS  C:\Users\zack.li\AppData\Local\Temp\ccH890rU.s 			page 145


 6113 0cde 0100     		.2byte	0x1
 6114 0ce0 56       		.byte	0x56
 6115 0ce1 18000000 		.4byte	.LVL215
 6116 0ce5 25000000 		.4byte	.LVL217-1
 6117 0ce9 0100     		.2byte	0x1
 6118 0ceb 51       		.byte	0x51
 6119 0cec 25000000 		.4byte	.LVL217-1
 6120 0cf0 26000000 		.4byte	.LVL220
 6121 0cf4 0F00     		.2byte	0xf
 6122 0cf6 F3       		.byte	0xf3
 6123 0cf7 01       		.uleb128 0x1
 6124 0cf8 51       		.byte	0x51
 6125 0cf9 32       		.byte	0x32
 6126 0cfa 24       		.byte	0x24
 6127 0cfb F3       		.byte	0xf3
 6128 0cfc 01       		.uleb128 0x1
 6129 0cfd 51       		.byte	0x51
 6130 0cfe 22       		.byte	0x22
 6131 0cff 31       		.byte	0x31
 6132 0d00 24       		.byte	0x24
 6133 0d01 76       		.byte	0x76
 6134 0d02 00       		.sleb128 0
 6135 0d03 22       		.byte	0x22
 6136 0d04 9F       		.byte	0x9f
 6137 0d05 00000000 		.4byte	0
 6138 0d09 00000000 		.4byte	0
 6139              	.LLST61:
 6140 0d0d 0E000000 		.4byte	.LVL212
 6141 0d11 26000000 		.4byte	.LVL218
 6142 0d15 0100     		.2byte	0x1
 6143 0d17 54       		.byte	0x54
 6144 0d18 26000000 		.4byte	.LVL218
 6145 0d1c 26000000 		.4byte	.LVL219
 6146 0d20 1000     		.2byte	0x10
 6147 0d22 F3       		.byte	0xf3
 6148 0d23 01       		.uleb128 0x1
 6149 0d24 50       		.byte	0x50
 6150 0d25 33       		.byte	0x33
 6151 0d26 24       		.byte	0x24
 6152 0d27 F3       		.byte	0xf3
 6153 0d28 01       		.uleb128 0x1
 6154 0d29 50       		.byte	0x50
 6155 0d2a 1C       		.byte	0x1c
 6156 0d2b 32       		.byte	0x32
 6157 0d2c 24       		.byte	0x24
 6158 0d2d 75       		.byte	0x75
 6159 0d2e 00       		.sleb128 0
 6160 0d2f 22       		.byte	0x22
 6161 0d30 23       		.byte	0x23
 6162 0d31 04       		.uleb128 0x4
 6163 0d32 00000000 		.4byte	0
 6164 0d36 00000000 		.4byte	0
 6165              	.LLST62:
 6166 0d3a 00000000 		.4byte	.LVL221
 6167 0d3e 14000000 		.4byte	.LVL224
 6168 0d42 0100     		.2byte	0x1
 6169 0d44 50       		.byte	0x50
ARM GAS  C:\Users\zack.li\AppData\Local\Temp\ccH890rU.s 			page 146


 6170 0d45 14000000 		.4byte	.LVL224
 6171 0d49 28000000 		.4byte	.LVL231
 6172 0d4d 0100     		.2byte	0x1
 6173 0d4f 56       		.byte	0x56
 6174 0d50 28000000 		.4byte	.LVL231
 6175 0d54 30000000 		.4byte	.LFE3
 6176 0d58 0400     		.2byte	0x4
 6177 0d5a F3       		.byte	0xf3
 6178 0d5b 01       		.uleb128 0x1
 6179 0d5c 50       		.byte	0x50
 6180 0d5d 9F       		.byte	0x9f
 6181 0d5e 00000000 		.4byte	0
 6182 0d62 00000000 		.4byte	0
 6183              	.LLST63:
 6184 0d66 10000000 		.4byte	.LVL223
 6185 0d6a 14000000 		.4byte	.LVL224
 6186 0d6e 0100     		.2byte	0x1
 6187 0d70 53       		.byte	0x53
 6188 0d71 14000000 		.4byte	.LVL224
 6189 0d75 20000000 		.4byte	.LVL227
 6190 0d79 0100     		.2byte	0x1
 6191 0d7b 54       		.byte	0x54
 6192 0d7c 20000000 		.4byte	.LVL227
 6193 0d80 22000000 		.4byte	.LVL228
 6194 0d84 0100     		.2byte	0x1
 6195 0d86 53       		.byte	0x53
 6196 0d87 22000000 		.4byte	.LVL228
 6197 0d8b 28000000 		.4byte	.LVL229
 6198 0d8f 0100     		.2byte	0x1
 6199 0d91 54       		.byte	0x54
 6200 0d92 28000000 		.4byte	.LVL229
 6201 0d96 30000000 		.4byte	.LFE3
 6202 0d9a 0300     		.2byte	0x3
 6203 0d9c 73       		.byte	0x73
 6204 0d9d 7F       		.sleb128 -1
 6205 0d9e 9F       		.byte	0x9f
 6206 0d9f 00000000 		.4byte	0
 6207 0da3 00000000 		.4byte	0
 6208              	.LLST64:
 6209 0da7 10000000 		.4byte	.LVL223
 6210 0dab 14000000 		.4byte	.LVL224
 6211 0daf 0100     		.2byte	0x1
 6212 0db1 53       		.byte	0x53
 6213 0db2 00000000 		.4byte	0
 6214 0db6 00000000 		.4byte	0
 6215              	.LLST65:
 6216 0dba 04000000 		.4byte	.LVL222
 6217 0dbe 14000000 		.4byte	.LVL224
 6218 0dc2 0200     		.2byte	0x2
 6219 0dc4 30       		.byte	0x30
 6220 0dc5 9F       		.byte	0x9f
 6221 0dc6 14000000 		.4byte	.LVL224
 6222 0dca 28000000 		.4byte	.LVL230
 6223 0dce 0100     		.2byte	0x1
 6224 0dd0 55       		.byte	0x55
 6225 0dd1 28000000 		.4byte	.LVL230
 6226 0dd5 30000000 		.4byte	.LFE3
ARM GAS  C:\Users\zack.li\AppData\Local\Temp\ccH890rU.s 			page 147


 6227 0dd9 0100     		.2byte	0x1
 6228 0ddb 50       		.byte	0x50
 6229 0ddc 00000000 		.4byte	0
 6230 0de0 00000000 		.4byte	0
 6231              	.LLST66:
 6232 0de4 02000000 		.4byte	.LVL232
 6233 0de8 08000000 		.4byte	.LVL233
 6234 0dec 0200     		.2byte	0x2
 6235 0dee 36       		.byte	0x36
 6236 0def 9F       		.byte	0x9f
 6237 0df0 08000000 		.4byte	.LVL233
 6238 0df4 12000000 		.4byte	.LVL236
 6239 0df8 0100     		.2byte	0x1
 6240 0dfa 54       		.byte	0x54
 6241 0dfb 12000000 		.4byte	.LVL236
 6242 0dff 14000000 		.4byte	.LVL237
 6243 0e03 0100     		.2byte	0x1
 6244 0e05 53       		.byte	0x53
 6245 0e06 14000000 		.4byte	.LVL237
 6246 0e0a 1A000000 		.4byte	.LVL238
 6247 0e0e 0100     		.2byte	0x1
 6248 0e10 54       		.byte	0x54
 6249 0e11 1A000000 		.4byte	.LVL238
 6250 0e15 1C000000 		.4byte	.LFE2
 6251 0e19 0300     		.2byte	0x3
 6252 0e1b 73       		.byte	0x73
 6253 0e1c 7F       		.sleb128 -1
 6254 0e1d 9F       		.byte	0x9f
 6255 0e1e 00000000 		.4byte	0
 6256 0e22 00000000 		.4byte	0
 6257              	.LLST67:
 6258 0e26 02000000 		.4byte	.LVL232
 6259 0e2a 08000000 		.4byte	.LVL233
 6260 0e2e 0200     		.2byte	0x2
 6261 0e30 30       		.byte	0x30
 6262 0e31 9F       		.byte	0x9f
 6263 0e32 08000000 		.4byte	.LVL233
 6264 0e36 1A000000 		.4byte	.LVL239
 6265 0e3a 0100     		.2byte	0x1
 6266 0e3c 55       		.byte	0x55
 6267 0e3d 1A000000 		.4byte	.LVL239
 6268 0e41 1C000000 		.4byte	.LFE2
 6269 0e45 0100     		.2byte	0x1
 6270 0e47 50       		.byte	0x50
 6271 0e48 00000000 		.4byte	0
 6272 0e4c 00000000 		.4byte	0
 6273              	.LLST68:
 6274 0e50 00000000 		.4byte	.LVL240
 6275 0e54 1E000000 		.4byte	.LVL244
 6276 0e58 0100     		.2byte	0x1
 6277 0e5a 50       		.byte	0x50
 6278 0e5b 1E000000 		.4byte	.LVL244
 6279 0e5f 38000000 		.4byte	.LVL248
 6280 0e63 0100     		.2byte	0x1
 6281 0e65 57       		.byte	0x57
 6282 0e66 38000000 		.4byte	.LVL248
 6283 0e6a 3C000000 		.4byte	.LVL249
ARM GAS  C:\Users\zack.li\AppData\Local\Temp\ccH890rU.s 			page 148


 6284 0e6e 0100     		.2byte	0x1
 6285 0e70 50       		.byte	0x50
 6286 0e71 3C000000 		.4byte	.LVL249
 6287 0e75 56000000 		.4byte	.LVL253
 6288 0e79 0100     		.2byte	0x1
 6289 0e7b 57       		.byte	0x57
 6290 0e7c 56000000 		.4byte	.LVL253
 6291 0e80 62000000 		.4byte	.LFE16
 6292 0e84 0100     		.2byte	0x1
 6293 0e86 50       		.byte	0x50
 6294 0e87 00000000 		.4byte	0
 6295 0e8b 00000000 		.4byte	0
 6296              	.LLST69:
 6297 0e8f 00000000 		.4byte	.LVL240
 6298 0e93 10000000 		.4byte	.LVL242
 6299 0e97 0100     		.2byte	0x1
 6300 0e99 51       		.byte	0x51
 6301 0e9a 10000000 		.4byte	.LVL242
 6302 0e9e 5C000000 		.4byte	.LVL256
 6303 0ea2 0100     		.2byte	0x1
 6304 0ea4 56       		.byte	0x56
 6305 0ea5 5C000000 		.4byte	.LVL256
 6306 0ea9 62000000 		.4byte	.LFE16
 6307 0ead 0400     		.2byte	0x4
 6308 0eaf F3       		.byte	0xf3
 6309 0eb0 01       		.uleb128 0x1
 6310 0eb1 51       		.byte	0x51
 6311 0eb2 9F       		.byte	0x9f
 6312 0eb3 00000000 		.4byte	0
 6313 0eb7 00000000 		.4byte	0
 6314              	.LLST70:
 6315 0ebb 00000000 		.4byte	.LVL240
 6316 0ebf 10000000 		.4byte	.LVL242
 6317 0ec3 0100     		.2byte	0x1
 6318 0ec5 52       		.byte	0x52
 6319 0ec6 10000000 		.4byte	.LVL242
 6320 0eca 1A000000 		.4byte	.LVL243
 6321 0ece 0100     		.2byte	0x1
 6322 0ed0 58       		.byte	0x58
 6323 0ed1 1A000000 		.4byte	.LVL243
 6324 0ed5 20000000 		.4byte	.LVL245
 6325 0ed9 0100     		.2byte	0x1
 6326 0edb 52       		.byte	0x52
 6327 0edc 20000000 		.4byte	.LVL245
 6328 0ee0 38000000 		.4byte	.LVL248
 6329 0ee4 0100     		.2byte	0x1
 6330 0ee6 58       		.byte	0x58
 6331 0ee7 38000000 		.4byte	.LVL248
 6332 0eeb 3E000000 		.4byte	.LVL250
 6333 0eef 0100     		.2byte	0x1
 6334 0ef1 52       		.byte	0x52
 6335 0ef2 3E000000 		.4byte	.LVL250
 6336 0ef6 5C000000 		.4byte	.LVL257
 6337 0efa 0100     		.2byte	0x1
 6338 0efc 58       		.byte	0x58
 6339 0efd 5C000000 		.4byte	.LVL257
 6340 0f01 62000000 		.4byte	.LFE16
ARM GAS  C:\Users\zack.li\AppData\Local\Temp\ccH890rU.s 			page 149


 6341 0f05 0400     		.2byte	0x4
 6342 0f07 F3       		.byte	0xf3
 6343 0f08 01       		.uleb128 0x1
 6344 0f09 52       		.byte	0x52
 6345 0f0a 9F       		.byte	0x9f
 6346 0f0b 00000000 		.4byte	0
 6347 0f0f 00000000 		.4byte	0
 6348              	.LLST71:
 6349 0f13 0C000000 		.4byte	.LVL241
 6350 0f17 10000000 		.4byte	.LVL242
 6351 0f1b 0200     		.2byte	0x2
 6352 0f1d 31       		.byte	0x31
 6353 0f1e 9F       		.byte	0x9f
 6354 0f1f 10000000 		.4byte	.LVL242
 6355 0f23 56000000 		.4byte	.LVL253
 6356 0f27 0100     		.2byte	0x1
 6357 0f29 54       		.byte	0x54
 6358 0f2a 56000000 		.4byte	.LVL253
 6359 0f2e 58000000 		.4byte	.LVL254
 6360 0f32 0100     		.2byte	0x1
 6361 0f34 53       		.byte	0x53
 6362 0f35 58000000 		.4byte	.LVL254
 6363 0f39 5C000000 		.4byte	.LVL255
 6364 0f3d 0100     		.2byte	0x1
 6365 0f3f 54       		.byte	0x54
 6366 0f40 5C000000 		.4byte	.LVL255
 6367 0f44 62000000 		.4byte	.LFE16
 6368 0f48 0300     		.2byte	0x3
 6369 0f4a 73       		.byte	0x73
 6370 0f4b 7F       		.sleb128 -1
 6371 0f4c 9F       		.byte	0x9f
 6372 0f4d 00000000 		.4byte	0
 6373 0f51 00000000 		.4byte	0
 6374              	.LLST72:
 6375 0f55 2C000000 		.4byte	.LVL246
 6376 0f59 2E000000 		.4byte	.LVL247
 6377 0f5d 0100     		.2byte	0x1
 6378 0f5f 50       		.byte	0x50
 6379 0f60 4A000000 		.4byte	.LVL251
 6380 0f64 4C000000 		.4byte	.LVL252
 6381 0f68 0100     		.2byte	0x1
 6382 0f6a 50       		.byte	0x50
 6383 0f6b 00000000 		.4byte	0
 6384 0f6f 00000000 		.4byte	0
 6385              	.LLST73:
 6386 0f73 00000000 		.4byte	.LVL258
 6387 0f77 2A000000 		.4byte	.LVL263
 6388 0f7b 0100     		.2byte	0x1
 6389 0f7d 50       		.byte	0x50
 6390 0f7e 2A000000 		.4byte	.LVL263
 6391 0f82 32000000 		.4byte	.LVL266
 6392 0f86 0400     		.2byte	0x4
 6393 0f88 F3       		.byte	0xf3
 6394 0f89 01       		.uleb128 0x1
 6395 0f8a 50       		.byte	0x50
 6396 0f8b 9F       		.byte	0x9f
 6397 0f8c 32000000 		.4byte	.LVL266
ARM GAS  C:\Users\zack.li\AppData\Local\Temp\ccH890rU.s 			page 150


 6398 0f90 34000000 		.4byte	.LVL267
 6399 0f94 0100     		.2byte	0x1
 6400 0f96 50       		.byte	0x50
 6401 0f97 34000000 		.4byte	.LVL267
 6402 0f9b 44000000 		.4byte	.LFE14
 6403 0f9f 0400     		.2byte	0x4
 6404 0fa1 F3       		.byte	0xf3
 6405 0fa2 01       		.uleb128 0x1
 6406 0fa3 50       		.byte	0x50
 6407 0fa4 9F       		.byte	0x9f
 6408 0fa5 00000000 		.4byte	0
 6409 0fa9 00000000 		.4byte	0
 6410              	.LLST74:
 6411 0fad 00000000 		.4byte	.LVL258
 6412 0fb1 0A000000 		.4byte	.LVL260
 6413 0fb5 0100     		.2byte	0x1
 6414 0fb7 51       		.byte	0x51
 6415 0fb8 0A000000 		.4byte	.LVL260
 6416 0fbc 2C000000 		.4byte	.LVL264
 6417 0fc0 0100     		.2byte	0x1
 6418 0fc2 53       		.byte	0x53
 6419 0fc3 2C000000 		.4byte	.LVL264
 6420 0fc7 32000000 		.4byte	.LVL266
 6421 0fcb 0400     		.2byte	0x4
 6422 0fcd F3       		.byte	0xf3
 6423 0fce 01       		.uleb128 0x1
 6424 0fcf 51       		.byte	0x51
 6425 0fd0 9F       		.byte	0x9f
 6426 0fd1 32000000 		.4byte	.LVL266
 6427 0fd5 36000000 		.4byte	.LVL268
 6428 0fd9 0100     		.2byte	0x1
 6429 0fdb 53       		.byte	0x53
 6430 0fdc 36000000 		.4byte	.LVL268
 6431 0fe0 44000000 		.4byte	.LFE14
 6432 0fe4 0400     		.2byte	0x4
 6433 0fe6 F3       		.byte	0xf3
 6434 0fe7 01       		.uleb128 0x1
 6435 0fe8 51       		.byte	0x51
 6436 0fe9 9F       		.byte	0x9f
 6437 0fea 00000000 		.4byte	0
 6438 0fee 00000000 		.4byte	0
 6439              	.LLST75:
 6440 0ff2 04000000 		.4byte	.LVL259
 6441 0ff6 0E000000 		.4byte	.LVL261
 6442 0ffa 0200     		.2byte	0x2
 6443 0ffc 30       		.byte	0x30
 6444 0ffd 9F       		.byte	0x9f
 6445 0ffe 0E000000 		.4byte	.LVL261
 6446 1002 1A000000 		.4byte	.LVL262
 6447 1006 0200     		.2byte	0x2
 6448 1008 74       		.byte	0x74
 6449 1009 08       		.sleb128 8
 6450 100a 1A000000 		.4byte	.LVL262
 6451 100e 3D000000 		.4byte	.LVL269-1
 6452 1012 0100     		.2byte	0x1
 6453 1014 51       		.byte	0x51
 6454 1015 3D000000 		.4byte	.LVL269-1
ARM GAS  C:\Users\zack.li\AppData\Local\Temp\ccH890rU.s 			page 151


 6455 1019 3E000000 		.4byte	.LVL270
 6456 101d 1000     		.2byte	0x10
 6457 101f F3       		.byte	0xf3
 6458 1020 01       		.uleb128 0x1
 6459 1021 51       		.byte	0x51
 6460 1022 32       		.byte	0x32
 6461 1023 24       		.byte	0x24
 6462 1024 F3       		.byte	0xf3
 6463 1025 01       		.uleb128 0x1
 6464 1026 51       		.byte	0x51
 6465 1027 22       		.byte	0x22
 6466 1028 31       		.byte	0x31
 6467 1029 24       		.byte	0x24
 6468 102a 74       		.byte	0x74
 6469 102b 08       		.sleb128 8
 6470 102c 06       		.byte	0x6
 6471 102d 22       		.byte	0x22
 6472 102e 9F       		.byte	0x9f
 6473 102f 3E000000 		.4byte	.LVL270
 6474 1033 3E000000 		.4byte	.LVL271
 6475 1037 1E00     		.2byte	0x1e
 6476 1039 F3       		.byte	0xf3
 6477 103a 01       		.uleb128 0x1
 6478 103b 51       		.byte	0x51
 6479 103c 32       		.byte	0x32
 6480 103d 24       		.byte	0x24
 6481 103e F3       		.byte	0xf3
 6482 103f 01       		.uleb128 0x1
 6483 1040 51       		.byte	0x51
 6484 1041 22       		.byte	0x22
 6485 1042 31       		.byte	0x31
 6486 1043 24       		.byte	0x24
 6487 1044 F3       		.byte	0xf3
 6488 1045 01       		.uleb128 0x1
 6489 1046 50       		.byte	0x50
 6490 1047 33       		.byte	0x33
 6491 1048 24       		.byte	0x24
 6492 1049 F3       		.byte	0xf3
 6493 104a 01       		.uleb128 0x1
 6494 104b 50       		.byte	0x50
 6495 104c 1C       		.byte	0x1c
 6496 104d 32       		.byte	0x32
 6497 104e 24       		.byte	0x24
 6498 104f 76       		.byte	0x76
 6499 1050 00       		.sleb128 0
 6500 1051 22       		.byte	0x22
 6501 1052 23       		.byte	0x23
 6502 1053 08       		.uleb128 0x8
 6503 1054 06       		.byte	0x6
 6504 1055 22       		.byte	0x22
 6505 1056 9F       		.byte	0x9f
 6506 1057 00000000 		.4byte	0
 6507 105b 00000000 		.4byte	0
 6508              	.LLST76:
 6509 105f 00000000 		.4byte	.LVL272
 6510 1063 0B000000 		.4byte	.LVL273-1
 6511 1067 0100     		.2byte	0x1
ARM GAS  C:\Users\zack.li\AppData\Local\Temp\ccH890rU.s 			page 152


 6512 1069 50       		.byte	0x50
 6513 106a 10000000 		.4byte	.LVL274
 6514 106e 20000000 		.4byte	.LVL277
 6515 1072 0100     		.2byte	0x1
 6516 1074 54       		.byte	0x54
 6517 1075 00000000 		.4byte	0
 6518 1079 00000000 		.4byte	0
 6519              	.LLST77:
 6520 107d 00000000 		.4byte	.LVL272
 6521 1081 0B000000 		.4byte	.LVL273-1
 6522 1085 0100     		.2byte	0x1
 6523 1087 51       		.byte	0x51
 6524 1088 0B000000 		.4byte	.LVL273-1
 6525 108c 20000000 		.4byte	.LVL278
 6526 1090 0100     		.2byte	0x1
 6527 1092 55       		.byte	0x55
 6528 1093 20000000 		.4byte	.LVL278
 6529 1097 22000000 		.4byte	.LFE26
 6530 109b 0400     		.2byte	0x4
 6531 109d F3       		.byte	0xf3
 6532 109e 01       		.uleb128 0x1
 6533 109f 51       		.byte	0x51
 6534 10a0 9F       		.byte	0x9f
 6535 10a1 00000000 		.4byte	0
 6536 10a5 00000000 		.4byte	0
 6537              	.LLST78:
 6538 10a9 00000000 		.4byte	.LVL272
 6539 10ad 0B000000 		.4byte	.LVL273-1
 6540 10b1 0100     		.2byte	0x1
 6541 10b3 52       		.byte	0x52
 6542 10b4 0B000000 		.4byte	.LVL273-1
 6543 10b8 20000000 		.4byte	.LVL279
 6544 10bc 0100     		.2byte	0x1
 6545 10be 56       		.byte	0x56
 6546 10bf 20000000 		.4byte	.LVL279
 6547 10c3 22000000 		.4byte	.LFE26
 6548 10c7 0400     		.2byte	0x4
 6549 10c9 F3       		.byte	0xf3
 6550 10ca 01       		.uleb128 0x1
 6551 10cb 52       		.byte	0x52
 6552 10cc 9F       		.byte	0x9f
 6553 10cd 00000000 		.4byte	0
 6554 10d1 00000000 		.4byte	0
 6555              	.LLST79:
 6556 10d5 00000000 		.4byte	.LVL280
 6557 10d9 2A000000 		.4byte	.LVL285
 6558 10dd 0100     		.2byte	0x1
 6559 10df 50       		.byte	0x50
 6560 10e0 2A000000 		.4byte	.LVL285
 6561 10e4 32000000 		.4byte	.LVL288
 6562 10e8 0400     		.2byte	0x4
 6563 10ea F3       		.byte	0xf3
 6564 10eb 01       		.uleb128 0x1
 6565 10ec 50       		.byte	0x50
 6566 10ed 9F       		.byte	0x9f
 6567 10ee 32000000 		.4byte	.LVL288
 6568 10f2 34000000 		.4byte	.LVL289
ARM GAS  C:\Users\zack.li\AppData\Local\Temp\ccH890rU.s 			page 153


 6569 10f6 0100     		.2byte	0x1
 6570 10f8 50       		.byte	0x50
 6571 10f9 34000000 		.4byte	.LVL289
 6572 10fd 44000000 		.4byte	.LFE25
 6573 1101 0400     		.2byte	0x4
 6574 1103 F3       		.byte	0xf3
 6575 1104 01       		.uleb128 0x1
 6576 1105 50       		.byte	0x50
 6577 1106 9F       		.byte	0x9f
 6578 1107 00000000 		.4byte	0
 6579 110b 00000000 		.4byte	0
 6580              	.LLST80:
 6581 110f 00000000 		.4byte	.LVL280
 6582 1113 0A000000 		.4byte	.LVL282
 6583 1117 0100     		.2byte	0x1
 6584 1119 51       		.byte	0x51
 6585 111a 0A000000 		.4byte	.LVL282
 6586 111e 2C000000 		.4byte	.LVL286
 6587 1122 0100     		.2byte	0x1
 6588 1124 53       		.byte	0x53
 6589 1125 2C000000 		.4byte	.LVL286
 6590 1129 32000000 		.4byte	.LVL288
 6591 112d 0400     		.2byte	0x4
 6592 112f F3       		.byte	0xf3
 6593 1130 01       		.uleb128 0x1
 6594 1131 51       		.byte	0x51
 6595 1132 9F       		.byte	0x9f
 6596 1133 32000000 		.4byte	.LVL288
 6597 1137 36000000 		.4byte	.LVL290
 6598 113b 0100     		.2byte	0x1
 6599 113d 53       		.byte	0x53
 6600 113e 36000000 		.4byte	.LVL290
 6601 1142 44000000 		.4byte	.LFE25
 6602 1146 0400     		.2byte	0x4
 6603 1148 F3       		.byte	0xf3
 6604 1149 01       		.uleb128 0x1
 6605 114a 51       		.byte	0x51
 6606 114b 9F       		.byte	0x9f
 6607 114c 00000000 		.4byte	0
 6608 1150 00000000 		.4byte	0
 6609              	.LLST81:
 6610 1154 04000000 		.4byte	.LVL281
 6611 1158 0E000000 		.4byte	.LVL283
 6612 115c 0200     		.2byte	0x2
 6613 115e 30       		.byte	0x30
 6614 115f 9F       		.byte	0x9f
 6615 1160 0E000000 		.4byte	.LVL283
 6616 1164 1A000000 		.4byte	.LVL284
 6617 1168 0200     		.2byte	0x2
 6618 116a 74       		.byte	0x74
 6619 116b 08       		.sleb128 8
 6620 116c 1A000000 		.4byte	.LVL284
 6621 1170 3D000000 		.4byte	.LVL291-1
 6622 1174 0100     		.2byte	0x1
 6623 1176 51       		.byte	0x51
 6624 1177 3D000000 		.4byte	.LVL291-1
 6625 117b 3E000000 		.4byte	.LVL292
ARM GAS  C:\Users\zack.li\AppData\Local\Temp\ccH890rU.s 			page 154


 6626 117f 1000     		.2byte	0x10
 6627 1181 F3       		.byte	0xf3
 6628 1182 01       		.uleb128 0x1
 6629 1183 51       		.byte	0x51
 6630 1184 32       		.byte	0x32
 6631 1185 24       		.byte	0x24
 6632 1186 F3       		.byte	0xf3
 6633 1187 01       		.uleb128 0x1
 6634 1188 51       		.byte	0x51
 6635 1189 22       		.byte	0x22
 6636 118a 31       		.byte	0x31
 6637 118b 24       		.byte	0x24
 6638 118c 74       		.byte	0x74
 6639 118d 08       		.sleb128 8
 6640 118e 06       		.byte	0x6
 6641 118f 22       		.byte	0x22
 6642 1190 9F       		.byte	0x9f
 6643 1191 3E000000 		.4byte	.LVL292
 6644 1195 3E000000 		.4byte	.LVL293
 6645 1199 1E00     		.2byte	0x1e
 6646 119b F3       		.byte	0xf3
 6647 119c 01       		.uleb128 0x1
 6648 119d 51       		.byte	0x51
 6649 119e 32       		.byte	0x32
 6650 119f 24       		.byte	0x24
 6651 11a0 F3       		.byte	0xf3
 6652 11a1 01       		.uleb128 0x1
 6653 11a2 51       		.byte	0x51
 6654 11a3 22       		.byte	0x22
 6655 11a4 31       		.byte	0x31
 6656 11a5 24       		.byte	0x24
 6657 11a6 F3       		.byte	0xf3
 6658 11a7 01       		.uleb128 0x1
 6659 11a8 50       		.byte	0x50
 6660 11a9 33       		.byte	0x33
 6661 11aa 24       		.byte	0x24
 6662 11ab F3       		.byte	0xf3
 6663 11ac 01       		.uleb128 0x1
 6664 11ad 50       		.byte	0x50
 6665 11ae 1C       		.byte	0x1c
 6666 11af 32       		.byte	0x32
 6667 11b0 24       		.byte	0x24
 6668 11b1 76       		.byte	0x76
 6669 11b2 00       		.sleb128 0
 6670 11b3 22       		.byte	0x22
 6671 11b4 23       		.byte	0x23
 6672 11b5 08       		.uleb128 0x8
 6673 11b6 06       		.byte	0x6
 6674 11b7 22       		.byte	0x22
 6675 11b8 9F       		.byte	0x9f
 6676 11b9 00000000 		.4byte	0
 6677 11bd 00000000 		.4byte	0
 6678              		.section	.debug_aranges,"",%progbits
 6679 0000 F4000000 		.4byte	0xf4
 6680 0004 0200     		.2byte	0x2
 6681 0006 00000000 		.4byte	.Ldebug_info0
 6682 000a 04       		.byte	0x4
ARM GAS  C:\Users\zack.li\AppData\Local\Temp\ccH890rU.s 			page 155


 6683 000b 00       		.byte	0
 6684 000c 0000     		.2byte	0
 6685 000e 0000     		.2byte	0
 6686 0010 00000000 		.4byte	.LFB10
 6687 0014 26000000 		.4byte	.LFE10-.LFB10
 6688 0018 00000000 		.4byte	.LFB9
 6689 001c 1E000000 		.4byte	.LFE9-.LFB9
 6690 0020 00000000 		.4byte	.LFB8
 6691 0024 2C000000 		.4byte	.LFE8-.LFB8
 6692 0028 00000000 		.4byte	.LFB7
 6693 002c 28000000 		.4byte	.LFE7-.LFB7
 6694 0030 00000000 		.4byte	.LFB6
 6695 0034 16000000 		.4byte	.LFE6-.LFB6
 6696 0038 00000000 		.4byte	.LFB15
 6697 003c 2E000000 		.4byte	.LFE15-.LFB15
 6698 0040 00000000 		.4byte	.LFB13
 6699 0044 44000000 		.4byte	.LFE13-.LFB13
 6700 0048 00000000 		.4byte	.LFB19
 6701 004c 3A000000 		.4byte	.LFE19-.LFB19
 6702 0050 00000000 		.4byte	.LFB17
 6703 0054 44000000 		.4byte	.LFE17-.LFB17
 6704 0058 00000000 		.4byte	.LFB23
 6705 005c 42000000 		.4byte	.LFE23-.LFB23
 6706 0060 00000000 		.4byte	.LFB12
 6707 0064 78000000 		.4byte	.LFE12-.LFB12
 6708 0068 00000000 		.4byte	.LFB11
 6709 006c 16000000 		.4byte	.LFE11-.LFB11
 6710 0070 00000000 		.4byte	.LFB1
 6711 0074 08000000 		.4byte	.LFE1-.LFB1
 6712 0078 00000000 		.4byte	.LFB21
 6713 007c 44000000 		.4byte	.LFE21-.LFB21
 6714 0080 00000000 		.4byte	.LFB24
 6715 0084 6E000000 		.4byte	.LFE24-.LFB24
 6716 0088 00000000 		.4byte	.LFB22
 6717 008c 44000000 		.4byte	.LFE22-.LFB22
 6718 0090 00000000 		.4byte	.LFB27
 6719 0094 18000000 		.4byte	.LFE27-.LFB27
 6720 0098 00000000 		.4byte	.LFB20
 6721 009c 7C000000 		.4byte	.LFE20-.LFB20
 6722 00a0 00000000 		.4byte	.LFB18
 6723 00a4 44000000 		.4byte	.LFE18-.LFB18
 6724 00a8 00000000 		.4byte	.LFB28
 6725 00ac 12000000 		.4byte	.LFE28-.LFB28
 6726 00b0 00000000 		.4byte	.LFB5
 6727 00b4 C0000000 		.4byte	.LFE5-.LFB5
 6728 00b8 00000000 		.4byte	.LFB4
 6729 00bc 2C000000 		.4byte	.LFE4-.LFB4
 6730 00c0 00000000 		.4byte	.LFB3
 6731 00c4 30000000 		.4byte	.LFE3-.LFB3
 6732 00c8 00000000 		.4byte	.LFB2
 6733 00cc 1C000000 		.4byte	.LFE2-.LFB2
 6734 00d0 00000000 		.4byte	.LFB16
 6735 00d4 62000000 		.4byte	.LFE16-.LFB16
 6736 00d8 00000000 		.4byte	.LFB14
 6737 00dc 44000000 		.4byte	.LFE14-.LFB14
 6738 00e0 00000000 		.4byte	.LFB26
 6739 00e4 22000000 		.4byte	.LFE26-.LFB26
ARM GAS  C:\Users\zack.li\AppData\Local\Temp\ccH890rU.s 			page 156


 6740 00e8 00000000 		.4byte	.LFB25
 6741 00ec 44000000 		.4byte	.LFE25-.LFB25
 6742 00f0 00000000 		.4byte	0
 6743 00f4 00000000 		.4byte	0
 6744              		.section	.debug_ranges,"",%progbits
 6745              	.Ldebug_ranges0:
 6746 0000 00000000 		.4byte	.LFB10
 6747 0004 26000000 		.4byte	.LFE10
 6748 0008 00000000 		.4byte	.LFB9
 6749 000c 1E000000 		.4byte	.LFE9
 6750 0010 00000000 		.4byte	.LFB8
 6751 0014 2C000000 		.4byte	.LFE8
 6752 0018 00000000 		.4byte	.LFB7
 6753 001c 28000000 		.4byte	.LFE7
 6754 0020 00000000 		.4byte	.LFB6
 6755 0024 16000000 		.4byte	.LFE6
 6756 0028 00000000 		.4byte	.LFB15
 6757 002c 2E000000 		.4byte	.LFE15
 6758 0030 00000000 		.4byte	.LFB13
 6759 0034 44000000 		.4byte	.LFE13
 6760 0038 00000000 		.4byte	.LFB19
 6761 003c 3A000000 		.4byte	.LFE19
 6762 0040 00000000 		.4byte	.LFB17
 6763 0044 44000000 		.4byte	.LFE17
 6764 0048 00000000 		.4byte	.LFB23
 6765 004c 42000000 		.4byte	.LFE23
 6766 0050 00000000 		.4byte	.LFB12
 6767 0054 78000000 		.4byte	.LFE12
 6768 0058 00000000 		.4byte	.LFB11
 6769 005c 16000000 		.4byte	.LFE11
 6770 0060 00000000 		.4byte	.LFB1
 6771 0064 08000000 		.4byte	.LFE1
 6772 0068 00000000 		.4byte	.LFB21
 6773 006c 44000000 		.4byte	.LFE21
 6774 0070 00000000 		.4byte	.LFB24
 6775 0074 6E000000 		.4byte	.LFE24
 6776 0078 00000000 		.4byte	.LFB22
 6777 007c 44000000 		.4byte	.LFE22
 6778 0080 00000000 		.4byte	.LFB27
 6779 0084 18000000 		.4byte	.LFE27
 6780 0088 00000000 		.4byte	.LFB20
 6781 008c 7C000000 		.4byte	.LFE20
 6782 0090 00000000 		.4byte	.LFB18
 6783 0094 44000000 		.4byte	.LFE18
 6784 0098 00000000 		.4byte	.LFB28
 6785 009c 12000000 		.4byte	.LFE28
 6786 00a0 00000000 		.4byte	.LFB5
 6787 00a4 C0000000 		.4byte	.LFE5
 6788 00a8 00000000 		.4byte	.LFB4
 6789 00ac 2C000000 		.4byte	.LFE4
 6790 00b0 00000000 		.4byte	.LFB3
 6791 00b4 30000000 		.4byte	.LFE3
 6792 00b8 00000000 		.4byte	.LFB2
 6793 00bc 1C000000 		.4byte	.LFE2
 6794 00c0 00000000 		.4byte	.LFB16
 6795 00c4 62000000 		.4byte	.LFE16
 6796 00c8 00000000 		.4byte	.LFB14
ARM GAS  C:\Users\zack.li\AppData\Local\Temp\ccH890rU.s 			page 157


 6797 00cc 44000000 		.4byte	.LFE14
 6798 00d0 00000000 		.4byte	.LFB26
 6799 00d4 22000000 		.4byte	.LFE26
 6800 00d8 00000000 		.4byte	.LFB25
 6801 00dc 44000000 		.4byte	.LFE25
 6802 00e0 00000000 		.4byte	0
 6803 00e4 00000000 		.4byte	0
 6804              		.section	.debug_line,"",%progbits
 6805              	.Ldebug_line0:
 6806 0000 EE030000 		.section	.debug_str,"MS",%progbits,1
 6806      02008000 
 6806      00000201 
 6806      FB0E0D00 
 6806      01010101 
 6807              	.LASF25:
 6808 0000 43617053 		.ascii	"CapSense_WD_PROXIMITY_E\000"
 6808      656E7365 
 6808      5F57445F 
 6808      50524F58 
 6808      494D4954 
 6809              	.LASF109:
 6810 0018 62617365 		.ascii	"baselineCoeff\000"
 6810      6C696E65 
 6810      436F6566 
 6810      6600
 6811              	.LASF87:
 6812 0026 43617053 		.ascii	"CapSense_InitializeMedianInternal\000"
 6812      656E7365 
 6812      5F496E69 
 6812      7469616C 
 6812      697A654D 
 6813              	.LASF101:
 6814 0048 696E7075 		.ascii	"input\000"
 6814      7400
 6815              	.LASF8:
 6816 004e 756E7369 		.ascii	"unsigned int\000"
 6816      676E6564 
 6816      20696E74 
 6816      00
 6817              	.LASF80:
 6818 005b 73656E73 		.ascii	"sensorsNumber\000"
 6818      6F72734E 
 6818      756D6265 
 6818      7200
 6819              	.LASF73:
 6820 0069 43617053 		.ascii	"CapSense_FtInitializeBaselineChannel\000"
 6820      656E7365 
 6820      5F467449 
 6820      6E697469 
 6820      616C697A 
 6821              	.LASF122:
 6822 008e 443A5C71 		.ascii	"D:\\qcs40x\\Cypress\\project\\4025LQIS412_workspace"
 6822      63733430 
 6822      785C4379 
 6822      70726573 
 6822      735C7072 
 6823 00bd 5C343032 		.ascii	"\\4025LQIS412-EZIIC\\EZIIC_wadge.cydsn\000"
ARM GAS  C:\Users\zack.li\AppData\Local\Temp\ccH890rU.s 			page 158


 6823      354C5149 
 6823      53343132 
 6823      2D455A49 
 6823      49435C45 
 6824              	.LASF75:
 6825 00e2 43617053 		.ascii	"CapSense_InitializeSensorBaseline\000"
 6825      656E7365 
 6825      5F496E69 
 6825      7469616C 
 6825      697A6553 
 6826              	.LASF83:
 6827 0104 43617053 		.ascii	"CapSense_InitializeIIRInternal\000"
 6827      656E7365 
 6827      5F496E69 
 6827      7469616C 
 6827      697A6549 
 6828              	.LASF93:
 6829 0123 43617053 		.ascii	"CapSense_InitializeAverage\000"
 6829      656E7365 
 6829      5F496E69 
 6829      7469616C 
 6829      697A6541 
 6830              	.LASF24:
 6831 013e 43617053 		.ascii	"CapSense_WD_TOUCHPAD_E\000"
 6831      656E7365 
 6831      5F57445F 
 6831      544F5543 
 6831      48504144 
 6832              	.LASF86:
 6833 0155 43617053 		.ascii	"CapSense_InitializeIIR\000"
 6833      656E7365 
 6833      5F496E69 
 6833      7469616C 
 6833      697A6549 
 6834              	.LASF77:
 6835 016c 73656E73 		.ascii	"sensorId\000"
 6835      6F724964 
 6835      00
 6836              	.LASF105:
 6837 0175 43617053 		.ascii	"CapSense_FtUpdateBaseline\000"
 6837      656E7365 
 6837      5F467455 
 6837      70646174 
 6837      65426173 
 6838              	.LASF110:
 6839 018f 72657375 		.ascii	"result\000"
 6839      6C7400
 6840              	.LASF36:
 6841 0196 69646163 		.ascii	"idacGainIndex\000"
 6841      4761696E 
 6841      496E6465 
 6841      7800
 6842              	.LASF113:
 6843 01a4 43617053 		.ascii	"CapSense_UpdateWidgetBaseline\000"
 6843      656E7365 
 6843      5F557064 
 6843      61746557 
ARM GAS  C:\Users\zack.li\AppData\Local\Temp\ccH890rU.s 			page 159


 6843      69646765 
 6844              	.LASF90:
 6845 01c2 43617053 		.ascii	"CapSense_InitializeWidgetFilter\000"
 6845      656E7365 
 6845      5F496E69 
 6845      7469616C 
 6845      697A6557 
 6846              	.LASF12:
 6847 01e2 666C6F61 		.ascii	"float\000"
 6847      7400
 6848              	.LASF103:
 6849 01e8 73686966 		.ascii	"shift\000"
 6849      7400
 6850              	.LASF120:
 6851 01ee 474E5520 		.ascii	"GNU C11 5.4.1 20160609 (release) [ARM/embedded-5-br"
 6851      43313120 
 6851      352E342E 
 6851      31203230 
 6851      31363036 
 6852 0221 616E6368 		.ascii	"anch revision 237715] -mcpu=cortex-m0plus -mthumb -"
 6852      20726576 
 6852      6973696F 
 6852      6E203233 
 6852      37373135 
 6853 0254 67202D4F 		.ascii	"g -Og -ffunction-sections -ffat-lto-objects\000"
 6853      67202D66 
 6853      66756E63 
 6853      74696F6E 
 6853      2D736563 
 6854              	.LASF65:
 6855 0280 70726F78 		.ascii	"proxChannel\000"
 6855      4368616E 
 6855      6E656C00 
 6856              	.LASF116:
 6857 028c 43617053 		.ascii	"CapSense_RunIIRInternal\000"
 6857      656E7365 
 6857      5F52756E 
 6857      49495249 
 6857      6E746572 
 6858              	.LASF68:
 6859 02a4 70747250 		.ascii	"ptrProx\000"
 6859      726F7800 
 6860              	.LASF7:
 6861 02ac 6C6F6E67 		.ascii	"long long unsigned int\000"
 6861      206C6F6E 
 6861      6720756E 
 6861      7369676E 
 6861      65642069 
 6862              	.LASF23:
 6863 02c3 43617053 		.ascii	"CapSense_WD_MATRIX_BUTTON_E\000"
 6863      656E7365 
 6863      5F57445F 
 6863      4D415452 
 6863      49585F42 
 6864              	.LASF67:
 6865 02df 70747252 		.ascii	"ptrRegular\000"
 6865      6567756C 
ARM GAS  C:\Users\zack.li\AppData\Local\Temp\ccH890rU.s 			page 160


 6865      617200
 6866              	.LASF98:
 6867 02ea 43617053 		.ascii	"CapSense_RunMedian\000"
 6867      656E7365 
 6867      5F52756E 
 6867      4D656469 
 6867      616E00
 6868              	.LASF74:
 6869 02fd 43617053 		.ascii	"CapSense_FtInitializeBaseline\000"
 6869      656E7365 
 6869      5F467449 
 6869      6E697469 
 6869      616C697A 
 6870              	.LASF53:
 6871 031b 77646774 		.ascii	"wdgtType\000"
 6871      54797065 
 6871      00
 6872              	.LASF117:
 6873 0324 43617053 		.ascii	"CapSense_RunIIR\000"
 6873      656E7365 
 6873      5F52756E 
 6873      49495200 
 6874              	.LASF106:
 6875 0334 70747257 		.ascii	"ptrWidgetRam\000"
 6875      69646765 
 6875      7452616D 
 6875      00
 6876              	.LASF118:
 6877 0341 43617053 		.ascii	"CapSense_FtRunEnabledFiltersInternal\000"
 6877      656E7365 
 6877      5F467452 
 6877      756E456E 
 6877      61626C65 
 6878              	.LASF69:
 6879 0366 43617053 		.ascii	"CapSense_PTR_FILTER_VARIANT\000"
 6879      656E7365 
 6879      5F505452 
 6879      5F46494C 
 6879      5445525F 
 6880              	.LASF63:
 6881 0382 72656775 		.ascii	"regularChannel\000"
 6881      6C617243 
 6881      68616E6E 
 6881      656C00
 6882              	.LASF45:
 6883 0391 43617053 		.ascii	"CapSense_RAM_SNS_STRUCT\000"
 6883      656E7365 
 6883      5F52414D 
 6883      5F534E53 
 6883      5F535452 
 6884              	.LASF107:
 6885 03a9 7369676E 		.ascii	"sign\000"
 6885      00
 6886              	.LASF82:
 6887 03ae 43617053 		.ascii	"CapSense_InitializeAllBaselines\000"
 6887      656E7365 
 6887      5F496E69 
ARM GAS  C:\Users\zack.li\AppData\Local\Temp\ccH890rU.s 			page 161


 6887      7469616C 
 6887      697A6541 
 6888              	.LASF32:
 6889 03ce 68797374 		.ascii	"hysteresis\000"
 6889      65726573 
 6889      697300
 6890              	.LASF22:
 6891 03d9 43617053 		.ascii	"CapSense_WD_RADIAL_SLIDER_E\000"
 6891      656E7365 
 6891      5F57445F 
 6891      52414449 
 6891      414C5F53 
 6892              	.LASF55:
 6893 03f5 43617053 		.ascii	"CapSense_FLASH_WD_STRUCT\000"
 6893      656E7365 
 6893      5F464C41 
 6893      53485F57 
 6893      445F5354 
 6894              	.LASF34:
 6895 040e 6C6F7742 		.ascii	"lowBslnRst\000"
 6895      736C6E52 
 6895      737400
 6896              	.LASF52:
 6897 0419 746F7461 		.ascii	"totalNumSns\000"
 6897      6C4E756D 
 6897      536E7300 
 6898              	.LASF30:
 6899 0425 6E6F6973 		.ascii	"noiseTh\000"
 6899      65546800 
 6900              	.LASF14:
 6901 042d 63686172 		.ascii	"char\000"
 6901      00
 6902              	.LASF119:
 6903 0432 43617053 		.ascii	"CapSense_FtRunEnabledFilters\000"
 6903      656E7365 
 6903      5F467452 
 6903      756E456E 
 6903      61626C65 
 6904              	.LASF70:
 6905 044f 70747253 		.ascii	"ptrSensor\000"
 6905      656E736F 
 6905      7200
 6906              	.LASF10:
 6907 0459 75696E74 		.ascii	"uint16\000"
 6907      313600
 6908              	.LASF28:
 6909 0460 7265736F 		.ascii	"resolution\000"
 6909      6C757469 
 6909      6F6E00
 6910              	.LASF19:
 6911 046b 43617053 		.ascii	"CapSense_LOW_BSLN_RST_TYPE\000"
 6911      656E7365 
 6911      5F4C4F57 
 6911      5F42534C 
 6911      4E5F5253 
 6912              	.LASF44:
 6913 0486 69646163 		.ascii	"idacComp\000"
ARM GAS  C:\Users\zack.li\AppData\Local\Temp\ccH890rU.s 			page 162


 6913      436F6D70 
 6913      00
 6914              	.LASF104:
 6915 048f 66696C74 		.ascii	"filteredOutput\000"
 6915      65726564 
 6915      4F757470 
 6915      757400
 6916              	.LASF6:
 6917 049e 6C6F6E67 		.ascii	"long long int\000"
 6917      206C6F6E 
 6917      6720696E 
 6917      7400
 6918              	.LASF54:
 6919 04ac 6E756D43 		.ascii	"numCols\000"
 6919      6F6C7300 
 6920              	.LASF66:
 6921 04b4 43617053 		.ascii	"CapSense_PROX_FLTR_STRUCT\000"
 6921      656E7365 
 6921      5F50524F 
 6921      585F464C 
 6921      54525F53 
 6922              	.LASF33:
 6923 04ce 6F6E4465 		.ascii	"onDebounce\000"
 6923      626F756E 
 6923      636500
 6924              	.LASF57:
 6925 04d9 43617053 		.ascii	"CapSense_FLASH_STRUCT\000"
 6925      656E7365 
 6925      5F464C41 
 6925      53485F53 
 6925      54525543 
 6926              	.LASF112:
 6927 04ef 43617053 		.ascii	"CapSense_UpdateSensorBaseline\000"
 6927      656E7365 
 6927      5F557064 
 6927      61746553 
 6927      656E736F 
 6928              	.LASF91:
 6929 050d 43617053 		.ascii	"CapSense_InitializeAllFilters\000"
 6929      656E7365 
 6929      5F496E69 
 6929      7469616C 
 6929      697A6541 
 6930              	.LASF92:
 6931 052b 43617053 		.ascii	"CapSense_FtInitialize\000"
 6931      656E7365 
 6931      5F467449 
 6931      6E697469 
 6931      616C697A 
 6932              	.LASF31:
 6933 0541 6E4E6F69 		.ascii	"nNoiseTh\000"
 6933      73655468 
 6933      00
 6934              	.LASF111:
 6935 054a 68697374 		.ascii	"history\000"
 6935      6F727900 
 6936              	.LASF39:
ARM GAS  C:\Users\zack.li\AppData\Local\Temp\ccH890rU.s 			page 163


 6937 0552 43617053 		.ascii	"CapSense_RAM_WD_BASE_STRUCT\000"
 6937      656E7365 
 6937      5F52414D 
 6937      5F57445F 
 6937      42415345 
 6938              	.LASF27:
 6939 056e 43617053 		.ascii	"CapSense_WD_TYPE_ENUM\000"
 6939      656E7365 
 6939      5F57445F 
 6939      54595045 
 6939      5F454E55 
 6940              	.LASF78:
 6941 0584 66726571 		.ascii	"freqChannel\000"
 6941      4368616E 
 6941      6E656C00 
 6942              	.LASF11:
 6943 0590 75696E74 		.ascii	"uint32\000"
 6943      333200
 6944              	.LASF114:
 6945 0597 62736C6E 		.ascii	"bslnStatus\000"
 6945      53746174 
 6945      757300
 6946              	.LASF49:
 6947 05a2 70747232 		.ascii	"ptr2FltrHistory\000"
 6947      466C7472 
 6947      48697374 
 6947      6F727900 
 6948              	.LASF89:
 6949 05b2 43617053 		.ascii	"CapSense_InitializeAverageInternal\000"
 6949      656E7365 
 6949      5F496E69 
 6949      7469616C 
 6949      697A6541 
 6950              	.LASF21:
 6951 05d5 43617053 		.ascii	"CapSense_WD_LINEAR_SLIDER_E\000"
 6951      656E7365 
 6951      5F57445F 
 6951      4C494E45 
 6951      41525F53 
 6952              	.LASF59:
 6953 05f1 6D656448 		.ascii	"medHistory\000"
 6953      6973746F 
 6953      727900
 6954              	.LASF99:
 6955 05fc 43617053 		.ascii	"CapSense_FtMedian\000"
 6955      656E7365 
 6955      5F46744D 
 6955      65646961 
 6955      6E00
 6956              	.LASF16:
 6957 060e 6C6F6E67 		.ascii	"long double\000"
 6957      20646F75 
 6957      626C6500 
 6958              	.LASF48:
 6959 061a 70747232 		.ascii	"ptr2SnsRam\000"
 6959      536E7352 
 6959      616D00
ARM GAS  C:\Users\zack.li\AppData\Local\Temp\ccH890rU.s 			page 164


 6960              	.LASF72:
 6961 0625 6368616E 		.ascii	"channel\000"
 6961      6E656C00 
 6962              	.LASF60:
 6963 062d 61766748 		.ascii	"avgHistory\000"
 6963      6973746F 
 6963      727900
 6964              	.LASF26:
 6965 0638 43617053 		.ascii	"CapSense_WD_ENCODERDIAL_E\000"
 6965      656E7365 
 6965      5F57445F 
 6965      454E434F 
 6965      44455244 
 6966              	.LASF38:
 6967 0652 736E7343 		.ascii	"snsClkSource\000"
 6967      6C6B536F 
 6967      75726365 
 6967      00
 6968              	.LASF94:
 6969 065f 43617053 		.ascii	"CapSense_RunAverageInternal\000"
 6969      656E7365 
 6969      5F52756E 
 6969      41766572 
 6969      61676549 
 6970              	.LASF102:
 6971 067b 70726576 		.ascii	"prevOutput\000"
 6971      4F757470 
 6971      757400
 6972              	.LASF2:
 6973 0686 73686F72 		.ascii	"short int\000"
 6973      7420696E 
 6973      7400
 6974              	.LASF64:
 6975 0690 43617053 		.ascii	"CapSense_REGULAR_FLTR_STRUCT\000"
 6975      656E7365 
 6975      5F524547 
 6975      554C4152 
 6975      5F464C54 
 6976              	.LASF4:
 6977 06ad 6C6F6E67 		.ascii	"long int\000"
 6977      20696E74 
 6977      00
 6978              	.LASF96:
 6979 06b6 43617053 		.ascii	"CapSense_RunAverage\000"
 6979      656E7365 
 6979      5F52756E 
 6979      41766572 
 6979      61676500 
 6980              	.LASF42:
 6981 06ca 64696666 		.ascii	"diff\000"
 6981      00
 6982              	.LASF115:
 6983 06cf 43617053 		.ascii	"CapSense_UpdateAllBaselines\000"
 6983      656E7365 
 6983      5F557064 
 6983      61746541 
 6983      6C6C4261 
ARM GAS  C:\Users\zack.li\AppData\Local\Temp\ccH890rU.s 			page 165


 6984              	.LASF95:
 6985 06eb 74656D70 		.ascii	"temp\000"
 6985      00
 6986              	.LASF81:
 6987 06f0 70747257 		.ascii	"ptrWidget\000"
 6987      69646765 
 6987      7400
 6988              	.LASF20:
 6989 06fa 43617053 		.ascii	"CapSense_WD_BUTTON_E\000"
 6989      656E7365 
 6989      5F57445F 
 6989      42555454 
 6989      4F4E5F45 
 6990              	.LASF61:
 6991 070f 43617053 		.ascii	"CapSense_REGULAR_FLTR_CHANNEL_STRUCT\000"
 6991      656E7365 
 6991      5F524547 
 6991      554C4152 
 6991      5F464C54 
 6992              	.LASF85:
 6993 0734 70747253 		.ascii	"ptrSensorObj\000"
 6993      656E736F 
 6993      724F626A 
 6993      00
 6994              	.LASF62:
 6995 0741 43617053 		.ascii	"CapSense_PROX_FLTR_CHANNEL_STRUCT\000"
 6995      656E7365 
 6995      5F50524F 
 6995      585F464C 
 6995      54525F43 
 6996              	.LASF123:
 6997 0763 43617053 		.ascii	"CapSense_dsFlash\000"
 6997      656E7365 
 6997      5F647346 
 6997      6C617368 
 6997      00
 6998              	.LASF17:
 6999 0774 73697A65 		.ascii	"sizetype\000"
 6999      74797065 
 6999      00
 7000              	.LASF5:
 7001 077d 6C6F6E67 		.ascii	"long unsigned int\000"
 7001      20756E73 
 7001      69676E65 
 7001      6420696E 
 7001      7400
 7002              	.LASF100:
 7003 078f 43617053 		.ascii	"CapSense_FtIIR1stOrder\000"
 7003      656E7365 
 7003      5F467449 
 7003      49523173 
 7003      744F7264 
 7004              	.LASF35:
 7005 07a6 69646163 		.ascii	"idacMod\000"
 7005      4D6F6400 
 7006              	.LASF50:
 7007 07ae 70747232 		.ascii	"ptr2DebounceArr\000"
ARM GAS  C:\Users\zack.li\AppData\Local\Temp\ccH890rU.s 			page 166


 7007      4465626F 
 7007      756E6365 
 7007      41727200 
 7008              	.LASF29:
 7009 07be 66696E67 		.ascii	"fingerTh\000"
 7009      65725468 
 7009      00
 7010              	.LASF41:
 7011 07c7 62736C6E 		.ascii	"bslnExt\000"
 7011      45787400 
 7012              	.LASF15:
 7013 07cf 63797374 		.ascii	"cystatus\000"
 7013      61747573 
 7013      00
 7014              	.LASF1:
 7015 07d8 756E7369 		.ascii	"unsigned char\000"
 7015      676E6564 
 7015      20636861 
 7015      7200
 7016              	.LASF51:
 7017 07e6 73746174 		.ascii	"staticConfig\000"
 7017      6963436F 
 7017      6E666967 
 7017      00
 7018              	.LASF47:
 7019 07f3 70747232 		.ascii	"ptr2WdgtRam\000"
 7019      57646774 
 7019      52616D00 
 7020              	.LASF18:
 7021 07ff 43617053 		.ascii	"CapSense_THRESHOLD_TYPE\000"
 7021      656E7365 
 7021      5F544852 
 7021      4553484F 
 7021      4C445F54 
 7022              	.LASF58:
 7023 0817 69697248 		.ascii	"iirHistory\000"
 7023      6973746F 
 7023      727900
 7024              	.LASF108:
 7025 0822 64696666 		.ascii	"difference\000"
 7025      6572656E 
 7025      636500
 7026              	.LASF37:
 7027 082d 736E7343 		.ascii	"snsClk\000"
 7027      6C6B00
 7028              	.LASF0:
 7029 0834 7369676E 		.ascii	"signed char\000"
 7029      65642063 
 7029      68617200 
 7030              	.LASF40:
 7031 0840 62736C6E 		.ascii	"bsln\000"
 7031      00
 7032              	.LASF79:
 7033 0845 43617053 		.ascii	"CapSense_InitializeWidgetBaseline\000"
 7033      656E7365 
 7033      5F496E69 
 7033      7469616C 
ARM GAS  C:\Users\zack.li\AppData\Local\Temp\ccH890rU.s 			page 167


 7033      697A6557 
 7034              	.LASF3:
 7035 0867 73686F72 		.ascii	"short unsigned int\000"
 7035      7420756E 
 7035      7369676E 
 7035      65642069 
 7035      6E7400
 7036              	.LASF46:
 7037 087a 70747232 		.ascii	"ptr2SnsFlash\000"
 7037      536E7346 
 7037      6C617368 
 7037      00
 7038              	.LASF9:
 7039 0887 75696E74 		.ascii	"uint8\000"
 7039      3800
 7040              	.LASF13:
 7041 088d 646F7562 		.ascii	"double\000"
 7041      6C6500
 7042              	.LASF43:
 7043 0894 6E656742 		.ascii	"negBslnRstCnt\000"
 7043      736C6E52 
 7043      7374436E 
 7043      7400
 7044              	.LASF84:
 7045 08a2 70747246 		.ascii	"ptrFilterHistObj\000"
 7045      696C7465 
 7045      72486973 
 7045      744F626A 
 7045      00
 7046              	.LASF71:
 7047 08b3 77645479 		.ascii	"wdType\000"
 7047      706500
 7048              	.LASF76:
 7049 08ba 77696467 		.ascii	"widgetId\000"
 7049      65744964 
 7049      00
 7050              	.LASF121:
 7051 08c3 47656E65 		.ascii	"Generated_Source\\PSoC4\\CapSense_Filter.c\000"
 7051      72617465 
 7051      645F536F 
 7051      75726365 
 7051      5C50536F 
 7052              	.LASF88:
 7053 08ec 43617053 		.ascii	"CapSense_InitializeMedian\000"
 7053      656E7365 
 7053      5F496E69 
 7053      7469616C 
 7053      697A654D 
 7054              	.LASF97:
 7055 0906 43617053 		.ascii	"CapSense_RunMedianInternal\000"
 7055      656E7365 
 7055      5F52756E 
 7055      4D656469 
 7055      616E496E 
 7056              	.LASF56:
 7057 0921 77646774 		.ascii	"wdgtArray\000"
 7057      41727261 
ARM GAS  C:\Users\zack.li\AppData\Local\Temp\ccH890rU.s 			page 168


 7057      7900
 7058              		.ident	"GCC: (GNU Tools for ARM Embedded Processors) 5.4.1 20160609 (release) [ARM/embedded-5-bran
