ARM GAS  C:\Users\zack.li\AppData\Local\Temp\ccg9410U.s 			page 1


   1              		.syntax unified
   2              		.cpu cortex-m0plus
   3              		.fpu softvfp
   4              		.eabi_attribute 20, 1
   5              		.eabi_attribute 21, 1
   6              		.eabi_attribute 23, 3
   7              		.eabi_attribute 24, 1
   8              		.eabi_attribute 25, 1
   9              		.eabi_attribute 26, 1
  10              		.eabi_attribute 30, 1
  11              		.eabi_attribute 34, 0
  12              		.eabi_attribute 18, 4
  13              		.thumb
  14              		.syntax unified
  15              		.file	"main.c"
  16              		.text
  17              	.Ltext0:
  18              		.cfi_sections	.debug_frame
  19              		.section	.text.Init_I2C_Communication,"ax",%progbits
  20              		.align	2
  21              		.code	16
  22              		.thumb_func
  23              		.type	Init_I2C_Communication, %function
  24              	Init_I2C_Communication:
  25              	.LFB34:
  26              		.file 1 "main.c"
   1:main.c        **** /* ========================================
   2:main.c        ****  *
   3:main.c        ****  * Copyright YOUR COMPANY, THE YEAR
   4:main.c        ****  * All Rights Reserved
   5:main.c        ****  * UNPUBLISHED, LICENSED SOFTWARE.
   6:main.c        ****  *
   7:main.c        ****  * CONFIDENTIAL AND PROPRIETARY INFORMATION
   8:main.c        ****  * WHICH IS THE PROPERTY OF your company.
   9:main.c        ****  *
  10:main.c        ****  * ========================================
  11:main.c        **** */
  12:main.c        **** #include "project.h"
  13:main.c        **** #include "string.h"
  14:main.c        **** #include "stdio.h"
  15:main.c        **** 
  16:main.c        **** /* button event */
  17:main.c        **** #define NOT_TOUCH		 0
  18:main.c        **** #define PROX      	   	 32
  19:main.c        **** #define VOL_UP        	 33
  20:main.c        **** #define VOL_DOWN         34
  21:main.c        **** #define LIBERTY_PULL     40
  22:main.c        **** #define FORMATION     	 48
  23:main.c        **** #define PLAY_PAUSE    	 36
  24:main.c        **** 
  25:main.c        **** 
  26:main.c        **** #define SCAN_TIME_MS  1
  27:main.c        **** 
  28:main.c        **** #define RUN_UART_TUNER  1
  29:main.c        **** 
  30:main.c        **** #if RUN_UART_TUNER
  31:main.c        ****     /* Packet header and tail information */
ARM GAS  C:\Users\zack.li\AppData\Local\Temp\ccg9410U.s 			page 2


  32:main.c        ****     static const uint8 header[]  = {0x0Du, 0x0Au};
  33:main.c        ****     static const uint8 tail[]    = {0x00u, 0xFFu, 0xFFu};
  34:main.c        **** #endif
  35:main.c        **** 
  36:main.c        **** // I2C COMMAND
  37:main.c        **** #define REG15_UPDATE_MCU_CMD  0x36
  38:main.c        **** 
  39:main.c        **** typedef union
  40:main.c        **** {
  41:main.c        ****     struct{
  42:main.c        ****         uint8_t reserve_reg[15]; // 0~14
  43:main.c        ****         uint8_t updat_posc;      // register 15
  44:main.c        ****     }reg;
  45:main.c        ****     uint8_t reg_array[16];
  46:main.c        **** } RW_I2C_REG;
  47:main.c        **** 
  48:main.c        **** // I2C registers
  49:main.c        **** // R : Read only, R/W : Read and Write
  50:main.c        **** typedef struct 
  51:main.c        **** {                               
  52:main.c        ****                              // reg number    | access right |      comment
  53:main.c        ****     RW_I2C_REG  rw;          //    0 ~ 15     |    R/W       |   reserved R/W
  54:main.c        ****     uint8  button_stat;      //    16         |    R         |   status of button 0 ~ 7 
  55:main.c        ****     
  56:main.c        **** }__attribute__ ((packed)) I2C_REG;
  57:main.c        **** 
  58:main.c        **** /* EZI2C buffer */
  59:main.c        **** I2C_REG i2c;
  60:main.c        **** #define EZI2C_RW_SIZE     (sizeof(i2c.rw))
  61:main.c        **** #define EZI2C_SIZE        (sizeof(i2c))
  62:main.c        **** 
  63:main.c        **** uint8 CapSense_status = 0;
  64:main.c        **** uint8 send_status = 0;
  65:main.c        **** 
  66:main.c        **** #define UART_DEBUG 0
  67:main.c        **** 
  68:main.c        **** #if UART_DEBUG
  69:main.c        **** char uartString[1024u] = {' '};
  70:main.c        **** #endif
  71:main.c        **** 
  72:main.c        **** static void Init_I2C_Communication()
  73:main.c        **** {
  27              		.loc 1 73 0
  28              		.cfi_startproc
  29              		@ args = 0, pretend = 0, frame = 0
  30              		@ frame_needed = 0, uses_anonymous_args = 0
  31 0000 10B5     		push	{r4, lr}
  32              		.cfi_def_cfa_offset 8
  33              		.cfi_offset 4, -8
  34              		.cfi_offset 14, -4
  74:main.c        ****     // Zero ezi2cBuffer buffer
  75:main.c        ****     memset((void*)&i2c,0x00,EZI2C_SIZE);
  35              		.loc 1 75 0
  36 0002 074C     		ldr	r4, .L2
  37 0004 1122     		movs	r2, #17
  38 0006 0021     		movs	r1, #0
  39 0008 2000     		movs	r0, r4
ARM GAS  C:\Users\zack.li\AppData\Local\Temp\ccg9410U.s 			page 3


  40 000a FFF7FEFF 		bl	memset
  41              	.LVL0:
  76:main.c        ****     EZI2C_Start(); // Start I2C (Address : 0x08 , Data Rate : 100k ) 
  42              		.loc 1 76 0
  43 000e FFF7FEFF 		bl	EZI2C_Start
  44              	.LVL1:
  77:main.c        ****     /* EZI2C buffer parameters: 
  78:main.c        ****     *  EZI2C_SIZE - is thesize of the memory exposed to the I2C interface.
  79:main.c        ****     *  EZI2C_RW_SIZE - sets the boundary between the read/write and read only areas.
  80:main.c        ****     *                  The read/write area is first, followed by the read only area.
  81:main.c        ****     *  (void *)ezi2cBuffer - is the pointer to the memory exposed to the I2C interface. */
  82:main.c        ****     EZI2C_EzI2CSetBuffer1(EZI2C_SIZE, EZI2C_RW_SIZE , (void *)&i2c);
  45              		.loc 1 82 0
  46 0012 2200     		movs	r2, r4
  47 0014 1021     		movs	r1, #16
  48 0016 1120     		movs	r0, #17
  49 0018 FFF7FEFF 		bl	EZI2C_EzI2CSetBuffer1
  50              	.LVL2:
  83:main.c        **** }
  51              		.loc 1 83 0
  52              		@ sp needed
  53 001c 10BD     		pop	{r4, pc}
  54              	.L3:
  55 001e C046     		.align	2
  56              	.L2:
  57 0020 00000000 		.word	i2c
  58              		.cfi_endproc
  59              	.LFE34:
  60              		.size	Init_I2C_Communication, .-Init_I2C_Communication
  61              		.section	.text.ProcessCapsenseEvent,"ax",%progbits
  62              		.align	2
  63              		.global	ProcessCapsenseEvent
  64              		.code	16
  65              		.thumb_func
  66              		.type	ProcessCapsenseEvent, %function
  67              	ProcessCapsenseEvent:
  68              	.LFB35:
  84:main.c        **** 
  85:main.c        **** void ProcessCapsenseEvent()
  86:main.c        **** {
  69              		.loc 1 86 0
  70              		.cfi_startproc
  71              		@ args = 0, pretend = 0, frame = 0
  72              		@ frame_needed = 0, uses_anonymous_args = 0
  73 0000 10B5     		push	{r4, lr}
  74              		.cfi_def_cfa_offset 8
  75              		.cfi_offset 4, -8
  76              		.cfi_offset 14, -4
  87:main.c        ****     // update button status
  88:main.c        ****     CapSense_status = (uint8_t)  CapSense_IsAnyWidgetActive();
  77              		.loc 1 88 0
  78 0002 FFF7FEFF 		bl	CapSense_IsAnyWidgetActive
  79              	.LVL3:
  80 0006 C0B2     		uxtb	r0, r0
  81 0008 1B4B     		ldr	r3, .L17
  82 000a 1870     		strb	r0, [r3]
  89:main.c        ****     switch(CapSense_status){
ARM GAS  C:\Users\zack.li\AppData\Local\Temp\ccg9410U.s 			page 4


  83              		.loc 1 89 0
  84 000c 3028     		cmp	r0, #48
  85 000e 1FD8     		bhi	.L5
  86 0010 8000     		lsls	r0, r0, #2
  87 0012 1A4B     		ldr	r3, .L17+4
  88 0014 1B58     		ldr	r3, [r3, r0]
  89 0016 9F46     		mov	pc, r3
  90              		.section	.rodata
  91              		.align	2
  92              	.L7:
  93 0000 18000000 		.word	.L6
  94 0004 50000000 		.word	.L5
  95 0008 50000000 		.word	.L5
  96 000c 50000000 		.word	.L5
  97 0010 50000000 		.word	.L5
  98 0014 50000000 		.word	.L5
  99 0018 50000000 		.word	.L5
 100 001c 50000000 		.word	.L5
 101 0020 50000000 		.word	.L5
 102 0024 50000000 		.word	.L5
 103 0028 50000000 		.word	.L5
 104 002c 50000000 		.word	.L5
 105 0030 50000000 		.word	.L5
 106 0034 50000000 		.word	.L5
 107 0038 50000000 		.word	.L5
 108 003c 50000000 		.word	.L5
 109 0040 50000000 		.word	.L5
 110 0044 50000000 		.word	.L5
 111 0048 50000000 		.word	.L5
 112 004c 50000000 		.word	.L5
 113 0050 50000000 		.word	.L5
 114 0054 50000000 		.word	.L5
 115 0058 50000000 		.word	.L5
 116 005c 50000000 		.word	.L5
 117 0060 50000000 		.word	.L5
 118 0064 50000000 		.word	.L5
 119 0068 50000000 		.word	.L5
 120 006c 50000000 		.word	.L5
 121 0070 50000000 		.word	.L5
 122 0074 50000000 		.word	.L5
 123 0078 50000000 		.word	.L5
 124 007c 50000000 		.word	.L5
 125 0080 20000000 		.word	.L8
 126 0084 28000000 		.word	.L9
 127 0088 30000000 		.word	.L10
 128 008c 50000000 		.word	.L5
 129 0090 38000000 		.word	.L11
 130 0094 50000000 		.word	.L5
 131 0098 50000000 		.word	.L5
 132 009c 50000000 		.word	.L5
 133 00a0 40000000 		.word	.L12
 134 00a4 50000000 		.word	.L5
 135 00a8 50000000 		.word	.L5
 136 00ac 50000000 		.word	.L5
 137 00b0 50000000 		.word	.L5
 138 00b4 50000000 		.word	.L5
 139 00b8 50000000 		.word	.L5
ARM GAS  C:\Users\zack.li\AppData\Local\Temp\ccg9410U.s 			page 5


 140 00bc 50000000 		.word	.L5
 141 00c0 48000000 		.word	.L13
 142              		.section	.text.ProcessCapsenseEvent
 143              	.L6:
  90:main.c        ****         case NOT_TOUCH:
  91:main.c        ****             send_status = NOT_TOUCH;
 144              		.loc 1 91 0
 145 0018 0022     		movs	r2, #0
 146 001a 174B     		ldr	r3, .L17
 147 001c 5A70     		strb	r2, [r3, #1]
  92:main.c        ****             break;
 148              		.loc 1 92 0
 149 001e 1AE0     		b	.L14
 150              	.L8:
  93:main.c        ****         case PROX:   
  94:main.c        ****             send_status = PROX;
 151              		.loc 1 94 0
 152 0020 2022     		movs	r2, #32
 153 0022 154B     		ldr	r3, .L17
 154 0024 5A70     		strb	r2, [r3, #1]
  95:main.c        ****             break;
 155              		.loc 1 95 0
 156 0026 16E0     		b	.L14
 157              	.L9:
  96:main.c        ****         case VOL_UP:
  97:main.c        ****             send_status = VOL_UP;
 158              		.loc 1 97 0
 159 0028 2122     		movs	r2, #33
 160 002a 134B     		ldr	r3, .L17
 161 002c 5A70     		strb	r2, [r3, #1]
  98:main.c        ****             break;
 162              		.loc 1 98 0
 163 002e 12E0     		b	.L14
 164              	.L10:
  99:main.c        ****         case VOL_DOWN:
 100:main.c        ****             send_status = VOL_DOWN;
 165              		.loc 1 100 0
 166 0030 2222     		movs	r2, #34
 167 0032 114B     		ldr	r3, .L17
 168 0034 5A70     		strb	r2, [r3, #1]
 101:main.c        ****             break;
 169              		.loc 1 101 0
 170 0036 0EE0     		b	.L14
 171              	.L11:
 102:main.c        ****         case PLAY_PAUSE:
 103:main.c        ****             send_status = PLAY_PAUSE;
 172              		.loc 1 103 0
 173 0038 2422     		movs	r2, #36
 174 003a 0F4B     		ldr	r3, .L17
 175 003c 5A70     		strb	r2, [r3, #1]
 104:main.c        ****             break;
 176              		.loc 1 104 0
 177 003e 0AE0     		b	.L14
 178              	.L12:
 105:main.c        ****         case LIBERTY_PULL:
 106:main.c        ****             send_status = LIBERTY_PULL;
 179              		.loc 1 106 0
ARM GAS  C:\Users\zack.li\AppData\Local\Temp\ccg9410U.s 			page 6


 180 0040 2822     		movs	r2, #40
 181 0042 0D4B     		ldr	r3, .L17
 182 0044 5A70     		strb	r2, [r3, #1]
 107:main.c        ****             break;
 183              		.loc 1 107 0
 184 0046 06E0     		b	.L14
 185              	.L13:
 108:main.c        ****         case FORMATION:
 109:main.c        ****             send_status = FORMATION;
 186              		.loc 1 109 0
 187 0048 3022     		movs	r2, #48
 188 004a 0B4B     		ldr	r3, .L17
 189 004c 5A70     		strb	r2, [r3, #1]
 110:main.c        ****             break;
 190              		.loc 1 110 0
 191 004e 02E0     		b	.L14
 192              	.L5:
 111:main.c        ****         default:
 112:main.c        ****             send_status = PROX;
 193              		.loc 1 112 0
 194 0050 2022     		movs	r2, #32
 195 0052 094B     		ldr	r3, .L17
 196 0054 5A70     		strb	r2, [r3, #1]
 197              	.L14:
 113:main.c        ****             break;
 114:main.c        ****     }
 115:main.c        ****     i2c.button_stat = send_status;
 198              		.loc 1 115 0
 199 0056 084B     		ldr	r3, .L17
 200 0058 5A78     		ldrb	r2, [r3, #1]
 201 005a 094B     		ldr	r3, .L17+8
 202 005c 1A74     		strb	r2, [r3, #16]
 116:main.c        ****     // notify host mcu
 117:main.c        ****     (CapSense_dsRam.wdgtStatus[0] != 0) ? CAP_INT_Write(0) :  CAP_INT_Write(1);
 203              		.loc 1 117 0
 204 005e 094B     		ldr	r3, .L17+12
 205 0060 5B69     		ldr	r3, [r3, #20]
 206 0062 002B     		cmp	r3, #0
 207 0064 03D0     		beq	.L15
 208              		.loc 1 117 0 is_stmt 0 discriminator 1
 209 0066 0020     		movs	r0, #0
 210 0068 FFF7FEFF 		bl	CAP_INT_Write
 211              	.LVL4:
 212 006c 02E0     		b	.L4
 213              	.L15:
 214              		.loc 1 117 0 discriminator 2
 215 006e 0120     		movs	r0, #1
 216 0070 FFF7FEFF 		bl	CAP_INT_Write
 217              	.LVL5:
 218              	.L4:
 118:main.c        **** #if UART_DEBUG   
 119:main.c        ****     sprintf(uartString,"\r\n . CapSense_status= %d  send_status= %d i2c.button_stat= %d ",CapSense_
 120:main.c        ****     UART_UartPutString(uartString);
 121:main.c        **** #endif
 122:main.c        **** }
 219              		.loc 1 122 0 is_stmt 1
 220              		@ sp needed
ARM GAS  C:\Users\zack.li\AppData\Local\Temp\ccg9410U.s 			page 7


 221 0074 10BD     		pop	{r4, pc}
 222              	.L18:
 223 0076 C046     		.align	2
 224              	.L17:
 225 0078 00000000 		.word	.LANCHOR0
 226 007c 00000000 		.word	.L7
 227 0080 00000000 		.word	i2c
 228 0084 00000000 		.word	CapSense_dsRam
 229              		.cfi_endproc
 230              	.LFE35:
 231              		.size	ProcessCapsenseEvent, .-ProcessCapsenseEvent
 232              		.section	.text.ProcessI2CCommand,"ax",%progbits
 233              		.align	2
 234              		.global	ProcessI2CCommand
 235              		.code	16
 236              		.thumb_func
 237              		.type	ProcessI2CCommand, %function
 238              	ProcessI2CCommand:
 239              	.LFB36:
 123:main.c        **** 
 124:main.c        **** void ProcessI2CCommand()
 125:main.c        **** {
 240              		.loc 1 125 0
 241              		.cfi_startproc
 242              		@ args = 0, pretend = 0, frame = 0
 243              		@ frame_needed = 0, uses_anonymous_args = 0
 244              		@ link register save eliminated.
 126:main.c        ****     if (REG15_UPDATE_MCU_CMD == i2c.rw.reg.updat_posc)
 127:main.c        ****     {
 128:main.c        ****         /*
 129:main.c        ****         Schedules the Bootloader/Launcher to be launched and then performs a software reset to 
 130:main.c        ****         launch it.
 131:main.c        ****         Returns:
 132:main.c        ****         This method will never return. It will load a new application and reset the device.
 133:main.c        ****         */
 134:main.c        ****         // Bootloadable_Load();
 135:main.c        ****     }
 136:main.c        **** }
 245              		.loc 1 136 0
 246              		@ sp needed
 247 0000 7047     		bx	lr
 248              		.cfi_endproc
 249              	.LFE36:
 250              		.size	ProcessI2CCommand, .-ProcessI2CCommand
 251 0002 C046     		.section	.text.main,"ax",%progbits
 252              		.align	2
 253              		.global	main
 254              		.code	16
 255              		.thumb_func
 256              		.type	main, %function
 257              	main:
 258              	.LFB37:
 137:main.c        **** 
 138:main.c        **** int main(void)
 139:main.c        **** {
 259              		.loc 1 139 0
 260              		.cfi_startproc
ARM GAS  C:\Users\zack.li\AppData\Local\Temp\ccg9410U.s 			page 8


 261              		@ Volatile: function does not return.
 262              		@ args = 0, pretend = 0, frame = 0
 263              		@ frame_needed = 0, uses_anonymous_args = 0
 264 0000 10B5     		push	{r4, lr}
 265              		.cfi_def_cfa_offset 8
 266              		.cfi_offset 4, -8
 267              		.cfi_offset 14, -4
 140:main.c        ****     CyGlobalIntEnable; /* Enable global interrupts. */
 268              		.loc 1 140 0
 269              		.syntax divided
 270              	@ 140 "main.c" 1
 271 0002 62B6     		CPSIE   i
 272              	@ 0 "" 2
 141:main.c        ****  
 142:main.c        ****     UART_Start();
 273              		.loc 1 142 0
 274              		.thumb
 275              		.syntax unified
 276 0004 FFF7FEFF 		bl	UART_Start
 277              	.LVL6:
 143:main.c        ****     Init_I2C_Communication();
 278              		.loc 1 143 0
 279 0008 FFF7FEFF 		bl	Init_I2C_Communication
 280              	.LVL7:
 144:main.c        ****     
 145:main.c        ****     /* Start CapSense Component */
 146:main.c        ****     CapSense_Start();
 281              		.loc 1 146 0
 282 000c FFF7FEFF 		bl	CapSense_Start
 283              	.LVL8:
 147:main.c        **** #if RUN_UART_TUNER    
 148:main.c        ****     CapSense_TuInitialize();
 284              		.loc 1 148 0
 285 0010 FFF7FEFF 		bl	CapSense_TuInitialize
 286              	.LVL9:
 149:main.c        **** #endif    
 150:main.c        ****     CapSense_InitializeAllBaselines();
 287              		.loc 1 150 0
 288 0014 FFF7FEFF 		bl	CapSense_InitializeAllBaselines
 289              	.LVL10:
 151:main.c        ****     /* Start initial scan */
 152:main.c        ****     CapSense_ScanAllWidgets();
 290              		.loc 1 152 0
 291 0018 FFF7FEFF 		bl	CapSense_ScanAllWidgets
 292              	.LVL11:
 293              	.L22:
 153:main.c        ****     for(;;)
 154:main.c        ****     {
 155:main.c        ****        
 156:main.c        ****         /* Do this only when a scan is done */
 157:main.c        ****         if(CapSense_NOT_BUSY == CapSense_IsBusy())
 294              		.loc 1 157 0
 295 001c FFF7FEFF 		bl	CapSense_IsBusy
 296              	.LVL12:
 297 0020 0028     		cmp	r0, #0
 298 0022 14D1     		bne	.L21
 158:main.c        ****         {
ARM GAS  C:\Users\zack.li\AppData\Local\Temp\ccg9410U.s 			page 9


 159:main.c        ****             /* Process all widgets */
 160:main.c        ****             CapSense_ProcessAllWidgets();
 299              		.loc 1 160 0
 300 0024 FFF7FEFF 		bl	CapSense_ProcessAllWidgets
 301              	.LVL13:
 161:main.c        ****             
 162:main.c        **** #if  RUN_UART_TUNER           
 163:main.c        ****             /* To sync with Tuner application */
 164:main.c        ****             CapSense_RunTuner();
 302              		.loc 1 164 0
 303 0028 FFF7FEFF 		bl	CapSense_RunTuner
 304              	.LVL14:
 165:main.c        ****             
 166:main.c        ****              /* Send packet header */
 167:main.c        ****             UART_SpiUartPutArray((uint8 *)(&header), sizeof(header));
 305              		.loc 1 167 0
 306 002c 0A4C     		ldr	r4, .L23
 307 002e 0221     		movs	r1, #2
 308 0030 2000     		movs	r0, r4
 309 0032 FFF7FEFF 		bl	UART_SpiUartPutArray
 310              	.LVL15:
 168:main.c        ****             /* Send packet with CapSense data */
 169:main.c        ****             UART_SpiUartPutArray((uint8 *)(&CapSense_dsRam), sizeof(CapSense_dsRam));
 311              		.loc 1 169 0
 312 0036 C821     		movs	r1, #200
 313 0038 0848     		ldr	r0, .L23+4
 314 003a FFF7FEFF 		bl	UART_SpiUartPutArray
 315              	.LVL16:
 170:main.c        ****             /* Send packet tail */
 171:main.c        ****             UART_SpiUartPutArray((uint8 *)(&tail), sizeof(tail));
 316              		.loc 1 171 0
 317 003e 201D     		adds	r0, r4, #4
 318 0040 0321     		movs	r1, #3
 319 0042 FFF7FEFF 		bl	UART_SpiUartPutArray
 320              	.LVL17:
 172:main.c        **** #endif            
 173:main.c        ****             /* process capsnese event and host interrupt */
 174:main.c        ****             ProcessCapsenseEvent();
 321              		.loc 1 174 0
 322 0046 FFF7FEFF 		bl	ProcessCapsenseEvent
 323              	.LVL18:
 175:main.c        ****             /* Start next scan */
 176:main.c        ****             CapSense_ScanAllWidgets();
 324              		.loc 1 176 0
 325 004a FFF7FEFF 		bl	CapSense_ScanAllWidgets
 326              	.LVL19:
 327              	.L21:
 177:main.c        ****         }
 178:main.c        ****         ProcessI2CCommand();
 179:main.c        ****         
 180:main.c        ****         CyDelay(SCAN_TIME_MS);
 328              		.loc 1 180 0
 329 004e 0120     		movs	r0, #1
 330 0050 FFF7FEFF 		bl	CyDelay
 331              	.LVL20:
 181:main.c        ****     }
 332              		.loc 1 181 0
ARM GAS  C:\Users\zack.li\AppData\Local\Temp\ccg9410U.s 			page 10


 333 0054 E2E7     		b	.L22
 334              	.L24:
 335 0056 C046     		.align	2
 336              	.L23:
 337 0058 C4000000 		.word	.LANCHOR1
 338 005c 00000000 		.word	CapSense_dsRam
 339              		.cfi_endproc
 340              	.LFE37:
 341              		.size	main, .-main
 342              		.global	send_status
 343              		.global	CapSense_status
 344              		.comm	i2c,17,4
 345              		.section	.rodata
 346              		.align	2
 347              		.set	.LANCHOR1,. + 0
 348              		.type	header, %object
 349              		.size	header, 2
 350              	header:
 351 00c4 0D       		.byte	13
 352 00c5 0A       		.byte	10
 353 00c6 0000     		.space	2
 354              		.type	tail, %object
 355              		.size	tail, 3
 356              	tail:
 357 00c8 00       		.byte	0
 358 00c9 FF       		.byte	-1
 359 00ca FF       		.byte	-1
 360              		.bss
 361              		.set	.LANCHOR0,. + 0
 362              		.type	CapSense_status, %object
 363              		.size	CapSense_status, 1
 364              	CapSense_status:
 365 0000 00       		.space	1
 366              		.type	send_status, %object
 367              		.size	send_status, 1
 368              	send_status:
 369 0001 00       		.space	1
 370              		.text
 371              	.Letext0:
 372              		.file 2 "c:\\program files (x86)\\cypress\\psoc creator\\4.2\\psoc creator\\import\\gnu\\arm\\5.4.
 373              		.file 3 "c:\\program files (x86)\\cypress\\psoc creator\\4.2\\psoc creator\\import\\gnu\\arm\\5.4.
 374              		.file 4 "Generated_Source\\PSoC4/cytypes.h"
 375              		.file 5 "Generated_Source\\PSoC4/CapSense_Configuration.h"
 376              		.file 6 "Generated_Source\\PSoC4/CapSense_Structure.h"
 377              		.file 7 "Generated_Source\\PSoC4/EZI2C.h"
 378              		.file 8 "Generated_Source\\PSoC4/EZI2C_EZI2C.h"
 379              		.file 9 "Generated_Source\\PSoC4/CAP_INT.h"
 380              		.file 10 "Generated_Source\\PSoC4/UART.h"
 381              		.file 11 "Generated_Source\\PSoC4/CapSense_Control.h"
 382              		.file 12 "Generated_Source\\PSoC4/CapSense_Tuner.h"
 383              		.file 13 "Generated_Source\\PSoC4/CapSense_Filter.h"
 384              		.file 14 "Generated_Source\\PSoC4/CapSense_Sensing.h"
 385              		.file 15 "Generated_Source\\PSoC4/UART_SPI_UART.h"
 386              		.file 16 "Generated_Source\\PSoC4/CyLib.h"