ARM GAS  C:\Users\zack.li\AppData\Local\Temp\ccM7U1Od.s 			page 1


   1              		.syntax unified
   2              		.cpu cortex-m0
   3              		.fpu softvfp
   4              		.eabi_attribute 20, 1
   5              		.eabi_attribute 21, 1
   6              		.eabi_attribute 23, 3
   7              		.eabi_attribute 24, 1
   8              		.eabi_attribute 25, 1
   9              		.eabi_attribute 26, 1
  10              		.eabi_attribute 30, 4
  11              		.eabi_attribute 34, 0
  12              		.eabi_attribute 18, 4
  13              		.thumb
  14              		.syntax unified
  15              		.file	"CapSense_Sensing.c"
  16              		.text
  17              	.Ltext0:
  18              		.cfi_sections	.debug_frame
  19              		.section	.text.CapSense_IsBusy,"ax",%progbits
  20              		.align	1
  21              		.global	CapSense_IsBusy
  22              		.code	16
  23              		.thumb_func
  24              		.type	CapSense_IsBusy, %function
  25              	CapSense_IsBusy:
  26              	.LFB1:
  27              		.file 1 "Generated_Source\\PSoC4\\CapSense_Sensing.c"
   1:Generated_Source\PSoC4/CapSense_Sensing.c **** /***************************************************************************//**
   2:Generated_Source\PSoC4/CapSense_Sensing.c **** * \file CapSense_Sensing.c
   3:Generated_Source\PSoC4/CapSense_Sensing.c **** * \version 7.0
   4:Generated_Source\PSoC4/CapSense_Sensing.c **** *
   5:Generated_Source\PSoC4/CapSense_Sensing.c **** * \brief
   6:Generated_Source\PSoC4/CapSense_Sensing.c **** *   This file contains the source of functions common for
   7:Generated_Source\PSoC4/CapSense_Sensing.c **** *   different sensing methods.
   8:Generated_Source\PSoC4/CapSense_Sensing.c **** *
   9:Generated_Source\PSoC4/CapSense_Sensing.c **** * \see CapSense v7.0 Datasheet
  10:Generated_Source\PSoC4/CapSense_Sensing.c **** *
  11:Generated_Source\PSoC4/CapSense_Sensing.c **** *//*****************************************************************************
  12:Generated_Source\PSoC4/CapSense_Sensing.c **** * Copyright (2016-2019), Cypress Semiconductor Corporation.
  13:Generated_Source\PSoC4/CapSense_Sensing.c **** ********************************************************************************
  14:Generated_Source\PSoC4/CapSense_Sensing.c **** * This software is owned by Cypress Semiconductor Corporation (Cypress) and is
  15:Generated_Source\PSoC4/CapSense_Sensing.c **** * protected by and subject to worldwide patent protection (United States and
  16:Generated_Source\PSoC4/CapSense_Sensing.c **** * foreign), United States copyright laws and international treaty provisions.
  17:Generated_Source\PSoC4/CapSense_Sensing.c **** * Cypress hereby grants to licensee a personal, non-exclusive, non-transferable
  18:Generated_Source\PSoC4/CapSense_Sensing.c **** * license to copy, use, modify, create derivative works of, and compile the
  19:Generated_Source\PSoC4/CapSense_Sensing.c **** * Cypress Source Code and derivative works for the sole purpose of creating
  20:Generated_Source\PSoC4/CapSense_Sensing.c **** * custom software in support of licensee product to be used only in conjunction
  21:Generated_Source\PSoC4/CapSense_Sensing.c **** * with a Cypress integrated circuit as specified in the applicable agreement.
  22:Generated_Source\PSoC4/CapSense_Sensing.c **** * Any reproduction, modification, translation, compilation, or representation of
  23:Generated_Source\PSoC4/CapSense_Sensing.c **** * this software except as specified above is prohibited without the express
  24:Generated_Source\PSoC4/CapSense_Sensing.c **** * written permission of Cypress.
  25:Generated_Source\PSoC4/CapSense_Sensing.c **** *
  26:Generated_Source\PSoC4/CapSense_Sensing.c **** * Disclaimer: CYPRESS MAKES NO WARRANTY OF ANY KIND, EXPRESS OR IMPLIED, WITH
  27:Generated_Source\PSoC4/CapSense_Sensing.c **** * REGARD TO THIS MATERIAL, INCLUDING, BUT NOT LIMITED TO, THE IMPLIED
  28:Generated_Source\PSoC4/CapSense_Sensing.c **** * WARRANTIES OF MERCHANTABILITY AND FITNESS FOR A PARTICULAR PURPOSE.
  29:Generated_Source\PSoC4/CapSense_Sensing.c **** * Cypress reserves the right to make changes without further notice to the
  30:Generated_Source\PSoC4/CapSense_Sensing.c **** * materials described herein. Cypress does not assume any liability arising out
ARM GAS  C:\Users\zack.li\AppData\Local\Temp\ccM7U1Od.s 			page 2


  31:Generated_Source\PSoC4/CapSense_Sensing.c **** * of the application or use of any product or circuit described herein. Cypress
  32:Generated_Source\PSoC4/CapSense_Sensing.c **** * does not authorize its products for use as critical components in life-support
  33:Generated_Source\PSoC4/CapSense_Sensing.c **** * systems where a malfunction or failure may reasonably be expected to result in
  34:Generated_Source\PSoC4/CapSense_Sensing.c **** * significant injury to the user. The inclusion of Cypress' product in a life-
  35:Generated_Source\PSoC4/CapSense_Sensing.c **** * support systems application implies that the manufacturer assumes all risk of
  36:Generated_Source\PSoC4/CapSense_Sensing.c **** * such use and in doing so indemnifies Cypress against all charges. Use may be
  37:Generated_Source\PSoC4/CapSense_Sensing.c **** * limited by and subject to the applicable Cypress software license agreement.
  38:Generated_Source\PSoC4/CapSense_Sensing.c **** *******************************************************************************/
  39:Generated_Source\PSoC4/CapSense_Sensing.c **** 
  40:Generated_Source\PSoC4/CapSense_Sensing.c **** #include "cyfitter.h"
  41:Generated_Source\PSoC4/CapSense_Sensing.c **** #include "CapSense_Configuration.h"
  42:Generated_Source\PSoC4/CapSense_Sensing.c **** #include "CapSense_Structure.h"
  43:Generated_Source\PSoC4/CapSense_Sensing.c **** #include "CapSense_Sensing.h"
  44:Generated_Source\PSoC4/CapSense_Sensing.c **** #if (CapSense_ENABLE == CapSense_CSX_EN)
  45:Generated_Source\PSoC4/CapSense_Sensing.c ****     #include "CapSense_SensingCSX_LL.h"
  46:Generated_Source\PSoC4/CapSense_Sensing.c **** #endif
  47:Generated_Source\PSoC4/CapSense_Sensing.c **** #if (CapSense_ENABLE == CapSense_ISX_EN)
  48:Generated_Source\PSoC4/CapSense_Sensing.c ****     #include "CapSense_SensingISX_LL.h"
  49:Generated_Source\PSoC4/CapSense_Sensing.c **** #endif
  50:Generated_Source\PSoC4/CapSense_Sensing.c **** #if (CapSense_ENABLE == CapSense_CSD_EN)
  51:Generated_Source\PSoC4/CapSense_Sensing.c ****     #include "CapSense_SensingCSD_LL.h"
  52:Generated_Source\PSoC4/CapSense_Sensing.c **** #endif
  53:Generated_Source\PSoC4/CapSense_Sensing.c **** #if (CapSense_CSD_SS_DIS != CapSense_CSD_AUTOTUNE)
  54:Generated_Source\PSoC4/CapSense_Sensing.c ****     #include "CapSense_SmartSense_LL.h"
  55:Generated_Source\PSoC4/CapSense_Sensing.c **** #endif
  56:Generated_Source\PSoC4/CapSense_Sensing.c **** #if (CapSense_ENABLE == CapSense_ADC_EN)
  57:Generated_Source\PSoC4/CapSense_Sensing.c ****     #include "CapSense_Adc.h"
  58:Generated_Source\PSoC4/CapSense_Sensing.c **** #endif
  59:Generated_Source\PSoC4/CapSense_Sensing.c **** #if (CapSense_ENABLE == CapSense_SELF_TEST_EN)
  60:Generated_Source\PSoC4/CapSense_Sensing.c ****     #include "CapSense_SelfTest.h"
  61:Generated_Source\PSoC4/CapSense_Sensing.c **** #endif
  62:Generated_Source\PSoC4/CapSense_Sensing.c **** 
  63:Generated_Source\PSoC4/CapSense_Sensing.c **** #if (0u != CapSense_ISX_EN)
  64:Generated_Source\PSoC4/CapSense_Sensing.c ****     #include "CapSense_DigPrt2.h"
  65:Generated_Source\PSoC4/CapSense_Sensing.c ****     #if (CapSense_USES_PORT_3)
  66:Generated_Source\PSoC4/CapSense_Sensing.c ****         #include "CapSense_DigPrt3.h"
  67:Generated_Source\PSoC4/CapSense_Sensing.c ****     #endif
  68:Generated_Source\PSoC4/CapSense_Sensing.c **** #endif
  69:Generated_Source\PSoC4/CapSense_Sensing.c **** 
  70:Generated_Source\PSoC4/CapSense_Sensing.c **** /***************************************
  71:Generated_Source\PSoC4/CapSense_Sensing.c **** * API Constants
  72:Generated_Source\PSoC4/CapSense_Sensing.c **** ***************************************/
  73:Generated_Source\PSoC4/CapSense_Sensing.c **** 
  74:Generated_Source\PSoC4/CapSense_Sensing.c **** #define CapSense_IMO_FREQUENCY_OFFSET_MIN               (0u)
  75:Generated_Source\PSoC4/CapSense_Sensing.c **** #define CapSense_IMO_FREQUENCY_OFFSET_MAX               (255u)
  76:Generated_Source\PSoC4/CapSense_Sensing.c **** #define CapSense_AUTOTUNE_CALIBRATION_RESOLUTION        (12u)
  77:Generated_Source\PSoC4/CapSense_Sensing.c **** #define CapSense_AUTOTUNE_CALIBRATION_FREQ_KHZ          (1500u)
  78:Generated_Source\PSoC4/CapSense_Sensing.c **** #define CapSense_AUTOTUNE_CAL_LEVEL                     (CapSense_CSD_RAWCOUNT_CAL_LEVEL)
  79:Generated_Source\PSoC4/CapSense_Sensing.c **** #define CapSense_AUTOTUNE_CAL_UNITS                     (1000u)
  80:Generated_Source\PSoC4/CapSense_Sensing.c **** #define CapSense_AUTOTUNE_CP_MAX                        (69000Lu)
  81:Generated_Source\PSoC4/CapSense_Sensing.c **** #define CapSense_CLK_SOURCE_LFSR_SCALE_OFFSET           (4u)
  82:Generated_Source\PSoC4/CapSense_Sensing.c **** 
  83:Generated_Source\PSoC4/CapSense_Sensing.c **** /* HW IP Block limitation */
  84:Generated_Source\PSoC4/CapSense_Sensing.c **** #if (CapSense_ENABLE == CapSense_CSDV2)
  85:Generated_Source\PSoC4/CapSense_Sensing.c ****     #define CapSense_CSD_SNS_FREQ_KHZ_MAX               (6000u)
  86:Generated_Source\PSoC4/CapSense_Sensing.c **** #else
  87:Generated_Source\PSoC4/CapSense_Sensing.c ****     #define CapSense_CSD_SNS_FREQ_KHZ_MAX               (12600u)
ARM GAS  C:\Users\zack.li\AppData\Local\Temp\ccM7U1Od.s 			page 3


  88:Generated_Source\PSoC4/CapSense_Sensing.c **** #endif /* (CapSense_ENABLE == CapSense_CSDV2) */
  89:Generated_Source\PSoC4/CapSense_Sensing.c **** 
  90:Generated_Source\PSoC4/CapSense_Sensing.c **** #define CapSense_FLIP_FLOP_DIV                          (1u)
  91:Generated_Source\PSoC4/CapSense_Sensing.c **** 
  92:Generated_Source\PSoC4/CapSense_Sensing.c **** #define CapSense_MOD_CSD_CLK_12000KHZ                   (12000uL)
  93:Generated_Source\PSoC4/CapSense_Sensing.c **** #define CapSense_MOD_CSD_CLK_24000KHZ                   (24000uL)
  94:Generated_Source\PSoC4/CapSense_Sensing.c **** #define CapSense_MOD_CSD_CLK_48000KHZ                   (48000uL)
  95:Generated_Source\PSoC4/CapSense_Sensing.c **** 
  96:Generated_Source\PSoC4/CapSense_Sensing.c **** /*****************************************************************************/
  97:Generated_Source\PSoC4/CapSense_Sensing.c **** /* Enumeration types definition                                              */
  98:Generated_Source\PSoC4/CapSense_Sensing.c **** /*****************************************************************************/
  99:Generated_Source\PSoC4/CapSense_Sensing.c **** 
 100:Generated_Source\PSoC4/CapSense_Sensing.c **** typedef enum
 101:Generated_Source\PSoC4/CapSense_Sensing.c **** {
 102:Generated_Source\PSoC4/CapSense_Sensing.c ****     CapSense_RES_PULLUP_E   = 0x02u,
 103:Generated_Source\PSoC4/CapSense_Sensing.c ****     CapSense_RES_PULLDOWN_E = 0x03u
 104:Generated_Source\PSoC4/CapSense_Sensing.c **** } CapSense_PORT_TEST_DM;
 105:Generated_Source\PSoC4/CapSense_Sensing.c **** 
 106:Generated_Source\PSoC4/CapSense_Sensing.c **** typedef enum
 107:Generated_Source\PSoC4/CapSense_Sensing.c **** {
 108:Generated_Source\PSoC4/CapSense_Sensing.c ****     CapSense_STS_RESET      = 0x01u,
 109:Generated_Source\PSoC4/CapSense_Sensing.c ****     CapSense_STS_NO_RESET   = 0x02u
 110:Generated_Source\PSoC4/CapSense_Sensing.c **** } CapSense_TEST_TYPE;
 111:Generated_Source\PSoC4/CapSense_Sensing.c **** 
 112:Generated_Source\PSoC4/CapSense_Sensing.c **** 
 113:Generated_Source\PSoC4/CapSense_Sensing.c **** /*******************************************************************************
 114:Generated_Source\PSoC4/CapSense_Sensing.c **** * Static Function Prototypes
 115:Generated_Source\PSoC4/CapSense_Sensing.c **** *******************************************************************************/
 116:Generated_Source\PSoC4/CapSense_Sensing.c **** /**
 117:Generated_Source\PSoC4/CapSense_Sensing.c **** * \cond SECTION_C_INTERNAL
 118:Generated_Source\PSoC4/CapSense_Sensing.c **** * \addtogroup group_c_internal
 119:Generated_Source\PSoC4/CapSense_Sensing.c **** * \{
 120:Generated_Source\PSoC4/CapSense_Sensing.c **** */
 121:Generated_Source\PSoC4/CapSense_Sensing.c **** 
 122:Generated_Source\PSoC4/CapSense_Sensing.c **** #if (CapSense_DISABLE == CapSense_CSDV2)
 123:Generated_Source\PSoC4/CapSense_Sensing.c ****     static void CapSense_SsTrimIdacs(void);
 124:Generated_Source\PSoC4/CapSense_Sensing.c ****     #if ((CapSense_ENABLE == CapSense_CSX_EN) || \
 125:Generated_Source\PSoC4/CapSense_Sensing.c ****          (CapSense_ENABLE == CapSense_ISX_EN) || \
 126:Generated_Source\PSoC4/CapSense_Sensing.c ****          (CapSense_IDAC_SINKING == CapSense_CSD_IDAC_CONFIG))
 127:Generated_Source\PSoC4/CapSense_Sensing.c ****         static void CapSense_SsTrimIdacsSinking(void);
 128:Generated_Source\PSoC4/CapSense_Sensing.c ****     #endif /* ((CapSense_ENABLE == CapSense_CSX_EN) || \
 129:Generated_Source\PSoC4/CapSense_Sensing.c ****                (CapSense_IDAC_SINKING == CapSense_CSD_IDAC_CONFIG)) */
 130:Generated_Source\PSoC4/CapSense_Sensing.c ****     #if ((CapSense_ENABLE == CapSense_CSX_EN) || \
 131:Generated_Source\PSoC4/CapSense_Sensing.c ****          (CapSense_ENABLE == CapSense_ISX_EN) || \
 132:Generated_Source\PSoC4/CapSense_Sensing.c ****          (CapSense_IDAC_SOURCING == CapSense_CSD_IDAC_CONFIG))
 133:Generated_Source\PSoC4/CapSense_Sensing.c ****         static void CapSense_SsTrimIdacsSourcing(void);
 134:Generated_Source\PSoC4/CapSense_Sensing.c ****     #endif /* ((CapSense_ENABLE == CapSense_CSX_EN) || \
 135:Generated_Source\PSoC4/CapSense_Sensing.c ****                (CapSense_IDAC_SOURCING == CapSense_CSD_IDAC_CONFIG)) */
 136:Generated_Source\PSoC4/CapSense_Sensing.c **** #endif /* (CapSense_ENABLE == CapSense_CSDV2) */
 137:Generated_Source\PSoC4/CapSense_Sensing.c **** 
 138:Generated_Source\PSoC4/CapSense_Sensing.c **** #if (CapSense_ENABLE == CapSense_CSD_EN)
 139:Generated_Source\PSoC4/CapSense_Sensing.c ****     static void CapSense_SsCSDDisableMode(void);
 140:Generated_Source\PSoC4/CapSense_Sensing.c **** #endif /* (CapSense_ENABLE == CapSense_CSD_EN) */
 141:Generated_Source\PSoC4/CapSense_Sensing.c **** #if (CapSense_ENABLE == CapSense_CSX_EN)
 142:Generated_Source\PSoC4/CapSense_Sensing.c ****     static void CapSense_SsDisableCSXMode(void);
 143:Generated_Source\PSoC4/CapSense_Sensing.c **** #endif /* (CapSense_ENABLE == CapSense_CSX_EN) */
 144:Generated_Source\PSoC4/CapSense_Sensing.c **** #if (CapSense_ENABLE == CapSense_ISX_EN)
ARM GAS  C:\Users\zack.li\AppData\Local\Temp\ccM7U1Od.s 			page 4


 145:Generated_Source\PSoC4/CapSense_Sensing.c ****     static void CapSense_SsDisableISXMode(void);
 146:Generated_Source\PSoC4/CapSense_Sensing.c **** #endif /* (CapSense_ENABLE == CapSense_ISX_EN) */
 147:Generated_Source\PSoC4/CapSense_Sensing.c **** 
 148:Generated_Source\PSoC4/CapSense_Sensing.c **** #if(((CapSense_ENABLE == CapSense_CSX_EN) && \
 149:Generated_Source\PSoC4/CapSense_Sensing.c ****      (CapSense_ENABLE == CapSense_CSDV2) && \
 150:Generated_Source\PSoC4/CapSense_Sensing.c ****      (CapSense_CLK_SOURCE_PRSAUTO == CapSense_CSX_TX_CLK_SOURCE) && \
 151:Generated_Source\PSoC4/CapSense_Sensing.c ****      (CapSense_DISABLE == CapSense_CSX_SKIP_OVSMPL_SPECIFIC_NODES)) ||\
 152:Generated_Source\PSoC4/CapSense_Sensing.c ****     ((CapSense_ENABLE == CapSense_CSD_EN) && \
 153:Generated_Source\PSoC4/CapSense_Sensing.c ****      (CapSense_ENABLE == CapSense_CSDV2) && \
 154:Generated_Source\PSoC4/CapSense_Sensing.c ****      (CapSense_CLK_SOURCE_PRSAUTO == CapSense_CSD_SNS_CLK_SOURCE)))
 155:Generated_Source\PSoC4/CapSense_Sensing.c ****     static uint8 CapSense_SsCalcLfsrSize(uint32 snsClkDivider, uint32 conversionsNum);
 156:Generated_Source\PSoC4/CapSense_Sensing.c ****     static uint8 CapSense_SsCalcLfsrScale(uint32 snsClkDivider, uint8 lfsrSize);
 157:Generated_Source\PSoC4/CapSense_Sensing.c **** #endif
 158:Generated_Source\PSoC4/CapSense_Sensing.c **** 
 159:Generated_Source\PSoC4/CapSense_Sensing.c **** #if (CapSense_ENABLE == CapSense_CSD_EN)
 160:Generated_Source\PSoC4/CapSense_Sensing.c ****     static void CapSense_SsSetWidgetSenseClkSrc(uint32 wdgtIndex, CapSense_RAM_WD_BASE_STRUCT * ptr
 161:Generated_Source\PSoC4/CapSense_Sensing.c **** #endif
 162:Generated_Source\PSoC4/CapSense_Sensing.c **** 
 163:Generated_Source\PSoC4/CapSense_Sensing.c **** #if ((CapSense_ENABLE == CapSense_CSX_EN) && (CapSense_ENABLE == CapSense_CSDV2))
 164:Generated_Source\PSoC4/CapSense_Sensing.c ****     static void CapSense_SsSetWidgetTxClkSrc(uint32 wdgtIndex, CapSense_RAM_WD_BASE_STRUCT * ptrWdg
 165:Generated_Source\PSoC4/CapSense_Sensing.c **** #endif
 166:Generated_Source\PSoC4/CapSense_Sensing.c **** 
 167:Generated_Source\PSoC4/CapSense_Sensing.c **** 
 168:Generated_Source\PSoC4/CapSense_Sensing.c **** /** \}
 169:Generated_Source\PSoC4/CapSense_Sensing.c **** * \endcond */
 170:Generated_Source\PSoC4/CapSense_Sensing.c **** 
 171:Generated_Source\PSoC4/CapSense_Sensing.c **** /*******************************************************************************
 172:Generated_Source\PSoC4/CapSense_Sensing.c **** * Defines module variables
 173:Generated_Source\PSoC4/CapSense_Sensing.c **** *******************************************************************************/
 174:Generated_Source\PSoC4/CapSense_Sensing.c **** 
 175:Generated_Source\PSoC4/CapSense_Sensing.c **** CapSense_SENSE_METHOD_ENUM CapSense_currentSenseMethod = CapSense_UNDEFINED_E;
 176:Generated_Source\PSoC4/CapSense_Sensing.c **** 
 177:Generated_Source\PSoC4/CapSense_Sensing.c **** #if(CapSense_ENABLE == CapSense_MULTI_FREQ_SCAN_EN)
 178:Generated_Source\PSoC4/CapSense_Sensing.c ****     /* Module variable keep track of multi-frequency scan channel index */
 179:Generated_Source\PSoC4/CapSense_Sensing.c ****     uint8 CapSense_scanFreqIndex = 0u;
 180:Generated_Source\PSoC4/CapSense_Sensing.c ****     /* Variable keep frequency offsets */
 181:Generated_Source\PSoC4/CapSense_Sensing.c ****     uint8 CapSense_immunity[CapSense_NUM_SCAN_FREQS] = {0u, 0u, 0u};
 182:Generated_Source\PSoC4/CapSense_Sensing.c **** #else
 183:Generated_Source\PSoC4/CapSense_Sensing.c ****     /* const allows C-compiler to do optimization */
 184:Generated_Source\PSoC4/CapSense_Sensing.c ****     const uint8 CapSense_scanFreqIndex = 0u;
 185:Generated_Source\PSoC4/CapSense_Sensing.c **** #endif
 186:Generated_Source\PSoC4/CapSense_Sensing.c **** 
 187:Generated_Source\PSoC4/CapSense_Sensing.c **** /* Global software variables */
 188:Generated_Source\PSoC4/CapSense_Sensing.c **** volatile uint8 CapSense_widgetIndex = 0u;    /* Index of the scanning widget */
 189:Generated_Source\PSoC4/CapSense_Sensing.c **** volatile uint8 CapSense_sensorIndex = 0u;    /* Index of the scanning sensor */
 190:Generated_Source\PSoC4/CapSense_Sensing.c **** uint8 CapSense_requestScanAllWidget = 0u;
 191:Generated_Source\PSoC4/CapSense_Sensing.c **** 
 192:Generated_Source\PSoC4/CapSense_Sensing.c **** /* Pointer to RAM_SNS_STRUCT structure */
 193:Generated_Source\PSoC4/CapSense_Sensing.c **** CapSense_RAM_SNS_STRUCT *CapSense_curRamSnsPtr;
 194:Generated_Source\PSoC4/CapSense_Sensing.c **** 
 195:Generated_Source\PSoC4/CapSense_Sensing.c **** #if ((CapSense_ENABLE == CapSense_CSD_GANGED_SNS_EN) || \
 196:Generated_Source\PSoC4/CapSense_Sensing.c ****      (CapSense_ENABLE == CapSense_CSX_EN) || \
 197:Generated_Source\PSoC4/CapSense_Sensing.c ****      (CapSense_ENABLE == CapSense_ISX_EN))
 198:Generated_Source\PSoC4/CapSense_Sensing.c ****     /* Pointer to Flash structure holding configuration of widget to be scanned */
 199:Generated_Source\PSoC4/CapSense_Sensing.c ****     CapSense_FLASH_WD_STRUCT const *CapSense_curFlashWdgtPtr = 0u;
 200:Generated_Source\PSoC4/CapSense_Sensing.c **** #endif
 201:Generated_Source\PSoC4/CapSense_Sensing.c **** 
ARM GAS  C:\Users\zack.li\AppData\Local\Temp\ccM7U1Od.s 			page 5


 202:Generated_Source\PSoC4/CapSense_Sensing.c **** #if (CapSense_ENABLE == CapSense_CSD_GANGED_SNS_EN)
 203:Generated_Source\PSoC4/CapSense_Sensing.c ****     /* Pointer to Flash structure holding info of sensor to be scanned */
 204:Generated_Source\PSoC4/CapSense_Sensing.c ****     CapSense_FLASH_SNS_STRUCT const *CapSense_curFlashSnsPtr = 0u;
 205:Generated_Source\PSoC4/CapSense_Sensing.c **** #endif
 206:Generated_Source\PSoC4/CapSense_Sensing.c **** 
 207:Generated_Source\PSoC4/CapSense_Sensing.c **** /* Pointer to Flash structure to hold Sns electrode that was connected previously */
 208:Generated_Source\PSoC4/CapSense_Sensing.c **** CapSense_FLASH_IO_STRUCT const *CapSense_curSnsIOPtr;
 209:Generated_Source\PSoC4/CapSense_Sensing.c **** 
 210:Generated_Source\PSoC4/CapSense_Sensing.c **** CapSense_IDAC_GAIN_TABLE_STRUCT const CapSense_idacGainTable[CapSense_IDAC_GAIN_NUMBER] = CapSense_
 211:Generated_Source\PSoC4/CapSense_Sensing.c **** 
 212:Generated_Source\PSoC4/CapSense_Sensing.c **** 
 213:Generated_Source\PSoC4/CapSense_Sensing.c **** /*******************************************************************************
 214:Generated_Source\PSoC4/CapSense_Sensing.c **** * Function Name: CapSense_IsBusy
 215:Generated_Source\PSoC4/CapSense_Sensing.c **** ****************************************************************************//**
 216:Generated_Source\PSoC4/CapSense_Sensing.c **** *
 217:Generated_Source\PSoC4/CapSense_Sensing.c **** * \brief
 218:Generated_Source\PSoC4/CapSense_Sensing.c **** *  Returns the current status of the Component (Scan is completed or Scan is in
 219:Generated_Source\PSoC4/CapSense_Sensing.c **** *  progress).
 220:Generated_Source\PSoC4/CapSense_Sensing.c **** *
 221:Generated_Source\PSoC4/CapSense_Sensing.c **** * \details
 222:Generated_Source\PSoC4/CapSense_Sensing.c **** *  This function returns a status of the hardware block whether a scan is
 223:Generated_Source\PSoC4/CapSense_Sensing.c **** *  currently in progress or not. If the Component is busy, no new scan or Widget
 224:Generated_Source\PSoC4/CapSense_Sensing.c **** *  setup is made. The critical section (i.e. disable global interrupt)
 225:Generated_Source\PSoC4/CapSense_Sensing.c **** *  is recommended for the application when the device transitions from
 226:Generated_Source\PSoC4/CapSense_Sensing.c **** *  the active mode to sleep or deep sleep modes.
 227:Generated_Source\PSoC4/CapSense_Sensing.c **** *
 228:Generated_Source\PSoC4/CapSense_Sensing.c **** * \return
 229:Generated_Source\PSoC4/CapSense_Sensing.c **** *  Returns the current status of the Component:
 230:Generated_Source\PSoC4/CapSense_Sensing.c **** *    - CapSense_NOT_BUSY - No scan is in progress and a next scan
 231:Generated_Source\PSoC4/CapSense_Sensing.c **** *      can be initiated.
 232:Generated_Source\PSoC4/CapSense_Sensing.c **** *    - CapSense_SW_STS_BUSY - The previous scanning is not completed
 233:Generated_Source\PSoC4/CapSense_Sensing.c **** *      and the hardware block is busy.
 234:Generated_Source\PSoC4/CapSense_Sensing.c **** *
 235:Generated_Source\PSoC4/CapSense_Sensing.c **** *******************************************************************************/
 236:Generated_Source\PSoC4/CapSense_Sensing.c **** uint32 CapSense_IsBusy(void)
 237:Generated_Source\PSoC4/CapSense_Sensing.c **** {
  28              		.loc 1 237 0
  29              		.cfi_startproc
  30              		@ args = 0, pretend = 0, frame = 0
  31              		@ frame_needed = 0, uses_anonymous_args = 0
  32              		@ link register save eliminated.
 238:Generated_Source\PSoC4/CapSense_Sensing.c ****     return (CapSense_dsRam.status & CapSense_SW_STS_BUSY);
  33              		.loc 1 238 0
  34 0000 024B     		ldr	r3, .L2
 239:Generated_Source\PSoC4/CapSense_Sensing.c **** }
  35              		.loc 1 239 0
  36              		@ sp needed
 238:Generated_Source\PSoC4/CapSense_Sensing.c ****     return (CapSense_dsRam.status & CapSense_SW_STS_BUSY);
  37              		.loc 1 238 0
  38 0002 D868     		ldr	r0, [r3, #12]
  39 0004 8023     		movs	r3, #128
  40 0006 1840     		ands	r0, r3
  41              		.loc 1 239 0
  42 0008 7047     		bx	lr
  43              	.L3:
  44 000a C046     		.align	2
  45              	.L2:
ARM GAS  C:\Users\zack.li\AppData\Local\Temp\ccM7U1Od.s 			page 6


  46 000c 00000000 		.word	CapSense_dsRam
  47              		.cfi_endproc
  48              	.LFE1:
  49              		.size	CapSense_IsBusy, .-CapSense_IsBusy
  50              		.section	.text.CapSense_SetupWidget,"ax",%progbits
  51              		.align	1
  52              		.global	CapSense_SetupWidget
  53              		.code	16
  54              		.thumb_func
  55              		.type	CapSense_SetupWidget, %function
  56              	CapSense_SetupWidget:
  57              	.LFB2:
 240:Generated_Source\PSoC4/CapSense_Sensing.c **** 
 241:Generated_Source\PSoC4/CapSense_Sensing.c **** /*******************************************************************************
 242:Generated_Source\PSoC4/CapSense_Sensing.c **** * Function Name: CapSense_SetupWidget
 243:Generated_Source\PSoC4/CapSense_Sensing.c **** ****************************************************************************//**
 244:Generated_Source\PSoC4/CapSense_Sensing.c **** *
 245:Generated_Source\PSoC4/CapSense_Sensing.c **** * \brief
 246:Generated_Source\PSoC4/CapSense_Sensing.c **** *  Performs the initialization required to scan the specified widget.
 247:Generated_Source\PSoC4/CapSense_Sensing.c **** *
 248:Generated_Source\PSoC4/CapSense_Sensing.c **** * \details
 249:Generated_Source\PSoC4/CapSense_Sensing.c **** *  This function prepares the Component to scan all the sensors in the specified
 250:Generated_Source\PSoC4/CapSense_Sensing.c **** *  widget by executing the following tasks:
 251:Generated_Source\PSoC4/CapSense_Sensing.c **** *    1. Re-initialize the hardware if it is not configured to perform the
 252:Generated_Source\PSoC4/CapSense_Sensing.c **** *       sensing method used by the specified widget, this happens only if multiple
 253:Generated_Source\PSoC4/CapSense_Sensing.c **** *       sensing methods are used in the Component.
 254:Generated_Source\PSoC4/CapSense_Sensing.c **** *    2. Initialize the hardware with specific sensing configuration (e.g.
 255:Generated_Source\PSoC4/CapSense_Sensing.c **** *       sensor clock, scan resolution) used by the widget.
 256:Generated_Source\PSoC4/CapSense_Sensing.c **** *    3. Disconnect all previously connected electrodes, if the electrodes
 257:Generated_Source\PSoC4/CapSense_Sensing.c **** *       connected by the lower level SetupWidgetExt() or ConnectSns() functions
 258:Generated_Source\PSoC4/CapSense_Sensing.c ****         and not disconnected.
 259:Generated_Source\PSoC4/CapSense_Sensing.c **** *
 260:Generated_Source\PSoC4/CapSense_Sensing.c **** *  This function does not start sensor scanning, the CapSense_Scan()
 261:Generated_Source\PSoC4/CapSense_Sensing.c **** *  function must be called to start the scan sensors in the widget. If this
 262:Generated_Source\PSoC4/CapSense_Sensing.c **** *  function is called more than once, it does not break the Component operation,
 263:Generated_Source\PSoC4/CapSense_Sensing.c **** *  but only the last initialized widget is in effect.
 264:Generated_Source\PSoC4/CapSense_Sensing.c **** *
 265:Generated_Source\PSoC4/CapSense_Sensing.c **** * \param widgetId
 266:Generated_Source\PSoC4/CapSense_Sensing.c **** *  Specifies the ID number of the widget to be initialized for scanning.
 267:Generated_Source\PSoC4/CapSense_Sensing.c **** *  A macro for the widget ID can be found in the
 268:Generated_Source\PSoC4/CapSense_Sensing.c **** *  CapSense Configuration header file defined as
 269:Generated_Source\PSoC4/CapSense_Sensing.c **** *  CapSense_<WidgetName>_WDGT_ID.
 270:Generated_Source\PSoC4/CapSense_Sensing.c **** *
 271:Generated_Source\PSoC4/CapSense_Sensing.c **** * \return
 272:Generated_Source\PSoC4/CapSense_Sensing.c **** *  Returns the status of the widget setting up operation:
 273:Generated_Source\PSoC4/CapSense_Sensing.c **** *    - CYRET_SUCCESS - The operation is successfully completed.
 274:Generated_Source\PSoC4/CapSense_Sensing.c **** *    - CYRET_BAD_PARAM - The widget is invalid or if the specified widget is
 275:Generated_Source\PSoC4/CapSense_Sensing.c **** *      disabled
 276:Generated_Source\PSoC4/CapSense_Sensing.c **** *    - CYRET_INVALID_STATE - The previous scanning is not completed and the
 277:Generated_Source\PSoC4/CapSense_Sensing.c **** *      hardware block is busy.
 278:Generated_Source\PSoC4/CapSense_Sensing.c **** *    - CYRET_UNKNOWN - An unknown sensing method is used by the widget or any
 279:Generated_Source\PSoC4/CapSense_Sensing.c **** *      other spurious error occurred.
 280:Generated_Source\PSoC4/CapSense_Sensing.c **** *
 281:Generated_Source\PSoC4/CapSense_Sensing.c **** **********************************************************************************/
 282:Generated_Source\PSoC4/CapSense_Sensing.c **** cystatus CapSense_SetupWidget(uint32 widgetId)
 283:Generated_Source\PSoC4/CapSense_Sensing.c **** {
  58              		.loc 1 283 0
ARM GAS  C:\Users\zack.li\AppData\Local\Temp\ccM7U1Od.s 			page 7


  59              		.cfi_startproc
  60              		@ args = 0, pretend = 0, frame = 0
  61              		@ frame_needed = 0, uses_anonymous_args = 0
  62              	.LVL0:
 284:Generated_Source\PSoC4/CapSense_Sensing.c ****     cystatus widgetStatus;
 285:Generated_Source\PSoC4/CapSense_Sensing.c **** 
 286:Generated_Source\PSoC4/CapSense_Sensing.c ****     if (CapSense_WDGT_SW_STS_BUSY == (CapSense_dsRam.status & CapSense_WDGT_SW_STS_BUSY))
  63              		.loc 1 286 0
  64 0000 8023     		movs	r3, #128
  65 0002 0A4A     		ldr	r2, .L12
 283:Generated_Source\PSoC4/CapSense_Sensing.c ****     cystatus widgetStatus;
  66              		.loc 1 283 0
  67 0004 10B5     		push	{r4, lr}
  68              		.cfi_def_cfa_offset 8
  69              		.cfi_offset 4, -8
  70              		.cfi_offset 14, -4
  71              		.loc 1 286 0
  72 0006 D468     		ldr	r4, [r2, #12]
  73 0008 5B02     		lsls	r3, r3, #9
  74 000a 1C40     		ands	r4, r3
 287:Generated_Source\PSoC4/CapSense_Sensing.c ****     {
 288:Generated_Source\PSoC4/CapSense_Sensing.c ****         /* Previous widget is being scanned. Return error. */
 289:Generated_Source\PSoC4/CapSense_Sensing.c ****         widgetStatus = CYRET_INVALID_STATE;
  75              		.loc 1 289 0
  76 000c 1123     		movs	r3, #17
 286:Generated_Source\PSoC4/CapSense_Sensing.c ****     {
  77              		.loc 1 286 0
  78 000e 002C     		cmp	r4, #0
  79 0010 09D1     		bne	.L10
  80 0012 103B     		subs	r3, r3, #16
 290:Generated_Source\PSoC4/CapSense_Sensing.c ****     }
 291:Generated_Source\PSoC4/CapSense_Sensing.c ****     /*
 292:Generated_Source\PSoC4/CapSense_Sensing.c ****      *  Check if widget id is valid, specified widget is enabled and widget did not
 293:Generated_Source\PSoC4/CapSense_Sensing.c ****      *  detect any fault conditions if BIST is enabled. If all conditions are met,
 294:Generated_Source\PSoC4/CapSense_Sensing.c ****      *  set widgetStatus as good, if not, set widgetStatus as bad.
 295:Generated_Source\PSoC4/CapSense_Sensing.c ****      */
 296:Generated_Source\PSoC4/CapSense_Sensing.c ****     else if ((CapSense_TOTAL_WIDGETS > widgetId) &&
  81              		.loc 1 296 0
  82 0014 0328     		cmp	r0, #3
  83 0016 06D8     		bhi	.L10
  84              		.loc 1 296 0 is_stmt 0 discriminator 1
  85 0018 1269     		ldr	r2, [r2, #16]
  86 001a C240     		lsrs	r2, r2, r0
  87 001c 1A42     		tst	r2, r3
  88 001e 02D0     		beq	.L10
  89              	.LVL1:
 297:Generated_Source\PSoC4/CapSense_Sensing.c ****         (0uL != CapSense_GET_WIDGET_EN_STATUS(widgetId)))
 298:Generated_Source\PSoC4/CapSense_Sensing.c **** 
 299:Generated_Source\PSoC4/CapSense_Sensing.c ****     {
 300:Generated_Source\PSoC4/CapSense_Sensing.c ****         widgetStatus = CYRET_SUCCESS;
 301:Generated_Source\PSoC4/CapSense_Sensing.c ****     }
 302:Generated_Source\PSoC4/CapSense_Sensing.c ****     else
 303:Generated_Source\PSoC4/CapSense_Sensing.c ****     {
 304:Generated_Source\PSoC4/CapSense_Sensing.c ****         widgetStatus = CYRET_BAD_PARAM;
 305:Generated_Source\PSoC4/CapSense_Sensing.c ****     }
 306:Generated_Source\PSoC4/CapSense_Sensing.c **** 
 307:Generated_Source\PSoC4/CapSense_Sensing.c ****     /*
ARM GAS  C:\Users\zack.li\AppData\Local\Temp\ccM7U1Od.s 			page 8


 308:Generated_Source\PSoC4/CapSense_Sensing.c ****      * Check widgetStatus flag that is set earlier, if flag is good, then set up only
 309:Generated_Source\PSoC4/CapSense_Sensing.c ****      * widget
 310:Generated_Source\PSoC4/CapSense_Sensing.c ****      */
 311:Generated_Source\PSoC4/CapSense_Sensing.c ****     if (CYRET_SUCCESS == widgetStatus)
 312:Generated_Source\PSoC4/CapSense_Sensing.c ****     {
 313:Generated_Source\PSoC4/CapSense_Sensing.c ****         switch (CapSense_GET_SENSE_METHOD(&CapSense_dsFlash.wdgtArray[widgetId]))
 314:Generated_Source\PSoC4/CapSense_Sensing.c ****         {
 315:Generated_Source\PSoC4/CapSense_Sensing.c ****         #if (CapSense_ENABLE == CapSense_CSX_EN)
 316:Generated_Source\PSoC4/CapSense_Sensing.c ****             case CapSense_SENSE_METHOD_CSX_E:
 317:Generated_Source\PSoC4/CapSense_Sensing.c ****                 /* Set up widget for CSX scan */
 318:Generated_Source\PSoC4/CapSense_Sensing.c ****                 CapSense_CSXSetupWidget(widgetId);
 319:Generated_Source\PSoC4/CapSense_Sensing.c ****                 break;
 320:Generated_Source\PSoC4/CapSense_Sensing.c ****         #endif
 321:Generated_Source\PSoC4/CapSense_Sensing.c ****         #if (CapSense_ENABLE == CapSense_CSD_EN)
 322:Generated_Source\PSoC4/CapSense_Sensing.c ****             case CapSense_SENSE_METHOD_CSD_E:
 323:Generated_Source\PSoC4/CapSense_Sensing.c ****                 /* Set up widget for CSD scan */
 324:Generated_Source\PSoC4/CapSense_Sensing.c ****                 CapSense_CSDSetupWidget(widgetId);
  90              		.loc 1 324 0 is_stmt 1
  91 0020 FFF7FEFF 		bl	CapSense_CSDSetupWidget
  92              	.LVL2:
 300:Generated_Source\PSoC4/CapSense_Sensing.c ****     }
  93              		.loc 1 300 0
  94 0024 2300     		movs	r3, r4
  95              	.LVL3:
  96              	.L10:
 325:Generated_Source\PSoC4/CapSense_Sensing.c ****                 break;
 326:Generated_Source\PSoC4/CapSense_Sensing.c ****         #endif
 327:Generated_Source\PSoC4/CapSense_Sensing.c ****         #if (CapSense_ENABLE == CapSense_ISX_EN)
 328:Generated_Source\PSoC4/CapSense_Sensing.c ****             case CapSense_SENSE_METHOD_ISX_E:
 329:Generated_Source\PSoC4/CapSense_Sensing.c ****                 /* Set up widget for ISX scan */
 330:Generated_Source\PSoC4/CapSense_Sensing.c ****                 CapSense_ISXSetupWidget(widgetId);
 331:Generated_Source\PSoC4/CapSense_Sensing.c ****                 break;
 332:Generated_Source\PSoC4/CapSense_Sensing.c ****         #endif
 333:Generated_Source\PSoC4/CapSense_Sensing.c ****         default:
 334:Generated_Source\PSoC4/CapSense_Sensing.c ****             /* Sensing method is invalid, return error to caller */
 335:Generated_Source\PSoC4/CapSense_Sensing.c ****             widgetStatus = CYRET_UNKNOWN;
 336:Generated_Source\PSoC4/CapSense_Sensing.c ****             break;
 337:Generated_Source\PSoC4/CapSense_Sensing.c ****         }
 338:Generated_Source\PSoC4/CapSense_Sensing.c ****     }
 339:Generated_Source\PSoC4/CapSense_Sensing.c ****     return (widgetStatus);
 340:Generated_Source\PSoC4/CapSense_Sensing.c **** }
  97              		.loc 1 340 0
  98 0026 1800     		movs	r0, r3
  99              		@ sp needed
 100 0028 10BD     		pop	{r4, pc}
 101              	.L13:
 102 002a C046     		.align	2
 103              	.L12:
 104 002c 00000000 		.word	CapSense_dsRam
 105              		.cfi_endproc
 106              	.LFE2:
 107              		.size	CapSense_SetupWidget, .-CapSense_SetupWidget
 108              		.section	.text.CapSense_Scan,"ax",%progbits
 109              		.align	1
 110              		.global	CapSense_Scan
 111              		.code	16
 112              		.thumb_func
ARM GAS  C:\Users\zack.li\AppData\Local\Temp\ccM7U1Od.s 			page 9


 113              		.type	CapSense_Scan, %function
 114              	CapSense_Scan:
 115              	.LFB3:
 341:Generated_Source\PSoC4/CapSense_Sensing.c **** 
 342:Generated_Source\PSoC4/CapSense_Sensing.c **** 
 343:Generated_Source\PSoC4/CapSense_Sensing.c **** /*******************************************************************************
 344:Generated_Source\PSoC4/CapSense_Sensing.c **** * Function Name: CapSense_Scan
 345:Generated_Source\PSoC4/CapSense_Sensing.c **** ****************************************************************************//**
 346:Generated_Source\PSoC4/CapSense_Sensing.c **** *
 347:Generated_Source\PSoC4/CapSense_Sensing.c **** * \brief
 348:Generated_Source\PSoC4/CapSense_Sensing.c **** *  Initiates scanning of all the sensors in the widget initialized by
 349:Generated_Source\PSoC4/CapSense_Sensing.c **** *  CapSense_SetupWidget(), if no scan is in progress.
 350:Generated_Source\PSoC4/CapSense_Sensing.c **** *
 351:Generated_Source\PSoC4/CapSense_Sensing.c **** * \details
 352:Generated_Source\PSoC4/CapSense_Sensing.c **** *  This function is called only after the CapSense_SetupWidget()
 353:Generated_Source\PSoC4/CapSense_Sensing.c **** *  function is called to start the scanning of the sensors in the widget. The
 354:Generated_Source\PSoC4/CapSense_Sensing.c **** *  status of a sensor scan must be checked using the CapSense_IsBusy()
 355:Generated_Source\PSoC4/CapSense_Sensing.c **** *  API prior to starting a next scan or setting up another widget.
 356:Generated_Source\PSoC4/CapSense_Sensing.c **** *
 357:Generated_Source\PSoC4/CapSense_Sensing.c **** * \return
 358:Generated_Source\PSoC4/CapSense_Sensing.c **** *  Returns the status of the scan initiation operation:
 359:Generated_Source\PSoC4/CapSense_Sensing.c **** *  - CYRET_SUCCESS - Scanning is successfully started.
 360:Generated_Source\PSoC4/CapSense_Sensing.c **** *  - CYRET_INVALID_STATE - The previous scanning is not completed and the
 361:Generated_Source\PSoC4/CapSense_Sensing.c **** *    hardware block is busy.
 362:Generated_Source\PSoC4/CapSense_Sensing.c **** *  - CYRET_UNKNOWN - An unknown sensing method is used by the widget.
 363:Generated_Source\PSoC4/CapSense_Sensing.c **** *
 364:Generated_Source\PSoC4/CapSense_Sensing.c **** ********************************************************************************/
 365:Generated_Source\PSoC4/CapSense_Sensing.c **** cystatus CapSense_Scan(void)
 366:Generated_Source\PSoC4/CapSense_Sensing.c **** {
 116              		.loc 1 366 0
 117              		.cfi_startproc
 118              		@ args = 0, pretend = 0, frame = 0
 119              		@ frame_needed = 0, uses_anonymous_args = 0
 120              	.LVL4:
 367:Generated_Source\PSoC4/CapSense_Sensing.c ****     cystatus scanStatus = CYRET_SUCCESS;
 368:Generated_Source\PSoC4/CapSense_Sensing.c **** 
 369:Generated_Source\PSoC4/CapSense_Sensing.c ****     if (CapSense_WDGT_SW_STS_BUSY == (CapSense_dsRam.status & CapSense_WDGT_SW_STS_BUSY))
 121              		.loc 1 369 0
 122 0000 094B     		ldr	r3, .L20
 366:Generated_Source\PSoC4/CapSense_Sensing.c ****     cystatus scanStatus = CYRET_SUCCESS;
 123              		.loc 1 366 0
 124 0002 10B5     		push	{r4, lr}
 125              		.cfi_def_cfa_offset 8
 126              		.cfi_offset 4, -8
 127              		.cfi_offset 14, -4
 128              		.loc 1 369 0
 129 0004 DC68     		ldr	r4, [r3, #12]
 130 0006 8023     		movs	r3, #128
 131 0008 5B02     		lsls	r3, r3, #9
 132 000a 1C40     		ands	r4, r3
 370:Generated_Source\PSoC4/CapSense_Sensing.c ****     {
 371:Generated_Source\PSoC4/CapSense_Sensing.c ****         /* Previous widget is being scanned. Return error. */
 372:Generated_Source\PSoC4/CapSense_Sensing.c ****         scanStatus = CYRET_INVALID_STATE;
 133              		.loc 1 372 0
 134 000c 1120     		movs	r0, #17
 369:Generated_Source\PSoC4/CapSense_Sensing.c ****     {
 135              		.loc 1 369 0
ARM GAS  C:\Users\zack.li\AppData\Local\Temp\ccM7U1Od.s 			page 10


 136 000e 002C     		cmp	r4, #0
 137 0010 09D1     		bne	.L15
 138              	.LBB8:
 139              	.LBB9:
 373:Generated_Source\PSoC4/CapSense_Sensing.c ****     }
 374:Generated_Source\PSoC4/CapSense_Sensing.c ****     else
 375:Generated_Source\PSoC4/CapSense_Sensing.c ****     {
 376:Generated_Source\PSoC4/CapSense_Sensing.c ****         switch (CapSense_currentSenseMethod)
 140              		.loc 1 376 0
 141 0012 064B     		ldr	r3, .L20+4
 142 0014 1B78     		ldrb	r3, [r3]
 143 0016 012B     		cmp	r3, #1
 144 0018 03D1     		bne	.L19
 377:Generated_Source\PSoC4/CapSense_Sensing.c ****         {
 378:Generated_Source\PSoC4/CapSense_Sensing.c ****         #if (CapSense_ENABLE == CapSense_CSX_EN)
 379:Generated_Source\PSoC4/CapSense_Sensing.c ****             case CapSense_SENSE_METHOD_CSX_E:
 380:Generated_Source\PSoC4/CapSense_Sensing.c ****                 CapSense_CSXScan();
 381:Generated_Source\PSoC4/CapSense_Sensing.c ****                 break;
 382:Generated_Source\PSoC4/CapSense_Sensing.c ****         #endif
 383:Generated_Source\PSoC4/CapSense_Sensing.c ****         #if (CapSense_ENABLE == CapSense_CSD_EN)
 384:Generated_Source\PSoC4/CapSense_Sensing.c ****             case CapSense_SENSE_METHOD_CSD_E:
 385:Generated_Source\PSoC4/CapSense_Sensing.c ****                 CapSense_CSDScan();
 145              		.loc 1 385 0
 146 001a FFF7FEFF 		bl	CapSense_CSDScan
 147              	.LVL5:
 367:Generated_Source\PSoC4/CapSense_Sensing.c **** 
 148              		.loc 1 367 0
 149 001e 2000     		movs	r0, r4
 150 0020 01E0     		b	.L15
 151              	.L19:
 386:Generated_Source\PSoC4/CapSense_Sensing.c ****                 break;
 387:Generated_Source\PSoC4/CapSense_Sensing.c ****         #endif
 388:Generated_Source\PSoC4/CapSense_Sensing.c ****         #if (CapSense_ENABLE == CapSense_ISX_EN)
 389:Generated_Source\PSoC4/CapSense_Sensing.c ****             case CapSense_SENSE_METHOD_ISX_E:
 390:Generated_Source\PSoC4/CapSense_Sensing.c ****                 CapSense_ISXScan();
 391:Generated_Source\PSoC4/CapSense_Sensing.c ****                 break;
 392:Generated_Source\PSoC4/CapSense_Sensing.c ****         #endif
 393:Generated_Source\PSoC4/CapSense_Sensing.c ****         default:
 394:Generated_Source\PSoC4/CapSense_Sensing.c ****             scanStatus = CYRET_UNKNOWN;
 152              		.loc 1 394 0
 153 0022 0120     		movs	r0, #1
 154 0024 4042     		rsbs	r0, r0, #0
 155              	.L15:
 156              	.LVL6:
 157              	.LBE9:
 158              	.LBE8:
 395:Generated_Source\PSoC4/CapSense_Sensing.c ****             break;
 396:Generated_Source\PSoC4/CapSense_Sensing.c ****         }
 397:Generated_Source\PSoC4/CapSense_Sensing.c ****     }
 398:Generated_Source\PSoC4/CapSense_Sensing.c ****     return (scanStatus);
 399:Generated_Source\PSoC4/CapSense_Sensing.c **** }
 159              		.loc 1 399 0
 160              		@ sp needed
 161 0026 10BD     		pop	{r4, pc}
 162              	.L21:
 163              		.align	2
 164              	.L20:
ARM GAS  C:\Users\zack.li\AppData\Local\Temp\ccM7U1Od.s 			page 11


 165 0028 00000000 		.word	CapSense_dsRam
 166 002c 00000000 		.word	.LANCHOR0
 167              		.cfi_endproc
 168              	.LFE3:
 169              		.size	CapSense_Scan, .-CapSense_Scan
 170              		.section	.text.CapSense_ScanAllWidgets,"ax",%progbits
 171              		.align	1
 172              		.global	CapSense_ScanAllWidgets
 173              		.code	16
 174              		.thumb_func
 175              		.type	CapSense_ScanAllWidgets, %function
 176              	CapSense_ScanAllWidgets:
 177              	.LFB4:
 400:Generated_Source\PSoC4/CapSense_Sensing.c **** 
 401:Generated_Source\PSoC4/CapSense_Sensing.c **** 
 402:Generated_Source\PSoC4/CapSense_Sensing.c **** /*******************************************************************************
 403:Generated_Source\PSoC4/CapSense_Sensing.c **** * Function Name: CapSense_ScanAllWidgets
 404:Generated_Source\PSoC4/CapSense_Sensing.c **** ****************************************************************************//**
 405:Generated_Source\PSoC4/CapSense_Sensing.c **** *
 406:Generated_Source\PSoC4/CapSense_Sensing.c **** * \brief
 407:Generated_Source\PSoC4/CapSense_Sensing.c **** *  Initializes the first enabled widget and scanning of all the sensors in the
 408:Generated_Source\PSoC4/CapSense_Sensing.c **** *  widget, then the same process is repeated for all the widgets in the Component,
 409:Generated_Source\PSoC4/CapSense_Sensing.c **** *  i.e. scanning of all the widgets in the Component.
 410:Generated_Source\PSoC4/CapSense_Sensing.c **** *
 411:Generated_Source\PSoC4/CapSense_Sensing.c **** * \details
 412:Generated_Source\PSoC4/CapSense_Sensing.c **** *  This function initializes a widget and scans all the sensors in the widget,
 413:Generated_Source\PSoC4/CapSense_Sensing.c **** *  and then repeats the same for all the widgets in the Component. The tasks of
 414:Generated_Source\PSoC4/CapSense_Sensing.c **** *  the CapSense_SetupWidget() and CapSense_Scan() functions are
 415:Generated_Source\PSoC4/CapSense_Sensing.c **** *  executed by these functions. The status of a sensor scan must be checked
 416:Generated_Source\PSoC4/CapSense_Sensing.c **** *  using the CapSense_IsBusy() API prior to starting a next scan
 417:Generated_Source\PSoC4/CapSense_Sensing.c **** *  or setting up another widget.
 418:Generated_Source\PSoC4/CapSense_Sensing.c **** *
 419:Generated_Source\PSoC4/CapSense_Sensing.c **** * \return
 420:Generated_Source\PSoC4/CapSense_Sensing.c **** *  Returns the status of the operation:
 421:Generated_Source\PSoC4/CapSense_Sensing.c **** *  - CYRET_SUCCESS - Scanning is successfully started.
 422:Generated_Source\PSoC4/CapSense_Sensing.c **** *  - CYRET_BAD_PARAM - All the widgets are disabled.
 423:Generated_Source\PSoC4/CapSense_Sensing.c **** *  - CYRET_INVALID_STATE - The previous scanning is not completed and the HW block is busy.
 424:Generated_Source\PSoC4/CapSense_Sensing.c **** *  - CYRET_UNKNOWN - There are unknown errors.
 425:Generated_Source\PSoC4/CapSense_Sensing.c **** *
 426:Generated_Source\PSoC4/CapSense_Sensing.c **** *******************************************************************************/
 427:Generated_Source\PSoC4/CapSense_Sensing.c **** cystatus CapSense_ScanAllWidgets(void)
 428:Generated_Source\PSoC4/CapSense_Sensing.c **** {
 178              		.loc 1 428 0
 179              		.cfi_startproc
 180              		@ args = 0, pretend = 0, frame = 0
 181              		@ frame_needed = 0, uses_anonymous_args = 0
 182              	.LVL7:
 429:Generated_Source\PSoC4/CapSense_Sensing.c ****     cystatus scanStatus = CYRET_UNKNOWN;
 430:Generated_Source\PSoC4/CapSense_Sensing.c **** 
 431:Generated_Source\PSoC4/CapSense_Sensing.c ****     uint32 wdgtIndex;
 432:Generated_Source\PSoC4/CapSense_Sensing.c **** 
 433:Generated_Source\PSoC4/CapSense_Sensing.c ****     if (CapSense_SW_STS_BUSY == (CapSense_dsRam.status & CapSense_SW_STS_BUSY))
 183              		.loc 1 433 0
 184 0000 0C4B     		ldr	r3, .L30
 428:Generated_Source\PSoC4/CapSense_Sensing.c ****     cystatus scanStatus = CYRET_UNKNOWN;
 185              		.loc 1 428 0
 186 0002 10B5     		push	{r4, lr}
ARM GAS  C:\Users\zack.li\AppData\Local\Temp\ccM7U1Od.s 			page 12


 187              		.cfi_def_cfa_offset 8
 188              		.cfi_offset 4, -8
 189              		.cfi_offset 14, -4
 190              		.loc 1 433 0
 191 0004 DC68     		ldr	r4, [r3, #12]
 192 0006 8023     		movs	r3, #128
 434:Generated_Source\PSoC4/CapSense_Sensing.c ****     {
 435:Generated_Source\PSoC4/CapSense_Sensing.c ****         /* Previous widget is being scanned. Return error. */
 436:Generated_Source\PSoC4/CapSense_Sensing.c ****         scanStatus = CYRET_INVALID_STATE;
 193              		.loc 1 436 0
 194 0008 1120     		movs	r0, #17
 433:Generated_Source\PSoC4/CapSense_Sensing.c ****     {
 195              		.loc 1 433 0
 196 000a 1C40     		ands	r4, r3
 197 000c 11D1     		bne	.L23
 198              	.LVL8:
 199              	.L27:
 437:Generated_Source\PSoC4/CapSense_Sensing.c ****     }
 438:Generated_Source\PSoC4/CapSense_Sensing.c ****     else
 439:Generated_Source\PSoC4/CapSense_Sensing.c ****     {
 440:Generated_Source\PSoC4/CapSense_Sensing.c ****         /*
 441:Generated_Source\PSoC4/CapSense_Sensing.c ****          *  Set up widget first widget.
 442:Generated_Source\PSoC4/CapSense_Sensing.c ****          *  If widget returned error, set up next, continue same until widget does not return error
 443:Generated_Source\PSoC4/CapSense_Sensing.c ****          */
 444:Generated_Source\PSoC4/CapSense_Sensing.c ****         for (wdgtIndex = 0u;
 445:Generated_Source\PSoC4/CapSense_Sensing.c ****              wdgtIndex < CapSense_TOTAL_WIDGETS;
 446:Generated_Source\PSoC4/CapSense_Sensing.c ****              wdgtIndex++)
 447:Generated_Source\PSoC4/CapSense_Sensing.c ****         {
 448:Generated_Source\PSoC4/CapSense_Sensing.c **** 
 449:Generated_Source\PSoC4/CapSense_Sensing.c ****             scanStatus = CapSense_SetupWidget(wdgtIndex);
 200              		.loc 1 449 0
 201 000e 2000     		movs	r0, r4
 202 0010 FFF7FEFF 		bl	CapSense_SetupWidget
 203              	.LVL9:
 450:Generated_Source\PSoC4/CapSense_Sensing.c **** 
 451:Generated_Source\PSoC4/CapSense_Sensing.c ****             if (CYRET_SUCCESS == scanStatus)
 204              		.loc 1 451 0
 205 0014 0028     		cmp	r0, #0
 206 0016 09D1     		bne	.L24
 207 0018 074B     		ldr	r3, .L30+4
 452:Generated_Source\PSoC4/CapSense_Sensing.c ****             {
 453:Generated_Source\PSoC4/CapSense_Sensing.c ****                 #if (0u != (CapSense_TOTAL_WIDGETS - 1u))
 454:Generated_Source\PSoC4/CapSense_Sensing.c ****                     /* If there are more than one widget to be scanned, request callback to scan ne
 455:Generated_Source\PSoC4/CapSense_Sensing.c ****                     if ((CapSense_TOTAL_WIDGETS - 1u) > wdgtIndex)
 208              		.loc 1 455 0
 209 001a 032C     		cmp	r4, #3
 210 001c 02D0     		beq	.L25
 456:Generated_Source\PSoC4/CapSense_Sensing.c ****                     {
 457:Generated_Source\PSoC4/CapSense_Sensing.c ****                          /* Request callback to scan next widget in ISR */
 458:Generated_Source\PSoC4/CapSense_Sensing.c ****                         CapSense_requestScanAllWidget = CapSense_ENABLE;
 211              		.loc 1 458 0
 212 001e 0122     		movs	r2, #1
 213 0020 5A70     		strb	r2, [r3, #1]
 214 0022 00E0     		b	.L26
 215              	.L25:
 459:Generated_Source\PSoC4/CapSense_Sensing.c ****                     }
 460:Generated_Source\PSoC4/CapSense_Sensing.c ****                     else
ARM GAS  C:\Users\zack.li\AppData\Local\Temp\ccM7U1Od.s 			page 13


 461:Generated_Source\PSoC4/CapSense_Sensing.c ****                     {
 462:Generated_Source\PSoC4/CapSense_Sensing.c ****                         /* Request to exit in ISR (Do not scan the next widgets) */
 463:Generated_Source\PSoC4/CapSense_Sensing.c ****                         CapSense_requestScanAllWidget = CapSense_DISABLE;
 216              		.loc 1 463 0
 217 0024 5870     		strb	r0, [r3, #1]
 218              	.L26:
 464:Generated_Source\PSoC4/CapSense_Sensing.c ****                     }
 465:Generated_Source\PSoC4/CapSense_Sensing.c ****                 #else
 466:Generated_Source\PSoC4/CapSense_Sensing.c ****                     {
 467:Generated_Source\PSoC4/CapSense_Sensing.c ****                         /* Request to exit in ISR (We have only one widget) */
 468:Generated_Source\PSoC4/CapSense_Sensing.c ****                         CapSense_requestScanAllWidget = CapSense_DISABLE;
 469:Generated_Source\PSoC4/CapSense_Sensing.c ****                     }
 470:Generated_Source\PSoC4/CapSense_Sensing.c ****                 #endif  /* (0u != (CapSense_TOTAL_WIDGETS - 1u)) */
 471:Generated_Source\PSoC4/CapSense_Sensing.c **** 
 472:Generated_Source\PSoC4/CapSense_Sensing.c ****                 /* Initiate scan and quit loop */
 473:Generated_Source\PSoC4/CapSense_Sensing.c ****                 scanStatus = CapSense_Scan();
 219              		.loc 1 473 0
 220 0026 FFF7FEFF 		bl	CapSense_Scan
 221              	.LVL10:
 474:Generated_Source\PSoC4/CapSense_Sensing.c **** 
 475:Generated_Source\PSoC4/CapSense_Sensing.c ****                 break;
 222              		.loc 1 475 0
 223 002a 02E0     		b	.L23
 224              	.L24:
 446:Generated_Source\PSoC4/CapSense_Sensing.c ****         {
 225              		.loc 1 446 0
 226 002c 0134     		adds	r4, r4, #1
 227              	.LVL11:
 444:Generated_Source\PSoC4/CapSense_Sensing.c ****              wdgtIndex < CapSense_TOTAL_WIDGETS;
 228              		.loc 1 444 0
 229 002e 042C     		cmp	r4, #4
 230 0030 EDD1     		bne	.L27
 231              	.LVL12:
 232              	.L23:
 476:Generated_Source\PSoC4/CapSense_Sensing.c ****             }
 477:Generated_Source\PSoC4/CapSense_Sensing.c ****         }
 478:Generated_Source\PSoC4/CapSense_Sensing.c ****     }
 479:Generated_Source\PSoC4/CapSense_Sensing.c **** 
 480:Generated_Source\PSoC4/CapSense_Sensing.c ****     return (scanStatus);
 481:Generated_Source\PSoC4/CapSense_Sensing.c **** }
 233              		.loc 1 481 0
 234              		@ sp needed
 235 0032 10BD     		pop	{r4, pc}
 236              	.L31:
 237              		.align	2
 238              	.L30:
 239 0034 00000000 		.word	CapSense_dsRam
 240 0038 00000000 		.word	.LANCHOR0
 241              		.cfi_endproc
 242              	.LFE4:
 243              		.size	CapSense_ScanAllWidgets, .-CapSense_ScanAllWidgets
 244              		.section	.text.CapSense_SetupWidgetExt,"ax",%progbits
 245              		.align	1
 246              		.global	CapSense_SetupWidgetExt
 247              		.code	16
 248              		.thumb_func
 249              		.type	CapSense_SetupWidgetExt, %function
ARM GAS  C:\Users\zack.li\AppData\Local\Temp\ccM7U1Od.s 			page 14


 250              	CapSense_SetupWidgetExt:
 251              	.LFB5:
 482:Generated_Source\PSoC4/CapSense_Sensing.c **** 
 483:Generated_Source\PSoC4/CapSense_Sensing.c **** 
 484:Generated_Source\PSoC4/CapSense_Sensing.c **** /*******************************************************************************
 485:Generated_Source\PSoC4/CapSense_Sensing.c **** * Function Name: CapSense_SetupWidgetExt
 486:Generated_Source\PSoC4/CapSense_Sensing.c **** ****************************************************************************//**
 487:Generated_Source\PSoC4/CapSense_Sensing.c **** *
 488:Generated_Source\PSoC4/CapSense_Sensing.c **** * \brief
 489:Generated_Source\PSoC4/CapSense_Sensing.c **** *  Performs extended initialization for the specified widget and also performs
 490:Generated_Source\PSoC4/CapSense_Sensing.c **** *  initialization required for a specific sensor in the widget. This function
 491:Generated_Source\PSoC4/CapSense_Sensing.c **** *  requires using the CapSense_ScanExt() function to initiate a scan.
 492:Generated_Source\PSoC4/CapSense_Sensing.c **** *
 493:Generated_Source\PSoC4/CapSense_Sensing.c **** * \details
 494:Generated_Source\PSoC4/CapSense_Sensing.c **** *  This function does the same as CapSense_SetupWidget() and also
 495:Generated_Source\PSoC4/CapSense_Sensing.c **** *  does the following tasks:
 496:Generated_Source\PSoC4/CapSense_Sensing.c **** *    1. Connects the first sensor of the widget.
 497:Generated_Source\PSoC4/CapSense_Sensing.c **** *    2. Configures the CSD HW block to perform a scan of the specified sensor.
 498:Generated_Source\PSoC4/CapSense_Sensing.c **** *
 499:Generated_Source\PSoC4/CapSense_Sensing.c **** *  Once this function is called to initialize a widget and a sensor, the
 500:Generated_Source\PSoC4/CapSense_Sensing.c **** *  CapSense_ScanExt() function is called to scan the sensor.
 501:Generated_Source\PSoC4/CapSense_Sensing.c **** *
 502:Generated_Source\PSoC4/CapSense_Sensing.c **** *  This function is called when no scanning is in progress. I.e.
 503:Generated_Source\PSoC4/CapSense_Sensing.c **** *  CapSense_IsBusy() returns a non-busy status.
 504:Generated_Source\PSoC4/CapSense_Sensing.c **** *
 505:Generated_Source\PSoC4/CapSense_Sensing.c **** *  Calling this function directly from the application layer is not
 506:Generated_Source\PSoC4/CapSense_Sensing.c **** *  recommended. This function is used to implement only the user's specific
 507:Generated_Source\PSoC4/CapSense_Sensing.c **** *  use cases (for faster execution time or pipeline scanning for example).
 508:Generated_Source\PSoC4/CapSense_Sensing.c **** *
 509:Generated_Source\PSoC4/CapSense_Sensing.c **** * \param widgetId
 510:Generated_Source\PSoC4/CapSense_Sensing.c **** *  Specifies the ID number of the widget to perform hardware and firmware
 511:Generated_Source\PSoC4/CapSense_Sensing.c **** *  initialization required for scanning the specific sensor in the specific
 512:Generated_Source\PSoC4/CapSense_Sensing.c **** *  widget.
 513:Generated_Source\PSoC4/CapSense_Sensing.c **** *  A macro for the widget ID can be found in the CapSense
 514:Generated_Source\PSoC4/CapSense_Sensing.c **** *  Configuration header file defined as CapSense_<WidgetName>_WDGT_ID.
 515:Generated_Source\PSoC4/CapSense_Sensing.c **** *
 516:Generated_Source\PSoC4/CapSense_Sensing.c **** * \param sensorId
 517:Generated_Source\PSoC4/CapSense_Sensing.c **** *  Specifies the ID number of the sensor within the widget to perform hardware
 518:Generated_Source\PSoC4/CapSense_Sensing.c **** *  and firmware initialization required for scanning a specific sensor in a
 519:Generated_Source\PSoC4/CapSense_Sensing.c **** *  specific widget.
 520:Generated_Source\PSoC4/CapSense_Sensing.c **** *  A macro for the sensor ID within a specified widget can be found in the
 521:Generated_Source\PSoC4/CapSense_Sensing.c **** *  CapSense Configuration header file defined as
 522:Generated_Source\PSoC4/CapSense_Sensing.c **** *  CapSense_<WidgetName>_SNS<SensorNumber>_ID
 523:Generated_Source\PSoC4/CapSense_Sensing.c **** *
 524:Generated_Source\PSoC4/CapSense_Sensing.c **** * \return
 525:Generated_Source\PSoC4/CapSense_Sensing.c **** *  Returns the status of the operation:
 526:Generated_Source\PSoC4/CapSense_Sensing.c **** *  - CYRET_SUCCESS - The operation is successfully completed.
 527:Generated_Source\PSoC4/CapSense_Sensing.c **** *  - CYRET_BAD_PARAM - The widget is invalid or if the specified widget is
 528:Generated_Source\PSoC4/CapSense_Sensing.c **** *    disabled
 529:Generated_Source\PSoC4/CapSense_Sensing.c **** *  - CYRET_INVALID_STATE - The previous scanning is not completed and the
 530:Generated_Source\PSoC4/CapSense_Sensing.c **** *    hardware block is busy.
 531:Generated_Source\PSoC4/CapSense_Sensing.c **** *  - CYRET_UNKNOWN - An unknown sensing method is used by the widget or any
 532:Generated_Source\PSoC4/CapSense_Sensing.c **** *    other spurious error occurred.
 533:Generated_Source\PSoC4/CapSense_Sensing.c **** *
 534:Generated_Source\PSoC4/CapSense_Sensing.c **** *******************************************************************************/
 535:Generated_Source\PSoC4/CapSense_Sensing.c **** cystatus CapSense_SetupWidgetExt(uint32 widgetId, uint32 sensorId)
 536:Generated_Source\PSoC4/CapSense_Sensing.c **** {
ARM GAS  C:\Users\zack.li\AppData\Local\Temp\ccM7U1Od.s 			page 15


 252              		.loc 1 536 0
 253              		.cfi_startproc
 254              		@ args = 0, pretend = 0, frame = 0
 255              		@ frame_needed = 0, uses_anonymous_args = 0
 256              	.LVL13:
 537:Generated_Source\PSoC4/CapSense_Sensing.c ****     cystatus widgetStatus;
 538:Generated_Source\PSoC4/CapSense_Sensing.c **** 
 539:Generated_Source\PSoC4/CapSense_Sensing.c ****     if (CapSense_WDGT_SW_STS_BUSY == (CapSense_dsRam.status & CapSense_WDGT_SW_STS_BUSY))
 257              		.loc 1 539 0
 258 0000 8022     		movs	r2, #128
 259 0002 0D4B     		ldr	r3, .L41
 536:Generated_Source\PSoC4/CapSense_Sensing.c ****     cystatus widgetStatus;
 260              		.loc 1 536 0
 261 0004 70B5     		push	{r4, r5, r6, lr}
 262              		.cfi_def_cfa_offset 16
 263              		.cfi_offset 4, -16
 264              		.cfi_offset 5, -12
 265              		.cfi_offset 6, -8
 266              		.cfi_offset 14, -4
 267              		.loc 1 539 0
 268 0006 DC68     		ldr	r4, [r3, #12]
 269 0008 5202     		lsls	r2, r2, #9
 270 000a 1440     		ands	r4, r2
 540:Generated_Source\PSoC4/CapSense_Sensing.c ****     {
 541:Generated_Source\PSoC4/CapSense_Sensing.c ****         /* Previous widget is being scanned. Return error. */
 542:Generated_Source\PSoC4/CapSense_Sensing.c ****         widgetStatus = CYRET_INVALID_STATE;
 271              		.loc 1 542 0
 272 000c 1122     		movs	r2, #17
 539:Generated_Source\PSoC4/CapSense_Sensing.c ****     {
 273              		.loc 1 539 0
 274 000e 002C     		cmp	r4, #0
 275 0010 10D1     		bne	.L39
 276 0012 103A     		subs	r2, r2, #16
 543:Generated_Source\PSoC4/CapSense_Sensing.c ****     }
 544:Generated_Source\PSoC4/CapSense_Sensing.c ****     /*
 545:Generated_Source\PSoC4/CapSense_Sensing.c ****      *  Check if widget id is valid, specified widget is enabled and widget did not
 546:Generated_Source\PSoC4/CapSense_Sensing.c ****      *  detect any fault conditions if BIST is enabled. If all conditions are met,
 547:Generated_Source\PSoC4/CapSense_Sensing.c ****      *  set widgetStatus as good, if not, set widgetStatus as bad.
 548:Generated_Source\PSoC4/CapSense_Sensing.c ****      */
 549:Generated_Source\PSoC4/CapSense_Sensing.c ****     else if ((CapSense_TOTAL_WIDGETS > widgetId) &&
 277              		.loc 1 549 0
 278 0014 0328     		cmp	r0, #3
 279 0016 0DD8     		bhi	.L39
 280              		.loc 1 549 0 is_stmt 0 discriminator 1
 281 0018 1B69     		ldr	r3, [r3, #16]
 282 001a C340     		lsrs	r3, r3, r0
 283 001c 1342     		tst	r3, r2
 284 001e 09D0     		beq	.L39
 550:Generated_Source\PSoC4/CapSense_Sensing.c ****         (0uL != CapSense_GET_WIDGET_EN_STATUS(widgetId)) &&
 551:Generated_Source\PSoC4/CapSense_Sensing.c ****         (sensorId < CapSense_GET_SENSOR_COUNT(widgetId)))
 285              		.loc 1 551 0 is_stmt 1
 286 0020 1C23     		movs	r3, #28
 287 0022 4343     		muls	r3, r0
 288 0024 054D     		ldr	r5, .L41+4
 289 0026 EB18     		adds	r3, r5, r3
 550:Generated_Source\PSoC4/CapSense_Sensing.c ****         (0uL != CapSense_GET_WIDGET_EN_STATUS(widgetId)) &&
 290              		.loc 1 550 0
ARM GAS  C:\Users\zack.li\AppData\Local\Temp\ccM7U1Od.s 			page 16


 291 0028 1B8B     		ldrh	r3, [r3, #24]
 292 002a 8B42     		cmp	r3, r1
 293 002c 02D9     		bls	.L39
 294              	.LVL14:
 552:Generated_Source\PSoC4/CapSense_Sensing.c **** 
 553:Generated_Source\PSoC4/CapSense_Sensing.c ****     {
 554:Generated_Source\PSoC4/CapSense_Sensing.c ****         widgetStatus = CYRET_SUCCESS;
 555:Generated_Source\PSoC4/CapSense_Sensing.c ****     }
 556:Generated_Source\PSoC4/CapSense_Sensing.c ****     else
 557:Generated_Source\PSoC4/CapSense_Sensing.c ****     {
 558:Generated_Source\PSoC4/CapSense_Sensing.c ****         widgetStatus = CYRET_BAD_PARAM;
 559:Generated_Source\PSoC4/CapSense_Sensing.c ****     }
 560:Generated_Source\PSoC4/CapSense_Sensing.c **** 
 561:Generated_Source\PSoC4/CapSense_Sensing.c ****     /*
 562:Generated_Source\PSoC4/CapSense_Sensing.c ****      * Check widgetStatus flag that is set earlier, if flag is good, then set up only
 563:Generated_Source\PSoC4/CapSense_Sensing.c ****      * widget
 564:Generated_Source\PSoC4/CapSense_Sensing.c ****      */
 565:Generated_Source\PSoC4/CapSense_Sensing.c ****     if (CYRET_SUCCESS == widgetStatus)
 566:Generated_Source\PSoC4/CapSense_Sensing.c ****     {
 567:Generated_Source\PSoC4/CapSense_Sensing.c ****         switch (CapSense_GET_SENSE_METHOD(&CapSense_dsFlash.wdgtArray[widgetId]))
 568:Generated_Source\PSoC4/CapSense_Sensing.c ****         {
 569:Generated_Source\PSoC4/CapSense_Sensing.c ****         #if (CapSense_ENABLE == CapSense_CSX_EN)
 570:Generated_Source\PSoC4/CapSense_Sensing.c ****             case CapSense_SENSE_METHOD_CSX_E:
 571:Generated_Source\PSoC4/CapSense_Sensing.c ****                 /* Set up widget for CSX scan */
 572:Generated_Source\PSoC4/CapSense_Sensing.c ****                 CapSense_CSXSetupWidgetExt(widgetId, sensorId);
 573:Generated_Source\PSoC4/CapSense_Sensing.c ****                 break;
 574:Generated_Source\PSoC4/CapSense_Sensing.c ****         #endif
 575:Generated_Source\PSoC4/CapSense_Sensing.c ****         #if (CapSense_ENABLE == CapSense_CSD_EN)
 576:Generated_Source\PSoC4/CapSense_Sensing.c ****             case CapSense_SENSE_METHOD_CSD_E:
 577:Generated_Source\PSoC4/CapSense_Sensing.c ****                 /* Set up widget for CSD scan */
 578:Generated_Source\PSoC4/CapSense_Sensing.c ****                 CapSense_CSDSetupWidgetExt(widgetId, sensorId);
 295              		.loc 1 578 0
 296 002e FFF7FEFF 		bl	CapSense_CSDSetupWidgetExt
 297              	.LVL15:
 554:Generated_Source\PSoC4/CapSense_Sensing.c ****     }
 298              		.loc 1 554 0
 299 0032 2200     		movs	r2, r4
 300              	.LVL16:
 301              	.L39:
 579:Generated_Source\PSoC4/CapSense_Sensing.c ****                 break;
 580:Generated_Source\PSoC4/CapSense_Sensing.c ****         #endif
 581:Generated_Source\PSoC4/CapSense_Sensing.c ****         #if (CapSense_ENABLE == CapSense_ISX_EN)
 582:Generated_Source\PSoC4/CapSense_Sensing.c ****             case CapSense_SENSE_METHOD_ISX_E:
 583:Generated_Source\PSoC4/CapSense_Sensing.c ****                 /* Set up widget for ISX scan */
 584:Generated_Source\PSoC4/CapSense_Sensing.c ****                 CapSense_ISXSetupWidgetExt(widgetId, sensorId);
 585:Generated_Source\PSoC4/CapSense_Sensing.c ****                 break;
 586:Generated_Source\PSoC4/CapSense_Sensing.c ****         #endif
 587:Generated_Source\PSoC4/CapSense_Sensing.c ****         default:
 588:Generated_Source\PSoC4/CapSense_Sensing.c ****             /* Sensing method is invalid, return error to caller */
 589:Generated_Source\PSoC4/CapSense_Sensing.c ****             widgetStatus = CYRET_UNKNOWN;
 590:Generated_Source\PSoC4/CapSense_Sensing.c ****             break;
 591:Generated_Source\PSoC4/CapSense_Sensing.c ****         }
 592:Generated_Source\PSoC4/CapSense_Sensing.c ****     }
 593:Generated_Source\PSoC4/CapSense_Sensing.c ****     return (widgetStatus);
 594:Generated_Source\PSoC4/CapSense_Sensing.c **** }
 302              		.loc 1 594 0
 303 0034 1000     		movs	r0, r2
ARM GAS  C:\Users\zack.li\AppData\Local\Temp\ccM7U1Od.s 			page 17


 304              		@ sp needed
 305 0036 70BD     		pop	{r4, r5, r6, pc}
 306              	.L42:
 307              		.align	2
 308              	.L41:
 309 0038 00000000 		.word	CapSense_dsRam
 310 003c 00000000 		.word	CapSense_dsFlash
 311              		.cfi_endproc
 312              	.LFE5:
 313              		.size	CapSense_SetupWidgetExt, .-CapSense_SetupWidgetExt
 314              		.section	.text.CapSense_ScanExt,"ax",%progbits
 315              		.align	1
 316              		.global	CapSense_ScanExt
 317              		.code	16
 318              		.thumb_func
 319              		.type	CapSense_ScanExt, %function
 320              	CapSense_ScanExt:
 321              	.LFB6:
 595:Generated_Source\PSoC4/CapSense_Sensing.c **** 
 596:Generated_Source\PSoC4/CapSense_Sensing.c **** 
 597:Generated_Source\PSoC4/CapSense_Sensing.c **** /*******************************************************************************
 598:Generated_Source\PSoC4/CapSense_Sensing.c **** * Function Name: CapSense_ScanExt
 599:Generated_Source\PSoC4/CapSense_Sensing.c **** ****************************************************************************//**
 600:Generated_Source\PSoC4/CapSense_Sensing.c **** *
 601:Generated_Source\PSoC4/CapSense_Sensing.c **** * \brief
 602:Generated_Source\PSoC4/CapSense_Sensing.c **** *  Starts a conversion on the pre-configured sensor. This function requires
 603:Generated_Source\PSoC4/CapSense_Sensing.c **** *  using the CapSense_SetupWidgetExt() function to set up the a
 604:Generated_Source\PSoC4/CapSense_Sensing.c **** *  widget.
 605:Generated_Source\PSoC4/CapSense_Sensing.c **** *
 606:Generated_Source\PSoC4/CapSense_Sensing.c **** * \details
 607:Generated_Source\PSoC4/CapSense_Sensing.c **** *  This function performs single scanning of one sensor in the widget configured
 608:Generated_Source\PSoC4/CapSense_Sensing.c **** *  by the CapSense_SetupWidgetExt() function.
 609:Generated_Source\PSoC4/CapSense_Sensing.c **** *
 610:Generated_Source\PSoC4/CapSense_Sensing.c **** *  Calling this function directly from the application layer is not
 611:Generated_Source\PSoC4/CapSense_Sensing.c **** *  recommended. This function is used to implement only the user's specific
 612:Generated_Source\PSoC4/CapSense_Sensing.c **** *  use cases (for faster execution time or pipeline scanning for example).
 613:Generated_Source\PSoC4/CapSense_Sensing.c **** *  This function is called when no scanning is in progress. I.e.
 614:Generated_Source\PSoC4/CapSense_Sensing.c **** *  CapSense_IsBusy() returns a non-busy status.
 615:Generated_Source\PSoC4/CapSense_Sensing.c **** *
 616:Generated_Source\PSoC4/CapSense_Sensing.c **** *  The sensor must be preconfigured by using the
 617:Generated_Source\PSoC4/CapSense_Sensing.c **** *  CapSense_SetupWidgetExt() API prior to calling this function.
 618:Generated_Source\PSoC4/CapSense_Sensing.c **** *  The sensor remains ready for a next scan if a previous scan was triggered
 619:Generated_Source\PSoC4/CapSense_Sensing.c **** *  by using the CapSense_ScanExt() function. In this case, calling
 620:Generated_Source\PSoC4/CapSense_Sensing.c **** *  CapSense_SetupWidgetExt() is not required every time before the
 621:Generated_Source\PSoC4/CapSense_Sensing.c **** *  CapSense_ScanExt() function. If a previous scan was triggered in
 622:Generated_Source\PSoC4/CapSense_Sensing.c **** *  any other way - CapSense_Scan(), CapSense_ScanAllWidgets() or
 623:Generated_Source\PSoC4/CapSense_Sensing.c **** *  CapSense_RunTuner() - (see the CapSense_RunTuner() function
 624:Generated_Source\PSoC4/CapSense_Sensing.c **** *  description for more details), the sensor must be preconfigured again by
 625:Generated_Source\PSoC4/CapSense_Sensing.c **** *  using the CapSense_SetupWidgetExt() API prior to calling the
 626:Generated_Source\PSoC4/CapSense_Sensing.c **** *  CapSense_ScanExt() function.
 627:Generated_Source\PSoC4/CapSense_Sensing.c **** *
 628:Generated_Source\PSoC4/CapSense_Sensing.c **** *  If disconnection of the sensors is required after calling
 629:Generated_Source\PSoC4/CapSense_Sensing.c **** *  CapSense_ScanExt(), the CapSense_CSDDisconnectSns() or
 630:Generated_Source\PSoC4/CapSense_Sensing.c **** *  CapSense_CSXDisconnectTx() or CapSense_CSXDisconnectRx()
 631:Generated_Source\PSoC4/CapSense_Sensing.c **** *  functions can be used.
 632:Generated_Source\PSoC4/CapSense_Sensing.c **** *
 633:Generated_Source\PSoC4/CapSense_Sensing.c **** * \return
ARM GAS  C:\Users\zack.li\AppData\Local\Temp\ccM7U1Od.s 			page 18


 634:Generated_Source\PSoC4/CapSense_Sensing.c **** *  Returns the status of the scan initiation operation:
 635:Generated_Source\PSoC4/CapSense_Sensing.c **** *  - CYRET_SUCCESS - Scanning is successfully started.
 636:Generated_Source\PSoC4/CapSense_Sensing.c **** *  - CYRET_INVALID_STATE - The previous scanning is not completed and the
 637:Generated_Source\PSoC4/CapSense_Sensing.c **** *    hardware block is busy.
 638:Generated_Source\PSoC4/CapSense_Sensing.c **** *  - CYRET_UNKNOWN - An unknown sensing method is used by the widget.
 639:Generated_Source\PSoC4/CapSense_Sensing.c **** *
 640:Generated_Source\PSoC4/CapSense_Sensing.c **** *******************************************************************************/
 641:Generated_Source\PSoC4/CapSense_Sensing.c **** cystatus CapSense_ScanExt(void)
 642:Generated_Source\PSoC4/CapSense_Sensing.c **** {
 322              		.loc 1 642 0
 323              		.cfi_startproc
 324              		@ args = 0, pretend = 0, frame = 0
 325              		@ frame_needed = 0, uses_anonymous_args = 0
 326              	.LVL17:
 643:Generated_Source\PSoC4/CapSense_Sensing.c ****     cystatus scanStatus = CYRET_SUCCESS;
 644:Generated_Source\PSoC4/CapSense_Sensing.c **** 
 645:Generated_Source\PSoC4/CapSense_Sensing.c ****     if (CapSense_WDGT_SW_STS_BUSY == (CapSense_dsRam.status & CapSense_WDGT_SW_STS_BUSY))
 327              		.loc 1 645 0
 328 0000 094B     		ldr	r3, .L49
 642:Generated_Source\PSoC4/CapSense_Sensing.c ****     cystatus scanStatus = CYRET_SUCCESS;
 329              		.loc 1 642 0
 330 0002 10B5     		push	{r4, lr}
 331              		.cfi_def_cfa_offset 8
 332              		.cfi_offset 4, -8
 333              		.cfi_offset 14, -4
 334              		.loc 1 645 0
 335 0004 DC68     		ldr	r4, [r3, #12]
 336 0006 8023     		movs	r3, #128
 337 0008 5B02     		lsls	r3, r3, #9
 338 000a 1C40     		ands	r4, r3
 646:Generated_Source\PSoC4/CapSense_Sensing.c ****     {
 647:Generated_Source\PSoC4/CapSense_Sensing.c ****         /* Previous widget is being scanned. Return error. */
 648:Generated_Source\PSoC4/CapSense_Sensing.c ****         scanStatus = CYRET_INVALID_STATE;
 339              		.loc 1 648 0
 340 000c 1120     		movs	r0, #17
 645:Generated_Source\PSoC4/CapSense_Sensing.c ****     {
 341              		.loc 1 645 0
 342 000e 002C     		cmp	r4, #0
 343 0010 09D1     		bne	.L44
 649:Generated_Source\PSoC4/CapSense_Sensing.c ****     }
 650:Generated_Source\PSoC4/CapSense_Sensing.c ****     else
 651:Generated_Source\PSoC4/CapSense_Sensing.c ****     {
 652:Generated_Source\PSoC4/CapSense_Sensing.c ****         switch (CapSense_currentSenseMethod)
 344              		.loc 1 652 0
 345 0012 064B     		ldr	r3, .L49+4
 346 0014 1B78     		ldrb	r3, [r3]
 347 0016 012B     		cmp	r3, #1
 348 0018 03D1     		bne	.L48
 653:Generated_Source\PSoC4/CapSense_Sensing.c ****         {
 654:Generated_Source\PSoC4/CapSense_Sensing.c ****         #if (CapSense_ENABLE == CapSense_CSX_EN)
 655:Generated_Source\PSoC4/CapSense_Sensing.c ****             case CapSense_SENSE_METHOD_CSX_E:
 656:Generated_Source\PSoC4/CapSense_Sensing.c ****                 CapSense_CSXScanExt();
 657:Generated_Source\PSoC4/CapSense_Sensing.c ****                 break;
 658:Generated_Source\PSoC4/CapSense_Sensing.c ****         #endif
 659:Generated_Source\PSoC4/CapSense_Sensing.c ****         #if (CapSense_ENABLE == CapSense_CSD_EN)
 660:Generated_Source\PSoC4/CapSense_Sensing.c ****             case CapSense_SENSE_METHOD_CSD_E:
 661:Generated_Source\PSoC4/CapSense_Sensing.c ****                 CapSense_CSDScanExt();
ARM GAS  C:\Users\zack.li\AppData\Local\Temp\ccM7U1Od.s 			page 19


 349              		.loc 1 661 0
 350 001a FFF7FEFF 		bl	CapSense_CSDScanExt
 351              	.LVL18:
 643:Generated_Source\PSoC4/CapSense_Sensing.c **** 
 352              		.loc 1 643 0
 353 001e 2000     		movs	r0, r4
 662:Generated_Source\PSoC4/CapSense_Sensing.c ****                 break;
 354              		.loc 1 662 0
 355 0020 01E0     		b	.L44
 356              	.L48:
 663:Generated_Source\PSoC4/CapSense_Sensing.c ****         #endif
 664:Generated_Source\PSoC4/CapSense_Sensing.c ****         #if (CapSense_ENABLE == CapSense_ISX_EN)
 665:Generated_Source\PSoC4/CapSense_Sensing.c ****             case CapSense_SENSE_METHOD_ISX_E:
 666:Generated_Source\PSoC4/CapSense_Sensing.c ****                 CapSense_ISXScanExt();
 667:Generated_Source\PSoC4/CapSense_Sensing.c ****                 break;
 668:Generated_Source\PSoC4/CapSense_Sensing.c ****         #endif
 669:Generated_Source\PSoC4/CapSense_Sensing.c ****         default:
 670:Generated_Source\PSoC4/CapSense_Sensing.c ****             scanStatus = CYRET_UNKNOWN;
 357              		.loc 1 670 0
 358 0022 0120     		movs	r0, #1
 359 0024 4042     		rsbs	r0, r0, #0
 360              	.L44:
 361              	.LVL19:
 671:Generated_Source\PSoC4/CapSense_Sensing.c ****             break;
 672:Generated_Source\PSoC4/CapSense_Sensing.c ****         }
 673:Generated_Source\PSoC4/CapSense_Sensing.c ****     }
 674:Generated_Source\PSoC4/CapSense_Sensing.c ****     return (scanStatus);
 675:Generated_Source\PSoC4/CapSense_Sensing.c **** }
 362              		.loc 1 675 0
 363              		@ sp needed
 364 0026 10BD     		pop	{r4, pc}
 365              	.L50:
 366              		.align	2
 367              	.L49:
 368 0028 00000000 		.word	CapSense_dsRam
 369 002c 00000000 		.word	.LANCHOR0
 370              		.cfi_endproc
 371              	.LFE6:
 372              		.size	CapSense_ScanExt, .-CapSense_ScanExt
 373              		.section	.text.CapSense_SetPinState,"ax",%progbits
 374              		.align	1
 375              		.global	CapSense_SetPinState
 376              		.code	16
 377              		.thumb_func
 378              		.type	CapSense_SetPinState, %function
 379              	CapSense_SetPinState:
 380              	.LFB8:
 676:Generated_Source\PSoC4/CapSense_Sensing.c **** 
 677:Generated_Source\PSoC4/CapSense_Sensing.c **** 
 678:Generated_Source\PSoC4/CapSense_Sensing.c **** /*******************************************************************************
 679:Generated_Source\PSoC4/CapSense_Sensing.c **** * Function Name: CapSense_SsInitialize
 680:Generated_Source\PSoC4/CapSense_Sensing.c **** ****************************************************************************//**
 681:Generated_Source\PSoC4/CapSense_Sensing.c **** *
 682:Generated_Source\PSoC4/CapSense_Sensing.c **** * \brief
 683:Generated_Source\PSoC4/CapSense_Sensing.c **** *  Performs hardware and firmware initialization required for proper operation
 684:Generated_Source\PSoC4/CapSense_Sensing.c **** *  of the CapSense Component. This function is called from
 685:Generated_Source\PSoC4/CapSense_Sensing.c **** *  the CapSense_Start() API prior to calling any other APIs of the Component.
ARM GAS  C:\Users\zack.li\AppData\Local\Temp\ccM7U1Od.s 			page 20


 686:Generated_Source\PSoC4/CapSense_Sensing.c **** *
 687:Generated_Source\PSoC4/CapSense_Sensing.c **** * \details
 688:Generated_Source\PSoC4/CapSense_Sensing.c **** *  Performs hardware and firmware initialization required for proper operation
 689:Generated_Source\PSoC4/CapSense_Sensing.c **** *  of the CapSense Component. This function is called from
 690:Generated_Source\PSoC4/CapSense_Sensing.c **** *  the CapSense_Start() API prior to calling any other APIs of the Component.
 691:Generated_Source\PSoC4/CapSense_Sensing.c **** *  1. Depending on the configuration, the function initializes the CSD block
 692:Generated_Source\PSoC4/CapSense_Sensing.c **** *     for the corresponding sensing mode.
 693:Generated_Source\PSoC4/CapSense_Sensing.c **** *  2. The function updates the dsRam.wdgtWorking variable with 1 when Self-test
 694:Generated_Source\PSoC4/CapSense_Sensing.c **** *     is enabled.
 695:Generated_Source\PSoC4/CapSense_Sensing.c **** *
 696:Generated_Source\PSoC4/CapSense_Sensing.c **** *  Calling the CapSense_Start API is the recommended method to initialize
 697:Generated_Source\PSoC4/CapSense_Sensing.c **** *  the CapSense Component at power-up. The CapSense_SsInitialize()
 698:Generated_Source\PSoC4/CapSense_Sensing.c **** *  API should not be used for initialization, resume, or wake-up operations.
 699:Generated_Source\PSoC4/CapSense_Sensing.c **** *  The dsRam.wdgtWorking variable is updated.
 700:Generated_Source\PSoC4/CapSense_Sensing.c **** *
 701:Generated_Source\PSoC4/CapSense_Sensing.c **** * \return status
 702:Generated_Source\PSoC4/CapSense_Sensing.c **** *  Returns status of operation:
 703:Generated_Source\PSoC4/CapSense_Sensing.c **** *  - Zero        - Indicates successful initialization.
 704:Generated_Source\PSoC4/CapSense_Sensing.c **** *  - Non-zero    - One or more errors occurred in the initialization process.
 705:Generated_Source\PSoC4/CapSense_Sensing.c **** *
 706:Generated_Source\PSoC4/CapSense_Sensing.c **** *******************************************************************************/
 707:Generated_Source\PSoC4/CapSense_Sensing.c **** cystatus CapSense_SsInitialize(void)
 708:Generated_Source\PSoC4/CapSense_Sensing.c **** {
 709:Generated_Source\PSoC4/CapSense_Sensing.c ****     cystatus initStatus;
 710:Generated_Source\PSoC4/CapSense_Sensing.c **** 
 711:Generated_Source\PSoC4/CapSense_Sensing.c ****     #if ((CapSense_ENABLE == CapSense_MULTI_FREQ_SCAN_EN) &&\
 712:Generated_Source\PSoC4/CapSense_Sensing.c ****          (CapSense_MFS_IMO == CapSense_MFS_METHOD))
 713:Generated_Source\PSoC4/CapSense_Sensing.c ****         uint8 centerFreqTrim;
 714:Generated_Source\PSoC4/CapSense_Sensing.c **** 
 715:Generated_Source\PSoC4/CapSense_Sensing.c ****         centerFreqTrim = (uint8)CY_GET_REG32(CY_SYS_CLK_IMO_TRIM1_PTR);
 716:Generated_Source\PSoC4/CapSense_Sensing.c ****         CapSense_immunity[CapSense_FREQ_CHANNEL_0] = centerFreqTrim;
 717:Generated_Source\PSoC4/CapSense_Sensing.c **** 
 718:Generated_Source\PSoC4/CapSense_Sensing.c ****         if (centerFreqTrim < CapSense_IMO_FREQUENCY_OFFSET_F1)
 719:Generated_Source\PSoC4/CapSense_Sensing.c ****         {
 720:Generated_Source\PSoC4/CapSense_Sensing.c ****             CapSense_immunity[CapSense_FREQ_CHANNEL_1] = centerFreqTrim + CapSense_IMO_FREQUENCY_OF
 721:Generated_Source\PSoC4/CapSense_Sensing.c ****             CapSense_immunity[CapSense_FREQ_CHANNEL_2] = centerFreqTrim + (CapSense_IMO_FREQUENCY_O
 722:Generated_Source\PSoC4/CapSense_Sensing.c ****                                                                                            CapSense
 723:Generated_Source\PSoC4/CapSense_Sensing.c ****         }
 724:Generated_Source\PSoC4/CapSense_Sensing.c ****         else if (centerFreqTrim > (CapSense_IMO_FREQUENCY_OFFSET_MAX - CapSense_IMO_FREQUENCY_OFFSE
 725:Generated_Source\PSoC4/CapSense_Sensing.c ****         {
 726:Generated_Source\PSoC4/CapSense_Sensing.c ****             CapSense_immunity[CapSense_FREQ_CHANNEL_1] = centerFreqTrim - CapSense_IMO_FREQUENCY_OF
 727:Generated_Source\PSoC4/CapSense_Sensing.c ****             CapSense_immunity[CapSense_FREQ_CHANNEL_2] = centerFreqTrim - (CapSense_IMO_FREQUENCY_O
 728:Generated_Source\PSoC4/CapSense_Sensing.c ****                                                                                            CapSense
 729:Generated_Source\PSoC4/CapSense_Sensing.c ****         }
 730:Generated_Source\PSoC4/CapSense_Sensing.c ****         else
 731:Generated_Source\PSoC4/CapSense_Sensing.c ****         {
 732:Generated_Source\PSoC4/CapSense_Sensing.c ****             CapSense_immunity[CapSense_FREQ_CHANNEL_1] = centerFreqTrim - CapSense_IMO_FREQUENCY_OF
 733:Generated_Source\PSoC4/CapSense_Sensing.c ****             CapSense_immunity[CapSense_FREQ_CHANNEL_2] = centerFreqTrim + CapSense_IMO_FREQUENCY_OF
 734:Generated_Source\PSoC4/CapSense_Sensing.c ****         }
 735:Generated_Source\PSoC4/CapSense_Sensing.c **** 
 736:Generated_Source\PSoC4/CapSense_Sensing.c ****     #endif /* ((CapSense_ENABLE == CapSense_MULTI_FREQ_SCAN_EN) &&\
 737:Generated_Source\PSoC4/CapSense_Sensing.c ****                (CapSense_MFS_IMO == CapSense_MFS_METHOD)) */
 738:Generated_Source\PSoC4/CapSense_Sensing.c **** 
 739:Generated_Source\PSoC4/CapSense_Sensing.c ****     initStatus = CYRET_SUCCESS;
 740:Generated_Source\PSoC4/CapSense_Sensing.c **** 
 741:Generated_Source\PSoC4/CapSense_Sensing.c ****     #if (CapSense_DISABLE == CapSense_CSDV2)
 742:Generated_Source\PSoC4/CapSense_Sensing.c ****         CapSense_SsTrimIdacs();
ARM GAS  C:\Users\zack.li\AppData\Local\Temp\ccM7U1Od.s 			page 21


 743:Generated_Source\PSoC4/CapSense_Sensing.c ****     #endif /* (CapSense_ENABLE == CapSense_CSDV2) */
 744:Generated_Source\PSoC4/CapSense_Sensing.c **** 
 745:Generated_Source\PSoC4/CapSense_Sensing.c ****     #if((CapSense_ENABLE == CapSense_CSD_EN) ||\
 746:Generated_Source\PSoC4/CapSense_Sensing.c ****     ((CapSense_ENABLE == CapSense_CSX_EN) && (CapSense_ENABLE == CapSense_CSDV2)))
 747:Generated_Source\PSoC4/CapSense_Sensing.c ****         CapSense_SsInitializeSourceSenseClk();
 748:Generated_Source\PSoC4/CapSense_Sensing.c ****     #endif /* ((CapSense_ENABLE == CapSense_CSD_EN) ||\
 749:Generated_Source\PSoC4/CapSense_Sensing.c ****               ((CapSense_ENABLE == CapSense_CSX_EN) && (CapSense_ENABLE == CapSense_CSDV2))) */
 750:Generated_Source\PSoC4/CapSense_Sensing.c **** 
 751:Generated_Source\PSoC4/CapSense_Sensing.c ****     /* Set all IO states to the default state */
 752:Generated_Source\PSoC4/CapSense_Sensing.c ****     CapSense_SsSetAllIOsState((uint32)CapSense_SNS_CONNECTION_GROUND);
 753:Generated_Source\PSoC4/CapSense_Sensing.c ****     CapSense_dsRam.scanCurrentISC = CapSense_SNS_CONNECTION_GROUND;
 754:Generated_Source\PSoC4/CapSense_Sensing.c **** 
 755:Generated_Source\PSoC4/CapSense_Sensing.c ****     CapSense_SsSwitchSensingMode(CapSense_UNDEFINED_E);
 756:Generated_Source\PSoC4/CapSense_Sensing.c ****     #if (CapSense_ENABLE == CapSense_MANY_SENSE_MODES_EN)
 757:Generated_Source\PSoC4/CapSense_Sensing.c ****     #elif (CapSense_ENABLE == CapSense_CSD_EN)
 758:Generated_Source\PSoC4/CapSense_Sensing.c ****         CapSense_SsSwitchSensingMode(CapSense_SENSE_METHOD_CSD_E);
 759:Generated_Source\PSoC4/CapSense_Sensing.c ****     #elif (CapSense_ENABLE == CapSense_CSX_EN)
 760:Generated_Source\PSoC4/CapSense_Sensing.c ****         CapSense_SsSwitchSensingMode(CapSense_SENSE_METHOD_CSX_E);
 761:Generated_Source\PSoC4/CapSense_Sensing.c ****     #elif (CapSense_ENABLE == CapSense_ISX_EN)
 762:Generated_Source\PSoC4/CapSense_Sensing.c ****         CapSense_SsSwitchSensingMode(CapSense_SENSE_METHOD_ISX_E);
 763:Generated_Source\PSoC4/CapSense_Sensing.c ****     #else
 764:Generated_Source\PSoC4/CapSense_Sensing.c ****         #error "No sensing method enabled, Component cannot work in this mode"
 765:Generated_Source\PSoC4/CapSense_Sensing.c ****         initStatus = CYRET_UNKNOWN;
 766:Generated_Source\PSoC4/CapSense_Sensing.c ****     #endif
 767:Generated_Source\PSoC4/CapSense_Sensing.c **** 
 768:Generated_Source\PSoC4/CapSense_Sensing.c ****     return (initStatus);
 769:Generated_Source\PSoC4/CapSense_Sensing.c **** }
 770:Generated_Source\PSoC4/CapSense_Sensing.c **** 
 771:Generated_Source\PSoC4/CapSense_Sensing.c **** 
 772:Generated_Source\PSoC4/CapSense_Sensing.c **** /*******************************************************************************
 773:Generated_Source\PSoC4/CapSense_Sensing.c **** * Function Name: CapSense_SetPinState
 774:Generated_Source\PSoC4/CapSense_Sensing.c **** ****************************************************************************//**
 775:Generated_Source\PSoC4/CapSense_Sensing.c **** *
 776:Generated_Source\PSoC4/CapSense_Sensing.c **** * \brief
 777:Generated_Source\PSoC4/CapSense_Sensing.c **** *  Sets the state (drive mode and output state) of the port pin used by a sensor.
 778:Generated_Source\PSoC4/CapSense_Sensing.c **** *  The possible states are GND, Shield, High-Z, Tx or Rx, Sensor. If the sensor
 779:Generated_Source\PSoC4/CapSense_Sensing.c **** *  specified in the input parameter is a ganged sensor, then the state of all pins
 780:Generated_Source\PSoC4/CapSense_Sensing.c **** *  associated with the ganged sensor is updated.
 781:Generated_Source\PSoC4/CapSense_Sensing.c **** *
 782:Generated_Source\PSoC4/CapSense_Sensing.c **** * \details
 783:Generated_Source\PSoC4/CapSense_Sensing.c **** *  This function sets a specified state for a specified sensor element. For the
 784:Generated_Source\PSoC4/CapSense_Sensing.c **** *  CSD widgets, sensor element is a sensor ID, for the CSX widgets, it is either
 785:Generated_Source\PSoC4/CapSense_Sensing.c **** *  an Rx or Tx electrode ID. If the specified sensor is a ganged sensor, then
 786:Generated_Source\PSoC4/CapSense_Sensing.c **** *  the specified state is set for all the electrodes belong to the sensor.
 787:Generated_Source\PSoC4/CapSense_Sensing.c **** *  This function must not be called while the Component is in the busy state.
 788:Generated_Source\PSoC4/CapSense_Sensing.c **** *
 789:Generated_Source\PSoC4/CapSense_Sensing.c **** *  This function accepts the CapSense_SHIELD and
 790:Generated_Source\PSoC4/CapSense_Sensing.c **** *  CapSense_SENSOR states as an input only if there is at least
 791:Generated_Source\PSoC4/CapSense_Sensing.c **** *  one CSD widget. Similarly, this function accepts the CapSense_TX_PIN
 792:Generated_Source\PSoC4/CapSense_Sensing.c **** *  and CapSense_RX_PIN states as an input only if there is at least
 793:Generated_Source\PSoC4/CapSense_Sensing.c **** *  one CSX widget in the project.
 794:Generated_Source\PSoC4/CapSense_Sensing.c **** 
 795:Generated_Source\PSoC4/CapSense_Sensing.c **** *  Calling this function directly from the application layer is not
 796:Generated_Source\PSoC4/CapSense_Sensing.c **** *  recommended. This function is used to implement only the custom-specific
 797:Generated_Source\PSoC4/CapSense_Sensing.c **** *  use cases. Functions that perform a setup and scan of a sensor/widget
 798:Generated_Source\PSoC4/CapSense_Sensing.c **** *  automatically set the required pin states. They ignore changes
 799:Generated_Source\PSoC4/CapSense_Sensing.c **** *  in the design made by the CapSense_SetPinState() function.
ARM GAS  C:\Users\zack.li\AppData\Local\Temp\ccM7U1Od.s 			page 22


 800:Generated_Source\PSoC4/CapSense_Sensing.c **** *  This function neither check wdgtIndex nor sensorElement for the correctness.
 801:Generated_Source\PSoC4/CapSense_Sensing.c **** *
 802:Generated_Source\PSoC4/CapSense_Sensing.c **** * \param widgetId
 803:Generated_Source\PSoC4/CapSense_Sensing.c **** *  Specifies the ID of the widget to change the pin state of the specified
 804:Generated_Source\PSoC4/CapSense_Sensing.c **** *  sensor.
 805:Generated_Source\PSoC4/CapSense_Sensing.c **** *  A macro for the widget ID can be found in the CapSense Configuration
 806:Generated_Source\PSoC4/CapSense_Sensing.c **** *  header file defined as CapSense_<WidgetName>_WDGT_ID.
 807:Generated_Source\PSoC4/CapSense_Sensing.c **** *
 808:Generated_Source\PSoC4/CapSense_Sensing.c **** * \param sensorElement
 809:Generated_Source\PSoC4/CapSense_Sensing.c **** *  Specifies the ID of the sensor element within the widget to change
 810:Generated_Source\PSoC4/CapSense_Sensing.c **** *  its pin state.
 811:Generated_Source\PSoC4/CapSense_Sensing.c **** *  \if SECTION_C_LOW_LEVEL
 812:Generated_Source\PSoC4/CapSense_Sensing.c **** *  For the CSD widgets, sensorElement is the sensor ID and can be found in the
 813:Generated_Source\PSoC4/CapSense_Sensing.c **** *  CapSense Configuration header file defined as
 814:Generated_Source\PSoC4/CapSense_Sensing.c **** *  - CapSense_<WidgetName>_SNS<SensorNumber>_ID.
 815:Generated_Source\PSoC4/CapSense_Sensing.c **** *  For the CSX widgets, sensorElement is defined either as Rx ID or Tx ID.
 816:Generated_Source\PSoC4/CapSense_Sensing.c **** *  The first Rx in a widget corresponds to sensorElement = 0, the second
 817:Generated_Source\PSoC4/CapSense_Sensing.c **** *  Rx in a widget corresponds to sensorElement = 1, and so on.
 818:Generated_Source\PSoC4/CapSense_Sensing.c **** *  The last Tx in a widget corresponds to sensorElement = (RxNum + TxNum).
 819:Generated_Source\PSoC4/CapSense_Sensing.c **** *  \endif
 820:Generated_Source\PSoC4/CapSense_Sensing.c **** *  Macros for Rx and Tx IDs can be found in the
 821:Generated_Source\PSoC4/CapSense_Sensing.c **** *  CapSense Configuration header file defined as:
 822:Generated_Source\PSoC4/CapSense_Sensing.c **** *  - CapSense_<WidgetName>_RX<RXNumber>_ID
 823:Generated_Source\PSoC4/CapSense_Sensing.c **** *  - CapSense_<WidgetName>_TX<TXNumber>_ID.
 824:Generated_Source\PSoC4/CapSense_Sensing.c **** *
 825:Generated_Source\PSoC4/CapSense_Sensing.c **** * \param state
 826:Generated_Source\PSoC4/CapSense_Sensing.c **** *  Specifies the state of the sensor to be set:
 827:Generated_Source\PSoC4/CapSense_Sensing.c **** *     1. CapSense_GROUND - The pin is connected to the ground.
 828:Generated_Source\PSoC4/CapSense_Sensing.c **** *     2. CapSense_HIGHZ - The drive mode of the pin is set to High-Z
 829:Generated_Source\PSoC4/CapSense_Sensing.c **** *        Analog.
 830:Generated_Source\PSoC4/CapSense_Sensing.c **** *     3. CapSense_SHIELD - The shield signal is routed to the pin
 831:Generated_Source\PSoC4/CapSense_Sensing.c **** *        (available only if CSD sensing method with shield electrode is enabled).
 832:Generated_Source\PSoC4/CapSense_Sensing.c **** *     4. CapSense_SENSOR - The pin is connected to the scanning bus
 833:Generated_Source\PSoC4/CapSense_Sensing.c **** *        (available only if CSD sensing method is enabled).
 834:Generated_Source\PSoC4/CapSense_Sensing.c **** *     5. CapSense_TX_PIN - The Tx or Lx signal is routed to the sensor
 835:Generated_Source\PSoC4/CapSense_Sensing.c **** *        (available only if CSX or ISX sensing method is enabled).
 836:Generated_Source\PSoC4/CapSense_Sensing.c **** *     6. CapSense_RX_PIN - The pin is connected to the scanning bus
 837:Generated_Source\PSoC4/CapSense_Sensing.c **** *        (available only if CSX or ISX sensing method is enabled).
 838:Generated_Source\PSoC4/CapSense_Sensing.c **** *
 839:Generated_Source\PSoC4/CapSense_Sensing.c **** *******************************************************************************/
 840:Generated_Source\PSoC4/CapSense_Sensing.c **** void CapSense_SetPinState(uint32 widgetId, uint32 sensorElement, uint32 state)
 841:Generated_Source\PSoC4/CapSense_Sensing.c **** {
 381              		.loc 1 841 0
 382              		.cfi_startproc
 383              		@ args = 0, pretend = 0, frame = 0
 384              		@ frame_needed = 0, uses_anonymous_args = 0
 385              	.LVL20:
 386 0000 70B5     		push	{r4, r5, r6, lr}
 387              		.cfi_def_cfa_offset 16
 388              		.cfi_offset 4, -16
 389              		.cfi_offset 5, -12
 390              		.cfi_offset 6, -8
 391              		.cfi_offset 14, -4
 842:Generated_Source\PSoC4/CapSense_Sensing.c ****     uint32 eltdNum;
 843:Generated_Source\PSoC4/CapSense_Sensing.c ****     uint32 eltdIndex;
 844:Generated_Source\PSoC4/CapSense_Sensing.c ****     uint8  interruptState;
 845:Generated_Source\PSoC4/CapSense_Sensing.c ****     CapSense_FLASH_IO_STRUCT const *ioPtr;
ARM GAS  C:\Users\zack.li\AppData\Local\Temp\ccM7U1Od.s 			page 23


 846:Generated_Source\PSoC4/CapSense_Sensing.c ****     #if (CapSense_ENABLE == CapSense_GANGED_SNS_EN)
 847:Generated_Source\PSoC4/CapSense_Sensing.c ****         CapSense_FLASH_SNS_STRUCT const *curFlashSnsPtr;
 848:Generated_Source\PSoC4/CapSense_Sensing.c ****     #endif
 849:Generated_Source\PSoC4/CapSense_Sensing.c **** 
 850:Generated_Source\PSoC4/CapSense_Sensing.c ****     /* Getting sensor element pointer and number of electrodes */
 851:Generated_Source\PSoC4/CapSense_Sensing.c ****     #if (CapSense_ENABLE == CapSense_GANGED_SNS_EN)
 852:Generated_Source\PSoC4/CapSense_Sensing.c ****         /* Check the ganged sns flag */
 853:Generated_Source\PSoC4/CapSense_Sensing.c ****         if (CapSense_GANGED_SNS_MASK == (CapSense_dsFlash.wdgtArray[widgetId].staticConfig & CapSen
 854:Generated_Source\PSoC4/CapSense_Sensing.c ****         {
 855:Generated_Source\PSoC4/CapSense_Sensing.c ****             curFlashSnsPtr = CapSense_dsFlash.wdgtArray[widgetId].ptr2SnsFlash;
 856:Generated_Source\PSoC4/CapSense_Sensing.c ****             curFlashSnsPtr += sensorElement;
 857:Generated_Source\PSoC4/CapSense_Sensing.c ****             ioPtr = &CapSense_ioList[curFlashSnsPtr->firstPinId];
 858:Generated_Source\PSoC4/CapSense_Sensing.c ****             eltdNum = curFlashSnsPtr->numPins;
 859:Generated_Source\PSoC4/CapSense_Sensing.c ****         }
 860:Generated_Source\PSoC4/CapSense_Sensing.c ****         else
 861:Generated_Source\PSoC4/CapSense_Sensing.c ****         {
 862:Generated_Source\PSoC4/CapSense_Sensing.c ****             ioPtr = (CapSense_FLASH_IO_STRUCT const *)CapSense_dsFlash.wdgtArray[widgetId].ptr2SnsF
 863:Generated_Source\PSoC4/CapSense_Sensing.c ****             eltdNum = 1u;
 864:Generated_Source\PSoC4/CapSense_Sensing.c ****         }
 865:Generated_Source\PSoC4/CapSense_Sensing.c ****     #else
 866:Generated_Source\PSoC4/CapSense_Sensing.c ****         ioPtr = (CapSense_FLASH_IO_STRUCT const *)CapSense_dsFlash.wdgtArray[widgetId].ptr2SnsFlash
 392              		.loc 1 866 0
 393 0002 1C24     		movs	r4, #28
 394 0004 6043     		muls	r0, r4
 395              	.LVL21:
 396 0006 204B     		ldr	r3, .L60
 397 0008 4C43     		muls	r4, r1
 398 000a C158     		ldr	r1, [r0, r3]
 399              	.LVL22:
 841:Generated_Source\PSoC4/CapSense_Sensing.c ****     uint32 eltdNum;
 400              		.loc 1 841 0
 401 000c 1500     		movs	r5, r2
 402              		.loc 1 866 0
 403 000e 0C19     		adds	r4, r1, r4
 404              	.LVL23:
 867:Generated_Source\PSoC4/CapSense_Sensing.c ****         eltdNum = 1u;
 868:Generated_Source\PSoC4/CapSense_Sensing.c ****     #endif
 869:Generated_Source\PSoC4/CapSense_Sensing.c **** 
 870:Generated_Source\PSoC4/CapSense_Sensing.c ****     /* Loop through all electrodes of the specified sensor element */
 871:Generated_Source\PSoC4/CapSense_Sensing.c ****     for (eltdIndex = 0u; eltdIndex < eltdNum; eltdIndex++)
 872:Generated_Source\PSoC4/CapSense_Sensing.c ****     {
 873:Generated_Source\PSoC4/CapSense_Sensing.c ****         /* Reset HSIOM and PC registers */
 874:Generated_Source\PSoC4/CapSense_Sensing.c ****         interruptState = CyEnterCriticalSection();
 405              		.loc 1 874 0
 406 0010 FFF7FEFF 		bl	CyEnterCriticalSection
 407              	.LVL24:
 875:Generated_Source\PSoC4/CapSense_Sensing.c ****         CY_SET_REG32(ioPtr->hsiomPtr, CY_GET_REG32(ioPtr->hsiomPtr) & ~(CapSense_HSIOM_SEL_MASK << 
 408              		.loc 1 875 0
 409 0014 0F22     		movs	r2, #15
 410 0016 267E     		ldrb	r6, [r4, #24]
 411 0018 2168     		ldr	r1, [r4]
 412 001a B240     		lsls	r2, r2, r6
 413 001c 0B68     		ldr	r3, [r1]
 414 001e 9343     		bics	r3, r2
 876:Generated_Source\PSoC4/CapSense_Sensing.c ****         CY_SET_REG32(ioPtr->pcPtr, CY_GET_REG32(ioPtr->pcPtr) & ~(CapSense_GPIO_PC_MASK << ioPtr->s
 415              		.loc 1 876 0
 416 0020 0722     		movs	r2, #7
ARM GAS  C:\Users\zack.li\AppData\Local\Temp\ccM7U1Od.s 			page 24


 875:Generated_Source\PSoC4/CapSense_Sensing.c ****         CY_SET_REG32(ioPtr->hsiomPtr, CY_GET_REG32(ioPtr->hsiomPtr) & ~(CapSense_HSIOM_SEL_MASK << 
 417              		.loc 1 875 0
 418 0022 0B60     		str	r3, [r1]
 419              		.loc 1 876 0
 420 0024 A67E     		ldrb	r6, [r4, #26]
 421 0026 6168     		ldr	r1, [r4, #4]
 422 0028 B240     		lsls	r2, r2, r6
 423 002a 0B68     		ldr	r3, [r1]
 424 002c 9343     		bics	r3, r2
 425 002e 0B60     		str	r3, [r1]
 877:Generated_Source\PSoC4/CapSense_Sensing.c ****         CyExitCriticalSection(interruptState);
 426              		.loc 1 877 0
 427 0030 FFF7FEFF 		bl	CyExitCriticalSection
 428              	.LVL25:
 878:Generated_Source\PSoC4/CapSense_Sensing.c **** 
 879:Generated_Source\PSoC4/CapSense_Sensing.c ****         switch (state)
 429              		.loc 1 879 0
 430 0034 032D     		cmp	r5, #3
 431 0036 26D8     		bhi	.L51
 432 0038 2800     		movs	r0, r5
 433 003a FFF7FEFF 		bl	__gnu_thumb1_case_uqi
 434              	.L54:
 435 003e 02       		.byte	(.L53-.L54)/2
 436 003f 0C       		.byte	(.L55-.L54)/2
 437 0040 19       		.byte	(.L56-.L54)/2
 438 0041 15       		.byte	(.L57-.L54)/2
 439              		.p2align 1
 440              	.L53:
 880:Generated_Source\PSoC4/CapSense_Sensing.c ****         {
 881:Generated_Source\PSoC4/CapSense_Sensing.c ****         case CapSense_GROUND:
 882:Generated_Source\PSoC4/CapSense_Sensing.c **** 
 883:Generated_Source\PSoC4/CapSense_Sensing.c ****             interruptState = CyEnterCriticalSection();
 441              		.loc 1 883 0
 442 0042 FFF7FEFF 		bl	CyEnterCriticalSection
 443              	.LVL26:
 884:Generated_Source\PSoC4/CapSense_Sensing.c ****             CY_SET_REG32(ioPtr->pcPtr, CY_GET_REG32(ioPtr->pcPtr) | (CapSense_SNS_GROUND_CONNECT <<
 444              		.loc 1 884 0
 445 0046 0623     		movs	r3, #6
 446 0048 A57E     		ldrb	r5, [r4, #26]
 447              	.LVL27:
 448 004a 6168     		ldr	r1, [r4, #4]
 449 004c AB40     		lsls	r3, r3, r5
 450 004e 0A68     		ldr	r2, [r1]
 451 0050 1343     		orrs	r3, r2
 452 0052 0B60     		str	r3, [r1]
 453 0054 01E0     		b	.L59
 454              	.LVL28:
 455              	.L55:
 885:Generated_Source\PSoC4/CapSense_Sensing.c ****             CY_SET_REG32(ioPtr->drPtr, CY_GET_REG32(ioPtr->drPtr) & (uint32)(~(uint32)((uint32)1u <
 886:Generated_Source\PSoC4/CapSense_Sensing.c ****             CyExitCriticalSection(interruptState);
 887:Generated_Source\PSoC4/CapSense_Sensing.c ****             break;
 888:Generated_Source\PSoC4/CapSense_Sensing.c **** 
 889:Generated_Source\PSoC4/CapSense_Sensing.c ****         case CapSense_HIGHZ:
 890:Generated_Source\PSoC4/CapSense_Sensing.c ****             interruptState = CyEnterCriticalSection();
 456              		.loc 1 890 0
 457 0056 FFF7FEFF 		bl	CyEnterCriticalSection
 458              	.LVL29:
ARM GAS  C:\Users\zack.li\AppData\Local\Temp\ccM7U1Od.s 			page 25


 459              	.L59:
 891:Generated_Source\PSoC4/CapSense_Sensing.c ****             CY_SET_REG32(ioPtr->drPtr, CY_GET_REG32(ioPtr->drPtr) & (uint32)~(uint32)((uint32)1u <<
 460              		.loc 1 891 0
 461 005a 0122     		movs	r2, #1
 462 005c A168     		ldr	r1, [r4, #8]
 463 005e 647E     		ldrb	r4, [r4, #25]
 464              	.LVL30:
 465 0060 0B68     		ldr	r3, [r1]
 466 0062 A240     		lsls	r2, r2, r4
 467 0064 9343     		bics	r3, r2
 468 0066 0BE0     		b	.L58
 469              	.LVL31:
 470              	.L57:
 892:Generated_Source\PSoC4/CapSense_Sensing.c ****             CyExitCriticalSection(interruptState);
 893:Generated_Source\PSoC4/CapSense_Sensing.c ****             break;
 894:Generated_Source\PSoC4/CapSense_Sensing.c **** 
 895:Generated_Source\PSoC4/CapSense_Sensing.c ****         #if (CapSense_ENABLE == CapSense_CSD_EN)
 896:Generated_Source\PSoC4/CapSense_Sensing.c ****             case CapSense_SENSOR:
 897:Generated_Source\PSoC4/CapSense_Sensing.c ****                 /* Enable sensor */
 898:Generated_Source\PSoC4/CapSense_Sensing.c ****                 CapSense_CSDConnectSns(ioPtr);
 471              		.loc 1 898 0
 472 0068 2000     		movs	r0, r4
 473              	.LVL32:
 474 006a FFF7FEFF 		bl	CapSense_CSDConnectSns
 475              	.LVL33:
 899:Generated_Source\PSoC4/CapSense_Sensing.c ****                 break;
 476              		.loc 1 899 0
 477 006e 0AE0     		b	.L51
 478              	.LVL34:
 479              	.L56:
 900:Generated_Source\PSoC4/CapSense_Sensing.c **** 
 901:Generated_Source\PSoC4/CapSense_Sensing.c ****             #if (CapSense_ENABLE == CapSense_CSD_SHIELD_EN)
 902:Generated_Source\PSoC4/CapSense_Sensing.c ****                 case CapSense_SHIELD:
 903:Generated_Source\PSoC4/CapSense_Sensing.c ****                     /* Set appropriate bit in HSIOM register to configure pin to shield mode */
 904:Generated_Source\PSoC4/CapSense_Sensing.c ****                     interruptState = CyEnterCriticalSection();
 480              		.loc 1 904 0
 481 0070 FFF7FEFF 		bl	CyEnterCriticalSection
 482              	.LVL35:
 905:Generated_Source\PSoC4/CapSense_Sensing.c ****                     CY_SET_REG32(ioPtr->hsiomPtr, CY_GET_REG32(ioPtr->hsiomPtr) | (CapSense_HSIOM_S
 483              		.loc 1 905 0
 484 0074 0523     		movs	r3, #5
 485 0076 2168     		ldr	r1, [r4]
 486 0078 247E     		ldrb	r4, [r4, #24]
 487              	.LVL36:
 488 007a 0A68     		ldr	r2, [r1]
 489 007c A340     		lsls	r3, r3, r4
 490 007e 1343     		orrs	r3, r2
 491              	.LVL37:
 492              	.L58:
 493 0080 0B60     		str	r3, [r1]
 906:Generated_Source\PSoC4/CapSense_Sensing.c ****                     CyExitCriticalSection(interruptState);
 494              		.loc 1 906 0
 495 0082 FFF7FEFF 		bl	CyExitCriticalSection
 496              	.LVL38:
 497              	.L51:
 907:Generated_Source\PSoC4/CapSense_Sensing.c ****                     break;
 908:Generated_Source\PSoC4/CapSense_Sensing.c ****             #endif /* (CapSense_ENABLE == CapSense_CSD_SHIELD_EN) */
ARM GAS  C:\Users\zack.li\AppData\Local\Temp\ccM7U1Od.s 			page 26


 909:Generated_Source\PSoC4/CapSense_Sensing.c ****         #endif /* (CapSense_ENABLE == CapSense_CSD_EN) */
 910:Generated_Source\PSoC4/CapSense_Sensing.c **** 
 911:Generated_Source\PSoC4/CapSense_Sensing.c ****         #if ((CapSense_ENABLE == CapSense_CSX_EN) || \
 912:Generated_Source\PSoC4/CapSense_Sensing.c ****              (CapSense_ENABLE == CapSense_ISX_EN))
 913:Generated_Source\PSoC4/CapSense_Sensing.c ****             case CapSense_TX_PIN:
 914:Generated_Source\PSoC4/CapSense_Sensing.c ****                 interruptState = CyEnterCriticalSection();
 915:Generated_Source\PSoC4/CapSense_Sensing.c ****                 CY_SET_REG32(ioPtr->hsiomPtr, CY_GET_REG32(ioPtr->hsiomPtr) | (CapSense_HSIOM_SEL_C
 916:Generated_Source\PSoC4/CapSense_Sensing.c ****                 CY_SET_REG32(ioPtr->pcPtr, CY_GET_REG32(ioPtr->pcPtr) | (CapSense_GPIO_STRGDRV << i
 917:Generated_Source\PSoC4/CapSense_Sensing.c ****                 CyExitCriticalSection(interruptState);
 918:Generated_Source\PSoC4/CapSense_Sensing.c ****                 break;
 919:Generated_Source\PSoC4/CapSense_Sensing.c **** 
 920:Generated_Source\PSoC4/CapSense_Sensing.c ****             case CapSense_RX_PIN:
 921:Generated_Source\PSoC4/CapSense_Sensing.c ****                 interruptState = CyEnterCriticalSection();
 922:Generated_Source\PSoC4/CapSense_Sensing.c ****                 CY_SET_REG32(ioPtr->hsiomPtr, CY_GET_REG32(ioPtr->hsiomPtr) | (CapSense_HSIOM_SEL_A
 923:Generated_Source\PSoC4/CapSense_Sensing.c ****                 CY_SET_REG32(ioPtr->pcPtr, CY_GET_REG32(ioPtr->pcPtr) & ~(CapSense_GPIO_PC_MASK << 
 924:Generated_Source\PSoC4/CapSense_Sensing.c ****                 CyExitCriticalSection(interruptState);
 925:Generated_Source\PSoC4/CapSense_Sensing.c ****                 break;
 926:Generated_Source\PSoC4/CapSense_Sensing.c ****         #endif
 927:Generated_Source\PSoC4/CapSense_Sensing.c **** 
 928:Generated_Source\PSoC4/CapSense_Sensing.c ****         default:
 929:Generated_Source\PSoC4/CapSense_Sensing.c ****             /* Wrong state */
 930:Generated_Source\PSoC4/CapSense_Sensing.c ****             break;
 931:Generated_Source\PSoC4/CapSense_Sensing.c ****         }
 932:Generated_Source\PSoC4/CapSense_Sensing.c **** 
 933:Generated_Source\PSoC4/CapSense_Sensing.c ****         ioPtr++;
 934:Generated_Source\PSoC4/CapSense_Sensing.c ****     }
 935:Generated_Source\PSoC4/CapSense_Sensing.c **** }
 498              		.loc 1 935 0
 499              		@ sp needed
 500 0086 70BD     		pop	{r4, r5, r6, pc}
 501              	.L61:
 502              		.align	2
 503              	.L60:
 504 0088 00000000 		.word	CapSense_dsFlash
 505              		.cfi_endproc
 506              	.LFE8:
 507              		.size	CapSense_SetPinState, .-CapSense_SetPinState
 508              		.section	.text.CapSense_SsSetAllIOsState,"ax",%progbits
 509              		.align	1
 510              		.global	CapSense_SsSetAllIOsState
 511              		.code	16
 512              		.thumb_func
 513              		.type	CapSense_SsSetAllIOsState, %function
 514              	CapSense_SsSetAllIOsState:
 515              	.LFB11:
 936:Generated_Source\PSoC4/CapSense_Sensing.c **** 
 937:Generated_Source\PSoC4/CapSense_Sensing.c **** #if (CapSense_ENABLE == CapSense_CSD_EN)
 938:Generated_Source\PSoC4/CapSense_Sensing.c ****     /*******************************************************************************
 939:Generated_Source\PSoC4/CapSense_Sensing.c ****     * Function Name: CapSense_SsCSDDisableMode
 940:Generated_Source\PSoC4/CapSense_Sensing.c ****     ****************************************************************************//**
 941:Generated_Source\PSoC4/CapSense_Sensing.c ****     *
 942:Generated_Source\PSoC4/CapSense_Sensing.c ****     * \brief
 943:Generated_Source\PSoC4/CapSense_Sensing.c ****     *  This function disables CSD mode.
 944:Generated_Source\PSoC4/CapSense_Sensing.c ****     *
 945:Generated_Source\PSoC4/CapSense_Sensing.c ****     * \details
 946:Generated_Source\PSoC4/CapSense_Sensing.c ****     *  To disable CSD mode the following tasks are performed:
 947:Generated_Source\PSoC4/CapSense_Sensing.c ****     *  1. Disconnect Cmod from AMUXBUS-A.
ARM GAS  C:\Users\zack.li\AppData\Local\Temp\ccM7U1Od.s 			page 27


 948:Generated_Source\PSoC4/CapSense_Sensing.c ****     *  2. Disconnect previous CSX electrode if it has been connected.
 949:Generated_Source\PSoC4/CapSense_Sensing.c ****     *  3. Disconnect Csh from AMUXBUS-B.
 950:Generated_Source\PSoC4/CapSense_Sensing.c ****     *  4. Disable Shield Electrodes.
 951:Generated_Source\PSoC4/CapSense_Sensing.c ****     *
 952:Generated_Source\PSoC4/CapSense_Sensing.c ****     *******************************************************************************/
 953:Generated_Source\PSoC4/CapSense_Sensing.c ****     static void CapSense_SsCSDDisableMode(void)
 954:Generated_Source\PSoC4/CapSense_Sensing.c ****     {
 955:Generated_Source\PSoC4/CapSense_Sensing.c ****         #if ((CapSense_ENABLE == CapSense_CSDV2) && \
 956:Generated_Source\PSoC4/CapSense_Sensing.c ****              (CapSense_ENABLE == CapSense_CSD_IDAC_COMP_EN))
 957:Generated_Source\PSoC4/CapSense_Sensing.c **** 
 958:Generated_Source\PSoC4/CapSense_Sensing.c ****             uint32 newRegValue;
 959:Generated_Source\PSoC4/CapSense_Sensing.c **** 
 960:Generated_Source\PSoC4/CapSense_Sensing.c ****             /* Disconnect IDACA and IDACB */
 961:Generated_Source\PSoC4/CapSense_Sensing.c ****             newRegValue = CY_GET_REG32(CapSense_SW_REFGEN_SEL_PTR);
 962:Generated_Source\PSoC4/CapSense_Sensing.c ****             newRegValue &= (uint32)(~CapSense_SW_REFGEN_SEL_SW_IAIB_MASK);
 963:Generated_Source\PSoC4/CapSense_Sensing.c ****             CY_SET_REG32(CapSense_SW_REFGEN_SEL_PTR, newRegValue);
 964:Generated_Source\PSoC4/CapSense_Sensing.c ****         #endif /* ((CapSense_ENABLE == CapSense_CSDV2) && \
 965:Generated_Source\PSoC4/CapSense_Sensing.c ****                    (CapSense_ENABLE == CapSense_CSD_IDAC_COMP_EN)) */
 966:Generated_Source\PSoC4/CapSense_Sensing.c **** 
 967:Generated_Source\PSoC4/CapSense_Sensing.c ****         /* Disconnect Cmod from AMUXBUS-A using HSIOM registers */
 968:Generated_Source\PSoC4/CapSense_Sensing.c ****         CapSense_WriteBitsSafe(CapSense_CMOD_HSIOM_PTR, CapSense_CMOD_HSIOM_MASK, 0u);
 969:Generated_Source\PSoC4/CapSense_Sensing.c **** 
 970:Generated_Source\PSoC4/CapSense_Sensing.c ****         /* Disconnect previous CSD electrode if it has been connected */
 971:Generated_Source\PSoC4/CapSense_Sensing.c ****         CapSense_SsCSDElectrodeCheck();
 972:Generated_Source\PSoC4/CapSense_Sensing.c **** 
 973:Generated_Source\PSoC4/CapSense_Sensing.c ****         /* Disconnect Csh from AMUXBUS-B */
 974:Generated_Source\PSoC4/CapSense_Sensing.c ****         #if ((CapSense_ENABLE == CapSense_CSD_SHIELD_EN) && \
 975:Generated_Source\PSoC4/CapSense_Sensing.c ****              (CapSense_ENABLE == CapSense_CSD_SHIELD_TANK_EN))
 976:Generated_Source\PSoC4/CapSense_Sensing.c ****             CapSense_WriteBitsSafe(CapSense_CSH_HSIOM_PTR, CapSense_CSH_HSIOM_MASK, 0u);
 977:Generated_Source\PSoC4/CapSense_Sensing.c ****         #endif
 978:Generated_Source\PSoC4/CapSense_Sensing.c **** 
 979:Generated_Source\PSoC4/CapSense_Sensing.c ****         #if ((CapSense_ENABLE == CapSense_CSD_SHIELD_EN) && \
 980:Generated_Source\PSoC4/CapSense_Sensing.c ****              (0u != CapSense_CSD_TOTAL_SHIELD_COUNT))
 981:Generated_Source\PSoC4/CapSense_Sensing.c ****             CapSense_SsCSDDisableShieldElectrodes();
 982:Generated_Source\PSoC4/CapSense_Sensing.c ****         #endif
 983:Generated_Source\PSoC4/CapSense_Sensing.c ****     }
 984:Generated_Source\PSoC4/CapSense_Sensing.c **** #endif /* (CapSense_ENABLE == CapSense_CSD_EN) */
 985:Generated_Source\PSoC4/CapSense_Sensing.c **** 
 986:Generated_Source\PSoC4/CapSense_Sensing.c **** 
 987:Generated_Source\PSoC4/CapSense_Sensing.c **** #if (CapSense_ENABLE == CapSense_CSX_EN)
 988:Generated_Source\PSoC4/CapSense_Sensing.c ****     /*******************************************************************************
 989:Generated_Source\PSoC4/CapSense_Sensing.c ****     * Function Name: CapSense_SsDisableCSXMode
 990:Generated_Source\PSoC4/CapSense_Sensing.c ****     ****************************************************************************//**
 991:Generated_Source\PSoC4/CapSense_Sensing.c ****     *
 992:Generated_Source\PSoC4/CapSense_Sensing.c ****     * \brief
 993:Generated_Source\PSoC4/CapSense_Sensing.c ****     *  This function disables CSX mode.
 994:Generated_Source\PSoC4/CapSense_Sensing.c ****     *
 995:Generated_Source\PSoC4/CapSense_Sensing.c ****     * \details
 996:Generated_Source\PSoC4/CapSense_Sensing.c ****     *  To disable CSX mode the following tasks are performed:
 997:Generated_Source\PSoC4/CapSense_Sensing.c ****     *  1. Disconnect CintA and CintB from AMUXBUS-A.
 998:Generated_Source\PSoC4/CapSense_Sensing.c ****     *  2. Disconnect previous CSX electrode if it has been connected.
 999:Generated_Source\PSoC4/CapSense_Sensing.c ****     *
1000:Generated_Source\PSoC4/CapSense_Sensing.c ****     *******************************************************************************/
1001:Generated_Source\PSoC4/CapSense_Sensing.c ****     static void CapSense_SsDisableCSXMode(void)
1002:Generated_Source\PSoC4/CapSense_Sensing.c ****     {
1003:Generated_Source\PSoC4/CapSense_Sensing.c ****         /* Disconnect CintA from AMUXBUS-A using HSIOM registers */
1004:Generated_Source\PSoC4/CapSense_Sensing.c ****         CapSense_WriteBitsSafe(CapSense_CintA_HSIOM_PTR, CapSense_CintA_HSIOM_MASK, 0u);
ARM GAS  C:\Users\zack.li\AppData\Local\Temp\ccM7U1Od.s 			page 28


1005:Generated_Source\PSoC4/CapSense_Sensing.c ****         /* Disconnect CintB from AMUXBUS-A using HSIOM registers */
1006:Generated_Source\PSoC4/CapSense_Sensing.c ****         CapSense_WriteBitsSafe(CapSense_CintB_HSIOM_PTR, CapSense_CintB_HSIOM_MASK, 0u);
1007:Generated_Source\PSoC4/CapSense_Sensing.c ****         /* Disconnect previous CSX electrode if it has been connected */
1008:Generated_Source\PSoC4/CapSense_Sensing.c ****         CapSense_CSXElectrodeCheck();
1009:Generated_Source\PSoC4/CapSense_Sensing.c ****     }
1010:Generated_Source\PSoC4/CapSense_Sensing.c **** #endif /* (CapSense_ENABLE == CapSense_CSX_EN) */
1011:Generated_Source\PSoC4/CapSense_Sensing.c **** 
1012:Generated_Source\PSoC4/CapSense_Sensing.c **** 
1013:Generated_Source\PSoC4/CapSense_Sensing.c **** #if (CapSense_ENABLE == CapSense_ISX_EN)
1014:Generated_Source\PSoC4/CapSense_Sensing.c ****     /*******************************************************************************
1015:Generated_Source\PSoC4/CapSense_Sensing.c ****     * Function Name: CapSense_SsDisableISXMode
1016:Generated_Source\PSoC4/CapSense_Sensing.c ****     ****************************************************************************//**
1017:Generated_Source\PSoC4/CapSense_Sensing.c ****     *
1018:Generated_Source\PSoC4/CapSense_Sensing.c ****     * \brief
1019:Generated_Source\PSoC4/CapSense_Sensing.c ****     *  This function disables ISX mode.
1020:Generated_Source\PSoC4/CapSense_Sensing.c ****     *
1021:Generated_Source\PSoC4/CapSense_Sensing.c ****     * \details
1022:Generated_Source\PSoC4/CapSense_Sensing.c ****     *  To disable ISX mode the following tasks are performed:
1023:Generated_Source\PSoC4/CapSense_Sensing.c ****     *  1. Disconnect CintA and CintB from AMUXBUS-A
1024:Generated_Source\PSoC4/CapSense_Sensing.c ****     *  2. Disconnect previous ISX electrode if it has been connected
1025:Generated_Source\PSoC4/CapSense_Sensing.c ****     *
1026:Generated_Source\PSoC4/CapSense_Sensing.c ****     *******************************************************************************/
1027:Generated_Source\PSoC4/CapSense_Sensing.c ****     static void CapSense_SsDisableISXMode(void)
1028:Generated_Source\PSoC4/CapSense_Sensing.c ****     {
1029:Generated_Source\PSoC4/CapSense_Sensing.c ****         /* Disconnect CintA from AMUXBUS-A using HSIOM registers */
1030:Generated_Source\PSoC4/CapSense_Sensing.c ****         CapSense_WriteBitsSafe(CapSense_CintA_HSIOM_PTR, CapSense_CintA_HSIOM_MASK, 0u);
1031:Generated_Source\PSoC4/CapSense_Sensing.c ****         /* Disconnect CintB from AMUXBUS-A using HSIOM registers */
1032:Generated_Source\PSoC4/CapSense_Sensing.c ****         CapSense_WriteBitsSafe(CapSense_CintB_HSIOM_PTR, CapSense_CintB_HSIOM_MASK, 0u);
1033:Generated_Source\PSoC4/CapSense_Sensing.c ****         /* Disconnect previous ISX electrode if it has been connected */
1034:Generated_Source\PSoC4/CapSense_Sensing.c ****         CapSense_ISXElectrodeCheck();
1035:Generated_Source\PSoC4/CapSense_Sensing.c ****         CapSense_DigPrt2_Stop();
1036:Generated_Source\PSoC4/CapSense_Sensing.c ****         #if (CapSense_USES_PORT_3)
1037:Generated_Source\PSoC4/CapSense_Sensing.c ****             CapSense_DigPrt3_Stop();
1038:Generated_Source\PSoC4/CapSense_Sensing.c ****         #endif
1039:Generated_Source\PSoC4/CapSense_Sensing.c ****     }
1040:Generated_Source\PSoC4/CapSense_Sensing.c **** #endif /* (CapSense_ENABLE == CapSense_ISX_EN) */
1041:Generated_Source\PSoC4/CapSense_Sensing.c **** 
1042:Generated_Source\PSoC4/CapSense_Sensing.c **** 
1043:Generated_Source\PSoC4/CapSense_Sensing.c **** /*******************************************************************************
1044:Generated_Source\PSoC4/CapSense_Sensing.c **** * Function Name: CapSense_SsSwitchSensingMode
1045:Generated_Source\PSoC4/CapSense_Sensing.c **** ****************************************************************************//**
1046:Generated_Source\PSoC4/CapSense_Sensing.c **** *
1047:Generated_Source\PSoC4/CapSense_Sensing.c **** * \brief
1048:Generated_Source\PSoC4/CapSense_Sensing.c **** *  This function changes the omponent settings for operation in a specified
1049:Generated_Source\PSoC4/CapSense_Sensing.c **** *  sensing mode.
1050:Generated_Source\PSoC4/CapSense_Sensing.c **** *
1051:Generated_Source\PSoC4/CapSense_Sensing.c **** * \details
1052:Generated_Source\PSoC4/CapSense_Sensing.c **** *  This function performs following tasks:
1053:Generated_Source\PSoC4/CapSense_Sensing.c **** *  1. Releasing the CSD HW block.
1054:Generated_Source\PSoC4/CapSense_Sensing.c **** *  2. Disconnecting external capacitors.
1055:Generated_Source\PSoC4/CapSense_Sensing.c **** *  3. Setting new mode.
1056:Generated_Source\PSoC4/CapSense_Sensing.c **** *  4. Configuring HW to the new sensing mode.
1057:Generated_Source\PSoC4/CapSense_Sensing.c **** *
1058:Generated_Source\PSoC4/CapSense_Sensing.c **** * \param mode
1059:Generated_Source\PSoC4/CapSense_Sensing.c **** *  Specifies the scan mode:
1060:Generated_Source\PSoC4/CapSense_Sensing.c **** *  - CapSense_SENSE_METHOD_CSD_E
1061:Generated_Source\PSoC4/CapSense_Sensing.c **** *  - CapSense_SENSE_METHOD_CSX_E
ARM GAS  C:\Users\zack.li\AppData\Local\Temp\ccM7U1Od.s 			page 29


1062:Generated_Source\PSoC4/CapSense_Sensing.c **** *  - CapSense_SENSE_METHOD_ISX_E
1063:Generated_Source\PSoC4/CapSense_Sensing.c **** *  - CapSense_SENSE_METHOD_BIST_E
1064:Generated_Source\PSoC4/CapSense_Sensing.c **** *  - CapSense_UNDEFINED_E
1065:Generated_Source\PSoC4/CapSense_Sensing.c **** *
1066:Generated_Source\PSoC4/CapSense_Sensing.c **** *******************************************************************************/
1067:Generated_Source\PSoC4/CapSense_Sensing.c **** void CapSense_SsSwitchSensingMode(CapSense_SENSE_METHOD_ENUM mode)
1068:Generated_Source\PSoC4/CapSense_Sensing.c **** {
1069:Generated_Source\PSoC4/CapSense_Sensing.c ****     if (CapSense_currentSenseMethod != mode)
1070:Generated_Source\PSoC4/CapSense_Sensing.c ****     {
1071:Generated_Source\PSoC4/CapSense_Sensing.c ****         /* The requested mode differs to the current one. Disable the current mode */
1072:Generated_Source\PSoC4/CapSense_Sensing.c ****         if (CapSense_SENSE_METHOD_CSD_E == CapSense_currentSenseMethod)
1073:Generated_Source\PSoC4/CapSense_Sensing.c ****         {
1074:Generated_Source\PSoC4/CapSense_Sensing.c ****             #if (CapSense_ENABLE == CapSense_CSD_EN)
1075:Generated_Source\PSoC4/CapSense_Sensing.c ****                 CapSense_SsCSDDisableMode();
1076:Generated_Source\PSoC4/CapSense_Sensing.c ****             #endif /* (CapSense_ENABLE == CapSense_CSD_EN) */
1077:Generated_Source\PSoC4/CapSense_Sensing.c ****         }
1078:Generated_Source\PSoC4/CapSense_Sensing.c ****         else if (CapSense_SENSE_METHOD_CSX_E == CapSense_currentSenseMethod)
1079:Generated_Source\PSoC4/CapSense_Sensing.c ****         {
1080:Generated_Source\PSoC4/CapSense_Sensing.c ****             #if (CapSense_ENABLE == CapSense_CSX_EN)
1081:Generated_Source\PSoC4/CapSense_Sensing.c ****                 CapSense_SsDisableCSXMode();
1082:Generated_Source\PSoC4/CapSense_Sensing.c ****             #endif /* (CapSense_ENABLE == CapSense_CSX_EN) */
1083:Generated_Source\PSoC4/CapSense_Sensing.c ****         }
1084:Generated_Source\PSoC4/CapSense_Sensing.c ****         else if (CapSense_SENSE_METHOD_ISX_E == CapSense_currentSenseMethod)
1085:Generated_Source\PSoC4/CapSense_Sensing.c ****         {
1086:Generated_Source\PSoC4/CapSense_Sensing.c ****             #if (CapSense_ENABLE == CapSense_ISX_EN)
1087:Generated_Source\PSoC4/CapSense_Sensing.c ****                 CapSense_SsDisableISXMode();
1088:Generated_Source\PSoC4/CapSense_Sensing.c ****             #endif /* (CapSense_ENABLE == CapSense_ISX_EN) */
1089:Generated_Source\PSoC4/CapSense_Sensing.c ****         }
1090:Generated_Source\PSoC4/CapSense_Sensing.c ****         else if (CapSense_SENSE_METHOD_BIST_E == CapSense_currentSenseMethod)
1091:Generated_Source\PSoC4/CapSense_Sensing.c ****         {
1092:Generated_Source\PSoC4/CapSense_Sensing.c ****             #if (CapSense_ENABLE == CapSense_SELF_TEST_EN)
1093:Generated_Source\PSoC4/CapSense_Sensing.c ****                 CapSense_BistDisableMode();
1094:Generated_Source\PSoC4/CapSense_Sensing.c ****             #endif /* (CapSense_ENABLE == CapSense_SELF_TEST_EN) */
1095:Generated_Source\PSoC4/CapSense_Sensing.c ****         }
1096:Generated_Source\PSoC4/CapSense_Sensing.c ****         else
1097:Generated_Source\PSoC4/CapSense_Sensing.c ****         {
1098:Generated_Source\PSoC4/CapSense_Sensing.c ****             #if (CapSense_ENABLE == CapSense_ADC_EN)
1099:Generated_Source\PSoC4/CapSense_Sensing.c ****                 /* Release ADC resources */
1100:Generated_Source\PSoC4/CapSense_Sensing.c ****                 (void)CapSense_AdcReleaseResources();
1101:Generated_Source\PSoC4/CapSense_Sensing.c ****             #endif /* (CapSense_ENABLE == CapSense_ADC_EN) */
1102:Generated_Source\PSoC4/CapSense_Sensing.c ****         }
1103:Generated_Source\PSoC4/CapSense_Sensing.c **** 
1104:Generated_Source\PSoC4/CapSense_Sensing.c ****         /* Enable the specified mode */
1105:Generated_Source\PSoC4/CapSense_Sensing.c ****         if (CapSense_SENSE_METHOD_CSD_E == mode)
1106:Generated_Source\PSoC4/CapSense_Sensing.c ****         {
1107:Generated_Source\PSoC4/CapSense_Sensing.c ****             #if (CapSense_ENABLE == CapSense_CSD_EN)
1108:Generated_Source\PSoC4/CapSense_Sensing.c ****                 /* Initialize CSD mode to guarantee configured CSD mode */
1109:Generated_Source\PSoC4/CapSense_Sensing.c ****                 CapSense_SsCSDInitialize();
1110:Generated_Source\PSoC4/CapSense_Sensing.c ****                 CapSense_currentSenseMethod = CapSense_SENSE_METHOD_CSD_E;
1111:Generated_Source\PSoC4/CapSense_Sensing.c ****             #endif /* (CapSense_ENABLE == CapSense_CSD_EN) */
1112:Generated_Source\PSoC4/CapSense_Sensing.c ****         }
1113:Generated_Source\PSoC4/CapSense_Sensing.c ****         else if (CapSense_SENSE_METHOD_CSX_E == mode)
1114:Generated_Source\PSoC4/CapSense_Sensing.c ****         {
1115:Generated_Source\PSoC4/CapSense_Sensing.c ****             #if (CapSense_ENABLE == CapSense_CSX_EN)
1116:Generated_Source\PSoC4/CapSense_Sensing.c ****                 /* Initialize CSX mode to guarantee configured CSX mode */
1117:Generated_Source\PSoC4/CapSense_Sensing.c ****                 CapSense_CSXInitialize();
1118:Generated_Source\PSoC4/CapSense_Sensing.c ****                 CapSense_currentSenseMethod = CapSense_SENSE_METHOD_CSX_E;
ARM GAS  C:\Users\zack.li\AppData\Local\Temp\ccM7U1Od.s 			page 30


1119:Generated_Source\PSoC4/CapSense_Sensing.c ****             #endif /* (CapSense_ENABLE == CapSense_CSX_EN) */
1120:Generated_Source\PSoC4/CapSense_Sensing.c ****         }
1121:Generated_Source\PSoC4/CapSense_Sensing.c ****         else if (CapSense_SENSE_METHOD_ISX_E == mode)
1122:Generated_Source\PSoC4/CapSense_Sensing.c ****         {
1123:Generated_Source\PSoC4/CapSense_Sensing.c ****             #if (CapSense_ENABLE == CapSense_ISX_EN)
1124:Generated_Source\PSoC4/CapSense_Sensing.c ****                 /* Initialize ISX mode to guarantee configured ISX mode */
1125:Generated_Source\PSoC4/CapSense_Sensing.c ****                 CapSense_ISXInitialize();
1126:Generated_Source\PSoC4/CapSense_Sensing.c ****                 CapSense_currentSenseMethod = CapSense_SENSE_METHOD_ISX_E;
1127:Generated_Source\PSoC4/CapSense_Sensing.c ****             #endif /* (CapSense_ENABLE == CapSense_ISX_EN) */
1128:Generated_Source\PSoC4/CapSense_Sensing.c ****         }
1129:Generated_Source\PSoC4/CapSense_Sensing.c ****         else if (CapSense_SENSE_METHOD_BIST_E == mode)
1130:Generated_Source\PSoC4/CapSense_Sensing.c ****         {
1131:Generated_Source\PSoC4/CapSense_Sensing.c ****             #if (CapSense_ENABLE == CapSense_SELF_TEST_EN)
1132:Generated_Source\PSoC4/CapSense_Sensing.c ****                 CapSense_BistInitialize();
1133:Generated_Source\PSoC4/CapSense_Sensing.c ****                 CapSense_currentSenseMethod = CapSense_SENSE_METHOD_BIST_E;
1134:Generated_Source\PSoC4/CapSense_Sensing.c ****             #endif /* (CapSense_ENABLE == CapSense_SELF_TEST_EN) */
1135:Generated_Source\PSoC4/CapSense_Sensing.c ****         }
1136:Generated_Source\PSoC4/CapSense_Sensing.c ****         else
1137:Generated_Source\PSoC4/CapSense_Sensing.c ****         {
1138:Generated_Source\PSoC4/CapSense_Sensing.c ****             CapSense_currentSenseMethod = CapSense_UNDEFINED_E;
1139:Generated_Source\PSoC4/CapSense_Sensing.c ****         }
1140:Generated_Source\PSoC4/CapSense_Sensing.c ****     }
1141:Generated_Source\PSoC4/CapSense_Sensing.c **** }
1142:Generated_Source\PSoC4/CapSense_Sensing.c **** 
1143:Generated_Source\PSoC4/CapSense_Sensing.c **** 
1144:Generated_Source\PSoC4/CapSense_Sensing.c **** /*******************************************************************************
1145:Generated_Source\PSoC4/CapSense_Sensing.c **** * Function Name: CapSense_SsSetAllIOsState
1146:Generated_Source\PSoC4/CapSense_Sensing.c **** ****************************************************************************//**
1147:Generated_Source\PSoC4/CapSense_Sensing.c **** *
1148:Generated_Source\PSoC4/CapSense_Sensing.c **** * \brief
1149:Generated_Source\PSoC4/CapSense_Sensing.c **** *  Sets all electrodes into a default state.
1150:Generated_Source\PSoC4/CapSense_Sensing.c **** *
1151:Generated_Source\PSoC4/CapSense_Sensing.c **** * \details
1152:Generated_Source\PSoC4/CapSense_Sensing.c **** *  Sets all the CSD/CSX IOs into a default state:
1153:Generated_Source\PSoC4/CapSense_Sensing.c **** *  - HSIOM   - Disconnected, the GPIO mode.
1154:Generated_Source\PSoC4/CapSense_Sensing.c **** *  - DM      - Strong drive.
1155:Generated_Source\PSoC4/CapSense_Sensing.c **** *  - State   - Zero.
1156:Generated_Source\PSoC4/CapSense_Sensing.c **** *
1157:Generated_Source\PSoC4/CapSense_Sensing.c **** *  Sets all the ADC channels into a default state:
1158:Generated_Source\PSoC4/CapSense_Sensing.c **** *  - HSIOM   - Disconnected, the GPIO mode.
1159:Generated_Source\PSoC4/CapSense_Sensing.c **** *  - DM      - HiZ-Analog.
1160:Generated_Source\PSoC4/CapSense_Sensing.c **** *  - State   - Zero.
1161:Generated_Source\PSoC4/CapSense_Sensing.c **** *
1162:Generated_Source\PSoC4/CapSense_Sensing.c **** *  It is not recommended to call this function directly from the application
1163:Generated_Source\PSoC4/CapSense_Sensing.c **** *  layer.
1164:Generated_Source\PSoC4/CapSense_Sensing.c **** *
1165:Generated_Source\PSoC4/CapSense_Sensing.c **** *******************************************************************************/
1166:Generated_Source\PSoC4/CapSense_Sensing.c **** void CapSense_SsSetAllIOsState(uint32 state)
1167:Generated_Source\PSoC4/CapSense_Sensing.c **** {
 516              		.loc 1 1167 0
 517              		.cfi_startproc
 518              		@ args = 0, pretend = 0, frame = 8
 519              		@ frame_needed = 0, uses_anonymous_args = 0
 520              	.LVL39:
 521 0000 F7B5     		push	{r0, r1, r2, r4, r5, r6, r7, lr}
 522              		.cfi_def_cfa_offset 32
 523              		.cfi_offset 0, -32
ARM GAS  C:\Users\zack.li\AppData\Local\Temp\ccM7U1Od.s 			page 31


 524              		.cfi_offset 1, -28
 525              		.cfi_offset 2, -24
 526              		.cfi_offset 4, -20
 527              		.cfi_offset 5, -16
 528              		.cfi_offset 6, -12
 529              		.cfi_offset 7, -8
 530              		.cfi_offset 14, -4
 531              		.loc 1 1167 0
 532 0002 0600     		movs	r6, r0
1168:Generated_Source\PSoC4/CapSense_Sensing.c ****     uint8  interruptState;
1169:Generated_Source\PSoC4/CapSense_Sensing.c **** 
1170:Generated_Source\PSoC4/CapSense_Sensing.c ****     uint32 loopIndex;
1171:Generated_Source\PSoC4/CapSense_Sensing.c **** 
1172:Generated_Source\PSoC4/CapSense_Sensing.c ****     uint32 newPinPcVal;
1173:Generated_Source\PSoC4/CapSense_Sensing.c ****     uint32 newPinHsiomVal;
1174:Generated_Source\PSoC4/CapSense_Sensing.c **** 
1175:Generated_Source\PSoC4/CapSense_Sensing.c ****     uint32 tmpPcDrRegValue;
1176:Generated_Source\PSoC4/CapSense_Sensing.c ****     uint32 tmpHsiomRegValue;
1177:Generated_Source\PSoC4/CapSense_Sensing.c **** 
1178:Generated_Source\PSoC4/CapSense_Sensing.c ****     CapSense_FLASH_IO_STRUCT const *snsIoPtr;
1179:Generated_Source\PSoC4/CapSense_Sensing.c **** 
1180:Generated_Source\PSoC4/CapSense_Sensing.c ****     switch(state)
 533              		.loc 1 1180 0
 534 0004 0128     		cmp	r0, #1
 535 0006 07D0     		beq	.L67
 536 0008 0228     		cmp	r0, #2
 537 000a 02D0     		beq	.L65
1181:Generated_Source\PSoC4/CapSense_Sensing.c ****     {
1182:Generated_Source\PSoC4/CapSense_Sensing.c ****         case CapSense_SNS_CONNECTION_GROUND:
1183:Generated_Source\PSoC4/CapSense_Sensing.c ****             newPinPcVal = CY_SYS_PINS_DM_STRONG;
1184:Generated_Source\PSoC4/CapSense_Sensing.c ****             newPinHsiomVal = CapSense_HSIOM_SEL_GPIO;
 538              		.loc 1 1184 0
 539 000c 0025     		movs	r5, #0
1183:Generated_Source\PSoC4/CapSense_Sensing.c ****             newPinHsiomVal = CapSense_HSIOM_SEL_GPIO;
 540              		.loc 1 1183 0
 541 000e 0627     		movs	r7, #6
 542 0010 04E0     		b	.L64
 543              	.L65:
 544              	.LVL40:
1185:Generated_Source\PSoC4/CapSense_Sensing.c ****             break;
1186:Generated_Source\PSoC4/CapSense_Sensing.c ****         case CapSense_SNS_CONNECTION_HIGHZ:
1187:Generated_Source\PSoC4/CapSense_Sensing.c ****             newPinPcVal = CY_SYS_PINS_DM_ALG_HIZ;
1188:Generated_Source\PSoC4/CapSense_Sensing.c ****             newPinHsiomVal = CapSense_HSIOM_SEL_GPIO;
1189:Generated_Source\PSoC4/CapSense_Sensing.c ****             break;
1190:Generated_Source\PSoC4/CapSense_Sensing.c ****         case CapSense_SNS_CONNECTION_SHIELD:
1191:Generated_Source\PSoC4/CapSense_Sensing.c ****             newPinPcVal = CY_SYS_PINS_DM_ALG_HIZ;
1192:Generated_Source\PSoC4/CapSense_Sensing.c ****             newPinHsiomVal = CapSense_HSIOM_SEL_CSD_SHIELD;
 545              		.loc 1 1192 0
 546 0012 0525     		movs	r5, #5
1191:Generated_Source\PSoC4/CapSense_Sensing.c ****             newPinHsiomVal = CapSense_HSIOM_SEL_CSD_SHIELD;
 547              		.loc 1 1191 0
 548 0014 0027     		movs	r7, #0
1193:Generated_Source\PSoC4/CapSense_Sensing.c ****             break;
 549              		.loc 1 1193 0
 550 0016 01E0     		b	.L64
 551              	.LVL41:
 552              	.L67:
ARM GAS  C:\Users\zack.li\AppData\Local\Temp\ccM7U1Od.s 			page 32


1188:Generated_Source\PSoC4/CapSense_Sensing.c ****             break;
 553              		.loc 1 1188 0
 554 0018 0025     		movs	r5, #0
1187:Generated_Source\PSoC4/CapSense_Sensing.c ****             newPinHsiomVal = CapSense_HSIOM_SEL_GPIO;
 555              		.loc 1 1187 0
 556 001a 2F00     		movs	r7, r5
 557              	.L64:
 558              	.LVL42:
 559 001c 164C     		ldr	r4, .L69
 560              	.LVL43:
 561              	.L66:
1194:Generated_Source\PSoC4/CapSense_Sensing.c ****         default:
1195:Generated_Source\PSoC4/CapSense_Sensing.c ****             newPinPcVal = CY_SYS_PINS_DM_STRONG;
1196:Generated_Source\PSoC4/CapSense_Sensing.c ****             newPinHsiomVal = CapSense_HSIOM_SEL_GPIO;
1197:Generated_Source\PSoC4/CapSense_Sensing.c ****             break;
1198:Generated_Source\PSoC4/CapSense_Sensing.c ****     }
1199:Generated_Source\PSoC4/CapSense_Sensing.c **** 
1200:Generated_Source\PSoC4/CapSense_Sensing.c ****     /* Loop through all electrodes */
1201:Generated_Source\PSoC4/CapSense_Sensing.c ****     snsIoPtr = &CapSense_ioList[0u];
1202:Generated_Source\PSoC4/CapSense_Sensing.c ****     for (loopIndex = 0u; loopIndex < CapSense_TOTAL_ELECTRODES; loopIndex++)
1203:Generated_Source\PSoC4/CapSense_Sensing.c ****     {
1204:Generated_Source\PSoC4/CapSense_Sensing.c ****         interruptState = CyEnterCriticalSection();
 562              		.loc 1 1204 0 discriminator 3
 563 001e FFF7FEFF 		bl	CyEnterCriticalSection
 564              	.LVL44:
 565 0022 0190     		str	r0, [sp, #4]
 566              	.LVL45:
1205:Generated_Source\PSoC4/CapSense_Sensing.c **** 
1206:Generated_Source\PSoC4/CapSense_Sensing.c ****         tmpHsiomRegValue = CY_GET_REG32 (snsIoPtr->hsiomPtr);
1207:Generated_Source\PSoC4/CapSense_Sensing.c ****         tmpHsiomRegValue &= ~(snsIoPtr->hsiomMask);
1208:Generated_Source\PSoC4/CapSense_Sensing.c ****         CY_SET_REG32 (snsIoPtr->hsiomPtr, tmpHsiomRegValue);
1209:Generated_Source\PSoC4/CapSense_Sensing.c **** 
1210:Generated_Source\PSoC4/CapSense_Sensing.c ****         tmpPcDrRegValue = CY_GET_REG32 (snsIoPtr->pcPtr);
1211:Generated_Source\PSoC4/CapSense_Sensing.c ****         tmpPcDrRegValue &= ~(CapSense_GPIO_PC_MASK << snsIoPtr->shift);
 567              		.loc 1 1211 0 discriminator 3
 568 0024 0720     		movs	r0, #7
1206:Generated_Source\PSoC4/CapSense_Sensing.c ****         tmpHsiomRegValue &= ~(snsIoPtr->hsiomMask);
 569              		.loc 1 1206 0 discriminator 3
 570 0026 231F     		subs	r3, r4, #4
 571              	.LVL46:
 572 0028 1A68     		ldr	r2, [r3]
1207:Generated_Source\PSoC4/CapSense_Sensing.c ****         CY_SET_REG32 (snsIoPtr->hsiomPtr, tmpHsiomRegValue);
 573              		.loc 1 1207 0 discriminator 3
 574 002a E168     		ldr	r1, [r4, #12]
1206:Generated_Source\PSoC4/CapSense_Sensing.c ****         tmpHsiomRegValue &= ~(snsIoPtr->hsiomMask);
 575              		.loc 1 1206 0 discriminator 3
 576 002c 1368     		ldr	r3, [r2]
 577              	.LVL47:
1207:Generated_Source\PSoC4/CapSense_Sensing.c ****         CY_SET_REG32 (snsIoPtr->hsiomPtr, tmpHsiomRegValue);
 578              		.loc 1 1207 0 discriminator 3
 579 002e 8B43     		bics	r3, r1
 580              	.LVL48:
1208:Generated_Source\PSoC4/CapSense_Sensing.c **** 
 581              		.loc 1 1208 0 discriminator 3
 582 0030 1360     		str	r3, [r2]
 583              		.loc 1 1211 0 discriminator 3
 584 0032 A17D     		ldrb	r1, [r4, #22]
ARM GAS  C:\Users\zack.li\AppData\Local\Temp\ccM7U1Od.s 			page 33


1207:Generated_Source\PSoC4/CapSense_Sensing.c ****         CY_SET_REG32 (snsIoPtr->hsiomPtr, tmpHsiomRegValue);
 585              		.loc 1 1207 0 discriminator 3
 586 0034 9C46     		mov	ip, r3
 587              	.LVL49:
 588              		.loc 1 1211 0 discriminator 3
 589 0036 8840     		lsls	r0, r0, r1
1210:Generated_Source\PSoC4/CapSense_Sensing.c ****         tmpPcDrRegValue &= ~(CapSense_GPIO_PC_MASK << snsIoPtr->shift);
 590              		.loc 1 1210 0 discriminator 3
 591 0038 2368     		ldr	r3, [r4]
 592              	.LVL50:
 593 003a 1B68     		ldr	r3, [r3]
 594              	.LVL51:
 595              		.loc 1 1211 0 discriminator 3
 596 003c 8343     		bics	r3, r0
 597              	.LVL52:
1212:Generated_Source\PSoC4/CapSense_Sensing.c ****         tmpPcDrRegValue |=  (newPinPcVal << snsIoPtr->shift);
 598              		.loc 1 1212 0 discriminator 3
 599 003e 3800     		movs	r0, r7
 600 0040 8840     		lsls	r0, r0, r1
1213:Generated_Source\PSoC4/CapSense_Sensing.c ****         CY_SET_REG32 (snsIoPtr->pcPtr, tmpPcDrRegValue);
 601              		.loc 1 1213 0 discriminator 3
 602 0042 2168     		ldr	r1, [r4]
1212:Generated_Source\PSoC4/CapSense_Sensing.c ****         tmpPcDrRegValue |=  (newPinPcVal << snsIoPtr->shift);
 603              		.loc 1 1212 0 discriminator 3
 604 0044 0343     		orrs	r3, r0
 605              	.LVL53:
 606              		.loc 1 1213 0 discriminator 3
 607 0046 0B60     		str	r3, [r1]
1214:Generated_Source\PSoC4/CapSense_Sensing.c **** 
1215:Generated_Source\PSoC4/CapSense_Sensing.c ****         tmpHsiomRegValue |=  (newPinHsiomVal << snsIoPtr->hsiomShift);
 608              		.loc 1 1215 0 discriminator 3
 609 0048 2900     		movs	r1, r5
 610 004a 237D     		ldrb	r3, [r4, #20]
 611              	.LVL54:
1216:Generated_Source\PSoC4/CapSense_Sensing.c ****         CY_SET_REG32 (snsIoPtr->hsiomPtr, tmpHsiomRegValue);
1217:Generated_Source\PSoC4/CapSense_Sensing.c **** 
1218:Generated_Source\PSoC4/CapSense_Sensing.c ****         tmpPcDrRegValue = CY_GET_REG32 (snsIoPtr->drPtr);
1219:Generated_Source\PSoC4/CapSense_Sensing.c ****         tmpPcDrRegValue &= ~(snsIoPtr->mask);
1220:Generated_Source\PSoC4/CapSense_Sensing.c ****         CY_SET_REG32 (snsIoPtr->drPtr, tmpPcDrRegValue);
1221:Generated_Source\PSoC4/CapSense_Sensing.c **** 
1222:Generated_Source\PSoC4/CapSense_Sensing.c ****         CyExitCriticalSection(interruptState);
 612              		.loc 1 1222 0 discriminator 3
 613 004c 0198     		ldr	r0, [sp, #4]
1215:Generated_Source\PSoC4/CapSense_Sensing.c ****         CY_SET_REG32 (snsIoPtr->hsiomPtr, tmpHsiomRegValue);
 614              		.loc 1 1215 0 discriminator 3
 615 004e 9940     		lsls	r1, r1, r3
 616 0050 0B00     		movs	r3, r1
 617 0052 6146     		mov	r1, ip
 618 0054 0B43     		orrs	r3, r1
 619              	.LVL55:
1216:Generated_Source\PSoC4/CapSense_Sensing.c ****         CY_SET_REG32 (snsIoPtr->hsiomPtr, tmpHsiomRegValue);
 620              		.loc 1 1216 0 discriminator 3
 621 0056 1360     		str	r3, [r2]
 622              	.LVL56:
1218:Generated_Source\PSoC4/CapSense_Sensing.c ****         tmpPcDrRegValue &= ~(snsIoPtr->mask);
 623              		.loc 1 1218 0 discriminator 3
 624 0058 6268     		ldr	r2, [r4, #4]
ARM GAS  C:\Users\zack.li\AppData\Local\Temp\ccM7U1Od.s 			page 34


1219:Generated_Source\PSoC4/CapSense_Sensing.c ****         CY_SET_REG32 (snsIoPtr->drPtr, tmpPcDrRegValue);
 625              		.loc 1 1219 0 discriminator 3
 626 005a 2169     		ldr	r1, [r4, #16]
1218:Generated_Source\PSoC4/CapSense_Sensing.c ****         tmpPcDrRegValue &= ~(snsIoPtr->mask);
 627              		.loc 1 1218 0 discriminator 3
 628 005c 1368     		ldr	r3, [r2]
 629              	.LVL57:
 630 005e 1C34     		adds	r4, r4, #28
 631              	.LVL58:
1219:Generated_Source\PSoC4/CapSense_Sensing.c ****         CY_SET_REG32 (snsIoPtr->drPtr, tmpPcDrRegValue);
 632              		.loc 1 1219 0 discriminator 3
 633 0060 8B43     		bics	r3, r1
 634              	.LVL59:
1220:Generated_Source\PSoC4/CapSense_Sensing.c **** 
 635              		.loc 1 1220 0 discriminator 3
 636 0062 1360     		str	r3, [r2]
 637              	.LVL60:
 638              		.loc 1 1222 0 discriminator 3
 639 0064 FFF7FEFF 		bl	CyExitCriticalSection
 640              	.LVL61:
1202:Generated_Source\PSoC4/CapSense_Sensing.c ****     {
 641              		.loc 1 1202 0 discriminator 3
 642 0068 044B     		ldr	r3, .L69+4
 643 006a 9C42     		cmp	r4, r3
 644 006c D7D1     		bne	.L66
1223:Generated_Source\PSoC4/CapSense_Sensing.c **** 
1224:Generated_Source\PSoC4/CapSense_Sensing.c ****         /* Get next electrode */
1225:Generated_Source\PSoC4/CapSense_Sensing.c ****         snsIoPtr++;
1226:Generated_Source\PSoC4/CapSense_Sensing.c ****     }
1227:Generated_Source\PSoC4/CapSense_Sensing.c **** 
1228:Generated_Source\PSoC4/CapSense_Sensing.c ****     #if ((CapSense_ENABLE == CapSense_CSD_EN) &&\
1229:Generated_Source\PSoC4/CapSense_Sensing.c ****          (CapSense_ENABLE == CapSense_CSD_SHIELD_EN) &&\
1230:Generated_Source\PSoC4/CapSense_Sensing.c ****          (0u != CapSense_CSD_TOTAL_SHIELD_COUNT))
1231:Generated_Source\PSoC4/CapSense_Sensing.c ****         CapSense_SsCSDSetShieldElectrodesState(state);
 645              		.loc 1 1231 0
 646 006e 3000     		movs	r0, r6
 647 0070 FFF7FEFF 		bl	CapSense_SsCSDSetShieldElectrodesState
 648              	.LVL62:
1232:Generated_Source\PSoC4/CapSense_Sensing.c ****     #endif
1233:Generated_Source\PSoC4/CapSense_Sensing.c **** 
1234:Generated_Source\PSoC4/CapSense_Sensing.c ****     #if(CapSense_ENABLE == CapSense_ADC_EN)
1235:Generated_Source\PSoC4/CapSense_Sensing.c ****         CapSense_ClearAdcChannels();
1236:Generated_Source\PSoC4/CapSense_Sensing.c ****     #endif
1237:Generated_Source\PSoC4/CapSense_Sensing.c **** 
1238:Generated_Source\PSoC4/CapSense_Sensing.c **** }
 649              		.loc 1 1238 0
 650              		@ sp needed
 651              	.LVL63:
 652              	.LVL64:
 653              	.LVL65:
 654 0074 F7BD     		pop	{r0, r1, r2, r4, r5, r6, r7, pc}
 655              	.L70:
 656 0076 C046     		.align	2
 657              	.L69:
 658 0078 04000000 		.word	CapSense_ioList+4
 659 007c 74000000 		.word	CapSense_ioList+116
 660              		.cfi_endproc
ARM GAS  C:\Users\zack.li\AppData\Local\Temp\ccM7U1Od.s 			page 35


 661              	.LFE11:
 662              		.size	CapSense_SsSetAllIOsState, .-CapSense_SsSetAllIOsState
 663              		.section	.text.CapSense_SsPostAllWidgetsScan,"ax",%progbits
 664              		.align	1
 665              		.global	CapSense_SsPostAllWidgetsScan
 666              		.code	16
 667              		.thumb_func
 668              		.type	CapSense_SsPostAllWidgetsScan, %function
 669              	CapSense_SsPostAllWidgetsScan:
 670              	.LFB12:
1239:Generated_Source\PSoC4/CapSense_Sensing.c **** 
1240:Generated_Source\PSoC4/CapSense_Sensing.c **** #if (CapSense_ENABLE == CapSense_ADC_EN)
1241:Generated_Source\PSoC4/CapSense_Sensing.c **** /*******************************************************************************
1242:Generated_Source\PSoC4/CapSense_Sensing.c **** * Function Name: CapSense_SsReleaseResources()
1243:Generated_Source\PSoC4/CapSense_Sensing.c **** ****************************************************************************//**
1244:Generated_Source\PSoC4/CapSense_Sensing.c **** *
1245:Generated_Source\PSoC4/CapSense_Sensing.c **** * \brief
1246:Generated_Source\PSoC4/CapSense_Sensing.c **** *  This function sets the resources that do not belong to the sensing HW block to
1247:Generated_Source\PSoC4/CapSense_Sensing.c **** *  default state.
1248:Generated_Source\PSoC4/CapSense_Sensing.c **** *
1249:Generated_Source\PSoC4/CapSense_Sensing.c **** * \details
1250:Generated_Source\PSoC4/CapSense_Sensing.c **** *  The function performs following tasks:
1251:Generated_Source\PSoC4/CapSense_Sensing.c **** *  1. Checks if CSD block busy and returns error if it is busy
1252:Generated_Source\PSoC4/CapSense_Sensing.c **** *  2. Disconnects integration capacitors (CintA, CintB for CSX mode and
1253:Generated_Source\PSoC4/CapSense_Sensing.c **** *     Cmod for CSD mode)
1254:Generated_Source\PSoC4/CapSense_Sensing.c **** *  3. Disconnect electroded if they have been connected.
1255:Generated_Source\PSoC4/CapSense_Sensing.c **** *
1256:Generated_Source\PSoC4/CapSense_Sensing.c **** * \return
1257:Generated_Source\PSoC4/CapSense_Sensing.c **** *  Returns the status of the operation:
1258:Generated_Source\PSoC4/CapSense_Sensing.c **** *  - Zero        - Resources released successfully.
1259:Generated_Source\PSoC4/CapSense_Sensing.c **** *  - Non-zero    - One or more errors occurred in releasing process.
1260:Generated_Source\PSoC4/CapSense_Sensing.c **** *
1261:Generated_Source\PSoC4/CapSense_Sensing.c **** *******************************************************************************/
1262:Generated_Source\PSoC4/CapSense_Sensing.c **** cystatus CapSense_SsReleaseResources(void)
1263:Generated_Source\PSoC4/CapSense_Sensing.c **** {
1264:Generated_Source\PSoC4/CapSense_Sensing.c ****     cystatus busyStatus = CYRET_SUCCESS;
1265:Generated_Source\PSoC4/CapSense_Sensing.c **** 
1266:Generated_Source\PSoC4/CapSense_Sensing.c ****     if (CapSense_SW_STS_BUSY == (CapSense_dsRam.status & CapSense_SW_STS_BUSY))
1267:Generated_Source\PSoC4/CapSense_Sensing.c ****     {
1268:Generated_Source\PSoC4/CapSense_Sensing.c ****         /* Previous widget is being scanned. Return error. */
1269:Generated_Source\PSoC4/CapSense_Sensing.c ****         busyStatus = CYRET_INVALID_STATE;
1270:Generated_Source\PSoC4/CapSense_Sensing.c ****     }
1271:Generated_Source\PSoC4/CapSense_Sensing.c ****     else
1272:Generated_Source\PSoC4/CapSense_Sensing.c ****     {
1273:Generated_Source\PSoC4/CapSense_Sensing.c ****         #if (CapSense_ENABLE == CapSense_CSX_EN)
1274:Generated_Source\PSoC4/CapSense_Sensing.c ****             CapSense_SsDisableCSXMode();
1275:Generated_Source\PSoC4/CapSense_Sensing.c ****         #endif /* (CapSense_ENABLE == CapSense_CSX_EN) */
1276:Generated_Source\PSoC4/CapSense_Sensing.c **** 
1277:Generated_Source\PSoC4/CapSense_Sensing.c ****         #if (CapSense_ENABLE == CapSense_ISX_EN)
1278:Generated_Source\PSoC4/CapSense_Sensing.c ****             CapSense_SsDisableISXMode();
1279:Generated_Source\PSoC4/CapSense_Sensing.c ****         #endif /* (CapSense_ENABLE == CapSense_ISX_EN) */
1280:Generated_Source\PSoC4/CapSense_Sensing.c **** 
1281:Generated_Source\PSoC4/CapSense_Sensing.c ****         #if (CapSense_ENABLE == CapSense_CSD_EN)
1282:Generated_Source\PSoC4/CapSense_Sensing.c ****             CapSense_SsCSDDisableMode();
1283:Generated_Source\PSoC4/CapSense_Sensing.c ****         #endif /* (CapSense_ENABLE == CapSense_CSD_EN) */
1284:Generated_Source\PSoC4/CapSense_Sensing.c **** 
1285:Generated_Source\PSoC4/CapSense_Sensing.c ****         #if (CapSense_ENABLE == CapSense_SELF_TEST_EN)
ARM GAS  C:\Users\zack.li\AppData\Local\Temp\ccM7U1Od.s 			page 36


1286:Generated_Source\PSoC4/CapSense_Sensing.c ****             CapSense_BistDisableMode();
1287:Generated_Source\PSoC4/CapSense_Sensing.c ****         #endif /* (CapSense_ENABLE == CapSense_SELF_TEST_EN) */
1288:Generated_Source\PSoC4/CapSense_Sensing.c **** 
1289:Generated_Source\PSoC4/CapSense_Sensing.c ****         CapSense_SsSetAllIOsState((uint32)CapSense_SNS_CONNECTION_GROUND);
1290:Generated_Source\PSoC4/CapSense_Sensing.c **** 
1291:Generated_Source\PSoC4/CapSense_Sensing.c ****         /*
1292:Generated_Source\PSoC4/CapSense_Sensing.c ****          * Reset of the currentSenseMethod variable to make sure that the next
1293:Generated_Source\PSoC4/CapSense_Sensing.c ****          * call of SetupWidget() API setups the correct widget mode
1294:Generated_Source\PSoC4/CapSense_Sensing.c ****          */
1295:Generated_Source\PSoC4/CapSense_Sensing.c ****         CapSense_currentSenseMethod = CapSense_UNDEFINED_E;
1296:Generated_Source\PSoC4/CapSense_Sensing.c ****     }
1297:Generated_Source\PSoC4/CapSense_Sensing.c **** 
1298:Generated_Source\PSoC4/CapSense_Sensing.c ****     return busyStatus;
1299:Generated_Source\PSoC4/CapSense_Sensing.c **** }
1300:Generated_Source\PSoC4/CapSense_Sensing.c **** #endif /* (CapSense_ENABLE == CapSense_ADC_EN) */
1301:Generated_Source\PSoC4/CapSense_Sensing.c **** 
1302:Generated_Source\PSoC4/CapSense_Sensing.c **** 
1303:Generated_Source\PSoC4/CapSense_Sensing.c **** /*******************************************************************************
1304:Generated_Source\PSoC4/CapSense_Sensing.c **** * Function Name: CapSense_SsPostAllWidgetsScan
1305:Generated_Source\PSoC4/CapSense_Sensing.c **** ****************************************************************************//**
1306:Generated_Source\PSoC4/CapSense_Sensing.c **** *
1307:Generated_Source\PSoC4/CapSense_Sensing.c **** * \brief
1308:Generated_Source\PSoC4/CapSense_Sensing.c **** *  The ISR function for multiple widget scanning implementation.
1309:Generated_Source\PSoC4/CapSense_Sensing.c **** *
1310:Generated_Source\PSoC4/CapSense_Sensing.c **** * \details
1311:Generated_Source\PSoC4/CapSense_Sensing.c **** *  This is the function used by the CapSense ISR to implement multiple widget
1312:Generated_Source\PSoC4/CapSense_Sensing.c **** *  scanning.
1313:Generated_Source\PSoC4/CapSense_Sensing.c **** *  Should not be used by the application layer.
1314:Generated_Source\PSoC4/CapSense_Sensing.c **** *
1315:Generated_Source\PSoC4/CapSense_Sensing.c **** *******************************************************************************/
1316:Generated_Source\PSoC4/CapSense_Sensing.c **** void CapSense_SsPostAllWidgetsScan(void)
1317:Generated_Source\PSoC4/CapSense_Sensing.c **** {
 671              		.loc 1 1317 0
 672              		.cfi_startproc
 673              		@ args = 0, pretend = 0, frame = 0
 674              		@ frame_needed = 0, uses_anonymous_args = 0
 675 0000 10B5     		push	{r4, lr}
 676              		.cfi_def_cfa_offset 8
 677              		.cfi_offset 4, -8
 678              		.cfi_offset 14, -4
 679              	.L76:
1318:Generated_Source\PSoC4/CapSense_Sensing.c ****     /*
1319:Generated_Source\PSoC4/CapSense_Sensing.c ****     *  1. Increment widget index
1320:Generated_Source\PSoC4/CapSense_Sensing.c ****     *  2. Check if all the widgets are scanned
1321:Generated_Source\PSoC4/CapSense_Sensing.c ****     *  3. If all the widgets are not scanned, set up and scan next widget
1322:Generated_Source\PSoC4/CapSense_Sensing.c ****     */
1323:Generated_Source\PSoC4/CapSense_Sensing.c ****     #if (1u != CapSense_TOTAL_WIDGETS)
1324:Generated_Source\PSoC4/CapSense_Sensing.c ****         cystatus postScanStatus;
1325:Generated_Source\PSoC4/CapSense_Sensing.c **** 
1326:Generated_Source\PSoC4/CapSense_Sensing.c ****         do
1327:Generated_Source\PSoC4/CapSense_Sensing.c ****         {
1328:Generated_Source\PSoC4/CapSense_Sensing.c ****             CapSense_widgetIndex++;
 680              		.loc 1 1328 0
 681 0002 174C     		ldr	r4, .L77
 682 0004 A378     		ldrb	r3, [r4, #2]
 683 0006 0133     		adds	r3, r3, #1
 684 0008 DBB2     		uxtb	r3, r3
ARM GAS  C:\Users\zack.li\AppData\Local\Temp\ccM7U1Od.s 			page 37


 685 000a A370     		strb	r3, [r4, #2]
1329:Generated_Source\PSoC4/CapSense_Sensing.c **** 
1330:Generated_Source\PSoC4/CapSense_Sensing.c ****             postScanStatus = CapSense_SetupWidget((uint32)CapSense_widgetIndex);
 686              		.loc 1 1330 0
 687 000c A078     		ldrb	r0, [r4, #2]
 688 000e C0B2     		uxtb	r0, r0
 689 0010 FFF7FEFF 		bl	CapSense_SetupWidget
 690              	.LVL66:
1331:Generated_Source\PSoC4/CapSense_Sensing.c **** 
1332:Generated_Source\PSoC4/CapSense_Sensing.c ****             if (CYRET_SUCCESS == postScanStatus)
 691              		.loc 1 1332 0
 692 0014 0028     		cmp	r0, #0
 693 0016 06D1     		bne	.L72
1333:Generated_Source\PSoC4/CapSense_Sensing.c ****             {
1334:Generated_Source\PSoC4/CapSense_Sensing.c ****                 if((CapSense_TOTAL_WIDGETS - 1u) == CapSense_widgetIndex)
 694              		.loc 1 1334 0
 695 0018 A378     		ldrb	r3, [r4, #2]
 696 001a 032B     		cmp	r3, #3
 697 001c 00D1     		bne	.L73
1335:Generated_Source\PSoC4/CapSense_Sensing.c ****                 {
1336:Generated_Source\PSoC4/CapSense_Sensing.c ****                     /* The last widget will be scanned. Reset flag to skip configuring the next wid
1337:Generated_Source\PSoC4/CapSense_Sensing.c ****                     CapSense_requestScanAllWidget = CapSense_DISABLE;
 698              		.loc 1 1337 0
 699 001e 6070     		strb	r0, [r4, #1]
 700              	.L73:
1338:Generated_Source\PSoC4/CapSense_Sensing.c ****                 }
1339:Generated_Source\PSoC4/CapSense_Sensing.c ****                 (void)CapSense_Scan();
 701              		.loc 1 1339 0
 702 0020 FFF7FEFF 		bl	CapSense_Scan
 703              	.LVL67:
 704 0024 1BE0     		b	.L71
 705              	.LVL68:
 706              	.L72:
1340:Generated_Source\PSoC4/CapSense_Sensing.c ****             }
1341:Generated_Source\PSoC4/CapSense_Sensing.c ****             else if((CapSense_TOTAL_WIDGETS - 1u) == CapSense_widgetIndex)
 707              		.loc 1 1341 0
 708 0026 A278     		ldrb	r2, [r4, #2]
 709 0028 0E4B     		ldr	r3, .L77+4
 710 002a 0006     		lsls	r0, r0, #24
 711              	.LVL69:
 712 002c 032A     		cmp	r2, #3
 713 002e 0ED1     		bne	.L75
1342:Generated_Source\PSoC4/CapSense_Sensing.c ****             {
1343:Generated_Source\PSoC4/CapSense_Sensing.c ****                 #if ((CapSense_ENABLE == CapSense_BLOCK_OFF_AFTER_SCAN_EN) && \
1344:Generated_Source\PSoC4/CapSense_Sensing.c ****                      (CapSense_ENABLE == CapSense_CSD_EN))
1345:Generated_Source\PSoC4/CapSense_Sensing.c ****                     if (CapSense_SENSE_METHOD_CSD_E ==
1346:Generated_Source\PSoC4/CapSense_Sensing.c ****                         CapSense_GET_SENSE_METHOD(&CapSense_dsFlash.wdgtArray[CapSense_widgetIndex]
1347:Generated_Source\PSoC4/CapSense_Sensing.c ****                     {
1348:Generated_Source\PSoC4/CapSense_Sensing.c ****                         /* Disable the CSD block */
1349:Generated_Source\PSoC4/CapSense_Sensing.c ****                         CY_SET_REG32(CapSense_CONFIG_PTR, CapSense_configCsd);
1350:Generated_Source\PSoC4/CapSense_Sensing.c ****                     }
1351:Generated_Source\PSoC4/CapSense_Sensing.c ****                 #endif /* ((CapSense_ENABLE == CapSense_BLOCK_OFF_AFTER_SCAN_EN) && \
1352:Generated_Source\PSoC4/CapSense_Sensing.c ****                            (CapSense_ENABLE == CapSense_CSD_EN)) */
1353:Generated_Source\PSoC4/CapSense_Sensing.c **** 
1354:Generated_Source\PSoC4/CapSense_Sensing.c ****                 /* Update scan Counter */
1355:Generated_Source\PSoC4/CapSense_Sensing.c ****                 CapSense_dsRam.scanCounter++;
1356:Generated_Source\PSoC4/CapSense_Sensing.c ****                 /* All widgets are totally processed. Reset BUSY flag */
ARM GAS  C:\Users\zack.li\AppData\Local\Temp\ccM7U1Od.s 			page 38


1357:Generated_Source\PSoC4/CapSense_Sensing.c ****                 CapSense_dsRam.status &= ~CapSense_SW_STS_BUSY;
 714              		.loc 1 1357 0
 715 0030 8021     		movs	r1, #128
1355:Generated_Source\PSoC4/CapSense_Sensing.c ****                 /* All widgets are totally processed. Reset BUSY flag */
 716              		.loc 1 1355 0
 717 0032 1A89     		ldrh	r2, [r3, #8]
 718 0034 0132     		adds	r2, r2, #1
 719 0036 1A81     		strh	r2, [r3, #8]
 720              		.loc 1 1357 0
 721 0038 DA68     		ldr	r2, [r3, #12]
 722 003a 8A43     		bics	r2, r1
 723 003c DA60     		str	r2, [r3, #12]
1358:Generated_Source\PSoC4/CapSense_Sensing.c **** 
1359:Generated_Source\PSoC4/CapSense_Sensing.c ****                 /* Update status with with the failure */
1360:Generated_Source\PSoC4/CapSense_Sensing.c ****                 CapSense_dsRam.status &= ~CapSense_STATUS_ERR_MASK;
 724              		.loc 1 1360 0
 725 003e DA68     		ldr	r2, [r3, #12]
 726 0040 1202     		lsls	r2, r2, #8
 727 0042 120A     		lsrs	r2, r2, #8
 728 0044 DA60     		str	r2, [r3, #12]
1361:Generated_Source\PSoC4/CapSense_Sensing.c ****                 CapSense_dsRam.status |= ((postScanStatus & CapSense_STATUS_ERR_SIZE) << CapSense_S
 729              		.loc 1 1361 0
 730 0046 DA68     		ldr	r2, [r3, #12]
 731 0048 1043     		orrs	r0, r2
 732 004a D860     		str	r0, [r3, #12]
 733              	.LVL70:
 734 004c 07E0     		b	.L71
 735              	.LVL71:
 736              	.L75:
1362:Generated_Source\PSoC4/CapSense_Sensing.c **** 
1363:Generated_Source\PSoC4/CapSense_Sensing.c ****                 /* Set postScanStatus to exit the while loop */
1364:Generated_Source\PSoC4/CapSense_Sensing.c ****                 postScanStatus = CYRET_SUCCESS;
1365:Generated_Source\PSoC4/CapSense_Sensing.c ****             }
1366:Generated_Source\PSoC4/CapSense_Sensing.c ****             else
1367:Generated_Source\PSoC4/CapSense_Sensing.c ****             {
1368:Generated_Source\PSoC4/CapSense_Sensing.c ****                 /* Update status with with the failure. Configure the next widget in while() loop *
1369:Generated_Source\PSoC4/CapSense_Sensing.c ****                 CapSense_dsRam.status &= ~CapSense_STATUS_ERR_MASK;
 737              		.loc 1 1369 0
 738 004e DA68     		ldr	r2, [r3, #12]
 739 0050 1202     		lsls	r2, r2, #8
 740 0052 120A     		lsrs	r2, r2, #8
 741 0054 DA60     		str	r2, [r3, #12]
1370:Generated_Source\PSoC4/CapSense_Sensing.c ****                 CapSense_dsRam.status |= ((postScanStatus & CapSense_STATUS_ERR_SIZE) << CapSense_S
 742              		.loc 1 1370 0
 743 0056 DA68     		ldr	r2, [r3, #12]
 744 0058 1043     		orrs	r0, r2
 745 005a D860     		str	r0, [r3, #12]
 746 005c D1E7     		b	.L76
 747              	.L71:
1371:Generated_Source\PSoC4/CapSense_Sensing.c ****             }
1372:Generated_Source\PSoC4/CapSense_Sensing.c ****         } while (CYRET_SUCCESS != postScanStatus);
1373:Generated_Source\PSoC4/CapSense_Sensing.c ****     #endif /* (1u != CapSense_TOTAL_WIDGETS) */
1374:Generated_Source\PSoC4/CapSense_Sensing.c **** }
 748              		.loc 1 1374 0
 749              		@ sp needed
 750 005e 10BD     		pop	{r4, pc}
 751              	.L78:
ARM GAS  C:\Users\zack.li\AppData\Local\Temp\ccM7U1Od.s 			page 39


 752              		.align	2
 753              	.L77:
 754 0060 00000000 		.word	.LANCHOR0
 755 0064 00000000 		.word	CapSense_dsRam
 756              		.cfi_endproc
 757              	.LFE12:
 758              		.size	CapSense_SsPostAllWidgetsScan, .-CapSense_SsPostAllWidgetsScan
 759              		.section	.text.CapSense_SsIsrInitialize,"ax",%progbits
 760              		.align	1
 761              		.global	CapSense_SsIsrInitialize
 762              		.code	16
 763              		.thumb_func
 764              		.type	CapSense_SsIsrInitialize, %function
 765              	CapSense_SsIsrInitialize:
 766              	.LFB13:
1375:Generated_Source\PSoC4/CapSense_Sensing.c **** 
1376:Generated_Source\PSoC4/CapSense_Sensing.c **** 
1377:Generated_Source\PSoC4/CapSense_Sensing.c **** /*******************************************************************************
1378:Generated_Source\PSoC4/CapSense_Sensing.c **** * Function Name: CapSense_SsIsrInitialize
1379:Generated_Source\PSoC4/CapSense_Sensing.c **** ****************************************************************************//**
1380:Generated_Source\PSoC4/CapSense_Sensing.c **** *
1381:Generated_Source\PSoC4/CapSense_Sensing.c **** * \brief
1382:Generated_Source\PSoC4/CapSense_Sensing.c **** *  Enables and initializes for the function pointer for a callback for the ISR.
1383:Generated_Source\PSoC4/CapSense_Sensing.c **** *
1384:Generated_Source\PSoC4/CapSense_Sensing.c **** * \details
1385:Generated_Source\PSoC4/CapSense_Sensing.c **** *  The "address" is a special type cyisraddress defined by Cylib. This function
1386:Generated_Source\PSoC4/CapSense_Sensing.c **** *  is used by Component APIs and should not be used by an application program for
1387:Generated_Source\PSoC4/CapSense_Sensing.c **** *  proper working of the Component.
1388:Generated_Source\PSoC4/CapSense_Sensing.c **** *
1389:Generated_Source\PSoC4/CapSense_Sensing.c **** * \param address
1390:Generated_Source\PSoC4/CapSense_Sensing.c **** *  The address of the function to be called when interrupt is fired.
1391:Generated_Source\PSoC4/CapSense_Sensing.c **** *
1392:Generated_Source\PSoC4/CapSense_Sensing.c **** *******************************************************************************/
1393:Generated_Source\PSoC4/CapSense_Sensing.c **** void CapSense_SsIsrInitialize(cyisraddress address)
1394:Generated_Source\PSoC4/CapSense_Sensing.c **** {
 767              		.loc 1 1394 0
 768              		.cfi_startproc
 769              		@ args = 0, pretend = 0, frame = 0
 770              		@ frame_needed = 0, uses_anonymous_args = 0
 771              	.LVL72:
 772 0000 10B5     		push	{r4, lr}
 773              		.cfi_def_cfa_offset 8
 774              		.cfi_offset 4, -8
 775              		.cfi_offset 14, -4
1395:Generated_Source\PSoC4/CapSense_Sensing.c ****     CapSense_ISR_StartEx(address);
 776              		.loc 1 1395 0
 777 0002 FFF7FEFF 		bl	CapSense_ISR_StartEx
 778              	.LVL73:
1396:Generated_Source\PSoC4/CapSense_Sensing.c **** }
 779              		.loc 1 1396 0
 780              		@ sp needed
 781 0006 10BD     		pop	{r4, pc}
 782              		.cfi_endproc
 783              	.LFE13:
 784              		.size	CapSense_SsIsrInitialize, .-CapSense_SsIsrInitialize
 785              		.section	.text.CapSense_SsSetModClkClockDivider,"ax",%progbits
 786              		.align	1
ARM GAS  C:\Users\zack.li\AppData\Local\Temp\ccM7U1Od.s 			page 40


 787              		.global	CapSense_SsSetModClkClockDivider
 788              		.code	16
 789              		.thumb_func
 790              		.type	CapSense_SsSetModClkClockDivider, %function
 791              	CapSense_SsSetModClkClockDivider:
 792              	.LFB14:
1397:Generated_Source\PSoC4/CapSense_Sensing.c **** 
1398:Generated_Source\PSoC4/CapSense_Sensing.c **** 
1399:Generated_Source\PSoC4/CapSense_Sensing.c **** /*******************************************************************************
1400:Generated_Source\PSoC4/CapSense_Sensing.c **** * Function Name: CapSense_SsSetModClkClockDivider
1401:Generated_Source\PSoC4/CapSense_Sensing.c **** ****************************************************************************//**
1402:Generated_Source\PSoC4/CapSense_Sensing.c **** *
1403:Generated_Source\PSoC4/CapSense_Sensing.c **** * \brief
1404:Generated_Source\PSoC4/CapSense_Sensing.c **** *  Sets the divider values for the modulator clock and then starts
1405:Generated_Source\PSoC4/CapSense_Sensing.c **** *  the modulator clock.
1406:Generated_Source\PSoC4/CapSense_Sensing.c **** *
1407:Generated_Source\PSoC4/CapSense_Sensing.c **** * \details
1408:Generated_Source\PSoC4/CapSense_Sensing.c **** *  It is not recommended to call this function directly by the application layer.
1409:Generated_Source\PSoC4/CapSense_Sensing.c **** *  It is used by initialization, widget APIs or wakeup functions to
1410:Generated_Source\PSoC4/CapSense_Sensing.c **** *  enable the clocks.
1411:Generated_Source\PSoC4/CapSense_Sensing.c **** *
1412:Generated_Source\PSoC4/CapSense_Sensing.c **** * \param modClk
1413:Generated_Source\PSoC4/CapSense_Sensing.c **** *  The divider value for the modulator clock.
1414:Generated_Source\PSoC4/CapSense_Sensing.c **** *
1415:Generated_Source\PSoC4/CapSense_Sensing.c **** *******************************************************************************/
1416:Generated_Source\PSoC4/CapSense_Sensing.c **** void CapSense_SsSetModClkClockDivider(uint32 modClk)
1417:Generated_Source\PSoC4/CapSense_Sensing.c **** {
 793              		.loc 1 1417 0
 794              		.cfi_startproc
 795              		@ args = 0, pretend = 0, frame = 0
 796              		@ frame_needed = 0, uses_anonymous_args = 0
 797              		@ link register save eliminated.
 798              	.LVL74:
1418:Generated_Source\PSoC4/CapSense_Sensing.c **** #if (CapSense_ENABLE == CapSense_IS_M0S8PERI_BLOCK)
1419:Generated_Source\PSoC4/CapSense_Sensing.c ****     /* Stop modulator clock */
1420:Generated_Source\PSoC4/CapSense_Sensing.c ****     CY_SET_REG32(CapSense_MODCLK_CMD_PTR,
 799              		.loc 1 1420 0
 800 0000 064A     		ldr	r2, .L83
 801 0002 074B     		ldr	r3, .L83+4
1421:Generated_Source\PSoC4/CapSense_Sensing.c ****                  ((uint32)CapSense_ModClk__DIV_ID <<
1422:Generated_Source\PSoC4/CapSense_Sensing.c ****                  CapSense_MODCLK_CMD_DIV_SHIFT)|
1423:Generated_Source\PSoC4/CapSense_Sensing.c ****                  ((uint32)CapSense_MODCLK_CMD_DISABLE_MASK));
1424:Generated_Source\PSoC4/CapSense_Sensing.c **** 
1425:Generated_Source\PSoC4/CapSense_Sensing.c ****     /*
1426:Generated_Source\PSoC4/CapSense_Sensing.c ****      * Set divider value for sense modClk.
1427:Generated_Source\PSoC4/CapSense_Sensing.c ****      * 1u is subtracted from modClk because Divider register value 0 corresponds
1428:Generated_Source\PSoC4/CapSense_Sensing.c ****      * to dividing by 1.
1429:Generated_Source\PSoC4/CapSense_Sensing.c ****      */
1430:Generated_Source\PSoC4/CapSense_Sensing.c ****     CY_SET_REG32(CapSense_MODCLK_DIV_PTR, ((modClk - 1u) << 8u));
 802              		.loc 1 1430 0
 803 0004 0138     		subs	r0, r0, #1
 804              	.LVL75:
1420:Generated_Source\PSoC4/CapSense_Sensing.c ****                  ((uint32)CapSense_ModClk__DIV_ID <<
 805              		.loc 1 1420 0
 806 0006 1A60     		str	r2, [r3]
 807              		.loc 1 1430 0
 808 0008 064A     		ldr	r2, .L83+8
ARM GAS  C:\Users\zack.li\AppData\Local\Temp\ccM7U1Od.s 			page 41


 809 000a 0002     		lsls	r0, r0, #8
 810              	.LVL76:
 811 000c 1060     		str	r0, [r2]
 812              	.L81:
1431:Generated_Source\PSoC4/CapSense_Sensing.c **** 
1432:Generated_Source\PSoC4/CapSense_Sensing.c ****     /* Check whether previous modulator clock start command has finished. */
1433:Generated_Source\PSoC4/CapSense_Sensing.c ****     while(0u != (CY_GET_REG32(CapSense_MODCLK_CMD_PTR) & CapSense_MODCLK_CMD_ENABLE_MASK))
 813              		.loc 1 1433 0 discriminator 1
 814 000e 1A68     		ldr	r2, [r3]
 815 0010 002A     		cmp	r2, #0
 816 0012 FCDB     		blt	.L81
1434:Generated_Source\PSoC4/CapSense_Sensing.c ****     {
1435:Generated_Source\PSoC4/CapSense_Sensing.c ****         /* Wait until previous modulator clock start command has finished */
1436:Generated_Source\PSoC4/CapSense_Sensing.c ****     }
1437:Generated_Source\PSoC4/CapSense_Sensing.c **** 
1438:Generated_Source\PSoC4/CapSense_Sensing.c ****     /* Start modulator clock, aligned to HFCLK */
1439:Generated_Source\PSoC4/CapSense_Sensing.c ****     CY_SET_REG32(CapSense_MODCLK_CMD_PTR,
 817              		.loc 1 1439 0
 818 0014 044A     		ldr	r2, .L83+12
 819 0016 024B     		ldr	r3, .L83+4
1440:Generated_Source\PSoC4/CapSense_Sensing.c ****                  (uint32)(((uint32)CapSense_ModClk__DIV_ID << CapSense_MODCLK_CMD_DIV_SHIFT) |
1441:Generated_Source\PSoC4/CapSense_Sensing.c ****                   ((uint32)CapSense_ModClk__PA_DIV_ID << CapSense_MODCLK_CMD_PA_DIV_SHIFT) |
1442:Generated_Source\PSoC4/CapSense_Sensing.c ****                   CapSense_MODCLK_CMD_ENABLE_MASK));
1443:Generated_Source\PSoC4/CapSense_Sensing.c **** #else
1444:Generated_Source\PSoC4/CapSense_Sensing.c ****     uint32 newRegValue;
1445:Generated_Source\PSoC4/CapSense_Sensing.c **** 
1446:Generated_Source\PSoC4/CapSense_Sensing.c ****     /* Clear bit to disable ModClk clock. */
1447:Generated_Source\PSoC4/CapSense_Sensing.c ****     CY_SET_REG32(CapSense_MODCLK_CMD_PTR,
1448:Generated_Source\PSoC4/CapSense_Sensing.c ****                  CY_GET_REG32(CapSense_MODCLK_CMD_PTR) &
1449:Generated_Source\PSoC4/CapSense_Sensing.c ****                  (uint32)(~CapSense_ModClk__ENABLE_MASK));
1450:Generated_Source\PSoC4/CapSense_Sensing.c **** 
1451:Generated_Source\PSoC4/CapSense_Sensing.c ****     /*
1452:Generated_Source\PSoC4/CapSense_Sensing.c ****      * Update ModClk clock divider.
1453:Generated_Source\PSoC4/CapSense_Sensing.c ****      * 1u is subtracted from modClk because Divider register value has range (0-65535).
1454:Generated_Source\PSoC4/CapSense_Sensing.c ****      */
1455:Generated_Source\PSoC4/CapSense_Sensing.c ****     newRegValue = CY_GET_REG32(CapSense_MODCLK_DIV_PTR) & (uint32)(~(uint32)CapSense_ModClk__DIVIDE
1456:Generated_Source\PSoC4/CapSense_Sensing.c ****     newRegValue |= (modClk - 1u);
1457:Generated_Source\PSoC4/CapSense_Sensing.c ****     CY_SET_REG32(CapSense_MODCLK_DIV_PTR, newRegValue);
1458:Generated_Source\PSoC4/CapSense_Sensing.c **** 
1459:Generated_Source\PSoC4/CapSense_Sensing.c ****     /* Set bit to enable ModClk clock. */
1460:Generated_Source\PSoC4/CapSense_Sensing.c ****     CY_SET_REG32(CapSense_MODCLK_CMD_PTR,
1461:Generated_Source\PSoC4/CapSense_Sensing.c ****                  CY_GET_REG32(CapSense_MODCLK_CMD_PTR) |
1462:Generated_Source\PSoC4/CapSense_Sensing.c ****                 CapSense_ModClk__ENABLE_MASK);
1463:Generated_Source\PSoC4/CapSense_Sensing.c **** #endif /* (CapSense_ENABLE == CapSense_IS_M0S8PERI_BLOCK) */
1464:Generated_Source\PSoC4/CapSense_Sensing.c **** }
 820              		.loc 1 1464 0
 821              		@ sp needed
1439:Generated_Source\PSoC4/CapSense_Sensing.c ****                  (uint32)(((uint32)CapSense_ModClk__DIV_ID << CapSense_MODCLK_CMD_DIV_SHIFT) |
 822              		.loc 1 1439 0
 823 0018 1A60     		str	r2, [r3]
 824              		.loc 1 1464 0
 825 001a 7047     		bx	lr
 826              	.L84:
 827              		.align	2
 828              	.L83:
 829 001c 40000040 		.word	1073741888
 830 0020 00000140 		.word	1073807360
ARM GAS  C:\Users\zack.li\AppData\Local\Temp\ccM7U1Od.s 			page 42


 831 0024 00030140 		.word	1073808128
 832 0028 40FF0080 		.word	-2147418304
 833              		.cfi_endproc
 834              	.LFE14:
 835              		.size	CapSense_SsSetModClkClockDivider, .-CapSense_SsSetModClkClockDivider
 836              		.section	.text.CapSense_SsSetSnsClockDivider,"ax",%progbits
 837              		.align	1
 838              		.global	CapSense_SsSetSnsClockDivider
 839              		.code	16
 840              		.thumb_func
 841              		.type	CapSense_SsSetSnsClockDivider, %function
 842              	CapSense_SsSetSnsClockDivider:
 843              	.LFB15:
1465:Generated_Source\PSoC4/CapSense_Sensing.c **** 
1466:Generated_Source\PSoC4/CapSense_Sensing.c **** 
1467:Generated_Source\PSoC4/CapSense_Sensing.c **** /*******************************************************************************
1468:Generated_Source\PSoC4/CapSense_Sensing.c **** * Function Name: CapSense_SsSetSnsClockDivider
1469:Generated_Source\PSoC4/CapSense_Sensing.c **** ****************************************************************************//**
1470:Generated_Source\PSoC4/CapSense_Sensing.c **** *
1471:Generated_Source\PSoC4/CapSense_Sensing.c **** * \brief
1472:Generated_Source\PSoC4/CapSense_Sensing.c **** *  Sets the divider values for the sense clock and then starts
1473:Generated_Source\PSoC4/CapSense_Sensing.c **** *  the sense clock.
1474:Generated_Source\PSoC4/CapSense_Sensing.c **** *
1475:Generated_Source\PSoC4/CapSense_Sensing.c **** * \details
1476:Generated_Source\PSoC4/CapSense_Sensing.c **** *  It is not recommended to call this function directly by the application layer.
1477:Generated_Source\PSoC4/CapSense_Sensing.c **** *  It is used by initialization, widget APIs or wakeup functions to
1478:Generated_Source\PSoC4/CapSense_Sensing.c **** *  enable the clocks.
1479:Generated_Source\PSoC4/CapSense_Sensing.c **** *
1480:Generated_Source\PSoC4/CapSense_Sensing.c **** * \param
1481:Generated_Source\PSoC4/CapSense_Sensing.c **** *  snsClk The divider value for the sense clock.
1482:Generated_Source\PSoC4/CapSense_Sensing.c **** *
1483:Generated_Source\PSoC4/CapSense_Sensing.c **** *******************************************************************************/
1484:Generated_Source\PSoC4/CapSense_Sensing.c **** void CapSense_SsSetSnsClockDivider(uint32 snsClk)
1485:Generated_Source\PSoC4/CapSense_Sensing.c **** {
 844              		.loc 1 1485 0
 845              		.cfi_startproc
 846              		@ args = 0, pretend = 0, frame = 0
 847              		@ frame_needed = 0, uses_anonymous_args = 0
 848              		@ link register save eliminated.
 849              	.LVL77:
1486:Generated_Source\PSoC4/CapSense_Sensing.c **** #if (CapSense_ENABLE == CapSense_CSDV2)
1487:Generated_Source\PSoC4/CapSense_Sensing.c ****     uint32 newRegValue;
1488:Generated_Source\PSoC4/CapSense_Sensing.c **** 
1489:Generated_Source\PSoC4/CapSense_Sensing.c ****     /*
1490:Generated_Source\PSoC4/CapSense_Sensing.c ****      * Set divider value for sense clock.
1491:Generated_Source\PSoC4/CapSense_Sensing.c ****      * 1u is subtracted from snsClk because SENSE_DIV value 0 corresponds
1492:Generated_Source\PSoC4/CapSense_Sensing.c ****      * to dividing by 1.
1493:Generated_Source\PSoC4/CapSense_Sensing.c ****      */
1494:Generated_Source\PSoC4/CapSense_Sensing.c ****     newRegValue = CY_GET_REG32(CapSense_SENSE_PERIOD_PTR);
1495:Generated_Source\PSoC4/CapSense_Sensing.c ****     newRegValue &= (uint32)(~CapSense_SENSE_PERIOD_SENSE_DIV_MASK);
1496:Generated_Source\PSoC4/CapSense_Sensing.c ****     newRegValue |= snsClk - 1u;
1497:Generated_Source\PSoC4/CapSense_Sensing.c ****     CY_SET_REG32(CapSense_SENSE_PERIOD_PTR, newRegValue);
1498:Generated_Source\PSoC4/CapSense_Sensing.c **** #else
1499:Generated_Source\PSoC4/CapSense_Sensing.c ****     #if (CapSense_ENABLE == CapSense_IS_M0S8PERI_BLOCK)
1500:Generated_Source\PSoC4/CapSense_Sensing.c ****         /* Stop sense clock clock   */
1501:Generated_Source\PSoC4/CapSense_Sensing.c ****         CY_SET_REG32(CapSense_SNSCLK_CMD_PTR,
 850              		.loc 1 1501 0
ARM GAS  C:\Users\zack.li\AppData\Local\Temp\ccM7U1Od.s 			page 43


 851 0000 064A     		ldr	r2, .L88
 852 0002 074B     		ldr	r3, .L88+4
1502:Generated_Source\PSoC4/CapSense_Sensing.c ****                      ((uint32)CapSense_SnsClk__DIV_ID <<
1503:Generated_Source\PSoC4/CapSense_Sensing.c ****                      CapSense_SNSCLK_CMD_DIV_SHIFT)|
1504:Generated_Source\PSoC4/CapSense_Sensing.c ****                      ((uint32)CapSense_SNSCLK_CMD_DISABLE_MASK));
1505:Generated_Source\PSoC4/CapSense_Sensing.c **** 
1506:Generated_Source\PSoC4/CapSense_Sensing.c ****         /*
1507:Generated_Source\PSoC4/CapSense_Sensing.c ****          * Set divider value for sense clock.
1508:Generated_Source\PSoC4/CapSense_Sensing.c ****          * 1u is subtracted from snsClk because Divider register value 0 corresponds
1509:Generated_Source\PSoC4/CapSense_Sensing.c ****          * to dividing by 1.
1510:Generated_Source\PSoC4/CapSense_Sensing.c ****          */
1511:Generated_Source\PSoC4/CapSense_Sensing.c ****         CY_SET_REG32(CapSense_SNSCLK_DIV_PTR, ((snsClk - 1u) << 8u));
 853              		.loc 1 1511 0
 854 0004 0138     		subs	r0, r0, #1
 855              	.LVL78:
1501:Generated_Source\PSoC4/CapSense_Sensing.c ****                      ((uint32)CapSense_SnsClk__DIV_ID <<
 856              		.loc 1 1501 0
 857 0006 1A60     		str	r2, [r3]
 858              		.loc 1 1511 0
 859 0008 064A     		ldr	r2, .L88+8
 860 000a 0002     		lsls	r0, r0, #8
 861              	.LVL79:
 862 000c 1060     		str	r0, [r2]
 863              	.L86:
1512:Generated_Source\PSoC4/CapSense_Sensing.c **** 
1513:Generated_Source\PSoC4/CapSense_Sensing.c ****         /* Check whether previous sense clock start command has finished. */
1514:Generated_Source\PSoC4/CapSense_Sensing.c ****         while(0u != (CY_GET_REG32(CapSense_SNSCLK_CMD_PTR) & CapSense_SNSCLK_CMD_ENABLE_MASK))
 864              		.loc 1 1514 0 discriminator 1
 865 000e 1A68     		ldr	r2, [r3]
 866 0010 002A     		cmp	r2, #0
 867 0012 FCDB     		blt	.L86
1515:Generated_Source\PSoC4/CapSense_Sensing.c ****         {
1516:Generated_Source\PSoC4/CapSense_Sensing.c ****             /* Wait until previous sense clock start command has finished. */
1517:Generated_Source\PSoC4/CapSense_Sensing.c ****         }
1518:Generated_Source\PSoC4/CapSense_Sensing.c **** 
1519:Generated_Source\PSoC4/CapSense_Sensing.c ****         /* Start sense clock aligned to previously started modulator clock. */
1520:Generated_Source\PSoC4/CapSense_Sensing.c ****         CY_SET_REG32(CapSense_SNSCLK_CMD_PTR,
 868              		.loc 1 1520 0
 869 0014 044A     		ldr	r2, .L88+12
 870 0016 024B     		ldr	r3, .L88+4
1521:Generated_Source\PSoC4/CapSense_Sensing.c ****                      (uint32)(((uint32)CapSense_SnsClk__DIV_ID << CapSense_SNSCLK_CMD_DIV_SHIFT) |
1522:Generated_Source\PSoC4/CapSense_Sensing.c ****                       ((uint32)CapSense_ModClk__PA_DIV_ID << CapSense_SNSCLK_CMD_PA_DIV_SHIFT) |
1523:Generated_Source\PSoC4/CapSense_Sensing.c ****                       CapSense_SNSCLK_CMD_ENABLE_MASK));
1524:Generated_Source\PSoC4/CapSense_Sensing.c ****     #else
1525:Generated_Source\PSoC4/CapSense_Sensing.c ****         uint32 newRegValue;
1526:Generated_Source\PSoC4/CapSense_Sensing.c **** 
1527:Generated_Source\PSoC4/CapSense_Sensing.c ****         /* Clear bit to disable SnsClk clock. */
1528:Generated_Source\PSoC4/CapSense_Sensing.c ****         CY_SET_REG32(CapSense_SNSCLK_CMD_PTR,
1529:Generated_Source\PSoC4/CapSense_Sensing.c ****                      CY_GET_REG32(CapSense_SNSCLK_CMD_PTR) &
1530:Generated_Source\PSoC4/CapSense_Sensing.c ****                      (uint32)(~(uint32)CapSense_SnsClk__ENABLE_MASK));
1531:Generated_Source\PSoC4/CapSense_Sensing.c **** 
1532:Generated_Source\PSoC4/CapSense_Sensing.c ****         /*
1533:Generated_Source\PSoC4/CapSense_Sensing.c ****          * Update snsClk clock divider.
1534:Generated_Source\PSoC4/CapSense_Sensing.c ****          * 1u is subtracted from snsClk because Divider register value has range (0-65535).
1535:Generated_Source\PSoC4/CapSense_Sensing.c ****          */
1536:Generated_Source\PSoC4/CapSense_Sensing.c ****         newRegValue = CY_GET_REG32(CapSense_SNSCLK_DIV_PTR) & (uint32)(~(uint32)CapSense_SnsClk__DI
1537:Generated_Source\PSoC4/CapSense_Sensing.c ****         newRegValue |= (snsClk - 1u);
ARM GAS  C:\Users\zack.li\AppData\Local\Temp\ccM7U1Od.s 			page 44


1538:Generated_Source\PSoC4/CapSense_Sensing.c ****         CY_SET_REG32(CapSense_SNSCLK_DIV_PTR, newRegValue);
1539:Generated_Source\PSoC4/CapSense_Sensing.c **** 
1540:Generated_Source\PSoC4/CapSense_Sensing.c ****         /* Set bit to enable SnsClk clock. */
1541:Generated_Source\PSoC4/CapSense_Sensing.c ****         CY_SET_REG32(CapSense_SNSCLK_CMD_PTR,
1542:Generated_Source\PSoC4/CapSense_Sensing.c ****                      CY_GET_REG32(CapSense_SNSCLK_CMD_PTR) |
1543:Generated_Source\PSoC4/CapSense_Sensing.c ****                     CapSense_SnsClk__ENABLE_MASK);
1544:Generated_Source\PSoC4/CapSense_Sensing.c ****     #endif /* (CapSense_ENABLE == CapSense_IS_M0S8PERI_BLOCK) */
1545:Generated_Source\PSoC4/CapSense_Sensing.c **** #endif /* (CapSense_ENABLE == CapSense_CSDV2) */
1546:Generated_Source\PSoC4/CapSense_Sensing.c **** }
 871              		.loc 1 1546 0
 872              		@ sp needed
1520:Generated_Source\PSoC4/CapSense_Sensing.c ****                      (uint32)(((uint32)CapSense_SnsClk__DIV_ID << CapSense_SNSCLK_CMD_DIV_SHIFT) |
 873              		.loc 1 1520 0
 874 0018 1A60     		str	r2, [r3]
 875              		.loc 1 1546 0
 876 001a 7047     		bx	lr
 877              	.L89:
 878              		.align	2
 879              	.L88:
 880 001c 41000040 		.word	1073741889
 881 0020 00000140 		.word	1073807360
 882 0024 04030140 		.word	1073808132
 883 0028 41FF0080 		.word	-2147418303
 884              		.cfi_endproc
 885              	.LFE15:
 886              		.size	CapSense_SsSetSnsClockDivider, .-CapSense_SsSetSnsClockDivider
 887              		.section	.text.CapSense_SsSetClockDividers,"ax",%progbits
 888              		.align	1
 889              		.global	CapSense_SsSetClockDividers
 890              		.code	16
 891              		.thumb_func
 892              		.type	CapSense_SsSetClockDividers, %function
 893              	CapSense_SsSetClockDividers:
 894              	.LFB16:
1547:Generated_Source\PSoC4/CapSense_Sensing.c **** 
1548:Generated_Source\PSoC4/CapSense_Sensing.c **** 
1549:Generated_Source\PSoC4/CapSense_Sensing.c **** /*******************************************************************************
1550:Generated_Source\PSoC4/CapSense_Sensing.c **** * Function Name: CapSense_SsSetClockDividers
1551:Generated_Source\PSoC4/CapSense_Sensing.c **** ****************************************************************************//**
1552:Generated_Source\PSoC4/CapSense_Sensing.c **** *
1553:Generated_Source\PSoC4/CapSense_Sensing.c **** * \brief
1554:Generated_Source\PSoC4/CapSense_Sensing.c **** *  Sets the divider values for sense and modulator clocks and then starts
1555:Generated_Source\PSoC4/CapSense_Sensing.c **** *  a modulator clock-phase aligned to HFCLK and sense clock-phase aligned to
1556:Generated_Source\PSoC4/CapSense_Sensing.c **** *  the modulator clock.
1557:Generated_Source\PSoC4/CapSense_Sensing.c **** *
1558:Generated_Source\PSoC4/CapSense_Sensing.c **** * \details
1559:Generated_Source\PSoC4/CapSense_Sensing.c **** *  It is not recommended to call this function directly by the application layer.
1560:Generated_Source\PSoC4/CapSense_Sensing.c **** *  It is used by initialization, widget APIs or wakeup functions to
1561:Generated_Source\PSoC4/CapSense_Sensing.c **** *  enable the clocks.
1562:Generated_Source\PSoC4/CapSense_Sensing.c **** *
1563:Generated_Source\PSoC4/CapSense_Sensing.c **** * \param
1564:Generated_Source\PSoC4/CapSense_Sensing.c **** *  snsClk The divider value for the sense clock.
1565:Generated_Source\PSoC4/CapSense_Sensing.c **** *  modClk The divider value for the modulator clock.
1566:Generated_Source\PSoC4/CapSense_Sensing.c **** *
1567:Generated_Source\PSoC4/CapSense_Sensing.c **** *******************************************************************************/
1568:Generated_Source\PSoC4/CapSense_Sensing.c **** void CapSense_SsSetClockDividers(uint32 snsClk, uint32 modClk)
1569:Generated_Source\PSoC4/CapSense_Sensing.c **** {
ARM GAS  C:\Users\zack.li\AppData\Local\Temp\ccM7U1Od.s 			page 45


 895              		.loc 1 1569 0
 896              		.cfi_startproc
 897              		@ args = 0, pretend = 0, frame = 0
 898              		@ frame_needed = 0, uses_anonymous_args = 0
 899              	.LVL80:
 900 0000 10B5     		push	{r4, lr}
 901              		.cfi_def_cfa_offset 8
 902              		.cfi_offset 4, -8
 903              		.cfi_offset 14, -4
 904              		.loc 1 1569 0
 905 0002 0400     		movs	r4, r0
1570:Generated_Source\PSoC4/CapSense_Sensing.c ****     /* Configure Mod clock */
1571:Generated_Source\PSoC4/CapSense_Sensing.c ****     CapSense_SsSetModClkClockDivider(modClk);
 906              		.loc 1 1571 0
 907 0004 0800     		movs	r0, r1
 908              	.LVL81:
 909 0006 FFF7FEFF 		bl	CapSense_SsSetModClkClockDivider
 910              	.LVL82:
1572:Generated_Source\PSoC4/CapSense_Sensing.c **** 
1573:Generated_Source\PSoC4/CapSense_Sensing.c ****     /* Configure Sns clock */
1574:Generated_Source\PSoC4/CapSense_Sensing.c ****     CapSense_SsSetSnsClockDivider(snsClk);
 911              		.loc 1 1574 0
 912 000a 2000     		movs	r0, r4
 913 000c FFF7FEFF 		bl	CapSense_SsSetSnsClockDivider
 914              	.LVL83:
1575:Generated_Source\PSoC4/CapSense_Sensing.c **** }
 915              		.loc 1 1575 0
 916              		@ sp needed
 917              	.LVL84:
 918 0010 10BD     		pop	{r4, pc}
 919              		.cfi_endproc
 920              	.LFE16:
 921              		.size	CapSense_SsSetClockDividers, .-CapSense_SsSetClockDividers
 922              		.section	.text.CapSense_CalibrateWidget,"ax",%progbits
 923              		.align	1
 924              		.global	CapSense_CalibrateWidget
 925              		.code	16
 926              		.thumb_func
 927              		.type	CapSense_CalibrateWidget, %function
 928              	CapSense_CalibrateWidget:
 929              	.LFB17:
1576:Generated_Source\PSoC4/CapSense_Sensing.c **** 
1577:Generated_Source\PSoC4/CapSense_Sensing.c **** 
1578:Generated_Source\PSoC4/CapSense_Sensing.c **** #if (CapSense_ANYMODE_AUTOCAL)
1579:Generated_Source\PSoC4/CapSense_Sensing.c ****     /*******************************************************************************
1580:Generated_Source\PSoC4/CapSense_Sensing.c ****     * Function Name: CapSense_CalibrateWidget
1581:Generated_Source\PSoC4/CapSense_Sensing.c ****     ****************************************************************************//**
1582:Generated_Source\PSoC4/CapSense_Sensing.c ****     *
1583:Generated_Source\PSoC4/CapSense_Sensing.c ****     * \brief
1584:Generated_Source\PSoC4/CapSense_Sensing.c ****     *  Calibrates the IDACs for all the sensors in the specified widget to the default
1585:Generated_Source\PSoC4/CapSense_Sensing.c ****     *  target, this function detects the sensing method used by the
1586:Generated_Source\PSoC4/CapSense_Sensing.c ****     *  widget prior to calibration.
1587:Generated_Source\PSoC4/CapSense_Sensing.c ****     *
1588:Generated_Source\PSoC4/CapSense_Sensing.c ****     * \details
1589:Generated_Source\PSoC4/CapSense_Sensing.c ****     *  This function performs exactly the same tasks as
1590:Generated_Source\PSoC4/CapSense_Sensing.c ****     *  CapSense_CalibrateAllWidgets, but only for a specified widget.
1591:Generated_Source\PSoC4/CapSense_Sensing.c ****     *  This function detects the sensing method used by the widgets and uses
ARM GAS  C:\Users\zack.li\AppData\Local\Temp\ccM7U1Od.s 			page 46


1592:Generated_Source\PSoC4/CapSense_Sensing.c ****     *  the Enable compensation IDAC parameter.
1593:Generated_Source\PSoC4/CapSense_Sensing.c ****     *  \if SECTION_I_REP
1594:Generated_Source\PSoC4/CapSense_Sensing.c ****     *  For ISX mode, the frequency is also calibrated.
1595:Generated_Source\PSoC4/CapSense_Sensing.c ****     *  \endif
1596:Generated_Source\PSoC4/CapSense_Sensing.c ****     *
1597:Generated_Source\PSoC4/CapSense_Sensing.c ****     *  \if SECTION_C_LOW_LEVEL
1598:Generated_Source\PSoC4/CapSense_Sensing.c ****     *  This function is available when the CSD and/or CSX Enable IDAC
1599:Generated_Source\PSoC4/CapSense_Sensing.c ****     *  auto-calibration parameter is enabled.
1600:Generated_Source\PSoC4/CapSense_Sensing.c ****     *  \endif
1601:Generated_Source\PSoC4/CapSense_Sensing.c ****     *  \if SECTION_I_REP
1602:Generated_Source\PSoC4/CapSense_Sensing.c ****     *  This function is available when the ISX Enable auto-calibration parameter
1603:Generated_Source\PSoC4/CapSense_Sensing.c ****     *  is enabled.
1604:Generated_Source\PSoC4/CapSense_Sensing.c ****     *  \endif
1605:Generated_Source\PSoC4/CapSense_Sensing.c ****     *
1606:Generated_Source\PSoC4/CapSense_Sensing.c ****     * \param widgetId
1607:Generated_Source\PSoC4/CapSense_Sensing.c ****     *  Specifies the ID number of the widget to calibrate its raw count.
1608:Generated_Source\PSoC4/CapSense_Sensing.c ****     *  A macro for the widget ID can be found in the
1609:Generated_Source\PSoC4/CapSense_Sensing.c ****     *  CapSense Configuration header file defined as
1610:Generated_Source\PSoC4/CapSense_Sensing.c ****     *  CapSense_<WidgetName>_WDGT_ID.
1611:Generated_Source\PSoC4/CapSense_Sensing.c ****     *
1612:Generated_Source\PSoC4/CapSense_Sensing.c ****     * \return
1613:Generated_Source\PSoC4/CapSense_Sensing.c ****     *  Returns the status of the specified widget calibration:
1614:Generated_Source\PSoC4/CapSense_Sensing.c ****     *  - CYRET_SUCCESS - The operation is successfully completed.
1615:Generated_Source\PSoC4/CapSense_Sensing.c ****     *  - CYRET_BAD_PARAM - The input parameter is invalid.
1616:Generated_Source\PSoC4/CapSense_Sensing.c ****     *  - CYRET_BAD_DATA - The calibration failed and the Component may not
1617:Generated_Source\PSoC4/CapSense_Sensing.c ****     *    operate as expected.
1618:Generated_Source\PSoC4/CapSense_Sensing.c ****     *
1619:Generated_Source\PSoC4/CapSense_Sensing.c ****     *******************************************************************************/
1620:Generated_Source\PSoC4/CapSense_Sensing.c ****     cystatus CapSense_CalibrateWidget(uint32 widgetId)
1621:Generated_Source\PSoC4/CapSense_Sensing.c ****     {
 930              		.loc 1 1621 0
 931              		.cfi_startproc
 932              		@ args = 0, pretend = 0, frame = 0
 933              		@ frame_needed = 0, uses_anonymous_args = 0
 934              	.LVL85:
 935 0000 10B5     		push	{r4, lr}
 936              		.cfi_def_cfa_offset 8
 937              		.cfi_offset 4, -8
 938              		.cfi_offset 14, -4
1622:Generated_Source\PSoC4/CapSense_Sensing.c ****         cystatus calibrateStatus = CYRET_SUCCESS;
1623:Generated_Source\PSoC4/CapSense_Sensing.c **** 
1624:Generated_Source\PSoC4/CapSense_Sensing.c ****         do
1625:Generated_Source\PSoC4/CapSense_Sensing.c ****         {
1626:Generated_Source\PSoC4/CapSense_Sensing.c ****             if (CapSense_TOTAL_WIDGETS <= widgetId)
 939              		.loc 1 1626 0
 940 0002 0328     		cmp	r0, #3
 941 0004 01D9     		bls	.L92
 942 0006 0120     		movs	r0, #1
 943              	.LVL86:
 944 0008 02E0     		b	.L94
 945              	.LVL87:
 946              	.L92:
 947              	.LBB12:
 948              	.LBB13:
1627:Generated_Source\PSoC4/CapSense_Sensing.c ****             {
1628:Generated_Source\PSoC4/CapSense_Sensing.c ****                 calibrateStatus = CYRET_BAD_PARAM;
1629:Generated_Source\PSoC4/CapSense_Sensing.c ****             }
ARM GAS  C:\Users\zack.li\AppData\Local\Temp\ccM7U1Od.s 			page 47


1630:Generated_Source\PSoC4/CapSense_Sensing.c **** 
1631:Generated_Source\PSoC4/CapSense_Sensing.c ****             /*
1632:Generated_Source\PSoC4/CapSense_Sensing.c ****              *  Check if widget id is valid, specified widget did not
1633:Generated_Source\PSoC4/CapSense_Sensing.c ****              *  detect any faults conditions if BIST is enabled.
1634:Generated_Source\PSoC4/CapSense_Sensing.c ****              */
1635:Generated_Source\PSoC4/CapSense_Sensing.c ****             #if (CapSense_ENABLE == CapSense_SELF_TEST_EN)
1636:Generated_Source\PSoC4/CapSense_Sensing.c ****                 if (0u != CapSense_GET_WIDGET_EN_STATUS(widgetId))
1637:Generated_Source\PSoC4/CapSense_Sensing.c ****                 {
1638:Generated_Source\PSoC4/CapSense_Sensing.c ****                     calibrateStatus = CYRET_SUCCESS;
1639:Generated_Source\PSoC4/CapSense_Sensing.c ****                 }
1640:Generated_Source\PSoC4/CapSense_Sensing.c ****                 else
1641:Generated_Source\PSoC4/CapSense_Sensing.c ****                 {
1642:Generated_Source\PSoC4/CapSense_Sensing.c ****                     calibrateStatus = CYRET_INVALID_STATE;
1643:Generated_Source\PSoC4/CapSense_Sensing.c ****                 }
1644:Generated_Source\PSoC4/CapSense_Sensing.c ****             #endif  /* (CapSense_ENABLE == CapSense_SELF_TEST_EN) */
1645:Generated_Source\PSoC4/CapSense_Sensing.c **** 
1646:Generated_Source\PSoC4/CapSense_Sensing.c ****             if (CYRET_SUCCESS != calibrateStatus)
1647:Generated_Source\PSoC4/CapSense_Sensing.c ****             {
1648:Generated_Source\PSoC4/CapSense_Sensing.c ****                 /* Exit from the loop because of a fail */
1649:Generated_Source\PSoC4/CapSense_Sensing.c ****                 break;
1650:Generated_Source\PSoC4/CapSense_Sensing.c ****             }
1651:Generated_Source\PSoC4/CapSense_Sensing.c **** 
1652:Generated_Source\PSoC4/CapSense_Sensing.c ****             /* If both CSD and CSX are enabled, calibrate widget using sensing method */
1653:Generated_Source\PSoC4/CapSense_Sensing.c ****             #if (CapSense_ENABLE == CapSense_MANY_WIDGET_METHODS_EN)
1654:Generated_Source\PSoC4/CapSense_Sensing.c ****                 /* Check widget sensing method and call appropriate APIs */
1655:Generated_Source\PSoC4/CapSense_Sensing.c ****                 #if (CapSense_ENABLE == CapSense_ISX_IDAC_AUTOCAL_EN)
1656:Generated_Source\PSoC4/CapSense_Sensing.c ****                     if (CapSense_SENSE_METHOD_ISX_E ==
1657:Generated_Source\PSoC4/CapSense_Sensing.c ****                         CapSense_GET_SENSE_METHOD(&CapSense_dsFlash.wdgtArray[widgetId]))
1658:Generated_Source\PSoC4/CapSense_Sensing.c ****                     {
1659:Generated_Source\PSoC4/CapSense_Sensing.c ****                         /* Calibrate CSX widget */
1660:Generated_Source\PSoC4/CapSense_Sensing.c ****                        CapSense_ISXCalibrateWidget(widgetId, CapSense_ISX_RAWCOUNT_CAL_LEVEL);
1661:Generated_Source\PSoC4/CapSense_Sensing.c ****                     }
1662:Generated_Source\PSoC4/CapSense_Sensing.c ****                 #endif  /* (CapSense_ENABLE == CapSense_ISX_IDAC_AUTOCAL_EN) */
1663:Generated_Source\PSoC4/CapSense_Sensing.c **** 
1664:Generated_Source\PSoC4/CapSense_Sensing.c ****                 /* Check widget sensing method and call appropriate APIs */
1665:Generated_Source\PSoC4/CapSense_Sensing.c ****                 #if (CapSense_ENABLE == CapSense_CSX_IDAC_AUTOCAL_EN)
1666:Generated_Source\PSoC4/CapSense_Sensing.c ****                     if (CapSense_SENSE_METHOD_CSX_E ==
1667:Generated_Source\PSoC4/CapSense_Sensing.c ****                         CapSense_GET_SENSE_METHOD(&CapSense_dsFlash.wdgtArray[widgetId]))
1668:Generated_Source\PSoC4/CapSense_Sensing.c ****                     {
1669:Generated_Source\PSoC4/CapSense_Sensing.c ****                         /* Calibrate CSX widget */
1670:Generated_Source\PSoC4/CapSense_Sensing.c ****                        calibrateStatus = CapSense_CSXCalibrateWidget(widgetId, CapSense_CSX_RAWCOUN
1671:Generated_Source\PSoC4/CapSense_Sensing.c ****                     }
1672:Generated_Source\PSoC4/CapSense_Sensing.c ****                 #endif  /* (CapSense_ENABLE == CapSense_CSX_IDAC_AUTOCAL_EN) */
1673:Generated_Source\PSoC4/CapSense_Sensing.c **** 
1674:Generated_Source\PSoC4/CapSense_Sensing.c ****                 #if (CapSense_ENABLE == CapSense_CSD_IDAC_AUTOCAL_EN)
1675:Generated_Source\PSoC4/CapSense_Sensing.c ****                     if (CapSense_SENSE_METHOD_CSD_E ==
1676:Generated_Source\PSoC4/CapSense_Sensing.c ****                         CapSense_GET_SENSE_METHOD(&CapSense_dsFlash.wdgtArray[widgetId]))
1677:Generated_Source\PSoC4/CapSense_Sensing.c ****                     {
1678:Generated_Source\PSoC4/CapSense_Sensing.c ****                         /* Calibrate CSD widget */
1679:Generated_Source\PSoC4/CapSense_Sensing.c ****                         calibrateStatus = CapSense_CSDCalibrateWidget(widgetId, CapSense_CSD_RAWCOU
1680:Generated_Source\PSoC4/CapSense_Sensing.c ****                     }
1681:Generated_Source\PSoC4/CapSense_Sensing.c ****                 #endif  /* (CapSense_ENABLE == CapSense_CSD_IDAC_AUTOCAL_EN) */
1682:Generated_Source\PSoC4/CapSense_Sensing.c **** 
1683:Generated_Source\PSoC4/CapSense_Sensing.c ****             /* If only CSD is enabled, calibrate CSD sensor */
1684:Generated_Source\PSoC4/CapSense_Sensing.c ****             #elif (CapSense_ENABLE == CapSense_CSD_EN)
1685:Generated_Source\PSoC4/CapSense_Sensing.c ****                 calibrateStatus = CapSense_CSDCalibrateWidget(widgetId, CapSense_CSD_RAWCOUNT_CAL_L
 949              		.loc 1 1685 0
ARM GAS  C:\Users\zack.li\AppData\Local\Temp\ccM7U1Od.s 			page 48


 950 000a 5521     		movs	r1, #85
 951 000c FFF7FEFF 		bl	CapSense_CSDCalibrateWidget
 952              	.LVL88:
 953              	.L94:
 954              	.LBE13:
 955              	.LBE12:
1686:Generated_Source\PSoC4/CapSense_Sensing.c **** 
1687:Generated_Source\PSoC4/CapSense_Sensing.c ****             /* If only CSX is enabled, call CSX scan */
1688:Generated_Source\PSoC4/CapSense_Sensing.c ****             #elif (CapSense_ENABLE == CapSense_CSX_EN)
1689:Generated_Source\PSoC4/CapSense_Sensing.c ****                 calibrateStatus = CapSense_CSXCalibrateWidget(widgetId, CapSense_CSX_RAWCOUNT_CAL_L
1690:Generated_Source\PSoC4/CapSense_Sensing.c **** 
1691:Generated_Source\PSoC4/CapSense_Sensing.c ****             /* If only ISX is enabled, call ISX scan */
1692:Generated_Source\PSoC4/CapSense_Sensing.c ****             #elif (CapSense_ENABLE == CapSense_ISX_EN)
1693:Generated_Source\PSoC4/CapSense_Sensing.c ****                 CapSense_ISXCalibrateWidget(widgetId, CapSense_ISX_RAWCOUNT_CAL_LEVEL);
1694:Generated_Source\PSoC4/CapSense_Sensing.c **** 
1695:Generated_Source\PSoC4/CapSense_Sensing.c ****             #else
1696:Generated_Source\PSoC4/CapSense_Sensing.c ****                 calibrateStatus = CYRET_UNKNOWN;
1697:Generated_Source\PSoC4/CapSense_Sensing.c ****             #endif
1698:Generated_Source\PSoC4/CapSense_Sensing.c ****         } while (0u);
1699:Generated_Source\PSoC4/CapSense_Sensing.c **** 
1700:Generated_Source\PSoC4/CapSense_Sensing.c ****         return calibrateStatus;
1701:Generated_Source\PSoC4/CapSense_Sensing.c ****     }
 956              		.loc 1 1701 0
 957              		@ sp needed
 958 0010 10BD     		pop	{r4, pc}
 959              		.cfi_endproc
 960              	.LFE17:
 961              		.size	CapSense_CalibrateWidget, .-CapSense_CalibrateWidget
 962              		.section	.text.CapSense_CalibrateAllWidgets,"ax",%progbits
 963              		.align	1
 964              		.global	CapSense_CalibrateAllWidgets
 965              		.code	16
 966              		.thumb_func
 967              		.type	CapSense_CalibrateAllWidgets, %function
 968              	CapSense_CalibrateAllWidgets:
 969              	.LFB18:
1702:Generated_Source\PSoC4/CapSense_Sensing.c **** 
1703:Generated_Source\PSoC4/CapSense_Sensing.c **** 
1704:Generated_Source\PSoC4/CapSense_Sensing.c ****     /*******************************************************************************
1705:Generated_Source\PSoC4/CapSense_Sensing.c ****     * Function Name: CapSense_CalibrateAllWidgets
1706:Generated_Source\PSoC4/CapSense_Sensing.c ****     ****************************************************************************//**
1707:Generated_Source\PSoC4/CapSense_Sensing.c ****     *
1708:Generated_Source\PSoC4/CapSense_Sensing.c ****     * \brief
1709:Generated_Source\PSoC4/CapSense_Sensing.c ****     *  Calibrates the IDACs for all the widgets in the Component to the default
1710:Generated_Source\PSoC4/CapSense_Sensing.c ****     *  target, this function detects the sensing method used by the widgets
1711:Generated_Source\PSoC4/CapSense_Sensing.c ****     *  prior to calibration.
1712:Generated_Source\PSoC4/CapSense_Sensing.c ****     *
1713:Generated_Source\PSoC4/CapSense_Sensing.c ****     * \details
1714:Generated_Source\PSoC4/CapSense_Sensing.c ****     *  Calibrates the IDACs for all the widgets in the Component to the default
1715:Generated_Source\PSoC4/CapSense_Sensing.c ****     *  target value. This function detects the sensing method used by the widgets
1716:Generated_Source\PSoC4/CapSense_Sensing.c ****     *  and regards the Enable compensation IDAC parameter.
1717:Generated_Source\PSoC4/CapSense_Sensing.c ****     *  \if SECTION_I_REP
1718:Generated_Source\PSoC4/CapSense_Sensing.c ****     *  For ISX mode, the frequency is also calibrated.
1719:Generated_Source\PSoC4/CapSense_Sensing.c ****     *  \endif
1720:Generated_Source\PSoC4/CapSense_Sensing.c ****     *
1721:Generated_Source\PSoC4/CapSense_Sensing.c ****     *  \cond SECTION_C_LOW_LEVEL
1722:Generated_Source\PSoC4/CapSense_Sensing.c ****     *  This function is available when the CSD and/or CSX Enable IDAC
ARM GAS  C:\Users\zack.li\AppData\Local\Temp\ccM7U1Od.s 			page 49


1723:Generated_Source\PSoC4/CapSense_Sensing.c ****     *  auto-calibration parameter is enabled.
1724:Generated_Source\PSoC4/CapSense_Sensing.c ****     *  \endcond
1725:Generated_Source\PSoC4/CapSense_Sensing.c ****     *  \if SECTION_I_REP
1726:Generated_Source\PSoC4/CapSense_Sensing.c ****     *  This function is available when the ISX Enable Auto-calibration parameter
1727:Generated_Source\PSoC4/CapSense_Sensing.c ****     *  is enabled.
1728:Generated_Source\PSoC4/CapSense_Sensing.c ****     *  \endif
1729:Generated_Source\PSoC4/CapSense_Sensing.c ****     *
1730:Generated_Source\PSoC4/CapSense_Sensing.c ****     * \return
1731:Generated_Source\PSoC4/CapSense_Sensing.c ****     *  Returns the status of the calibration process:
1732:Generated_Source\PSoC4/CapSense_Sensing.c ****     *  - CYRET_SUCCESS - The operation is successfully completed.
1733:Generated_Source\PSoC4/CapSense_Sensing.c ****     *  - CYRET_BAD_DATA - The calibration failed and the Component may not
1734:Generated_Source\PSoC4/CapSense_Sensing.c ****     *    operate as expected.
1735:Generated_Source\PSoC4/CapSense_Sensing.c ****     *
1736:Generated_Source\PSoC4/CapSense_Sensing.c ****     *******************************************************************************/
1737:Generated_Source\PSoC4/CapSense_Sensing.c ****     cystatus CapSense_CalibrateAllWidgets(void)
1738:Generated_Source\PSoC4/CapSense_Sensing.c ****     {
 970              		.loc 1 1738 0
 971              		.cfi_startproc
 972              		@ args = 0, pretend = 0, frame = 0
 973              		@ frame_needed = 0, uses_anonymous_args = 0
 974              	.LVL89:
 975 0000 70B5     		push	{r4, r5, r6, lr}
 976              		.cfi_def_cfa_offset 16
 977              		.cfi_offset 4, -16
 978              		.cfi_offset 5, -12
 979              		.cfi_offset 6, -8
 980              		.cfi_offset 14, -4
1739:Generated_Source\PSoC4/CapSense_Sensing.c ****         cystatus calibrateStatus = CYRET_SUCCESS;
1740:Generated_Source\PSoC4/CapSense_Sensing.c ****         uint32 wdgtIndex;
1741:Generated_Source\PSoC4/CapSense_Sensing.c **** 
1742:Generated_Source\PSoC4/CapSense_Sensing.c ****         for (wdgtIndex = 0u; wdgtIndex < CapSense_TOTAL_WIDGETS; wdgtIndex++)
 981              		.loc 1 1742 0
 982 0002 0024     		movs	r4, #0
1739:Generated_Source\PSoC4/CapSense_Sensing.c ****         cystatus calibrateStatus = CYRET_SUCCESS;
 983              		.loc 1 1739 0
 984 0004 2500     		movs	r5, r4
 985              	.LVL90:
 986              	.L96:
1743:Generated_Source\PSoC4/CapSense_Sensing.c ****         {
1744:Generated_Source\PSoC4/CapSense_Sensing.c ****             calibrateStatus |= CapSense_CalibrateWidget(wdgtIndex);
 987              		.loc 1 1744 0 discriminator 3
 988 0006 2000     		movs	r0, r4
 989 0008 FFF7FEFF 		bl	CapSense_CalibrateWidget
 990              	.LVL91:
1742:Generated_Source\PSoC4/CapSense_Sensing.c ****         {
 991              		.loc 1 1742 0 discriminator 3
 992 000c 0134     		adds	r4, r4, #1
 993              	.LVL92:
 994              		.loc 1 1744 0 discriminator 3
 995 000e 0543     		orrs	r5, r0
 996              	.LVL93:
1742:Generated_Source\PSoC4/CapSense_Sensing.c ****         {
 997              		.loc 1 1742 0 discriminator 3
 998 0010 042C     		cmp	r4, #4
 999 0012 F8D1     		bne	.L96
1745:Generated_Source\PSoC4/CapSense_Sensing.c ****         }
1746:Generated_Source\PSoC4/CapSense_Sensing.c **** 
ARM GAS  C:\Users\zack.li\AppData\Local\Temp\ccM7U1Od.s 			page 50


1747:Generated_Source\PSoC4/CapSense_Sensing.c ****         return calibrateStatus;
1748:Generated_Source\PSoC4/CapSense_Sensing.c ****     }
 1000              		.loc 1 1748 0
 1001 0014 2800     		movs	r0, r5
 1002              		@ sp needed
 1003              	.LVL94:
 1004              	.LVL95:
 1005 0016 70BD     		pop	{r4, r5, r6, pc}
 1006              		.cfi_endproc
 1007              	.LFE18:
 1008              		.size	CapSense_CalibrateAllWidgets, .-CapSense_CalibrateAllWidgets
 1009              		.section	.text.CapSense_SsCSDGetColSnsClkDivider,"ax",%progbits
 1010              		.align	1
 1011              		.global	CapSense_SsCSDGetColSnsClkDivider
 1012              		.code	16
 1013              		.thumb_func
 1014              		.type	CapSense_SsCSDGetColSnsClkDivider, %function
 1015              	CapSense_SsCSDGetColSnsClkDivider:
 1016              	.LFB23:
1749:Generated_Source\PSoC4/CapSense_Sensing.c **** #endif /* (CapSense_ANYMODE_AUTOCAL) */
1750:Generated_Source\PSoC4/CapSense_Sensing.c **** 
1751:Generated_Source\PSoC4/CapSense_Sensing.c **** 
1752:Generated_Source\PSoC4/CapSense_Sensing.c **** #if (CapSense_CSD_SS_DIS != CapSense_CSD_AUTOTUNE)
1753:Generated_Source\PSoC4/CapSense_Sensing.c ****     /*******************************************************************************
1754:Generated_Source\PSoC4/CapSense_Sensing.c ****     * Function Name: CapSense_SsAutoTuneWidget
1755:Generated_Source\PSoC4/CapSense_Sensing.c ****     ****************************************************************************//**
1756:Generated_Source\PSoC4/CapSense_Sensing.c ****     *
1757:Generated_Source\PSoC4/CapSense_Sensing.c ****     * \brief
1758:Generated_Source\PSoC4/CapSense_Sensing.c ****     *  This API performs the parameters auto-tuning for the optimal CapSense
1759:Generated_Source\PSoC4/CapSense_Sensing.c ****     *  operation for a desired widget.
1760:Generated_Source\PSoC4/CapSense_Sensing.c ****     *
1761:Generated_Source\PSoC4/CapSense_Sensing.c ****     * \details
1762:Generated_Source\PSoC4/CapSense_Sensing.c ****     *  This API performs the following:
1763:Generated_Source\PSoC4/CapSense_Sensing.c ****     *  - Calibrates Modulator and Compensation IDACs.
1764:Generated_Source\PSoC4/CapSense_Sensing.c ****     *  - Tunes the Sense Clock optimal value to get a Sense Clock period greater than
1765:Generated_Source\PSoC4/CapSense_Sensing.c ****     *    2*5*R*Cp.
1766:Generated_Source\PSoC4/CapSense_Sensing.c ****     *  - Calculates the resolution for the optimal finger capacitance.
1767:Generated_Source\PSoC4/CapSense_Sensing.c ****     *
1768:Generated_Source\PSoC4/CapSense_Sensing.c ****     * \param widgetId
1769:Generated_Source\PSoC4/CapSense_Sensing.c ****     *  Specifies the ID number of a desired widget.
1770:Generated_Source\PSoC4/CapSense_Sensing.c ****     *  A macro for the widget ID can be found in the
1771:Generated_Source\PSoC4/CapSense_Sensing.c ****     *  CapSense Configuration header file defined as
1772:Generated_Source\PSoC4/CapSense_Sensing.c ****     *  CapSense_<WidgetName>_WDGT_ID.
1773:Generated_Source\PSoC4/CapSense_Sensing.c ****     *
1774:Generated_Source\PSoC4/CapSense_Sensing.c ****     * \return
1775:Generated_Source\PSoC4/CapSense_Sensing.c ****     *  Returns the status of the operation:
1776:Generated_Source\PSoC4/CapSense_Sensing.c ****     *  - Zero     - All the widgets are auto-tuned successfully.
1777:Generated_Source\PSoC4/CapSense_Sensing.c ****     *  - Non-zero - Auto-tuning failed for any widget.
1778:Generated_Source\PSoC4/CapSense_Sensing.c ****     *
1779:Generated_Source\PSoC4/CapSense_Sensing.c ****     *******************************************************************************/
1780:Generated_Source\PSoC4/CapSense_Sensing.c ****     cystatus CapSense_SsAutoTuneWidget(uint32 widgetId)
1781:Generated_Source\PSoC4/CapSense_Sensing.c ****     {
1782:Generated_Source\PSoC4/CapSense_Sensing.c ****         cystatus autoTuneStatus = CYRET_SUCCESS;
1783:Generated_Source\PSoC4/CapSense_Sensing.c **** 
1784:Generated_Source\PSoC4/CapSense_Sensing.c ****         uint32 snsIndex;
1785:Generated_Source\PSoC4/CapSense_Sensing.c ****         uint32 inputSnsClk;
1786:Generated_Source\PSoC4/CapSense_Sensing.c ****         uint32 minSnsClkDiv;
ARM GAS  C:\Users\zack.li\AppData\Local\Temp\ccM7U1Od.s 			page 51


1787:Generated_Source\PSoC4/CapSense_Sensing.c ****         uint32 minSnsClkDivTmp;
1788:Generated_Source\PSoC4/CapSense_Sensing.c **** 
1789:Generated_Source\PSoC4/CapSense_Sensing.c ****         AUTO_TUNE_CONFIG_TYPE autoTuneConfig;
1790:Generated_Source\PSoC4/CapSense_Sensing.c **** 
1791:Generated_Source\PSoC4/CapSense_Sensing.c ****         uint32 maxRaw = 0u;
1792:Generated_Source\PSoC4/CapSense_Sensing.c ****         uint32 maxCp = 0u;
1793:Generated_Source\PSoC4/CapSense_Sensing.c ****         uint32 maxIdacComp = 0u;
1794:Generated_Source\PSoC4/CapSense_Sensing.c **** 
1795:Generated_Source\PSoC4/CapSense_Sensing.c ****         #if (CapSense_CSD_MATRIX_WIDGET_EN || CapSense_CSD_TOUCHPAD_WIDGET_EN)
1796:Generated_Source\PSoC4/CapSense_Sensing.c ****             uint32 maxCpSnsId = 0u;
1797:Generated_Source\PSoC4/CapSense_Sensing.c ****             uint32 maxCpRowSnsId = 0u;
1798:Generated_Source\PSoC4/CapSense_Sensing.c ****         #endif
1799:Generated_Source\PSoC4/CapSense_Sensing.c **** 
1800:Generated_Source\PSoC4/CapSense_Sensing.c ****         CapSense_FLASH_WD_STRUCT const *ptrFlashWidget = &CapSense_dsFlash.wdgtArray[widgetId];
1801:Generated_Source\PSoC4/CapSense_Sensing.c ****         CapSense_RAM_WD_BASE_STRUCT *ptrRamWidget = (CapSense_RAM_WD_BASE_STRUCT *)ptrFlashWidget->
1802:Generated_Source\PSoC4/CapSense_Sensing.c ****         CapSense_RAM_SNS_STRUCT *ptrRamSensor = ptrFlashWidget->ptr2SnsRam;
1803:Generated_Source\PSoC4/CapSense_Sensing.c **** 
1804:Generated_Source\PSoC4/CapSense_Sensing.c ****         /* Find input of sensor clock frequency */
1805:Generated_Source\PSoC4/CapSense_Sensing.c ****         #if (CapSense_ENABLE == CapSense_CSDV2)
1806:Generated_Source\PSoC4/CapSense_Sensing.c ****             /* Dividers are chained (Fourth-generation HW block). Flip flop is not available */
1807:Generated_Source\PSoC4/CapSense_Sensing.c ****             inputSnsClk = ((uint32)CYDEV_BCLK__HFCLK__KHZ / (uint32)CapSense_dsRam.modCsdClk);
1808:Generated_Source\PSoC4/CapSense_Sensing.c **** 
1809:Generated_Source\PSoC4/CapSense_Sensing.c ****             /* Minimum value of SnaClk divider that is allowed for all Fourth-generation
1810:Generated_Source\PSoC4/CapSense_Sensing.c ****              * CSD HW block based devices.
1811:Generated_Source\PSoC4/CapSense_Sensing.c ****             */
1812:Generated_Source\PSoC4/CapSense_Sensing.c ****             minSnsClkDiv = CapSense_MIN_SNS_CLK_DIVIDER;
1813:Generated_Source\PSoC4/CapSense_Sensing.c ****         #elif (CapSense_ENABLE == CapSense_IS_M0S8PERI_BLOCK)
1814:Generated_Source\PSoC4/CapSense_Sensing.c ****             /* Dividers are not chained */
1815:Generated_Source\PSoC4/CapSense_Sensing.c ****             inputSnsClk = CYDEV_BCLK__HFCLK__KHZ >> CapSense_FLIP_FLOP_DIV;
1816:Generated_Source\PSoC4/CapSense_Sensing.c **** 
1817:Generated_Source\PSoC4/CapSense_Sensing.c ****             /* Minimum value of SnaClk divider that is allowed for PSoC 4100 and PSoC 4200
1818:Generated_Source\PSoC4/CapSense_Sensing.c ****                device families.
1819:Generated_Source\PSoC4/CapSense_Sensing.c ****             */
1820:Generated_Source\PSoC4/CapSense_Sensing.c ****             minSnsClkDiv = CapSense_dsRam.modCsdClk;
1821:Generated_Source\PSoC4/CapSense_Sensing.c ****         #else
1822:Generated_Source\PSoC4/CapSense_Sensing.c ****             /* Dividers are chained (PSoC 4100, PSoC 4200) */
1823:Generated_Source\PSoC4/CapSense_Sensing.c ****             inputSnsClk = (CYDEV_BCLK__HFCLK__KHZ / CapSense_dsRam.modCsdClk) >> CapSense_FLIP_FLOP
1824:Generated_Source\PSoC4/CapSense_Sensing.c **** 
1825:Generated_Source\PSoC4/CapSense_Sensing.c ****             /* Minimum value of SnaClk divider that is allowed for all Fourth-generation
1826:Generated_Source\PSoC4/CapSense_Sensing.c ****              * CSD HW block based device except PSoC 4100 and PSoC 4200 device families.
1827:Generated_Source\PSoC4/CapSense_Sensing.c ****             */
1828:Generated_Source\PSoC4/CapSense_Sensing.c ****             minSnsClkDiv = CapSense_MIN_SNS_CLK_DIVIDER;
1829:Generated_Source\PSoC4/CapSense_Sensing.c ****         #endif /* (CapSense_ENABLE == CapSense_CSDV2) */
1830:Generated_Source\PSoC4/CapSense_Sensing.c **** 
1831:Generated_Source\PSoC4/CapSense_Sensing.c ****         /* Minimum value of SnsClk divider required to ensure the CSD HW block
1832:Generated_Source\PSoC4/CapSense_Sensing.c ****          * operation in allowed frequency range.
1833:Generated_Source\PSoC4/CapSense_Sensing.c ****         */
1834:Generated_Source\PSoC4/CapSense_Sensing.c ****         minSnsClkDivTmp = inputSnsClk * CapSense_AUTOTUNE_CAL_UNITS;
1835:Generated_Source\PSoC4/CapSense_Sensing.c ****         minSnsClkDivTmp /= CapSense_CSD_SNS_FREQ_KHZ_MAX;
1836:Generated_Source\PSoC4/CapSense_Sensing.c **** 
1837:Generated_Source\PSoC4/CapSense_Sensing.c ****         if (minSnsClkDiv < minSnsClkDivTmp)
1838:Generated_Source\PSoC4/CapSense_Sensing.c ****         {
1839:Generated_Source\PSoC4/CapSense_Sensing.c ****             minSnsClkDiv = minSnsClkDivTmp;
1840:Generated_Source\PSoC4/CapSense_Sensing.c ****         }
1841:Generated_Source\PSoC4/CapSense_Sensing.c **** 
1842:Generated_Source\PSoC4/CapSense_Sensing.c ****         minSnsClkDiv = (minSnsClkDiv + (CapSense_AUTOTUNE_CAL_UNITS - 1u)) / CapSense_AUTOTUNE_CAL_
1843:Generated_Source\PSoC4/CapSense_Sensing.c **** 
ARM GAS  C:\Users\zack.li\AppData\Local\Temp\ccM7U1Od.s 			page 52


1844:Generated_Source\PSoC4/CapSense_Sensing.c ****         /* Make divider even */
1845:Generated_Source\PSoC4/CapSense_Sensing.c ****         if (0u != (minSnsClkDiv & 0x01u))
1846:Generated_Source\PSoC4/CapSense_Sensing.c ****         {
1847:Generated_Source\PSoC4/CapSense_Sensing.c ****             minSnsClkDiv++;
1848:Generated_Source\PSoC4/CapSense_Sensing.c ****         }
1849:Generated_Source\PSoC4/CapSense_Sensing.c **** 
1850:Generated_Source\PSoC4/CapSense_Sensing.c ****         /* Initialize auto-tuning configuration structure */
1851:Generated_Source\PSoC4/CapSense_Sensing.c ****         autoTuneConfig.snsClkInputClock = (uint16)inputSnsClk;
1852:Generated_Source\PSoC4/CapSense_Sensing.c ****         autoTuneConfig.snsClkConstantR = CapSense_CSD_SNSCLK_R_CONST;
1853:Generated_Source\PSoC4/CapSense_Sensing.c ****         autoTuneConfig.vRef = CapSense_CSD_VREF_MV;
1854:Generated_Source\PSoC4/CapSense_Sensing.c ****         autoTuneConfig.fingerCap = ptrRamWidget->fingerCap;
1855:Generated_Source\PSoC4/CapSense_Sensing.c ****         autoTuneConfig.sigPFC = &ptrRamWidget->sigPFC;
1856:Generated_Source\PSoC4/CapSense_Sensing.c **** 
1857:Generated_Source\PSoC4/CapSense_Sensing.c ****         /*
1858:Generated_Source\PSoC4/CapSense_Sensing.c ****         * Autotune phase #1:
1859:Generated_Source\PSoC4/CapSense_Sensing.c ****         * - performing the first calibration at fixed settings
1860:Generated_Source\PSoC4/CapSense_Sensing.c ****         * - getting maximum sensor Cp
1861:Generated_Source\PSoC4/CapSense_Sensing.c ****         * - getting sense clock frequency based on Cp
1862:Generated_Source\PSoC4/CapSense_Sensing.c ****         */
1863:Generated_Source\PSoC4/CapSense_Sensing.c **** 
1864:Generated_Source\PSoC4/CapSense_Sensing.c ****         ptrRamWidget->resolution = CapSense_AUTOTUNE_CALIBRATION_RESOLUTION;
1865:Generated_Source\PSoC4/CapSense_Sensing.c **** 
1866:Generated_Source\PSoC4/CapSense_Sensing.c ****         ptrRamWidget->snsClk = (uint16)(inputSnsClk / CapSense_AUTOTUNE_CALIBRATION_FREQ_KHZ);
1867:Generated_Source\PSoC4/CapSense_Sensing.c ****         ptrRamWidget->snsClkSource = (uint8)CapSense_CLK_SOURCE_DIRECT;
1868:Generated_Source\PSoC4/CapSense_Sensing.c **** 
1869:Generated_Source\PSoC4/CapSense_Sensing.c ****         #if (CapSense_CSD_MATRIX_WIDGET_EN || CapSense_CSD_TOUCHPAD_WIDGET_EN)
1870:Generated_Source\PSoC4/CapSense_Sensing.c ****             ptrRamWidget->rowSnsClk = (uint16)(inputSnsClk / CapSense_AUTOTUNE_CALIBRATION_FREQ_KHZ
1871:Generated_Source\PSoC4/CapSense_Sensing.c ****             ptrRamWidget->rowSnsClkSource = (uint8)CapSense_CLK_SOURCE_DIRECT;
1872:Generated_Source\PSoC4/CapSense_Sensing.c ****         #endif
1873:Generated_Source\PSoC4/CapSense_Sensing.c **** 
1874:Generated_Source\PSoC4/CapSense_Sensing.c ****         /* Calibrate CSD widget to the default calibration target */
1875:Generated_Source\PSoC4/CapSense_Sensing.c ****         (void)CapSense_CSDCalibrateWidget(widgetId, CapSense_AUTOTUNE_CAL_LEVEL);
1876:Generated_Source\PSoC4/CapSense_Sensing.c **** 
1877:Generated_Source\PSoC4/CapSense_Sensing.c ****         /* Find raw count and IDAC of a sensor with maximum Cp */
1878:Generated_Source\PSoC4/CapSense_Sensing.c ****         for (snsIndex = 0u; snsIndex < ptrFlashWidget->numCols; snsIndex++)
1879:Generated_Source\PSoC4/CapSense_Sensing.c ****         {
1880:Generated_Source\PSoC4/CapSense_Sensing.c ****             #if (CapSense_ENABLE == CapSense_CSD_IDAC_COMP_EN)
1881:Generated_Source\PSoC4/CapSense_Sensing.c ****                 if (maxIdacComp < ptrRamSensor->idacComp[0u])
1882:Generated_Source\PSoC4/CapSense_Sensing.c ****                 {
1883:Generated_Source\PSoC4/CapSense_Sensing.c ****                     #if (CapSense_CSD_MATRIX_WIDGET_EN || CapSense_CSD_TOUCHPAD_WIDGET_EN)
1884:Generated_Source\PSoC4/CapSense_Sensing.c ****                         maxCpSnsId = snsIndex;
1885:Generated_Source\PSoC4/CapSense_Sensing.c ****                     #endif
1886:Generated_Source\PSoC4/CapSense_Sensing.c ****                     maxIdacComp = ptrRamSensor->idacComp[0u];
1887:Generated_Source\PSoC4/CapSense_Sensing.c ****                     maxRaw = ptrRamSensor->raw[0u];
1888:Generated_Source\PSoC4/CapSense_Sensing.c ****                 }
1889:Generated_Source\PSoC4/CapSense_Sensing.c ****             #else
1890:Generated_Source\PSoC4/CapSense_Sensing.c ****                 if (maxRaw < ptrRamSensor->raw[0u])
1891:Generated_Source\PSoC4/CapSense_Sensing.c ****                 {
1892:Generated_Source\PSoC4/CapSense_Sensing.c ****                     #if (CapSense_CSD_MATRIX_WIDGET_EN || CapSense_CSD_TOUCHPAD_WIDGET_EN)
1893:Generated_Source\PSoC4/CapSense_Sensing.c ****                         maxCpSnsId = snsIndex;
1894:Generated_Source\PSoC4/CapSense_Sensing.c ****                     #endif
1895:Generated_Source\PSoC4/CapSense_Sensing.c ****                     maxRaw = ptrRamSensor->raw[0u];
1896:Generated_Source\PSoC4/CapSense_Sensing.c ****                 }
1897:Generated_Source\PSoC4/CapSense_Sensing.c ****             #endif
1898:Generated_Source\PSoC4/CapSense_Sensing.c ****             ptrRamSensor++;
1899:Generated_Source\PSoC4/CapSense_Sensing.c ****         }
1900:Generated_Source\PSoC4/CapSense_Sensing.c **** 
ARM GAS  C:\Users\zack.li\AppData\Local\Temp\ccM7U1Od.s 			page 53


1901:Generated_Source\PSoC4/CapSense_Sensing.c ****         /* Update auto-tuning configuration structure */
1902:Generated_Source\PSoC4/CapSense_Sensing.c ****         autoTuneConfig.iDacMod = ptrRamWidget->idacMod[0u];
1903:Generated_Source\PSoC4/CapSense_Sensing.c ****         autoTuneConfig.iDacComp = (uint8)maxIdacComp;
1904:Generated_Source\PSoC4/CapSense_Sensing.c ****         autoTuneConfig.iDacGain = CapSense_idacGainTable[ptrRamWidget->idacGainIndex].gainValue;
1905:Generated_Source\PSoC4/CapSense_Sensing.c ****         autoTuneConfig.ptrSenseClk = &ptrRamWidget->snsClk;
1906:Generated_Source\PSoC4/CapSense_Sensing.c ****         autoTuneConfig.calTarget = (uint16)((maxRaw * CapSense_AUTOTUNE_CAL_UNITS) /
1907:Generated_Source\PSoC4/CapSense_Sensing.c ****                 ((uint32)(0x01uL << CapSense_AUTOTUNE_CALIBRATION_RESOLUTION) - 1u));
1908:Generated_Source\PSoC4/CapSense_Sensing.c **** 
1909:Generated_Source\PSoC4/CapSense_Sensing.c ****         /* Find sensor Cp and optimum sense clock value */
1910:Generated_Source\PSoC4/CapSense_Sensing.c ****         maxCp = SmartSense_TunePrescalers(&autoTuneConfig);
1911:Generated_Source\PSoC4/CapSense_Sensing.c ****         autoTuneConfig.sensorCap = maxCp;
1912:Generated_Source\PSoC4/CapSense_Sensing.c **** 
1913:Generated_Source\PSoC4/CapSense_Sensing.c ****         /* Increase sensor clock divider to valid value */
1914:Generated_Source\PSoC4/CapSense_Sensing.c ****         while(ptrRamWidget->snsClk < minSnsClkDiv)
1915:Generated_Source\PSoC4/CapSense_Sensing.c ****         {
1916:Generated_Source\PSoC4/CapSense_Sensing.c ****             ptrRamWidget->snsClk <<= 1u;
1917:Generated_Source\PSoC4/CapSense_Sensing.c ****         }
1918:Generated_Source\PSoC4/CapSense_Sensing.c **** 
1919:Generated_Source\PSoC4/CapSense_Sensing.c ****         /* Do the same for row for touchpad or matrix buttons widgets */
1920:Generated_Source\PSoC4/CapSense_Sensing.c ****         #if (CapSense_CSD_MATRIX_WIDGET_EN || CapSense_CSD_TOUCHPAD_WIDGET_EN)
1921:Generated_Source\PSoC4/CapSense_Sensing.c ****             if ((CapSense_WD_TOUCHPAD_E == CapSense_GET_WIDGET_TYPE(ptrFlashWidget)) ||
1922:Generated_Source\PSoC4/CapSense_Sensing.c ****                 (CapSense_WD_MATRIX_BUTTON_E == CapSense_GET_WIDGET_TYPE(ptrFlashWidget)))
1923:Generated_Source\PSoC4/CapSense_Sensing.c ****             {
1924:Generated_Source\PSoC4/CapSense_Sensing.c ****                 /* Find a sensor with maximum Cp */
1925:Generated_Source\PSoC4/CapSense_Sensing.c ****                 maxRaw = 0u;
1926:Generated_Source\PSoC4/CapSense_Sensing.c ****                 maxIdacComp = 0u;
1927:Generated_Source\PSoC4/CapSense_Sensing.c ****                 for (snsIndex = ptrFlashWidget->numCols; snsIndex < ptrFlashWidget->totalNumSns; sn
1928:Generated_Source\PSoC4/CapSense_Sensing.c ****                 {
1929:Generated_Source\PSoC4/CapSense_Sensing.c ****                     #if (CapSense_ENABLE == CapSense_CSD_IDAC_COMP_EN)
1930:Generated_Source\PSoC4/CapSense_Sensing.c ****                         if (maxIdacComp < ptrRamSensor->idacComp[0u])
1931:Generated_Source\PSoC4/CapSense_Sensing.c ****                         {
1932:Generated_Source\PSoC4/CapSense_Sensing.c ****                             maxCpRowSnsId = snsIndex;
1933:Generated_Source\PSoC4/CapSense_Sensing.c ****                             maxIdacComp = ptrRamSensor->idacComp[0u];
1934:Generated_Source\PSoC4/CapSense_Sensing.c ****                             maxRaw = ptrRamSensor->raw[0u];
1935:Generated_Source\PSoC4/CapSense_Sensing.c ****                         }
1936:Generated_Source\PSoC4/CapSense_Sensing.c ****                     #else
1937:Generated_Source\PSoC4/CapSense_Sensing.c ****                         if (maxRaw < ptrRamSensor->raw[0u])
1938:Generated_Source\PSoC4/CapSense_Sensing.c ****                         {
1939:Generated_Source\PSoC4/CapSense_Sensing.c ****                             maxCpRowSnsId = snsIndex;
1940:Generated_Source\PSoC4/CapSense_Sensing.c ****                             maxRaw = ptrRamSensor->raw[0u];
1941:Generated_Source\PSoC4/CapSense_Sensing.c ****                         }
1942:Generated_Source\PSoC4/CapSense_Sensing.c ****                     #endif
1943:Generated_Source\PSoC4/CapSense_Sensing.c ****                     ptrRamSensor++;
1944:Generated_Source\PSoC4/CapSense_Sensing.c ****                 }
1945:Generated_Source\PSoC4/CapSense_Sensing.c **** 
1946:Generated_Source\PSoC4/CapSense_Sensing.c ****                 /* Configure auto-tuning configuration structure */
1947:Generated_Source\PSoC4/CapSense_Sensing.c ****                 autoTuneConfig.iDacMod = ptrRamWidget->rowIdacMod[0u];
1948:Generated_Source\PSoC4/CapSense_Sensing.c ****                 autoTuneConfig.iDacComp = (uint8)maxIdacComp;
1949:Generated_Source\PSoC4/CapSense_Sensing.c ****                 autoTuneConfig.ptrSenseClk = &ptrRamWidget->rowSnsClk;
1950:Generated_Source\PSoC4/CapSense_Sensing.c ****                 autoTuneConfig.calTarget = (uint16)((maxRaw * CapSense_AUTOTUNE_CAL_UNITS) /
1951:Generated_Source\PSoC4/CapSense_Sensing.c ****                         ((uint32)(0x01uL << CapSense_AUTOTUNE_CALIBRATION_RESOLUTION) - 1u));
1952:Generated_Source\PSoC4/CapSense_Sensing.c **** 
1953:Generated_Source\PSoC4/CapSense_Sensing.c ****                 /* Find correct sense clock value */
1954:Generated_Source\PSoC4/CapSense_Sensing.c ****                 maxCp = SmartSense_TunePrescalers(&autoTuneConfig);
1955:Generated_Source\PSoC4/CapSense_Sensing.c **** 
1956:Generated_Source\PSoC4/CapSense_Sensing.c ****                 /* Save maximum sensor Cp and corresponding sensor Id */
1957:Generated_Source\PSoC4/CapSense_Sensing.c ****                 if (autoTuneConfig.sensorCap < maxCp)
ARM GAS  C:\Users\zack.li\AppData\Local\Temp\ccM7U1Od.s 			page 54


1958:Generated_Source\PSoC4/CapSense_Sensing.c ****                 {
1959:Generated_Source\PSoC4/CapSense_Sensing.c ****                     autoTuneConfig.sensorCap = maxCp;
1960:Generated_Source\PSoC4/CapSense_Sensing.c ****                     maxCpSnsId = maxCpRowSnsId;
1961:Generated_Source\PSoC4/CapSense_Sensing.c ****                 }
1962:Generated_Source\PSoC4/CapSense_Sensing.c **** 
1963:Generated_Source\PSoC4/CapSense_Sensing.c ****                 /* Increase sensor clock divider to valid value */
1964:Generated_Source\PSoC4/CapSense_Sensing.c ****                 while(ptrRamWidget->rowSnsClk < minSnsClkDiv)
1965:Generated_Source\PSoC4/CapSense_Sensing.c ****                 {
1966:Generated_Source\PSoC4/CapSense_Sensing.c ****                     ptrRamWidget->rowSnsClk <<= 1u;
1967:Generated_Source\PSoC4/CapSense_Sensing.c ****                 }
1968:Generated_Source\PSoC4/CapSense_Sensing.c ****             }
1969:Generated_Source\PSoC4/CapSense_Sensing.c ****         #endif /* (CapSense_CSD_MATRIX_WIDGET_EN || CapSense_CSD_TOUCHPAD_WIDGET_EN) */
1970:Generated_Source\PSoC4/CapSense_Sensing.c **** 
1971:Generated_Source\PSoC4/CapSense_Sensing.c ****         /* Check tuning results */
1972:Generated_Source\PSoC4/CapSense_Sensing.c ****         if (CapSense_AUTOTUNE_CP_MAX < maxCp)
1973:Generated_Source\PSoC4/CapSense_Sensing.c ****         {
1974:Generated_Source\PSoC4/CapSense_Sensing.c ****             autoTuneStatus = CYRET_BAD_DATA;
1975:Generated_Source\PSoC4/CapSense_Sensing.c ****         }
1976:Generated_Source\PSoC4/CapSense_Sensing.c **** 
1977:Generated_Source\PSoC4/CapSense_Sensing.c ****         /*
1978:Generated_Source\PSoC4/CapSense_Sensing.c ****         * Autotune phase #2:
1979:Generated_Source\PSoC4/CapSense_Sensing.c ****         * - repeating calibration with new sense clock frequency
1980:Generated_Source\PSoC4/CapSense_Sensing.c ****         * - getting resolution
1981:Generated_Source\PSoC4/CapSense_Sensing.c ****         */
1982:Generated_Source\PSoC4/CapSense_Sensing.c **** 
1983:Generated_Source\PSoC4/CapSense_Sensing.c ****         /* Calibrate CSD widget to the default calibration target with newly defined sense frequenc
1984:Generated_Source\PSoC4/CapSense_Sensing.c ****         (void)CapSense_CSDCalibrateWidget(widgetId, CapSense_AUTOTUNE_CAL_LEVEL);
1985:Generated_Source\PSoC4/CapSense_Sensing.c **** 
1986:Generated_Source\PSoC4/CapSense_Sensing.c ****         autoTuneConfig.iDacGain = CapSense_idacGainTable[ptrRamWidget->idacGainIndex].gainValue;
1987:Generated_Source\PSoC4/CapSense_Sensing.c ****         autoTuneConfig.iDacMod = ptrRamWidget->idacMod[0u];
1988:Generated_Source\PSoC4/CapSense_Sensing.c ****         autoTuneConfig.ptrSenseClk = &ptrRamWidget->snsClk;
1989:Generated_Source\PSoC4/CapSense_Sensing.c **** 
1990:Generated_Source\PSoC4/CapSense_Sensing.c ****         #if (CapSense_CSD_MATRIX_WIDGET_EN || CapSense_CSD_TOUCHPAD_WIDGET_EN)
1991:Generated_Source\PSoC4/CapSense_Sensing.c ****             if ((CapSense_WD_TOUCHPAD_E == CapSense_GET_WIDGET_TYPE(ptrFlashWidget)) ||
1992:Generated_Source\PSoC4/CapSense_Sensing.c ****                 (CapSense_WD_MATRIX_BUTTON_E == CapSense_GET_WIDGET_TYPE(ptrFlashWidget)))
1993:Generated_Source\PSoC4/CapSense_Sensing.c ****             {
1994:Generated_Source\PSoC4/CapSense_Sensing.c ****                 if (maxCpSnsId >= ptrFlashWidget->numCols)
1995:Generated_Source\PSoC4/CapSense_Sensing.c ****                 {
1996:Generated_Source\PSoC4/CapSense_Sensing.c ****                     autoTuneConfig.iDacMod = ptrRamWidget->rowIdacMod[0u];
1997:Generated_Source\PSoC4/CapSense_Sensing.c ****                     autoTuneConfig.ptrSenseClk = &ptrRamWidget->rowSnsClk;
1998:Generated_Source\PSoC4/CapSense_Sensing.c ****                 }
1999:Generated_Source\PSoC4/CapSense_Sensing.c ****             }
2000:Generated_Source\PSoC4/CapSense_Sensing.c ****         #endif
2001:Generated_Source\PSoC4/CapSense_Sensing.c **** 
2002:Generated_Source\PSoC4/CapSense_Sensing.c ****         /* Find resolution */
2003:Generated_Source\PSoC4/CapSense_Sensing.c ****         ptrRamWidget->resolution = SmartSense_TuneSensitivity(&autoTuneConfig);
2004:Generated_Source\PSoC4/CapSense_Sensing.c **** 
2005:Generated_Source\PSoC4/CapSense_Sensing.c ****         /*
2006:Generated_Source\PSoC4/CapSense_Sensing.c ****         * Autotune phase #3:
2007:Generated_Source\PSoC4/CapSense_Sensing.c ****         * - selecting a widget clock source if AUTO
2008:Generated_Source\PSoC4/CapSense_Sensing.c ****         * - repeating calibration with found clock frequency, resolution and clock source
2009:Generated_Source\PSoC4/CapSense_Sensing.c ****         * - updating sensitivity
2010:Generated_Source\PSoC4/CapSense_Sensing.c ****         */
2011:Generated_Source\PSoC4/CapSense_Sensing.c **** 
2012:Generated_Source\PSoC4/CapSense_Sensing.c ****         /* Tune widget sensitivity */
2013:Generated_Source\PSoC4/CapSense_Sensing.c ****         CapSense_SsSetWidgetSenseClkSrc(widgetId, ptrRamWidget);
2014:Generated_Source\PSoC4/CapSense_Sensing.c **** 
ARM GAS  C:\Users\zack.li\AppData\Local\Temp\ccM7U1Od.s 			page 55


2015:Generated_Source\PSoC4/CapSense_Sensing.c ****         /* Calibrate CSD widget to the default calibration target with newly defined resolution */
2016:Generated_Source\PSoC4/CapSense_Sensing.c ****         autoTuneStatus |= CapSense_CSDCalibrateWidget(widgetId, CapSense_AUTOTUNE_CAL_LEVEL);
2017:Generated_Source\PSoC4/CapSense_Sensing.c **** 
2018:Generated_Source\PSoC4/CapSense_Sensing.c ****         #if (CapSense_ENABLE == CapSense_TST_WDGT_CRC_EN)
2019:Generated_Source\PSoC4/CapSense_Sensing.c ****             CapSense_DsUpdateWidgetCrc(widgetId);
2020:Generated_Source\PSoC4/CapSense_Sensing.c ****         #endif /* (CapSense_ENABLE == CapSense_TST_WDGT_CRC_EN) */
2021:Generated_Source\PSoC4/CapSense_Sensing.c **** 
2022:Generated_Source\PSoC4/CapSense_Sensing.c ****         return autoTuneStatus;
2023:Generated_Source\PSoC4/CapSense_Sensing.c ****     }
2024:Generated_Source\PSoC4/CapSense_Sensing.c **** 
2025:Generated_Source\PSoC4/CapSense_Sensing.c **** 
2026:Generated_Source\PSoC4/CapSense_Sensing.c ****     /*******************************************************************************
2027:Generated_Source\PSoC4/CapSense_Sensing.c ****     * Function Name: CapSense_SsAutoTune
2028:Generated_Source\PSoC4/CapSense_Sensing.c ****     ****************************************************************************//**
2029:Generated_Source\PSoC4/CapSense_Sensing.c ****     *
2030:Generated_Source\PSoC4/CapSense_Sensing.c ****     * \brief
2031:Generated_Source\PSoC4/CapSense_Sensing.c ****     *  This API performs the parameters auto-tuning for the optimal CapSense
2032:Generated_Source\PSoC4/CapSense_Sensing.c ****     *  operation.
2033:Generated_Source\PSoC4/CapSense_Sensing.c ****     *
2034:Generated_Source\PSoC4/CapSense_Sensing.c ****     * \details
2035:Generated_Source\PSoC4/CapSense_Sensing.c ****     *  This API performs the following:
2036:Generated_Source\PSoC4/CapSense_Sensing.c ****     *  - Calibrates Modulator and Compensation IDACs.
2037:Generated_Source\PSoC4/CapSense_Sensing.c ****     *  - Tunes the Sense Clock optimal value to get a Sense Clock period greater than
2038:Generated_Source\PSoC4/CapSense_Sensing.c ****     *    2*5*R*Cp.
2039:Generated_Source\PSoC4/CapSense_Sensing.c ****     *  - Calculates the resolution for the optimal finger capacitance.
2040:Generated_Source\PSoC4/CapSense_Sensing.c ****     *
2041:Generated_Source\PSoC4/CapSense_Sensing.c ****     * \return
2042:Generated_Source\PSoC4/CapSense_Sensing.c ****     *  Returns the status of the operation:
2043:Generated_Source\PSoC4/CapSense_Sensing.c ****     *  - Zero     - All the widgets are auto-tuned successfully.
2044:Generated_Source\PSoC4/CapSense_Sensing.c ****     *  - Non-zero - Auto-tuning failed for any widget.
2045:Generated_Source\PSoC4/CapSense_Sensing.c ****     *
2046:Generated_Source\PSoC4/CapSense_Sensing.c ****     *******************************************************************************/
2047:Generated_Source\PSoC4/CapSense_Sensing.c ****     cystatus CapSense_SsAutoTune(void)
2048:Generated_Source\PSoC4/CapSense_Sensing.c ****     {
2049:Generated_Source\PSoC4/CapSense_Sensing.c ****         cystatus autoTuneStatus = CYRET_SUCCESS;
2050:Generated_Source\PSoC4/CapSense_Sensing.c ****         uint32 wdgtIndex;
2051:Generated_Source\PSoC4/CapSense_Sensing.c **** 
2052:Generated_Source\PSoC4/CapSense_Sensing.c ****         /* Tune each CSD widget */
2053:Generated_Source\PSoC4/CapSense_Sensing.c ****         for (wdgtIndex = 0u; wdgtIndex < CapSense_TOTAL_WIDGETS; wdgtIndex++)
2054:Generated_Source\PSoC4/CapSense_Sensing.c ****         {
2055:Generated_Source\PSoC4/CapSense_Sensing.c ****             if (CapSense_SENSE_METHOD_CSD_E ==
2056:Generated_Source\PSoC4/CapSense_Sensing.c ****                 CapSense_GET_SENSE_METHOD(&CapSense_dsFlash.wdgtArray[wdgtIndex]))
2057:Generated_Source\PSoC4/CapSense_Sensing.c ****             {
2058:Generated_Source\PSoC4/CapSense_Sensing.c ****                 autoTuneStatus |= CapSense_SsAutoTuneWidget(wdgtIndex);
2059:Generated_Source\PSoC4/CapSense_Sensing.c ****             }
2060:Generated_Source\PSoC4/CapSense_Sensing.c ****         }
2061:Generated_Source\PSoC4/CapSense_Sensing.c ****         return autoTuneStatus;
2062:Generated_Source\PSoC4/CapSense_Sensing.c ****     }
2063:Generated_Source\PSoC4/CapSense_Sensing.c **** #endif /* (CapSense_CSD_SS_DIS != CapSense_CSD_AUTOTUNE)) */
2064:Generated_Source\PSoC4/CapSense_Sensing.c **** 
2065:Generated_Source\PSoC4/CapSense_Sensing.c **** 
2066:Generated_Source\PSoC4/CapSense_Sensing.c **** #if (CapSense_DISABLE == CapSense_CSDV2)
2067:Generated_Source\PSoC4/CapSense_Sensing.c ****     #if ( ((CapSense_ENABLE == CapSense_CSX_EN) \
2068:Generated_Source\PSoC4/CapSense_Sensing.c ****         || (CapSense_ENABLE == CapSense_ISX_EN)) ||\
2069:Generated_Source\PSoC4/CapSense_Sensing.c ****          (CapSense_IDAC_SINKING == CapSense_CSD_IDAC_CONFIG))
2070:Generated_Source\PSoC4/CapSense_Sensing.c ****         /*******************************************************************************
2071:Generated_Source\PSoC4/CapSense_Sensing.c ****         * Function Name: CapSense_SsTrimIdacsSinking
ARM GAS  C:\Users\zack.li\AppData\Local\Temp\ccM7U1Od.s 			page 56


2072:Generated_Source\PSoC4/CapSense_Sensing.c ****         ****************************************************************************//**
2073:Generated_Source\PSoC4/CapSense_Sensing.c ****         *
2074:Generated_Source\PSoC4/CapSense_Sensing.c ****         * \brief
2075:Generated_Source\PSoC4/CapSense_Sensing.c ****         *  This function loads trim values from SFLASH rows to calibrate
2076:Generated_Source\PSoC4/CapSense_Sensing.c ****         *  IDAC1 and IDAC2 for Sinking CSD Mode
2077:Generated_Source\PSoC4/CapSense_Sensing.c ****         *
2078:Generated_Source\PSoC4/CapSense_Sensing.c ****         * \details
2079:Generated_Source\PSoC4/CapSense_Sensing.c ****         *  Function reads trim value from SFLASH and loads it into IDAC trim register.
2080:Generated_Source\PSoC4/CapSense_Sensing.c ****         *  If Compensation IDAC is disabled the function loads trim values for IDAC1 only.
2081:Generated_Source\PSoC4/CapSense_Sensing.c ****         *
2082:Generated_Source\PSoC4/CapSense_Sensing.c ****         *******************************************************************************/
2083:Generated_Source\PSoC4/CapSense_Sensing.c ****         static void CapSense_SsTrimIdacsSinking(void)
2084:Generated_Source\PSoC4/CapSense_Sensing.c ****         {
2085:Generated_Source\PSoC4/CapSense_Sensing.c ****             uint32 trimValue;
2086:Generated_Source\PSoC4/CapSense_Sensing.c **** 
2087:Generated_Source\PSoC4/CapSense_Sensing.c ****             /* Mod iDAC Sinking Mode */
2088:Generated_Source\PSoC4/CapSense_Sensing.c ****             trimValue = CY_GET_REG32(CapSense_TRIM2_PTR) & ~CapSense_IDAC_TRIM2_MOD_SNK_MASK;
2089:Generated_Source\PSoC4/CapSense_Sensing.c ****             trimValue |= ((uint32)CY_GET_REG8(CapSense_SFLASH_TRIM2_PTR) &
2090:Generated_Source\PSoC4/CapSense_Sensing.c ****                                                       CapSense_SFLASH_TRIM_IDAC_MOD_MASK) ;
2091:Generated_Source\PSoC4/CapSense_Sensing.c **** 
2092:Generated_Source\PSoC4/CapSense_Sensing.c ****             #if (CapSense_ENABLE == CapSense_CSD_IDAC_COMP_EN)
2093:Generated_Source\PSoC4/CapSense_Sensing.c ****                 /* Comp iDAC Sinking Mode */
2094:Generated_Source\PSoC4/CapSense_Sensing.c ****                 trimValue &= ~CapSense_IDAC_TRIM2_COMP_SNK_MASK;
2095:Generated_Source\PSoC4/CapSense_Sensing.c ****                 trimValue |= ((uint32)CY_GET_REG8(CapSense_SFLASH_TRIM2_PTR) &
2096:Generated_Source\PSoC4/CapSense_Sensing.c ****                                                           CapSense_SFLASH_TRIM_IDAC_COMP_MASK);
2097:Generated_Source\PSoC4/CapSense_Sensing.c ****             #endif /* (CapSense_ENABLE == CapSense_CSD_IDAC_COMP_EN) */
2098:Generated_Source\PSoC4/CapSense_Sensing.c **** 
2099:Generated_Source\PSoC4/CapSense_Sensing.c ****             /* Update IDAC trim bits for gain control in current sink mode */
2100:Generated_Source\PSoC4/CapSense_Sensing.c ****             CY_SET_REG32(CapSense_TRIM2_PTR, trimValue);
2101:Generated_Source\PSoC4/CapSense_Sensing.c ****         }
2102:Generated_Source\PSoC4/CapSense_Sensing.c ****     #endif /* ((CapSense_ENABLE == CapSense_CSX_EN) || \
2103:Generated_Source\PSoC4/CapSense_Sensing.c ****                (CapSense_IDAC_SINKING == CapSense_CSD_IDAC_CONFIG)) */
2104:Generated_Source\PSoC4/CapSense_Sensing.c **** 
2105:Generated_Source\PSoC4/CapSense_Sensing.c **** 
2106:Generated_Source\PSoC4/CapSense_Sensing.c ****     #if ( ((CapSense_ENABLE == CapSense_CSX_EN) \
2107:Generated_Source\PSoC4/CapSense_Sensing.c ****         || (CapSense_ENABLE == CapSense_ISX_EN)) || \
2108:Generated_Source\PSoC4/CapSense_Sensing.c ****          (CapSense_IDAC_SOURCING == CapSense_CSD_IDAC_CONFIG))
2109:Generated_Source\PSoC4/CapSense_Sensing.c ****         /*******************************************************************************
2110:Generated_Source\PSoC4/CapSense_Sensing.c ****         * Function Name: CapSense_SsTrimIdacsSourcing
2111:Generated_Source\PSoC4/CapSense_Sensing.c ****         ****************************************************************************//**
2112:Generated_Source\PSoC4/CapSense_Sensing.c ****         *
2113:Generated_Source\PSoC4/CapSense_Sensing.c ****         * \brief
2114:Generated_Source\PSoC4/CapSense_Sensing.c ****         *  This function loads trim values from SFLASH rows to calibrate
2115:Generated_Source\PSoC4/CapSense_Sensing.c ****         *  IDAC1 and IDAC2 for Sourcing CSD Mode
2116:Generated_Source\PSoC4/CapSense_Sensing.c ****         *
2117:Generated_Source\PSoC4/CapSense_Sensing.c ****         * \details
2118:Generated_Source\PSoC4/CapSense_Sensing.c ****         *  Function reads trim value from SFLASH and loads it into IDAC trim register.
2119:Generated_Source\PSoC4/CapSense_Sensing.c ****         *  If Compensation IDAC is disabled the function loads trim values for IDAC1 only.
2120:Generated_Source\PSoC4/CapSense_Sensing.c ****         *
2121:Generated_Source\PSoC4/CapSense_Sensing.c ****         *******************************************************************************/
2122:Generated_Source\PSoC4/CapSense_Sensing.c ****         static void CapSense_SsTrimIdacsSourcing(void)
2123:Generated_Source\PSoC4/CapSense_Sensing.c ****         {
2124:Generated_Source\PSoC4/CapSense_Sensing.c ****             uint32 trimValue;
2125:Generated_Source\PSoC4/CapSense_Sensing.c **** 
2126:Generated_Source\PSoC4/CapSense_Sensing.c ****             /* Mod iDAC Sourcing Mode */
2127:Generated_Source\PSoC4/CapSense_Sensing.c ****             trimValue = CY_GET_REG32(CapSense_TRIM1_PTR) & ~CapSense_IDAC_TRIM1_MOD_SRC_MASK;
2128:Generated_Source\PSoC4/CapSense_Sensing.c ****             trimValue |= ((uint32)CY_GET_REG8(CapSense_SFLASH_TRIM1_PTR) &
ARM GAS  C:\Users\zack.li\AppData\Local\Temp\ccM7U1Od.s 			page 57


2129:Generated_Source\PSoC4/CapSense_Sensing.c ****                                                       CapSense_SFLASH_TRIM_IDAC_MOD_MASK);
2130:Generated_Source\PSoC4/CapSense_Sensing.c **** 
2131:Generated_Source\PSoC4/CapSense_Sensing.c ****             #if (CapSense_ENABLE == CapSense_CSD_IDAC_COMP_EN)
2132:Generated_Source\PSoC4/CapSense_Sensing.c ****                  /* Comp iDAC Sourcing Mode */
2133:Generated_Source\PSoC4/CapSense_Sensing.c ****                 trimValue &= ~CapSense_IDAC_TRIM1_COMP_SRC_MASK;
2134:Generated_Source\PSoC4/CapSense_Sensing.c ****                 trimValue |= ((uint32)CY_GET_REG8(CapSense_SFLASH_TRIM1_PTR) &
2135:Generated_Source\PSoC4/CapSense_Sensing.c ****                                                           CapSense_SFLASH_TRIM_IDAC_COMP_MASK);
2136:Generated_Source\PSoC4/CapSense_Sensing.c ****             #endif /* (CapSense_ENABLE == CapSense_CSD_IDAC_COMP_EN) */
2137:Generated_Source\PSoC4/CapSense_Sensing.c **** 
2138:Generated_Source\PSoC4/CapSense_Sensing.c ****             /* Update IDAC trim bits for gain control in current source mode */
2139:Generated_Source\PSoC4/CapSense_Sensing.c ****             CY_SET_REG32(CapSense_TRIM1_PTR, trimValue);
2140:Generated_Source\PSoC4/CapSense_Sensing.c ****         }
2141:Generated_Source\PSoC4/CapSense_Sensing.c ****     #endif /* ((CapSense_ENABLE == CapSense_CSX_EN) || \
2142:Generated_Source\PSoC4/CapSense_Sensing.c ****                (CapSense_IDAC_SOURCING == CapSense_CSD_IDAC_CONFIG)) */
2143:Generated_Source\PSoC4/CapSense_Sensing.c **** 
2144:Generated_Source\PSoC4/CapSense_Sensing.c **** 
2145:Generated_Source\PSoC4/CapSense_Sensing.c ****     /*******************************************************************************
2146:Generated_Source\PSoC4/CapSense_Sensing.c ****     * Function Name: CapSense_SsTrimIdacs
2147:Generated_Source\PSoC4/CapSense_Sensing.c ****     ****************************************************************************//**
2148:Generated_Source\PSoC4/CapSense_Sensing.c ****     *
2149:Generated_Source\PSoC4/CapSense_Sensing.c ****     * \brief
2150:Generated_Source\PSoC4/CapSense_Sensing.c ****     *  This function loads trim values from SFLASH rows to calibrate
2151:Generated_Source\PSoC4/CapSense_Sensing.c ****     *  IDAC1 and IDAC2 for CSD Mode
2152:Generated_Source\PSoC4/CapSense_Sensing.c ****     *
2153:Generated_Source\PSoC4/CapSense_Sensing.c ****     * \details
2154:Generated_Source\PSoC4/CapSense_Sensing.c ****     *  If CSX mode is enabled the function loads trim values for both sink and source
2155:Generated_Source\PSoC4/CapSense_Sensing.c ****     *  mode. If CSX mode is disabled the function loads trim values for sink or
2156:Generated_Source\PSoC4/CapSense_Sensing.c ****     *  source mode based on sink/source mode configuration.
2157:Generated_Source\PSoC4/CapSense_Sensing.c ****     *  If Compensation IDAC is disabled the function loads trim values for IDAC1 only.
2158:Generated_Source\PSoC4/CapSense_Sensing.c ****     *
2159:Generated_Source\PSoC4/CapSense_Sensing.c ****     *******************************************************************************/
2160:Generated_Source\PSoC4/CapSense_Sensing.c ****     static void CapSense_SsTrimIdacs(void)
2161:Generated_Source\PSoC4/CapSense_Sensing.c ****     {
2162:Generated_Source\PSoC4/CapSense_Sensing.c ****         #if (CapSense_ENABLE == CapSense_CSX_EN) || (CapSense_ENABLE == CapSense_ISX_EN)
2163:Generated_Source\PSoC4/CapSense_Sensing.c ****             CapSense_SsTrimIdacsSinking();
2164:Generated_Source\PSoC4/CapSense_Sensing.c ****             CapSense_SsTrimIdacsSourcing();
2165:Generated_Source\PSoC4/CapSense_Sensing.c ****         #elif (CapSense_IDAC_SINKING == CapSense_CSD_IDAC_CONFIG)
2166:Generated_Source\PSoC4/CapSense_Sensing.c ****             CapSense_SsTrimIdacsSinking();
2167:Generated_Source\PSoC4/CapSense_Sensing.c ****         #elif (CapSense_IDAC_SOURCING == CapSense_CSD_IDAC_CONFIG)
2168:Generated_Source\PSoC4/CapSense_Sensing.c ****             CapSense_SsTrimIdacsSourcing();
2169:Generated_Source\PSoC4/CapSense_Sensing.c ****         #else
2170:Generated_Source\PSoC4/CapSense_Sensing.c ****             #error "Not supported Mode, Component cannot work in this mode"
2171:Generated_Source\PSoC4/CapSense_Sensing.c ****         #endif /* (CapSense_ENABLE == CapSense_CSX_EN) || (CapSense_ENABLE == CapSense_ISX_EN) */
2172:Generated_Source\PSoC4/CapSense_Sensing.c ****     }
2173:Generated_Source\PSoC4/CapSense_Sensing.c **** #endif  /* (CapSense_DISABLE == CapSense_CSDV2) */
2174:Generated_Source\PSoC4/CapSense_Sensing.c **** 
2175:Generated_Source\PSoC4/CapSense_Sensing.c **** 
2176:Generated_Source\PSoC4/CapSense_Sensing.c **** #if (CapSense_ENABLE == CapSense_MULTI_FREQ_SCAN_EN)
2177:Generated_Source\PSoC4/CapSense_Sensing.c ****     /*******************************************************************************
2178:Generated_Source\PSoC4/CapSense_Sensing.c ****     * Function Name: CapSense_SsChangeImoFreq
2179:Generated_Source\PSoC4/CapSense_Sensing.c ****     ****************************************************************************//**
2180:Generated_Source\PSoC4/CapSense_Sensing.c ****     *
2181:Generated_Source\PSoC4/CapSense_Sensing.c ****     * \brief
2182:Generated_Source\PSoC4/CapSense_Sensing.c ****     *  This function changes the IMO frequency.
2183:Generated_Source\PSoC4/CapSense_Sensing.c ****     *
2184:Generated_Source\PSoC4/CapSense_Sensing.c ****     * \details
2185:Generated_Source\PSoC4/CapSense_Sensing.c ****     *  The IMO frequency can have three offsets: 0%, -5% and +5%. The frequency
ARM GAS  C:\Users\zack.li\AppData\Local\Temp\ccM7U1Od.s 			page 58


2186:Generated_Source\PSoC4/CapSense_Sensing.c ****     *  trims are contained in the CapSense_immunity[value] array for each
2187:Generated_Source\PSoC4/CapSense_Sensing.c ****     *  frequency channel.
2188:Generated_Source\PSoC4/CapSense_Sensing.c ****     *
2189:Generated_Source\PSoC4/CapSense_Sensing.c ****     * \param value The frequency channel ID.
2190:Generated_Source\PSoC4/CapSense_Sensing.c ****     *
2191:Generated_Source\PSoC4/CapSense_Sensing.c ****     *******************************************************************************/
2192:Generated_Source\PSoC4/CapSense_Sensing.c ****     void CapSense_SsChangeImoFreq(uint32 value)
2193:Generated_Source\PSoC4/CapSense_Sensing.c ****     {
2194:Generated_Source\PSoC4/CapSense_Sensing.c ****         CY_SET_REG32(CY_SYS_CLK_IMO_TRIM1_PTR, CapSense_immunity[value]);
2195:Generated_Source\PSoC4/CapSense_Sensing.c ****     }
2196:Generated_Source\PSoC4/CapSense_Sensing.c **** 
2197:Generated_Source\PSoC4/CapSense_Sensing.c ****     /*******************************************************************************
2198:Generated_Source\PSoC4/CapSense_Sensing.c ****     * Function Name: CapSense_SsChangeClkFreq
2199:Generated_Source\PSoC4/CapSense_Sensing.c ****     ****************************************************************************//**
2200:Generated_Source\PSoC4/CapSense_Sensing.c ****     *
2201:Generated_Source\PSoC4/CapSense_Sensing.c ****     * \brief
2202:Generated_Source\PSoC4/CapSense_Sensing.c ****     *  This function changes the sensor clock frequency by configuring
2203:Generated_Source\PSoC4/CapSense_Sensing.c ****     *  the corresponding divider.
2204:Generated_Source\PSoC4/CapSense_Sensing.c ****     *
2205:Generated_Source\PSoC4/CapSense_Sensing.c ****     * \details
2206:Generated_Source\PSoC4/CapSense_Sensing.c ****     *  This function changes the sensor clock frequency by configuring
2207:Generated_Source\PSoC4/CapSense_Sensing.c ****     *  the corresponding divider.
2208:Generated_Source\PSoC4/CapSense_Sensing.c ****     *
2209:Generated_Source\PSoC4/CapSense_Sensing.c ****     * \param chId
