ARM GAS  C:\Users\zack.li\AppData\Local\Temp\ccvbPEtI.s 			page 1


   1              		.syntax unified
   2              		.cpu cortex-m0
   3              		.fpu softvfp
   4              		.eabi_attribute 20, 1
   5              		.eabi_attribute 21, 1
   6              		.eabi_attribute 23, 3
   7              		.eabi_attribute 24, 1
   8              		.eabi_attribute 25, 1
   9              		.eabi_attribute 26, 1
  10              		.eabi_attribute 30, 4
  11              		.eabi_attribute 34, 0
  12              		.eabi_attribute 18, 4
  13              		.thumb
  14              		.syntax unified
  15              		.file	"CapSense_Filter.c"
  16              		.text
  17              	.Ltext0:
  18              		.cfi_sections	.debug_frame
  19              		.section	.text.CapSense_FtInitializeBaselineChannel,"ax",%progbits
  20              		.align	1
  21              		.global	CapSense_FtInitializeBaselineChannel
  22              		.code	16
  23              		.thumb_func
  24              		.type	CapSense_FtInitializeBaselineChannel, %function
  25              	CapSense_FtInitializeBaselineChannel:
  26              	.LFB10:
  27              		.file 1 "Generated_Source\\PSoC4\\CapSense_Filter.c"
   1:Generated_Source\PSoC4/CapSense_Filter.c **** /***************************************************************************//**
   2:Generated_Source\PSoC4/CapSense_Filter.c **** * \file CapSense_Filter.c
   3:Generated_Source\PSoC4/CapSense_Filter.c **** * \version 7.0
   4:Generated_Source\PSoC4/CapSense_Filter.c **** *
   5:Generated_Source\PSoC4/CapSense_Filter.c **** * \brief
   6:Generated_Source\PSoC4/CapSense_Filter.c **** *   This file contains the implementation source code to implement all
   7:Generated_Source\PSoC4/CapSense_Filter.c **** *   firmware filters.
   8:Generated_Source\PSoC4/CapSense_Filter.c **** *
   9:Generated_Source\PSoC4/CapSense_Filter.c **** * \see CapSense v7.0 Datasheet
  10:Generated_Source\PSoC4/CapSense_Filter.c **** *
  11:Generated_Source\PSoC4/CapSense_Filter.c **** *//*****************************************************************************
  12:Generated_Source\PSoC4/CapSense_Filter.c **** * Copyright (2016-2019), Cypress Semiconductor Corporation.
  13:Generated_Source\PSoC4/CapSense_Filter.c **** ********************************************************************************
  14:Generated_Source\PSoC4/CapSense_Filter.c **** * This software is owned by Cypress Semiconductor Corporation (Cypress) and is
  15:Generated_Source\PSoC4/CapSense_Filter.c **** * protected by and subject to worldwide patent protection (United States and
  16:Generated_Source\PSoC4/CapSense_Filter.c **** * foreign), United States copyright laws and international treaty provisions.
  17:Generated_Source\PSoC4/CapSense_Filter.c **** * Cypress hereby grants to licensee a personal, non-exclusive, non-transferable
  18:Generated_Source\PSoC4/CapSense_Filter.c **** * license to copy, use, modify, create derivative works of, and compile the
  19:Generated_Source\PSoC4/CapSense_Filter.c **** * Cypress Source Code and derivative works for the sole purpose of creating
  20:Generated_Source\PSoC4/CapSense_Filter.c **** * custom software in support of licensee product to be used only in conjunction
  21:Generated_Source\PSoC4/CapSense_Filter.c **** * with a Cypress integrated circuit as specified in the applicable agreement.
  22:Generated_Source\PSoC4/CapSense_Filter.c **** * Any reproduction, modification, translation, compilation, or representation of
  23:Generated_Source\PSoC4/CapSense_Filter.c **** * this software except as specified above is prohibited without the express
  24:Generated_Source\PSoC4/CapSense_Filter.c **** * written permission of Cypress.
  25:Generated_Source\PSoC4/CapSense_Filter.c **** *
  26:Generated_Source\PSoC4/CapSense_Filter.c **** * Disclaimer: CYPRESS MAKES NO WARRANTY OF ANY KIND, EXPRESS OR IMPLIED, WITH
  27:Generated_Source\PSoC4/CapSense_Filter.c **** * REGARD TO THIS MATERIAL, INCLUDING, BUT NOT LIMITED TO, THE IMPLIED
  28:Generated_Source\PSoC4/CapSense_Filter.c **** * WARRANTIES OF MERCHANTABILITY AND FITNESS FOR A PARTICULAR PURPOSE.
  29:Generated_Source\PSoC4/CapSense_Filter.c **** * Cypress reserves the right to make changes without further notice to the
  30:Generated_Source\PSoC4/CapSense_Filter.c **** * materials described herein. Cypress does not assume any liability arising out
ARM GAS  C:\Users\zack.li\AppData\Local\Temp\ccvbPEtI.s 			page 2


  31:Generated_Source\PSoC4/CapSense_Filter.c **** * of the application or use of any product or circuit described herein. Cypress
  32:Generated_Source\PSoC4/CapSense_Filter.c **** * does not authorize its products for use as critical components in life-support
  33:Generated_Source\PSoC4/CapSense_Filter.c **** * systems where a malfunction or failure may reasonably be expected to result in
  34:Generated_Source\PSoC4/CapSense_Filter.c **** * significant injury to the user. The inclusion of Cypress' product in a life-
  35:Generated_Source\PSoC4/CapSense_Filter.c **** * support systems application implies that the manufacturer assumes all risk of
  36:Generated_Source\PSoC4/CapSense_Filter.c **** * such use and in doing so indemnifies Cypress against all charges. Use may be
  37:Generated_Source\PSoC4/CapSense_Filter.c **** * limited by and subject to the applicable Cypress software license agreement.
  38:Generated_Source\PSoC4/CapSense_Filter.c **** *******************************************************************************/
  39:Generated_Source\PSoC4/CapSense_Filter.c **** 
  40:Generated_Source\PSoC4/CapSense_Filter.c **** #include "CapSense_Filter.h"
  41:Generated_Source\PSoC4/CapSense_Filter.c **** #include "CapSense_Configuration.h"
  42:Generated_Source\PSoC4/CapSense_Filter.c **** 
  43:Generated_Source\PSoC4/CapSense_Filter.c **** #if (0 != (CapSense_CSD_AUTOTUNE & CapSense_CSD_SS_TH_EN))
  44:Generated_Source\PSoC4/CapSense_Filter.c ****     #include "CapSense_SmartSense_LL.h"
  45:Generated_Source\PSoC4/CapSense_Filter.c **** #endif /* (0 != (CapSense_CSD_AUTOTUNE & CapSense_CSD_SS_TH_EN)) */
  46:Generated_Source\PSoC4/CapSense_Filter.c **** 
  47:Generated_Source\PSoC4/CapSense_Filter.c **** #if (CapSense_ENABLE == CapSense_SELF_TEST_EN)
  48:Generated_Source\PSoC4/CapSense_Filter.c ****     #include "CapSense_SelfTest.h"
  49:Generated_Source\PSoC4/CapSense_Filter.c **** #endif
  50:Generated_Source\PSoC4/CapSense_Filter.c **** 
  51:Generated_Source\PSoC4/CapSense_Filter.c **** /*******************************************************************************
  52:Generated_Source\PSoC4/CapSense_Filter.c **** * Function Name: CapSense_FtInitialize
  53:Generated_Source\PSoC4/CapSense_Filter.c **** ****************************************************************************//**
  54:Generated_Source\PSoC4/CapSense_Filter.c **** *
  55:Generated_Source\PSoC4/CapSense_Filter.c **** * \brief
  56:Generated_Source\PSoC4/CapSense_Filter.c **** *  Initializes all the firmware filter history, except the baseline filter.
  57:Generated_Source\PSoC4/CapSense_Filter.c **** *
  58:Generated_Source\PSoC4/CapSense_Filter.c **** * \details
  59:Generated_Source\PSoC4/CapSense_Filter.c **** *  Initializes all the firmware filter history, except the baseline filter.
  60:Generated_Source\PSoC4/CapSense_Filter.c **** *
  61:Generated_Source\PSoC4/CapSense_Filter.c **** *******************************************************************************/
  62:Generated_Source\PSoC4/CapSense_Filter.c **** void CapSense_FtInitialize(void)
  63:Generated_Source\PSoC4/CapSense_Filter.c **** {
  64:Generated_Source\PSoC4/CapSense_Filter.c ****     #if ((CapSense_ENABLE == CapSense_RC_FILTER_EN) || \
  65:Generated_Source\PSoC4/CapSense_Filter.c ****          (0u != (CapSense_CSD_AUTOTUNE & CapSense_CSD_SS_TH_EN)))
  66:Generated_Source\PSoC4/CapSense_Filter.c ****         CapSense_InitializeAllFilters();
  67:Generated_Source\PSoC4/CapSense_Filter.c ****     #endif /* ((CapSense_ENABLE == CapSense_RC_FILTER_EN) || \
  68:Generated_Source\PSoC4/CapSense_Filter.c ****                (0u != (CapSense_CSD_AUTOTUNE & CapSense_CSD_SS_TH_EN))) */
  69:Generated_Source\PSoC4/CapSense_Filter.c **** }
  70:Generated_Source\PSoC4/CapSense_Filter.c **** 
  71:Generated_Source\PSoC4/CapSense_Filter.c **** 
  72:Generated_Source\PSoC4/CapSense_Filter.c **** /*******************************************************************************
  73:Generated_Source\PSoC4/CapSense_Filter.c **** * Function Name: CapSense_UpdateAllBaselines
  74:Generated_Source\PSoC4/CapSense_Filter.c **** ****************************************************************************//**
  75:Generated_Source\PSoC4/CapSense_Filter.c **** *
  76:Generated_Source\PSoC4/CapSense_Filter.c **** * \brief
  77:Generated_Source\PSoC4/CapSense_Filter.c **** *  Updates the baseline for all the sensors in all the widgets.
  78:Generated_Source\PSoC4/CapSense_Filter.c **** *
  79:Generated_Source\PSoC4/CapSense_Filter.c **** * \details
  80:Generated_Source\PSoC4/CapSense_Filter.c **** *  Updates the baseline for all the sensors in all the widgets. Baseline updating is a
  81:Generated_Source\PSoC4/CapSense_Filter.c **** *  part of data processing performed by the process functions. So, no need to
  82:Generated_Source\PSoC4/CapSense_Filter.c **** *  call this function except a specific process flow is implemented.
  83:Generated_Source\PSoC4/CapSense_Filter.c **** *
  84:Generated_Source\PSoC4/CapSense_Filter.c **** *  This function ignores the value of the wdgtEnable register. Multiple calling
  85:Generated_Source\PSoC4/CapSense_Filter.c **** *  of this function (or any other function with a baseline updating task)
  86:Generated_Source\PSoC4/CapSense_Filter.c **** *  without scanning leads to unexpected behavior.
  87:Generated_Source\PSoC4/CapSense_Filter.c **** *
ARM GAS  C:\Users\zack.li\AppData\Local\Temp\ccvbPEtI.s 			page 3


  88:Generated_Source\PSoC4/CapSense_Filter.c **** *  If the Self-test library is enabled, this function executes the baseline duplication
  89:Generated_Source\PSoC4/CapSense_Filter.c **** *  test. Refer to CapSense_CheckBaselineDuplication() for details.
  90:Generated_Source\PSoC4/CapSense_Filter.c **** *
  91:Generated_Source\PSoC4/CapSense_Filter.c **** * \return
  92:Generated_Source\PSoC4/CapSense_Filter.c **** *  Returns the status of the update baseline operation of all the widgets:
  93:Generated_Source\PSoC4/CapSense_Filter.c **** *  - CYRET_SUCCESS - The operation is successfully completed.
  94:Generated_Source\PSoC4/CapSense_Filter.c **** *  - CYRET_BAD_DATA - The baseline processing failed.
  95:Generated_Source\PSoC4/CapSense_Filter.c **** *
  96:Generated_Source\PSoC4/CapSense_Filter.c **** *******************************************************************************/
  97:Generated_Source\PSoC4/CapSense_Filter.c **** cystatus CapSense_UpdateAllBaselines(void)
  98:Generated_Source\PSoC4/CapSense_Filter.c **** {
  99:Generated_Source\PSoC4/CapSense_Filter.c ****     uint32 widgetId;
 100:Generated_Source\PSoC4/CapSense_Filter.c ****     cystatus bslnStatus = CYRET_SUCCESS;
 101:Generated_Source\PSoC4/CapSense_Filter.c **** 
 102:Generated_Source\PSoC4/CapSense_Filter.c ****     for(widgetId = CapSense_TOTAL_WIDGETS; widgetId-- > 0u;)
 103:Generated_Source\PSoC4/CapSense_Filter.c ****     {
 104:Generated_Source\PSoC4/CapSense_Filter.c ****         bslnStatus |= CapSense_UpdateWidgetBaseline(widgetId);
 105:Generated_Source\PSoC4/CapSense_Filter.c ****     }
 106:Generated_Source\PSoC4/CapSense_Filter.c **** 
 107:Generated_Source\PSoC4/CapSense_Filter.c ****     return(bslnStatus);
 108:Generated_Source\PSoC4/CapSense_Filter.c **** }
 109:Generated_Source\PSoC4/CapSense_Filter.c **** 
 110:Generated_Source\PSoC4/CapSense_Filter.c **** 
 111:Generated_Source\PSoC4/CapSense_Filter.c **** /*******************************************************************************
 112:Generated_Source\PSoC4/CapSense_Filter.c **** * Function Name: CapSense_UpdateWidgetBaseline
 113:Generated_Source\PSoC4/CapSense_Filter.c **** ****************************************************************************//**
 114:Generated_Source\PSoC4/CapSense_Filter.c **** *
 115:Generated_Source\PSoC4/CapSense_Filter.c **** * \brief
 116:Generated_Source\PSoC4/CapSense_Filter.c **** *  Updates the baselines for all the sensors in a widget specified by the input
 117:Generated_Source\PSoC4/CapSense_Filter.c **** *  parameter.
 118:Generated_Source\PSoC4/CapSense_Filter.c **** *
 119:Generated_Source\PSoC4/CapSense_Filter.c **** * \details
 120:Generated_Source\PSoC4/CapSense_Filter.c **** *  This function performs exactly the same tasks as
 121:Generated_Source\PSoC4/CapSense_Filter.c **** *  CapSense_UpdateAllBaselines() but only for a specified widget.
 122:Generated_Source\PSoC4/CapSense_Filter.c **** *
 123:Generated_Source\PSoC4/CapSense_Filter.c **** *  This function ignores the value of the wdgtEnable register. Multiple calling
 124:Generated_Source\PSoC4/CapSense_Filter.c **** *  of this function (or any other function with a baseline updating task)
 125:Generated_Source\PSoC4/CapSense_Filter.c **** *  without scanning leads to unexpected behavior.
 126:Generated_Source\PSoC4/CapSense_Filter.c **** *
 127:Generated_Source\PSoC4/CapSense_Filter.c **** *  If the Self-test library is enabled, this function executes the baseline duplication
 128:Generated_Source\PSoC4/CapSense_Filter.c **** *  test. Refer to CapSense_CheckBaselineDuplication() for details.
 129:Generated_Source\PSoC4/CapSense_Filter.c **** *
 130:Generated_Source\PSoC4/CapSense_Filter.c **** * \param widgetId
 131:Generated_Source\PSoC4/CapSense_Filter.c **** *  Specifies the ID number of the widget to update the baseline of all the sensors
 132:Generated_Source\PSoC4/CapSense_Filter.c **** *  in the widget.
 133:Generated_Source\PSoC4/CapSense_Filter.c **** *  A macro for the widget ID can be found in the
 134:Generated_Source\PSoC4/CapSense_Filter.c **** *  CapSense Configuration header file defined as
 135:Generated_Source\PSoC4/CapSense_Filter.c **** *  CapSense_<WidgetName>_WDGT_ID.
 136:Generated_Source\PSoC4/CapSense_Filter.c **** *
 137:Generated_Source\PSoC4/CapSense_Filter.c **** * \return
 138:Generated_Source\PSoC4/CapSense_Filter.c **** *  Returns the status of the specified widget update baseline operation:
 139:Generated_Source\PSoC4/CapSense_Filter.c **** *  - CYRET_SUCCESS - The operation is successfully completed.
 140:Generated_Source\PSoC4/CapSense_Filter.c **** *  - CYRET_BAD_DATA - The baseline processing is failed.
 141:Generated_Source\PSoC4/CapSense_Filter.c **** *
 142:Generated_Source\PSoC4/CapSense_Filter.c **** *******************************************************************************/
 143:Generated_Source\PSoC4/CapSense_Filter.c **** cystatus CapSense_UpdateWidgetBaseline(uint32 widgetId)
 144:Generated_Source\PSoC4/CapSense_Filter.c **** {
ARM GAS  C:\Users\zack.li\AppData\Local\Temp\ccvbPEtI.s 			page 4


 145:Generated_Source\PSoC4/CapSense_Filter.c ****     uint32 sensorId;
 146:Generated_Source\PSoC4/CapSense_Filter.c ****     uint32 sensorsNumber;
 147:Generated_Source\PSoC4/CapSense_Filter.c **** 
 148:Generated_Source\PSoC4/CapSense_Filter.c ****     CapSense_FLASH_WD_STRUCT const *ptrWidget = &CapSense_dsFlash.wdgtArray[widgetId];
 149:Generated_Source\PSoC4/CapSense_Filter.c ****     cystatus bslnStatus = CYRET_SUCCESS;
 150:Generated_Source\PSoC4/CapSense_Filter.c **** 
 151:Generated_Source\PSoC4/CapSense_Filter.c ****     /* Find total amount of sensors in specified widget */
 152:Generated_Source\PSoC4/CapSense_Filter.c ****     sensorsNumber = CapSense_GET_SNS_CNT_BY_PTR(ptrWidget);
 153:Generated_Source\PSoC4/CapSense_Filter.c **** 
 154:Generated_Source\PSoC4/CapSense_Filter.c ****     for(sensorId = sensorsNumber; sensorId-- > 0u;)
 155:Generated_Source\PSoC4/CapSense_Filter.c ****     {
 156:Generated_Source\PSoC4/CapSense_Filter.c ****         bslnStatus |= CapSense_UpdateSensorBaseline(widgetId, sensorId);
 157:Generated_Source\PSoC4/CapSense_Filter.c ****     }
 158:Generated_Source\PSoC4/CapSense_Filter.c **** 
 159:Generated_Source\PSoC4/CapSense_Filter.c ****     return(bslnStatus);
 160:Generated_Source\PSoC4/CapSense_Filter.c **** }
 161:Generated_Source\PSoC4/CapSense_Filter.c **** 
 162:Generated_Source\PSoC4/CapSense_Filter.c **** 
 163:Generated_Source\PSoC4/CapSense_Filter.c **** /*******************************************************************************
 164:Generated_Source\PSoC4/CapSense_Filter.c **** * Function Name: CapSense_UpdateSensorBaseline
 165:Generated_Source\PSoC4/CapSense_Filter.c **** ****************************************************************************//**
 166:Generated_Source\PSoC4/CapSense_Filter.c **** *
 167:Generated_Source\PSoC4/CapSense_Filter.c **** * \brief
 168:Generated_Source\PSoC4/CapSense_Filter.c **** *  Updates the baseline for a sensor in a widget specified by the input parameters.
 169:Generated_Source\PSoC4/CapSense_Filter.c **** *
 170:Generated_Source\PSoC4/CapSense_Filter.c **** * \details
 171:Generated_Source\PSoC4/CapSense_Filter.c **** *  This function performs exactly the same tasks as
 172:Generated_Source\PSoC4/CapSense_Filter.c **** *  CapSense_UpdateAllBaselines() and
 173:Generated_Source\PSoC4/CapSense_Filter.c **** *  CapSense_UpdateWidgetBaseline() but only for a specified sensor.
 174:Generated_Source\PSoC4/CapSense_Filter.c **** *
 175:Generated_Source\PSoC4/CapSense_Filter.c **** *  This function ignores the value of the wdgtEnable register. Multiple calling
 176:Generated_Source\PSoC4/CapSense_Filter.c **** *  of this function (or any other function with a baseline updating task)
 177:Generated_Source\PSoC4/CapSense_Filter.c **** *  without scanning leads to unexpected behavior.
 178:Generated_Source\PSoC4/CapSense_Filter.c **** *
 179:Generated_Source\PSoC4/CapSense_Filter.c **** *  If the Self-test library is enabled, this function executes the baseline duplication
 180:Generated_Source\PSoC4/CapSense_Filter.c **** *  test. Refer to CapSense_CheckBaselineDuplication() for details.
 181:Generated_Source\PSoC4/CapSense_Filter.c **** *
 182:Generated_Source\PSoC4/CapSense_Filter.c **** * \param widgetId
 183:Generated_Source\PSoC4/CapSense_Filter.c **** *  Specifies the ID number of the widget to update the baseline of the sensor
 184:Generated_Source\PSoC4/CapSense_Filter.c **** *  specified by the sensorId argument.
 185:Generated_Source\PSoC4/CapSense_Filter.c **** *  A macro for the widget ID can be found in the CapSense Configuration header
 186:Generated_Source\PSoC4/CapSense_Filter.c **** *  file defined as CapSense_<WidgetName>_WDGT_ID.
 187:Generated_Source\PSoC4/CapSense_Filter.c **** *
 188:Generated_Source\PSoC4/CapSense_Filter.c **** * \param sensorId
 189:Generated_Source\PSoC4/CapSense_Filter.c **** *  Specifies the ID number of the sensor within the widget to update its baseline.
 190:Generated_Source\PSoC4/CapSense_Filter.c **** *  A macro for the sensor ID within a specified widget can be found in the
 191:Generated_Source\PSoC4/CapSense_Filter.c **** *  CapSense Configuration header file defined as
 192:Generated_Source\PSoC4/CapSense_Filter.c **** *  CapSense_<WidgetName>_SNS<SensorNumber>_ID.
 193:Generated_Source\PSoC4/CapSense_Filter.c **** *
 194:Generated_Source\PSoC4/CapSense_Filter.c **** * \return
 195:Generated_Source\PSoC4/CapSense_Filter.c **** *  Returns the status of the specified sensor update baseline operation:
 196:Generated_Source\PSoC4/CapSense_Filter.c **** *  - CYRET_SUCCESS - The operation is successfully completed.
 197:Generated_Source\PSoC4/CapSense_Filter.c **** *  - CYRET_BAD_DATA - The baseline processing failed.
 198:Generated_Source\PSoC4/CapSense_Filter.c **** *
 199:Generated_Source\PSoC4/CapSense_Filter.c **** *******************************************************************************/
 200:Generated_Source\PSoC4/CapSense_Filter.c **** cystatus CapSense_UpdateSensorBaseline(uint32 widgetId, uint32 sensorId)
 201:Generated_Source\PSoC4/CapSense_Filter.c **** {
ARM GAS  C:\Users\zack.li\AppData\Local\Temp\ccvbPEtI.s 			page 5


 202:Generated_Source\PSoC4/CapSense_Filter.c ****     uint32 result = CYRET_SUCCESS;
 203:Generated_Source\PSoC4/CapSense_Filter.c **** 
 204:Generated_Source\PSoC4/CapSense_Filter.c ****     CapSense_RAM_SNS_STRUCT *ptrSensor = NULL;
 205:Generated_Source\PSoC4/CapSense_Filter.c ****     CapSense_FLASH_WD_STRUCT const *ptrWidget = &CapSense_dsFlash.wdgtArray[widgetId];
 206:Generated_Source\PSoC4/CapSense_Filter.c ****     CapSense_RAM_WD_BASE_STRUCT *ptrWidgetRam = (CapSense_RAM_WD_BASE_STRUCT *)ptrWidget->ptr2WdgtR
 207:Generated_Source\PSoC4/CapSense_Filter.c **** 
 208:Generated_Source\PSoC4/CapSense_Filter.c ****     /* Find pointer to specified sensor object */
 209:Generated_Source\PSoC4/CapSense_Filter.c ****     ptrSensor = ptrWidget->ptr2SnsRam;
 210:Generated_Source\PSoC4/CapSense_Filter.c ****     ptrSensor = &ptrSensor[sensorId];
 211:Generated_Source\PSoC4/CapSense_Filter.c ****     result = CapSense_FtUpdateBaseline(ptrWidgetRam, ptrSensor, (uint32)ptrWidget->wdgtType);
 212:Generated_Source\PSoC4/CapSense_Filter.c **** 
 213:Generated_Source\PSoC4/CapSense_Filter.c ****     #if (CapSense_ENABLE == CapSense_TST_BSLN_DUPLICATION_EN)
 214:Generated_Source\PSoC4/CapSense_Filter.c ****         if (CYRET_SUCCESS != result)
 215:Generated_Source\PSoC4/CapSense_Filter.c ****         {
 216:Generated_Source\PSoC4/CapSense_Filter.c ****             result = CYRET_BAD_DATA;
 217:Generated_Source\PSoC4/CapSense_Filter.c ****             CapSense_UpdateTestResultBaselineDuplication(widgetId, sensorId);
 218:Generated_Source\PSoC4/CapSense_Filter.c ****         }
 219:Generated_Source\PSoC4/CapSense_Filter.c ****     #endif /* (CapSense_ENABLE == CapSense_TST_BSLN_DUPLICATION_EN) */
 220:Generated_Source\PSoC4/CapSense_Filter.c **** 
 221:Generated_Source\PSoC4/CapSense_Filter.c ****     return result;
 222:Generated_Source\PSoC4/CapSense_Filter.c **** }
 223:Generated_Source\PSoC4/CapSense_Filter.c **** 
 224:Generated_Source\PSoC4/CapSense_Filter.c **** /*******************************************************************************
 225:Generated_Source\PSoC4/CapSense_Filter.c **** * Function Name: CapSense_FtUpdateBaseline
 226:Generated_Source\PSoC4/CapSense_Filter.c **** ****************************************************************************//**
 227:Generated_Source\PSoC4/CapSense_Filter.c **** *
 228:Generated_Source\PSoC4/CapSense_Filter.c **** * \brief
 229:Generated_Source\PSoC4/CapSense_Filter.c **** *  Updates the baseline for a sensor specified by an input parameter.
 230:Generated_Source\PSoC4/CapSense_Filter.c **** *
 231:Generated_Source\PSoC4/CapSense_Filter.c **** * \details
 232:Generated_Source\PSoC4/CapSense_Filter.c **** *  Check a matching of present baseline and its inverse duplication. If they
 233:Generated_Source\PSoC4/CapSense_Filter.c **** *  match then updates the baseline for a sensor specified by an input parameter.
 234:Generated_Source\PSoC4/CapSense_Filter.c **** *  If don't match the function return CapSense_TST_BSLN_DUPLICATION
 235:Generated_Source\PSoC4/CapSense_Filter.c **** *  result and don't update baseline.
 236:Generated_Source\PSoC4/CapSense_Filter.c **** *
 237:Generated_Source\PSoC4/CapSense_Filter.c **** * \param ptrWidgetRam
 238:Generated_Source\PSoC4/CapSense_Filter.c **** *  The pointer to the widget RAM structure where all the widget parameters
 239:Generated_Source\PSoC4/CapSense_Filter.c **** *  are stored.
 240:Generated_Source\PSoC4/CapSense_Filter.c **** *
 241:Generated_Source\PSoC4/CapSense_Filter.c **** * \param ptrSensor
 242:Generated_Source\PSoC4/CapSense_Filter.c **** *  The pointer to the sensor RAM structure where all the sensor parameters
 243:Generated_Source\PSoC4/CapSense_Filter.c **** *  are stored.
 244:Generated_Source\PSoC4/CapSense_Filter.c **** *
 245:Generated_Source\PSoC4/CapSense_Filter.c **** * \param wdType
 246:Generated_Source\PSoC4/CapSense_Filter.c **** *  Specifies the type of a widget.
 247:Generated_Source\PSoC4/CapSense_Filter.c **** *
 248:Generated_Source\PSoC4/CapSense_Filter.c **** * \return
 249:Generated_Source\PSoC4/CapSense_Filter.c **** *  Returns a status indicating whether the baseline has been updated:
 250:Generated_Source\PSoC4/CapSense_Filter.c **** *  - CYRET_SUCCESS if baseline updating was successful.
 251:Generated_Source\PSoC4/CapSense_Filter.c **** *  - CapSense_PROCESS_BASELINE_FAILED if present sensor's any channel
 252:Generated_Source\PSoC4/CapSense_Filter.c **** *    baseline and its inversion doesn't matched.
 253:Generated_Source\PSoC4/CapSense_Filter.c **** *
 254:Generated_Source\PSoC4/CapSense_Filter.c **** *******************************************************************************/
 255:Generated_Source\PSoC4/CapSense_Filter.c **** uint32 CapSense_FtUpdateBaseline(
 256:Generated_Source\PSoC4/CapSense_Filter.c ****                                 CapSense_RAM_WD_BASE_STRUCT *ptrWidgetRam,
 257:Generated_Source\PSoC4/CapSense_Filter.c ****                                 CapSense_RAM_SNS_STRUCT *ptrSensor,
 258:Generated_Source\PSoC4/CapSense_Filter.c ****                                 uint32 wdType)
ARM GAS  C:\Users\zack.li\AppData\Local\Temp\ccvbPEtI.s 			page 6


 259:Generated_Source\PSoC4/CapSense_Filter.c **** {
 260:Generated_Source\PSoC4/CapSense_Filter.c ****     uint32 sign;
 261:Generated_Source\PSoC4/CapSense_Filter.c ****     uint32 difference;
 262:Generated_Source\PSoC4/CapSense_Filter.c ****     uint32 freqChannel;
 263:Generated_Source\PSoC4/CapSense_Filter.c ****     uint32 baselineCoeff;
 264:Generated_Source\PSoC4/CapSense_Filter.c ****     uint32 result = CYRET_SUCCESS;
 265:Generated_Source\PSoC4/CapSense_Filter.c **** 
 266:Generated_Source\PSoC4/CapSense_Filter.c ****     #if (CapSense_TOTAL_WIDGETS)
 267:Generated_Source\PSoC4/CapSense_Filter.c ****         uint32 history;
 268:Generated_Source\PSoC4/CapSense_Filter.c ****     #endif /* (CapSense_TOTAL_WIDGETS) */
 269:Generated_Source\PSoC4/CapSense_Filter.c **** 
 270:Generated_Source\PSoC4/CapSense_Filter.c ****     /* Apply baseline to every channel in sensor */
 271:Generated_Source\PSoC4/CapSense_Filter.c ****     for(freqChannel = CapSense_NUM_SCAN_FREQS; freqChannel-- > 0u;)
 272:Generated_Source\PSoC4/CapSense_Filter.c ****     {
 273:Generated_Source\PSoC4/CapSense_Filter.c ****         #if (CapSense_ENABLE == CapSense_TST_BSLN_DUPLICATION_EN)
 274:Generated_Source\PSoC4/CapSense_Filter.c ****             if (ptrSensor->bslnInv[freqChannel] != ((uint16) ~(ptrSensor->bsln[freqChannel])))
 275:Generated_Source\PSoC4/CapSense_Filter.c ****             {
 276:Generated_Source\PSoC4/CapSense_Filter.c ****                 result = CapSense_PROCESS_BASELINE_FAILED;
 277:Generated_Source\PSoC4/CapSense_Filter.c ****             }
 278:Generated_Source\PSoC4/CapSense_Filter.c ****             else
 279:Generated_Source\PSoC4/CapSense_Filter.c ****             {
 280:Generated_Source\PSoC4/CapSense_Filter.c ****         #endif /* (CapSense_ENABLE == CapSense_TST_BSLN_DUPLICATION_EN) */
 281:Generated_Source\PSoC4/CapSense_Filter.c **** 
 282:Generated_Source\PSoC4/CapSense_Filter.c ****         /* Calculate signal value and its sign */
 283:Generated_Source\PSoC4/CapSense_Filter.c ****         if(ptrSensor->raw[freqChannel] >= ptrSensor->bsln[freqChannel])
 284:Generated_Source\PSoC4/CapSense_Filter.c ****         {
 285:Generated_Source\PSoC4/CapSense_Filter.c ****             difference = (uint32)ptrSensor->raw[freqChannel] - (uint32)ptrSensor->bsln[freqChannel]
 286:Generated_Source\PSoC4/CapSense_Filter.c ****             sign = 1u;
 287:Generated_Source\PSoC4/CapSense_Filter.c ****             ptrSensor->negBslnRstCnt[freqChannel] = 0u;
 288:Generated_Source\PSoC4/CapSense_Filter.c ****         }
 289:Generated_Source\PSoC4/CapSense_Filter.c ****         else
 290:Generated_Source\PSoC4/CapSense_Filter.c ****         {
 291:Generated_Source\PSoC4/CapSense_Filter.c ****             difference = (uint32)ptrSensor->bsln[freqChannel] - (uint32)ptrSensor->raw[freqChannel]
 292:Generated_Source\PSoC4/CapSense_Filter.c ****             sign = 0u;
 293:Generated_Source\PSoC4/CapSense_Filter.c ****         }
 294:Generated_Source\PSoC4/CapSense_Filter.c **** 
 295:Generated_Source\PSoC4/CapSense_Filter.c ****         /* Reset baseline if condition is met */
 296:Generated_Source\PSoC4/CapSense_Filter.c ****         if((sign == 0u) && (difference > (uint32) ptrWidgetRam->nNoiseTh))
 297:Generated_Source\PSoC4/CapSense_Filter.c ****         {
 298:Generated_Source\PSoC4/CapSense_Filter.c ****             if(ptrSensor->negBslnRstCnt[freqChannel] >= ptrWidgetRam->lowBslnRst)
 299:Generated_Source\PSoC4/CapSense_Filter.c ****             {
 300:Generated_Source\PSoC4/CapSense_Filter.c ****                 CapSense_FtInitializeBaselineChannel(ptrSensor, wdType, freqChannel);
 301:Generated_Source\PSoC4/CapSense_Filter.c ****             }
 302:Generated_Source\PSoC4/CapSense_Filter.c ****             else
 303:Generated_Source\PSoC4/CapSense_Filter.c ****             {
 304:Generated_Source\PSoC4/CapSense_Filter.c ****                 ptrSensor->negBslnRstCnt[freqChannel]++;
 305:Generated_Source\PSoC4/CapSense_Filter.c ****             }
 306:Generated_Source\PSoC4/CapSense_Filter.c ****         }
 307:Generated_Source\PSoC4/CapSense_Filter.c ****         else
 308:Generated_Source\PSoC4/CapSense_Filter.c ****         {
 309:Generated_Source\PSoC4/CapSense_Filter.c ****             #if (!CapSense_SENSOR_AUTO_RESET_EN)
 310:Generated_Source\PSoC4/CapSense_Filter.c ****                 /* Update baseline only if signal is in range between noiseThreshold and negativeno
 311:Generated_Source\PSoC4/CapSense_Filter.c ****                 if ((difference <= (uint32)ptrWidgetRam->noiseTh) ||
 312:Generated_Source\PSoC4/CapSense_Filter.c ****                     ((difference <= (uint32) ptrWidgetRam->nNoiseTh) && (sign == 0u)))
 313:Generated_Source\PSoC4/CapSense_Filter.c ****                 {
 314:Generated_Source\PSoC4/CapSense_Filter.c ****             #endif /* (CapSense_CSD_AUTO_RESET == CapSense_CSD_AUTO_RESET_DISABLE) */
 315:Generated_Source\PSoC4/CapSense_Filter.c **** 
ARM GAS  C:\Users\zack.li\AppData\Local\Temp\ccvbPEtI.s 			page 7


 316:Generated_Source\PSoC4/CapSense_Filter.c ****             #if (CapSense_BASELINE_TYPE == CapSense_IIR_BASELINE)
 317:Generated_Source\PSoC4/CapSense_Filter.c ****                 /* Calculate baseline value */
 318:Generated_Source\PSoC4/CapSense_Filter.c ****                 if ((CapSense_WD_TYPE_ENUM)wdType != CapSense_WD_PROXIMITY_E)
 319:Generated_Source\PSoC4/CapSense_Filter.c ****                 {
 320:Generated_Source\PSoC4/CapSense_Filter.c ****                     #if (CapSense_REGULAR_SENSOR_EN)
 321:Generated_Source\PSoC4/CapSense_Filter.c ****                         #if (CapSense_REGULAR_IIR_BL_TYPE == CapSense_IIR_FILTER_PERFORMANCE)
 322:Generated_Source\PSoC4/CapSense_Filter.c ****                             history = (uint32) ptrSensor->bsln[freqChannel] << 8u;
 323:Generated_Source\PSoC4/CapSense_Filter.c ****                             history |= ptrSensor->bslnExt[freqChannel];
 324:Generated_Source\PSoC4/CapSense_Filter.c ****                         #else
 325:Generated_Source\PSoC4/CapSense_Filter.c ****                             history = ptrSensor->bsln[freqChannel];
 326:Generated_Source\PSoC4/CapSense_Filter.c ****                         #endif /* (CapSense_REGULAR_IIR_BL_TYPE == CapSense_IIR_FILTER_PERFORMANCE)
 327:Generated_Source\PSoC4/CapSense_Filter.c **** 
 328:Generated_Source\PSoC4/CapSense_Filter.c ****                         #if (CapSense_ENABLE == CapSense_WD_BSLN_COEFF_EN)
 329:Generated_Source\PSoC4/CapSense_Filter.c ****                             baselineCoeff = ptrWidgetRam->bslnCoeff;
 330:Generated_Source\PSoC4/CapSense_Filter.c ****                         #else /* (CapSense_ENABLE == CapSense_WD_BSLN_COEFF_EN) */
 331:Generated_Source\PSoC4/CapSense_Filter.c ****                             baselineCoeff = CapSense_REGULAR_IIR_BL_N;
 332:Generated_Source\PSoC4/CapSense_Filter.c ****                         #endif /* (CapSense_ENABLE == CapSense_WD_BSLN_COEFF_EN) */
 333:Generated_Source\PSoC4/CapSense_Filter.c **** 
 334:Generated_Source\PSoC4/CapSense_Filter.c ****                         history =  CapSense_FtIIR1stOrder(
 335:Generated_Source\PSoC4/CapSense_Filter.c ****                                         (uint32)ptrSensor->raw[freqChannel],
 336:Generated_Source\PSoC4/CapSense_Filter.c ****                                         history, baselineCoeff,
 337:Generated_Source\PSoC4/CapSense_Filter.c ****                                         CapSense_REGULAR_IIR_BL_SHIFT);
 338:Generated_Source\PSoC4/CapSense_Filter.c **** 
 339:Generated_Source\PSoC4/CapSense_Filter.c ****                         #if (CapSense_REGULAR_IIR_BL_TYPE == CapSense_IIR_FILTER_PERFORMANCE)
 340:Generated_Source\PSoC4/CapSense_Filter.c ****                             ptrSensor->bsln[freqChannel] = LO16(history >> 8u);
 341:Generated_Source\PSoC4/CapSense_Filter.c ****                             ptrSensor->bslnExt[freqChannel] = LO8(history);
 342:Generated_Source\PSoC4/CapSense_Filter.c ****                         #else
 343:Generated_Source\PSoC4/CapSense_Filter.c ****                             ptrSensor->bsln[freqChannel] = LO16(history);
 344:Generated_Source\PSoC4/CapSense_Filter.c ****                         #endif /* (CapSense_REGULAR_IIR_BL_TYPE == CapSense_IIR_FILTER_PERFORMANCE)
 345:Generated_Source\PSoC4/CapSense_Filter.c ****                     #endif /* (CapSense_REGULAR_SENSOR_EN) */
 346:Generated_Source\PSoC4/CapSense_Filter.c ****                 }
 347:Generated_Source\PSoC4/CapSense_Filter.c ****                 else
 348:Generated_Source\PSoC4/CapSense_Filter.c ****                 {
 349:Generated_Source\PSoC4/CapSense_Filter.c ****                     #if (CapSense_PROXIMITY_SENSOR_EN)
 350:Generated_Source\PSoC4/CapSense_Filter.c ****                         #if (CapSense_PROX_IIR_BL_TYPE == CapSense_IIR_FILTER_PERFORMANCE)
 351:Generated_Source\PSoC4/CapSense_Filter.c ****                             history = (uint32) ptrSensor->bsln[freqChannel] << 8u;
 352:Generated_Source\PSoC4/CapSense_Filter.c ****                             history |= ptrSensor->bslnExt[freqChannel];
 353:Generated_Source\PSoC4/CapSense_Filter.c ****                         #else
 354:Generated_Source\PSoC4/CapSense_Filter.c ****                             history = (uint32) ptrSensor->bsln[freqChannel];
 355:Generated_Source\PSoC4/CapSense_Filter.c ****                         #endif /* (CapSense_PROX_IIR_BL_TYPE == CapSense_IIR_FILTER_PERFORMANCE) */
 356:Generated_Source\PSoC4/CapSense_Filter.c **** 
 357:Generated_Source\PSoC4/CapSense_Filter.c ****                         #if (CapSense_ENABLE == CapSense_WD_BSLN_COEFF_EN)
 358:Generated_Source\PSoC4/CapSense_Filter.c ****                             baselineCoeff = ptrWidgetRam->bslnCoeff;
 359:Generated_Source\PSoC4/CapSense_Filter.c ****                         #else /* (CapSense_ENABLE == CapSense_WD_BSLN_COEFF_EN) */
 360:Generated_Source\PSoC4/CapSense_Filter.c ****                             baselineCoeff = CapSense_PROX_IIR_BL_N;
 361:Generated_Source\PSoC4/CapSense_Filter.c ****                         #endif /* (CapSense_ENABLE == CapSense_WD_BSLN_COEFF_EN) */
 362:Generated_Source\PSoC4/CapSense_Filter.c **** 
 363:Generated_Source\PSoC4/CapSense_Filter.c ****                         history = CapSense_FtIIR1stOrder(
 364:Generated_Source\PSoC4/CapSense_Filter.c ****                                         (uint32)ptrSensor->raw[freqChannel],
 365:Generated_Source\PSoC4/CapSense_Filter.c ****                                         history, baselineCoeff,
 366:Generated_Source\PSoC4/CapSense_Filter.c ****                                         CapSense_PROX_IIR_BL_SHIFT);
 367:Generated_Source\PSoC4/CapSense_Filter.c **** 
 368:Generated_Source\PSoC4/CapSense_Filter.c ****                         #if (CapSense_PROX_IIR_BL_TYPE == CapSense_IIR_FILTER_PERFORMANCE)
 369:Generated_Source\PSoC4/CapSense_Filter.c ****                             ptrSensor->bsln[freqChannel] = LO16(history >> 8u);
 370:Generated_Source\PSoC4/CapSense_Filter.c ****                             ptrSensor->bslnExt[freqChannel] = LO8(history);
 371:Generated_Source\PSoC4/CapSense_Filter.c ****                         #else
 372:Generated_Source\PSoC4/CapSense_Filter.c ****                             ptrSensor->bsln[freqChannel] = LO16(history);
ARM GAS  C:\Users\zack.li\AppData\Local\Temp\ccvbPEtI.s 			page 8


 373:Generated_Source\PSoC4/CapSense_Filter.c ****                         #endif /* (CapSense_PROX_IIR_BL_TYPE == CapSense_IIR_FILTER_PERFORMANCE) */
 374:Generated_Source\PSoC4/CapSense_Filter.c ****                     #endif /* (CapSense_PROX_SENSOR_EN) */
 375:Generated_Source\PSoC4/CapSense_Filter.c ****                 }
 376:Generated_Source\PSoC4/CapSense_Filter.c ****             #else /* (CapSense_CSD_BASELINE_TYPE == CapSense_IIR_BASELINE) */
 377:Generated_Source\PSoC4/CapSense_Filter.c **** 
 378:Generated_Source\PSoC4/CapSense_Filter.c ****                 /******************************************************************
 379:Generated_Source\PSoC4/CapSense_Filter.c ****                 * This is the place where the bucket algorithm should be implemented.
 380:Generated_Source\PSoC4/CapSense_Filter.c ****                 * The bucket method will be implemented in future Component version.
 381:Generated_Source\PSoC4/CapSense_Filter.c ****                 *******************************************************************/
 382:Generated_Source\PSoC4/CapSense_Filter.c **** 
 383:Generated_Source\PSoC4/CapSense_Filter.c ****             #endif /* (CapSense_CSD_BASELINE_TYPE == CapSense_IIR_BASELINE) */
 384:Generated_Source\PSoC4/CapSense_Filter.c **** 
 385:Generated_Source\PSoC4/CapSense_Filter.c ****             #if (!CapSense_SENSOR_AUTO_RESET_EN)
 386:Generated_Source\PSoC4/CapSense_Filter.c ****                 }
 387:Generated_Source\PSoC4/CapSense_Filter.c ****             #endif /* (!CapSense_SENSOR_AUTO_RESET_EN) */
 388:Generated_Source\PSoC4/CapSense_Filter.c ****         }
 389:Generated_Source\PSoC4/CapSense_Filter.c **** 
 390:Generated_Source\PSoC4/CapSense_Filter.c ****         #if (CapSense_ENABLE == CapSense_TST_BSLN_DUPLICATION_EN)
 391:Generated_Source\PSoC4/CapSense_Filter.c ****             /* Update baseline inversion of every channel in sensor */
 392:Generated_Source\PSoC4/CapSense_Filter.c ****             ptrSensor->bslnInv[freqChannel] = ~(ptrSensor->bsln[freqChannel]);
 393:Generated_Source\PSoC4/CapSense_Filter.c ****             }
 394:Generated_Source\PSoC4/CapSense_Filter.c ****         #endif /* (CapSense_ENABLE == CapSense_TST_BSLN_DUPLICATION_EN) */
 395:Generated_Source\PSoC4/CapSense_Filter.c **** 
 396:Generated_Source\PSoC4/CapSense_Filter.c ****     }
 397:Generated_Source\PSoC4/CapSense_Filter.c ****     return result;
 398:Generated_Source\PSoC4/CapSense_Filter.c **** }
 399:Generated_Source\PSoC4/CapSense_Filter.c **** 
 400:Generated_Source\PSoC4/CapSense_Filter.c **** 
 401:Generated_Source\PSoC4/CapSense_Filter.c **** /*******************************************************************************
 402:Generated_Source\PSoC4/CapSense_Filter.c **** * Function Name: CapSense_InitializeAllBaselines
 403:Generated_Source\PSoC4/CapSense_Filter.c **** ****************************************************************************//**
 404:Generated_Source\PSoC4/CapSense_Filter.c **** *
 405:Generated_Source\PSoC4/CapSense_Filter.c **** * \brief
 406:Generated_Source\PSoC4/CapSense_Filter.c **** *  Initializes (or re-initializes) the baselines of all the sensors of all the widgets.
 407:Generated_Source\PSoC4/CapSense_Filter.c **** *
 408:Generated_Source\PSoC4/CapSense_Filter.c **** * \details
 409:Generated_Source\PSoC4/CapSense_Filter.c **** *  Initializes the baseline for all the sensors of all the widgets. Also, this function
 410:Generated_Source\PSoC4/CapSense_Filter.c **** *  can be used to re-initialize baselines. CapSense_Start() calls this
 411:Generated_Source\PSoC4/CapSense_Filter.c **** *  API as part of CapSense operation initialization.
 412:Generated_Source\PSoC4/CapSense_Filter.c **** *
 413:Generated_Source\PSoC4/CapSense_Filter.c **** *  If any raw count filter is enabled, make sure the raw count filter history is
 414:Generated_Source\PSoC4/CapSense_Filter.c **** *  initialized as well using one of these functions:
 415:Generated_Source\PSoC4/CapSense_Filter.c **** *  - CapSense_InitializeAllFilters().
 416:Generated_Source\PSoC4/CapSense_Filter.c **** *  - CapSense_InitializeWidgetFilter().
 417:Generated_Source\PSoC4/CapSense_Filter.c **** *
 418:Generated_Source\PSoC4/CapSense_Filter.c **** *******************************************************************************/
 419:Generated_Source\PSoC4/CapSense_Filter.c **** void CapSense_InitializeAllBaselines(void)
 420:Generated_Source\PSoC4/CapSense_Filter.c **** {
 421:Generated_Source\PSoC4/CapSense_Filter.c ****     uint32 widgetId;
 422:Generated_Source\PSoC4/CapSense_Filter.c **** 
 423:Generated_Source\PSoC4/CapSense_Filter.c ****     for(widgetId = CapSense_TOTAL_WIDGETS; widgetId-- > 0u;)
 424:Generated_Source\PSoC4/CapSense_Filter.c ****     {
 425:Generated_Source\PSoC4/CapSense_Filter.c ****         CapSense_InitializeWidgetBaseline(widgetId);
 426:Generated_Source\PSoC4/CapSense_Filter.c ****     }
 427:Generated_Source\PSoC4/CapSense_Filter.c **** }
 428:Generated_Source\PSoC4/CapSense_Filter.c **** 
 429:Generated_Source\PSoC4/CapSense_Filter.c **** 
ARM GAS  C:\Users\zack.li\AppData\Local\Temp\ccvbPEtI.s 			page 9


 430:Generated_Source\PSoC4/CapSense_Filter.c **** /*******************************************************************************
 431:Generated_Source\PSoC4/CapSense_Filter.c **** * Function Name: CapSense_InitializeWidgetBaseline
 432:Generated_Source\PSoC4/CapSense_Filter.c **** ****************************************************************************//**
 433:Generated_Source\PSoC4/CapSense_Filter.c **** *
 434:Generated_Source\PSoC4/CapSense_Filter.c **** * \brief
 435:Generated_Source\PSoC4/CapSense_Filter.c **** *  Initializes (or re-initializes) the baselines of all the sensors in a widget
 436:Generated_Source\PSoC4/CapSense_Filter.c **** *  specified by the input parameter.
 437:Generated_Source\PSoC4/CapSense_Filter.c **** *
 438:Generated_Source\PSoC4/CapSense_Filter.c **** * \details
 439:Generated_Source\PSoC4/CapSense_Filter.c **** *  Initializes (or re-initializes) the baseline for all the sensors of the
 440:Generated_Source\PSoC4/CapSense_Filter.c **** *  specified widget.
 441:Generated_Source\PSoC4/CapSense_Filter.c **** *
 442:Generated_Source\PSoC4/CapSense_Filter.c **** *  If any raw count filter is enabled, make sure the raw count filter history is
 443:Generated_Source\PSoC4/CapSense_Filter.c **** *  initialized as well using one of these functions:
 444:Generated_Source\PSoC4/CapSense_Filter.c **** *  - CapSense_InitializeAllFilters().
 445:Generated_Source\PSoC4/CapSense_Filter.c **** *  - CapSense_InitializeWidgetFilter().
 446:Generated_Source\PSoC4/CapSense_Filter.c **** *
 447:Generated_Source\PSoC4/CapSense_Filter.c **** * \param widgetId
 448:Generated_Source\PSoC4/CapSense_Filter.c **** *  Specifies the ID number of a widget to initialize the baseline of all the sensors
 449:Generated_Source\PSoC4/CapSense_Filter.c **** *  in the widget.
 450:Generated_Source\PSoC4/CapSense_Filter.c **** *  A macro for the widget ID can be found in the
 451:Generated_Source\PSoC4/CapSense_Filter.c **** *  CapSense Configuration header file defined as
 452:Generated_Source\PSoC4/CapSense_Filter.c **** *  CapSense_<WidgetName>_WDGT_ID.
 453:Generated_Source\PSoC4/CapSense_Filter.c **** *
 454:Generated_Source\PSoC4/CapSense_Filter.c **** *******************************************************************************/
 455:Generated_Source\PSoC4/CapSense_Filter.c **** void CapSense_InitializeWidgetBaseline(uint32 widgetId)
 456:Generated_Source\PSoC4/CapSense_Filter.c **** {
 457:Generated_Source\PSoC4/CapSense_Filter.c ****     uint32 sensorId;
 458:Generated_Source\PSoC4/CapSense_Filter.c ****     uint32 sensorsNumber;
 459:Generated_Source\PSoC4/CapSense_Filter.c **** 
 460:Generated_Source\PSoC4/CapSense_Filter.c ****     CapSense_FLASH_WD_STRUCT const *ptrWidget = &CapSense_dsFlash.wdgtArray[widgetId];
 461:Generated_Source\PSoC4/CapSense_Filter.c **** 
 462:Generated_Source\PSoC4/CapSense_Filter.c ****     /* Find total amount of sensors in specified widget */
 463:Generated_Source\PSoC4/CapSense_Filter.c ****     sensorsNumber = CapSense_GET_SNS_CNT_BY_PTR(ptrWidget);
 464:Generated_Source\PSoC4/CapSense_Filter.c **** 
 465:Generated_Source\PSoC4/CapSense_Filter.c ****     for(sensorId = sensorsNumber; sensorId-- > 0u;)
 466:Generated_Source\PSoC4/CapSense_Filter.c ****     {
 467:Generated_Source\PSoC4/CapSense_Filter.c ****         CapSense_InitializeSensorBaseline(widgetId, sensorId);
 468:Generated_Source\PSoC4/CapSense_Filter.c ****     }
 469:Generated_Source\PSoC4/CapSense_Filter.c **** }
 470:Generated_Source\PSoC4/CapSense_Filter.c **** 
 471:Generated_Source\PSoC4/CapSense_Filter.c **** 
 472:Generated_Source\PSoC4/CapSense_Filter.c **** /*******************************************************************************
 473:Generated_Source\PSoC4/CapSense_Filter.c **** * Function Name: CapSense_InitializeSensorBaseline
 474:Generated_Source\PSoC4/CapSense_Filter.c **** ****************************************************************************//**
 475:Generated_Source\PSoC4/CapSense_Filter.c **** *
 476:Generated_Source\PSoC4/CapSense_Filter.c **** * \brief
 477:Generated_Source\PSoC4/CapSense_Filter.c **** *  Initializes (or re-initializes) the baseline of a sensor in a widget specified
 478:Generated_Source\PSoC4/CapSense_Filter.c **** *  by the input parameters.
 479:Generated_Source\PSoC4/CapSense_Filter.c **** *
 480:Generated_Source\PSoC4/CapSense_Filter.c **** * \details
 481:Generated_Source\PSoC4/CapSense_Filter.c **** *  Initializes (or re-initializes) the baseline for a specified sensor within
 482:Generated_Source\PSoC4/CapSense_Filter.c **** *  a specified widget.
 483:Generated_Source\PSoC4/CapSense_Filter.c **** *
 484:Generated_Source\PSoC4/CapSense_Filter.c **** * \param widgetId
 485:Generated_Source\PSoC4/CapSense_Filter.c **** *  Specifies the ID number of a widget to initialize the baseline of the sensor
 486:Generated_Source\PSoC4/CapSense_Filter.c **** *  in the widget.
ARM GAS  C:\Users\zack.li\AppData\Local\Temp\ccvbPEtI.s 			page 10


 487:Generated_Source\PSoC4/CapSense_Filter.c **** *  A macro for the widget ID can be found in the
 488:Generated_Source\PSoC4/CapSense_Filter.c **** *  CapSense Configuration header file defined as
 489:Generated_Source\PSoC4/CapSense_Filter.c **** *  CapSense_<WidgetName>_WDGT_ID.
 490:Generated_Source\PSoC4/CapSense_Filter.c **** *
 491:Generated_Source\PSoC4/CapSense_Filter.c **** * \param sensorId
 492:Generated_Source\PSoC4/CapSense_Filter.c **** *  Specifies the ID number of the sensor within the widget to initialize its
 493:Generated_Source\PSoC4/CapSense_Filter.c **** *  baseline.
 494:Generated_Source\PSoC4/CapSense_Filter.c **** *  A macro for the sensor ID within a specified widget can be found in the
 495:Generated_Source\PSoC4/CapSense_Filter.c **** *  CapSense Configuration header file defined as
 496:Generated_Source\PSoC4/CapSense_Filter.c **** *  CapSense_<WidgetName>_SNS<SensorNumber>_ID.
 497:Generated_Source\PSoC4/CapSense_Filter.c **** *
 498:Generated_Source\PSoC4/CapSense_Filter.c **** *******************************************************************************/
 499:Generated_Source\PSoC4/CapSense_Filter.c **** void CapSense_InitializeSensorBaseline(uint32 widgetId, uint32 sensorId)
 500:Generated_Source\PSoC4/CapSense_Filter.c **** {
 501:Generated_Source\PSoC4/CapSense_Filter.c ****     CapSense_RAM_SNS_STRUCT *ptrSensor = NULL;
 502:Generated_Source\PSoC4/CapSense_Filter.c ****     CapSense_FLASH_WD_STRUCT const *ptrWidget = NULL;
 503:Generated_Source\PSoC4/CapSense_Filter.c ****     ptrWidget = &CapSense_dsFlash.wdgtArray[widgetId];
 504:Generated_Source\PSoC4/CapSense_Filter.c **** 
 505:Generated_Source\PSoC4/CapSense_Filter.c ****     /* Find pointer to specified sensor object */
 506:Generated_Source\PSoC4/CapSense_Filter.c ****     ptrSensor = ptrWidget->ptr2SnsRam;
 507:Generated_Source\PSoC4/CapSense_Filter.c ****     ptrSensor = &ptrSensor[sensorId];
 508:Generated_Source\PSoC4/CapSense_Filter.c **** 
 509:Generated_Source\PSoC4/CapSense_Filter.c ****     CapSense_FtInitializeBaseline(ptrSensor, (uint32)ptrWidget->wdgtType);
 510:Generated_Source\PSoC4/CapSense_Filter.c **** }
 511:Generated_Source\PSoC4/CapSense_Filter.c **** 
 512:Generated_Source\PSoC4/CapSense_Filter.c **** 
 513:Generated_Source\PSoC4/CapSense_Filter.c **** /*******************************************************************************
 514:Generated_Source\PSoC4/CapSense_Filter.c **** * Function Name: CapSense_FtInitializeBaseline
 515:Generated_Source\PSoC4/CapSense_Filter.c **** ****************************************************************************//**
 516:Generated_Source\PSoC4/CapSense_Filter.c **** *
 517:Generated_Source\PSoC4/CapSense_Filter.c **** * \brief
 518:Generated_Source\PSoC4/CapSense_Filter.c **** *  Initializes the baseline history for a sensor indicated by an input
 519:Generated_Source\PSoC4/CapSense_Filter.c **** *  parameter.
 520:Generated_Source\PSoC4/CapSense_Filter.c **** *
 521:Generated_Source\PSoC4/CapSense_Filter.c **** * \details
 522:Generated_Source\PSoC4/CapSense_Filter.c **** *  Initializes the baseline history for a sensor indicated by an input
 523:Generated_Source\PSoC4/CapSense_Filter.c **** *  parameter.
 524:Generated_Source\PSoC4/CapSense_Filter.c **** *
 525:Generated_Source\PSoC4/CapSense_Filter.c **** * \param *ptrSensor
 526:Generated_Source\PSoC4/CapSense_Filter.c **** *  The pointer to the sensor RAM object.
 527:Generated_Source\PSoC4/CapSense_Filter.c **** *
 528:Generated_Source\PSoC4/CapSense_Filter.c **** * \param wdType
 529:Generated_Source\PSoC4/CapSense_Filter.c **** *  Specifies the type of a widget.
 530:Generated_Source\PSoC4/CapSense_Filter.c **** *
 531:Generated_Source\PSoC4/CapSense_Filter.c **** *******************************************************************************/
 532:Generated_Source\PSoC4/CapSense_Filter.c **** void CapSense_FtInitializeBaseline(CapSense_RAM_SNS_STRUCT *ptrSensor, uint32 wdType)
 533:Generated_Source\PSoC4/CapSense_Filter.c **** {
 534:Generated_Source\PSoC4/CapSense_Filter.c ****     uint32 freqChannel;
 535:Generated_Source\PSoC4/CapSense_Filter.c **** 
 536:Generated_Source\PSoC4/CapSense_Filter.c ****     /* Apply baseline initialization to every channel in sensor */
 537:Generated_Source\PSoC4/CapSense_Filter.c ****     for(freqChannel = CapSense_NUM_SCAN_FREQS; freqChannel-- > 0u;)
 538:Generated_Source\PSoC4/CapSense_Filter.c ****     {
 539:Generated_Source\PSoC4/CapSense_Filter.c ****         CapSense_FtInitializeBaselineChannel(ptrSensor, wdType, freqChannel);
 540:Generated_Source\PSoC4/CapSense_Filter.c ****     }
 541:Generated_Source\PSoC4/CapSense_Filter.c **** }
 542:Generated_Source\PSoC4/CapSense_Filter.c **** 
 543:Generated_Source\PSoC4/CapSense_Filter.c **** 
ARM GAS  C:\Users\zack.li\AppData\Local\Temp\ccvbPEtI.s 			page 11


 544:Generated_Source\PSoC4/CapSense_Filter.c **** /*******************************************************************************
 545:Generated_Source\PSoC4/CapSense_Filter.c **** * Function Name: CapSense_FtInitializeBaselineChannel
 546:Generated_Source\PSoC4/CapSense_Filter.c **** ****************************************************************************//**
 547:Generated_Source\PSoC4/CapSense_Filter.c **** *
 548:Generated_Source\PSoC4/CapSense_Filter.c **** * \brief
 549:Generated_Source\PSoC4/CapSense_Filter.c **** *  Initializes the baseline history for a sensor indicated by an input
 550:Generated_Source\PSoC4/CapSense_Filter.c **** *  parameter.
 551:Generated_Source\PSoC4/CapSense_Filter.c **** *
 552:Generated_Source\PSoC4/CapSense_Filter.c **** * \details
 553:Generated_Source\PSoC4/CapSense_Filter.c **** *  Initializes the baseline history for a sensor indicated by an input
 554:Generated_Source\PSoC4/CapSense_Filter.c **** *  parameter.
 555:Generated_Source\PSoC4/CapSense_Filter.c **** *
 556:Generated_Source\PSoC4/CapSense_Filter.c **** * \param *ptrSensor
 557:Generated_Source\PSoC4/CapSense_Filter.c **** *  The pointer to the sensor RAM object.
 558:Generated_Source\PSoC4/CapSense_Filter.c **** *
 559:Generated_Source\PSoC4/CapSense_Filter.c **** * \param wdType
 560:Generated_Source\PSoC4/CapSense_Filter.c **** *  Specifies the type of a widget.
 561:Generated_Source\PSoC4/CapSense_Filter.c **** *
 562:Generated_Source\PSoC4/CapSense_Filter.c **** * \param channel
 563:Generated_Source\PSoC4/CapSense_Filter.c **** *  Specifies the number of the channel to be initialized.
 564:Generated_Source\PSoC4/CapSense_Filter.c **** *
 565:Generated_Source\PSoC4/CapSense_Filter.c **** *******************************************************************************/
 566:Generated_Source\PSoC4/CapSense_Filter.c **** void CapSense_FtInitializeBaselineChannel(CapSense_RAM_SNS_STRUCT *ptrSensor, uint32 wdType, uint32
 567:Generated_Source\PSoC4/CapSense_Filter.c **** {
  28              		.loc 1 567 0
  29              		.cfi_startproc
  30              		@ args = 0, pretend = 0, frame = 0
  31              		@ frame_needed = 0, uses_anonymous_args = 0
  32              		@ link register save eliminated.
  33              	.LVL0:
 568:Generated_Source\PSoC4/CapSense_Filter.c ****     #if (CapSense_BASELINE_TYPE == CapSense_IIR_BASELINE)
 569:Generated_Source\PSoC4/CapSense_Filter.c ****         if ((CapSense_WD_TYPE_ENUM)wdType != CapSense_WD_PROXIMITY_E)
  34              		.loc 1 569 0
  35 0000 C9B2     		uxtb	r1, r1
  36              	.LVL1:
  37 0002 8318     		adds	r3, r0, r2
  38 0004 0629     		cmp	r1, #6
  39 0006 01D0     		beq	.L2
 570:Generated_Source\PSoC4/CapSense_Filter.c ****         {
 571:Generated_Source\PSoC4/CapSense_Filter.c ****             #if (CapSense_REGULAR_SENSOR_EN)
 572:Generated_Source\PSoC4/CapSense_Filter.c ****                 #if (CapSense_REGULAR_IIR_BL_TYPE == CapSense_IIR_FILTER_PERFORMANCE)
 573:Generated_Source\PSoC4/CapSense_Filter.c ****                     ptrSensor->bslnExt[channel] = 0u;
  40              		.loc 1 573 0
  41 0008 0021     		movs	r1, #0
  42 000a 1971     		strb	r1, [r3, #4]
  43              	.L2:
  44 000c 5200     		lsls	r2, r2, #1
  45              	.LVL2:
  46 000e 8018     		adds	r0, r0, r2
  47              	.LVL3:
 574:Generated_Source\PSoC4/CapSense_Filter.c ****                 #endif /* (CapSense_REGULAR_IIR_BL_TYPE == CapSense_IIR_FILTER_PERFORMANCE) */
 575:Generated_Source\PSoC4/CapSense_Filter.c ****             #endif /* (CapSense_REGULAR_SENSOR_EN) */
 576:Generated_Source\PSoC4/CapSense_Filter.c ****         }
 577:Generated_Source\PSoC4/CapSense_Filter.c ****         else
 578:Generated_Source\PSoC4/CapSense_Filter.c ****         {
 579:Generated_Source\PSoC4/CapSense_Filter.c ****             #if (CapSense_PROXIMITY_SENSOR_EN)
 580:Generated_Source\PSoC4/CapSense_Filter.c ****                 #if (CapSense_PROX_IIR_BL_TYPE == CapSense_IIR_FILTER_PERFORMANCE)
ARM GAS  C:\Users\zack.li\AppData\Local\Temp\ccvbPEtI.s 			page 12


 581:Generated_Source\PSoC4/CapSense_Filter.c ****                     ptrSensor->bslnExt[channel] = 0u;
 582:Generated_Source\PSoC4/CapSense_Filter.c ****                 #endif /* (CapSense_PROX_IIR_BL_TYPE == CapSense_IIR_FILTER_PERFORMANCE) */
 583:Generated_Source\PSoC4/CapSense_Filter.c ****             #endif /* (CapSense_PROX_SENSOR_EN) */
 584:Generated_Source\PSoC4/CapSense_Filter.c ****         }
 585:Generated_Source\PSoC4/CapSense_Filter.c ****     #else
 586:Generated_Source\PSoC4/CapSense_Filter.c ****         /* CapSense_BASELINE_TYPE == CapSense_BUCKET_BASELINE */
 587:Generated_Source\PSoC4/CapSense_Filter.c ****         ptrSensor->bslnExt[channel] = 0u;
 588:Generated_Source\PSoC4/CapSense_Filter.c ****     #endif /* (CapSense_BASELINE_TYPE == CapSense_IIR_BASELINE) */
 589:Generated_Source\PSoC4/CapSense_Filter.c **** 
 590:Generated_Source\PSoC4/CapSense_Filter.c ****     ptrSensor->bsln[channel] = ptrSensor->raw[channel];
  48              		.loc 1 590 0
  49 0010 0288     		ldrh	r2, [r0]
 591:Generated_Source\PSoC4/CapSense_Filter.c **** 
 592:Generated_Source\PSoC4/CapSense_Filter.c ****     #if (CapSense_ENABLE == CapSense_TST_BSLN_DUPLICATION_EN)
 593:Generated_Source\PSoC4/CapSense_Filter.c ****     /* Update baseline inversion of the channel in sensor */
 594:Generated_Source\PSoC4/CapSense_Filter.c ****         ptrSensor->bslnInv[channel] = ~(ptrSensor->bsln[channel]);
 595:Generated_Source\PSoC4/CapSense_Filter.c ****     #endif /* (CapSense_ENABLE == CapSense_TST_BSLN_DUPLICATION_EN) */
 596:Generated_Source\PSoC4/CapSense_Filter.c **** 
 597:Generated_Source\PSoC4/CapSense_Filter.c ****     ptrSensor->negBslnRstCnt[channel] = 0u;
 598:Generated_Source\PSoC4/CapSense_Filter.c **** }
  50              		.loc 1 598 0
  51              		@ sp needed
 590:Generated_Source\PSoC4/CapSense_Filter.c **** 
  52              		.loc 1 590 0
  53 0012 4280     		strh	r2, [r0, #2]
 597:Generated_Source\PSoC4/CapSense_Filter.c **** }
  54              		.loc 1 597 0
  55 0014 0022     		movs	r2, #0
  56 0016 1A72     		strb	r2, [r3, #8]
  57              		.loc 1 598 0
  58 0018 7047     		bx	lr
  59              		.cfi_endproc
  60              	.LFE10:
  61              		.size	CapSense_FtInitializeBaselineChannel, .-CapSense_FtInitializeBaselineChannel
  62              		.section	.text.CapSense_FtInitializeBaseline,"ax",%progbits
  63              		.align	1
  64              		.global	CapSense_FtInitializeBaseline
  65              		.code	16
  66              		.thumb_func
  67              		.type	CapSense_FtInitializeBaseline, %function
  68              	CapSense_FtInitializeBaseline:
  69              	.LFB9:
 533:Generated_Source\PSoC4/CapSense_Filter.c ****     uint32 freqChannel;
  70              		.loc 1 533 0
  71              		.cfi_startproc
  72              		@ args = 0, pretend = 0, frame = 0
  73              		@ frame_needed = 0, uses_anonymous_args = 0
  74              	.LVL4:
  75 0000 10B5     		push	{r4, lr}
  76              		.cfi_def_cfa_offset 8
  77              		.cfi_offset 4, -8
  78              		.cfi_offset 14, -4
 539:Generated_Source\PSoC4/CapSense_Filter.c ****     }
  79              		.loc 1 539 0
  80 0002 0022     		movs	r2, #0
  81 0004 FFF7FEFF 		bl	CapSense_FtInitializeBaselineChannel
  82              	.LVL5:
ARM GAS  C:\Users\zack.li\AppData\Local\Temp\ccvbPEtI.s 			page 13


 541:Generated_Source\PSoC4/CapSense_Filter.c **** 
  83              		.loc 1 541 0
  84              		@ sp needed
  85 0008 10BD     		pop	{r4, pc}
  86              		.cfi_endproc
  87              	.LFE9:
  88              		.size	CapSense_FtInitializeBaseline, .-CapSense_FtInitializeBaseline
  89              		.section	.text.CapSense_InitializeSensorBaseline,"ax",%progbits
  90              		.align	1
  91              		.global	CapSense_InitializeSensorBaseline
  92              		.code	16
  93              		.thumb_func
  94              		.type	CapSense_InitializeSensorBaseline, %function
  95              	CapSense_InitializeSensorBaseline:
  96              	.LFB8:
 500:Generated_Source\PSoC4/CapSense_Filter.c ****     CapSense_RAM_SNS_STRUCT *ptrSensor = NULL;
  97              		.loc 1 500 0
  98              		.cfi_startproc
  99              		@ args = 0, pretend = 0, frame = 0
 100              		@ frame_needed = 0, uses_anonymous_args = 0
 101              	.LVL6:
 506:Generated_Source\PSoC4/CapSense_Filter.c ****     ptrSensor = &ptrSensor[sensorId];
 102              		.loc 1 506 0
 103 0000 1C23     		movs	r3, #28
 104 0002 5843     		muls	r0, r3
 105              	.LVL7:
 106 0004 054B     		ldr	r3, .L9
 500:Generated_Source\PSoC4/CapSense_Filter.c ****     CapSense_RAM_SNS_STRUCT *ptrSensor = NULL;
 107              		.loc 1 500 0
 108 0006 10B5     		push	{r4, lr}
 109              		.cfi_def_cfa_offset 8
 110              		.cfi_offset 4, -8
 111              		.cfi_offset 14, -4
 506:Generated_Source\PSoC4/CapSense_Filter.c ****     ptrSensor = &ptrSensor[sensorId];
 112              		.loc 1 506 0
 113 0008 1B18     		adds	r3, r3, r0
 114              	.LVL8:
 115 000a 9C68     		ldr	r4, [r3, #8]
 116              	.LVL9:
 509:Generated_Source\PSoC4/CapSense_Filter.c **** }
 117              		.loc 1 509 0
 118 000c 9A7E     		ldrb	r2, [r3, #26]
 119 000e 0A23     		movs	r3, #10
 120              	.LVL10:
 121 0010 4B43     		muls	r3, r1
 122 0012 1100     		movs	r1, r2
 123              	.LVL11:
 124 0014 E018     		adds	r0, r4, r3
 125              	.LVL12:
 126 0016 FFF7FEFF 		bl	CapSense_FtInitializeBaseline
 127              	.LVL13:
 510:Generated_Source\PSoC4/CapSense_Filter.c **** 
 128              		.loc 1 510 0
 129              		@ sp needed
 130              	.LVL14:
 131 001a 10BD     		pop	{r4, pc}
 132              	.L10:
ARM GAS  C:\Users\zack.li\AppData\Local\Temp\ccvbPEtI.s 			page 14


 133              		.align	2
 134              	.L9:
 135 001c 00000000 		.word	CapSense_dsFlash
 136              		.cfi_endproc
 137              	.LFE8:
 138              		.size	CapSense_InitializeSensorBaseline, .-CapSense_InitializeSensorBaseline
 139              		.section	.text.CapSense_InitializeWidgetBaseline,"ax",%progbits
 140              		.align	1
 141              		.global	CapSense_InitializeWidgetBaseline
 142              		.code	16
 143              		.thumb_func
 144              		.type	CapSense_InitializeWidgetBaseline, %function
 145              	CapSense_InitializeWidgetBaseline:
 146              	.LFB7:
 456:Generated_Source\PSoC4/CapSense_Filter.c ****     uint32 sensorId;
 147              		.loc 1 456 0
 148              		.cfi_startproc
 149              		@ args = 0, pretend = 0, frame = 0
 150              		@ frame_needed = 0, uses_anonymous_args = 0
 151              	.LVL15:
 463:Generated_Source\PSoC4/CapSense_Filter.c **** 
 152              		.loc 1 463 0
 153 0000 1C23     		movs	r3, #28
 456:Generated_Source\PSoC4/CapSense_Filter.c ****     uint32 sensorId;
 154              		.loc 1 456 0
 155 0002 70B5     		push	{r4, r5, r6, lr}
 156              		.cfi_def_cfa_offset 16
 157              		.cfi_offset 4, -16
 158              		.cfi_offset 5, -12
 159              		.cfi_offset 6, -8
 160              		.cfi_offset 14, -4
 456:Generated_Source\PSoC4/CapSense_Filter.c ****     uint32 sensorId;
 161              		.loc 1 456 0
 162 0004 0400     		movs	r4, r0
 463:Generated_Source\PSoC4/CapSense_Filter.c **** 
 163              		.loc 1 463 0
 164 0006 4343     		muls	r3, r0
 165 0008 064A     		ldr	r2, .L15
 166 000a D318     		adds	r3, r2, r3
 167              	.LVL16:
 168 000c 1B8B     		ldrh	r3, [r3, #24]
 169              	.LVL17:
 170              	.L12:
 465:Generated_Source\PSoC4/CapSense_Filter.c ****     {
 171              		.loc 1 465 0 discriminator 1
 172 000e 5D1E     		subs	r5, r3, #1
 173              	.LVL18:
 174 0010 002B     		cmp	r3, #0
 175 0012 05D0     		beq	.L14
 467:Generated_Source\PSoC4/CapSense_Filter.c ****     }
 176              		.loc 1 467 0
 177 0014 2900     		movs	r1, r5
 178 0016 2000     		movs	r0, r4
 179 0018 FFF7FEFF 		bl	CapSense_InitializeSensorBaseline
 180              	.LVL19:
 181 001c 2B00     		movs	r3, r5
 182 001e F6E7     		b	.L12
ARM GAS  C:\Users\zack.li\AppData\Local\Temp\ccvbPEtI.s 			page 15


 183              	.L14:
 469:Generated_Source\PSoC4/CapSense_Filter.c **** 
 184              		.loc 1 469 0
 185              		@ sp needed
 186              	.LVL20:
 187              	.LVL21:
 188 0020 70BD     		pop	{r4, r5, r6, pc}
 189              	.L16:
 190 0022 C046     		.align	2
 191              	.L15:
 192 0024 00000000 		.word	CapSense_dsFlash
 193              		.cfi_endproc
 194              	.LFE7:
 195              		.size	CapSense_InitializeWidgetBaseline, .-CapSense_InitializeWidgetBaseline
 196              		.section	.text.CapSense_InitializeAllBaselines,"ax",%progbits
 197              		.align	1
 198              		.global	CapSense_InitializeAllBaselines
 199              		.code	16
 200              		.thumb_func
 201              		.type	CapSense_InitializeAllBaselines, %function
 202              	CapSense_InitializeAllBaselines:
 203              	.LFB6:
 420:Generated_Source\PSoC4/CapSense_Filter.c ****     uint32 widgetId;
 204              		.loc 1 420 0
 205              		.cfi_startproc
 206              		@ args = 0, pretend = 0, frame = 0
 207              		@ frame_needed = 0, uses_anonymous_args = 0
 208              	.LVL22:
 209 0000 10B5     		push	{r4, lr}
 210              		.cfi_def_cfa_offset 8
 211              		.cfi_offset 4, -8
 212              		.cfi_offset 14, -4
 425:Generated_Source\PSoC4/CapSense_Filter.c ****     }
 213              		.loc 1 425 0
 214 0002 0320     		movs	r0, #3
 215 0004 FFF7FEFF 		bl	CapSense_InitializeWidgetBaseline
 216              	.LVL23:
 217 0008 0220     		movs	r0, #2
 218 000a FFF7FEFF 		bl	CapSense_InitializeWidgetBaseline
 219              	.LVL24:
 220 000e 0120     		movs	r0, #1
 221 0010 FFF7FEFF 		bl	CapSense_InitializeWidgetBaseline
 222              	.LVL25:
 223 0014 0020     		movs	r0, #0
 224 0016 FFF7FEFF 		bl	CapSense_InitializeWidgetBaseline
 225              	.LVL26:
 427:Generated_Source\PSoC4/CapSense_Filter.c **** 
 226              		.loc 1 427 0
 227              		@ sp needed
 228 001a 10BD     		pop	{r4, pc}
 229              		.cfi_endproc
 230              	.LFE6:
 231              		.size	CapSense_InitializeAllBaselines, .-CapSense_InitializeAllBaselines
 232              		.section	.text.CapSense_FtUpdateBaseline,"ax",%progbits
 233              		.align	1
 234              		.global	CapSense_FtUpdateBaseline
 235              		.code	16
ARM GAS  C:\Users\zack.li\AppData\Local\Temp\ccvbPEtI.s 			page 16


 236              		.thumb_func
 237              		.type	CapSense_FtUpdateBaseline, %function
 238              	CapSense_FtUpdateBaseline:
 239              	.LFB5:
 259:Generated_Source\PSoC4/CapSense_Filter.c ****     uint32 sign;
 240              		.loc 1 259 0
 241              		.cfi_startproc
 242              		@ args = 0, pretend = 0, frame = 0
 243              		@ frame_needed = 0, uses_anonymous_args = 0
 244              	.LVL27:
 245 0000 F8B5     		push	{r3, r4, r5, r6, r7, lr}
 246              		.cfi_def_cfa_offset 24
 247              		.cfi_offset 3, -24
 248              		.cfi_offset 4, -20
 249              		.cfi_offset 5, -16
 250              		.cfi_offset 6, -12
 251              		.cfi_offset 7, -8
 252              		.cfi_offset 14, -4
 259:Generated_Source\PSoC4/CapSense_Filter.c ****     uint32 sign;
 253              		.loc 1 259 0
 254 0002 0500     		movs	r5, r0
 255 0004 0800     		movs	r0, r1
 256              	.LVL28:
 283:Generated_Source\PSoC4/CapSense_Filter.c ****         {
 257              		.loc 1 283 0
 258 0006 0388     		ldrh	r3, [r0]
 259 0008 4488     		ldrh	r4, [r0, #2]
 259:Generated_Source\PSoC4/CapSense_Filter.c ****     uint32 sign;
 260              		.loc 1 259 0
 261 000a 1100     		movs	r1, r2
 262              	.LVL29:
 283:Generated_Source\PSoC4/CapSense_Filter.c ****         {
 263              		.loc 1 283 0
 264 000c A342     		cmp	r3, r4
 265 000e 05D2     		bcs	.L19
 296:Generated_Source\PSoC4/CapSense_Filter.c ****         {
 266              		.loc 1 296 0
 267 0010 6E79     		ldrb	r6, [r5, #5]
 291:Generated_Source\PSoC4/CapSense_Filter.c ****             sign = 0u;
 268              		.loc 1 291 0
 269 0012 E21A     		subs	r2, r4, r3
 270              	.LVL30:
 296:Generated_Source\PSoC4/CapSense_Filter.c ****         {
 271              		.loc 1 296 0
 272 0014 B242     		cmp	r2, r6
 273 0016 1DD8     		bhi	.L20
 292:Generated_Source\PSoC4/CapSense_Filter.c ****         }
 274              		.loc 1 292 0
 275 0018 0026     		movs	r6, #0
 276 001a 03E0     		b	.L21
 277              	.LVL31:
 278              	.L19:
 287:Generated_Source\PSoC4/CapSense_Filter.c ****         }
 279              		.loc 1 287 0
 280 001c 0026     		movs	r6, #0
 285:Generated_Source\PSoC4/CapSense_Filter.c ****             sign = 1u;
 281              		.loc 1 285 0
ARM GAS  C:\Users\zack.li\AppData\Local\Temp\ccvbPEtI.s 			page 17


 282 001e 1A1B     		subs	r2, r3, r4
 283              	.LVL32:
 287:Generated_Source\PSoC4/CapSense_Filter.c ****         }
 284              		.loc 1 287 0
 285 0020 0672     		strb	r6, [r0, #8]
 286:Generated_Source\PSoC4/CapSense_Filter.c ****             ptrSensor->negBslnRstCnt[freqChannel] = 0u;
 286              		.loc 1 286 0
 287 0022 0136     		adds	r6, r6, #1
 288              	.LVL33:
 289              	.L21:
 311:Generated_Source\PSoC4/CapSense_Filter.c ****                     ((difference <= (uint32) ptrWidgetRam->nNoiseTh) && (sign == 0u)))
 290              		.loc 1 311 0
 291 0024 2F79     		ldrb	r7, [r5, #4]
 292 0026 BA42     		cmp	r2, r7
 293 0028 0ED8     		bhi	.L22
 294              	.LVL34:
 295              	.L24:
 318:Generated_Source\PSoC4/CapSense_Filter.c ****                 {
 296              		.loc 1 318 0
 297 002a FF25     		movs	r5, #255
 298 002c 2940     		ands	r1, r5
 299              	.LVL35:
 300 002e 0629     		cmp	r1, #6
 301 0030 1AD0     		beq	.L23
 302              	.LBB8:
 303              	.LBB9:
 599:Generated_Source\PSoC4/CapSense_Filter.c **** 
 600:Generated_Source\PSoC4/CapSense_Filter.c **** #if ((CapSense_ENABLE == CapSense_RC_FILTER_EN) || \
 601:Generated_Source\PSoC4/CapSense_Filter.c ****      (0u != (CapSense_CSD_AUTOTUNE & CapSense_CSD_SS_TH_EN)))
 602:Generated_Source\PSoC4/CapSense_Filter.c **** /*******************************************************************************
 603:Generated_Source\PSoC4/CapSense_Filter.c **** * Function Name: CapSense_InitializeAllFilters
 604:Generated_Source\PSoC4/CapSense_Filter.c **** ****************************************************************************//**
 605:Generated_Source\PSoC4/CapSense_Filter.c **** *
 606:Generated_Source\PSoC4/CapSense_Filter.c **** * \brief
 607:Generated_Source\PSoC4/CapSense_Filter.c **** *  Initializes (or re-initializes) the raw count filter history of all the
 608:Generated_Source\PSoC4/CapSense_Filter.c **** *  sensors of all the widgets.
 609:Generated_Source\PSoC4/CapSense_Filter.c **** *
 610:Generated_Source\PSoC4/CapSense_Filter.c **** * \details
 611:Generated_Source\PSoC4/CapSense_Filter.c **** *  Initializes the raw count filter history for all the sensors of all the
 612:Generated_Source\PSoC4/CapSense_Filter.c **** *  widgets. Also, this function can be used to re-initialize baselines.
 613:Generated_Source\PSoC4/CapSense_Filter.c **** *  CapSense_Start() calls this API as part of CapSense
 614:Generated_Source\PSoC4/CapSense_Filter.c **** *  operation initialization.
 615:Generated_Source\PSoC4/CapSense_Filter.c **** *
 616:Generated_Source\PSoC4/CapSense_Filter.c **** *******************************************************************************/
 617:Generated_Source\PSoC4/CapSense_Filter.c **** void CapSense_InitializeAllFilters(void)
 618:Generated_Source\PSoC4/CapSense_Filter.c **** {
 619:Generated_Source\PSoC4/CapSense_Filter.c ****     uint32 widgetId;
 620:Generated_Source\PSoC4/CapSense_Filter.c **** 
 621:Generated_Source\PSoC4/CapSense_Filter.c ****     for(widgetId = CapSense_TOTAL_WIDGETS; widgetId-- > 0u;)
 622:Generated_Source\PSoC4/CapSense_Filter.c ****     {
 623:Generated_Source\PSoC4/CapSense_Filter.c ****         CapSense_InitializeWidgetFilter(widgetId);
 624:Generated_Source\PSoC4/CapSense_Filter.c ****     }
 625:Generated_Source\PSoC4/CapSense_Filter.c **** }
 626:Generated_Source\PSoC4/CapSense_Filter.c **** 
 627:Generated_Source\PSoC4/CapSense_Filter.c **** /*******************************************************************************
 628:Generated_Source\PSoC4/CapSense_Filter.c **** * Function Name: CapSense_InitializeWidgetFilter
 629:Generated_Source\PSoC4/CapSense_Filter.c **** ****************************************************************************//**
ARM GAS  C:\Users\zack.li\AppData\Local\Temp\ccvbPEtI.s 			page 18


 630:Generated_Source\PSoC4/CapSense_Filter.c **** *
 631:Generated_Source\PSoC4/CapSense_Filter.c **** * \brief
 632:Generated_Source\PSoC4/CapSense_Filter.c **** *  Initializes (or re-initializes) the raw count filter history of all the sensors
 633:Generated_Source\PSoC4/CapSense_Filter.c **** *  in a widget specified by the input parameter.
 634:Generated_Source\PSoC4/CapSense_Filter.c **** *
 635:Generated_Source\PSoC4/CapSense_Filter.c **** * \details
 636:Generated_Source\PSoC4/CapSense_Filter.c **** *  Initializes (or re-initializes) the raw count filter history of all the sensors
 637:Generated_Source\PSoC4/CapSense_Filter.c **** *  in a widget specified by the input parameter.
 638:Generated_Source\PSoC4/CapSense_Filter.c **** *
 639:Generated_Source\PSoC4/CapSense_Filter.c **** * \param widgetId
 640:Generated_Source\PSoC4/CapSense_Filter.c **** *  Specifies the ID number of a widget to initialize the filter history of all
 641:Generated_Source\PSoC4/CapSense_Filter.c **** *  the sensors in the widget.
 642:Generated_Source\PSoC4/CapSense_Filter.c **** *  A macro for the widget ID can be found in the
 643:Generated_Source\PSoC4/CapSense_Filter.c **** *  CapSense Configuration header file defined as
 644:Generated_Source\PSoC4/CapSense_Filter.c **** *  CapSense_<WidgetName>_WDGT_ID.
 645:Generated_Source\PSoC4/CapSense_Filter.c **** *
 646:Generated_Source\PSoC4/CapSense_Filter.c **** *******************************************************************************/
 647:Generated_Source\PSoC4/CapSense_Filter.c **** void CapSense_InitializeWidgetFilter(uint32 widgetId)
 648:Generated_Source\PSoC4/CapSense_Filter.c **** {
 649:Generated_Source\PSoC4/CapSense_Filter.c ****     uint32 sensorId;
 650:Generated_Source\PSoC4/CapSense_Filter.c ****     uint32 sensorsNumber;
 651:Generated_Source\PSoC4/CapSense_Filter.c **** 
 652:Generated_Source\PSoC4/CapSense_Filter.c ****     CapSense_FLASH_WD_STRUCT const *ptrWidget;
 653:Generated_Source\PSoC4/CapSense_Filter.c ****     CapSense_RAM_SNS_STRUCT *ptrSensor = NULL;
 654:Generated_Source\PSoC4/CapSense_Filter.c ****     #if (CapSense_ENABLE == CapSense_RC_FILTER_EN)
 655:Generated_Source\PSoC4/CapSense_Filter.c ****         CapSense_PTR_FILTER_VARIANT ptrFilterHistObj;
 656:Generated_Source\PSoC4/CapSense_Filter.c ****     #endif
 657:Generated_Source\PSoC4/CapSense_Filter.c **** 
 658:Generated_Source\PSoC4/CapSense_Filter.c ****     #if (0u != (CapSense_CSD_AUTOTUNE & CapSense_CSD_SS_TH_EN))
 659:Generated_Source\PSoC4/CapSense_Filter.c ****         CapSense_RAM_WD_BASE_STRUCT *ptrWidgetRam;
 660:Generated_Source\PSoC4/CapSense_Filter.c ****         SMARTSENSE_CSD_NOISE_ENVELOPE_STRUCT *ptrNoiseEnvelope = NULL;
 661:Generated_Source\PSoC4/CapSense_Filter.c ****     #endif /* (0u != (CapSense_CSD_AUTOTUNE & CapSense_CSD_SS_TH_EN)) */
 662:Generated_Source\PSoC4/CapSense_Filter.c **** 
 663:Generated_Source\PSoC4/CapSense_Filter.c ****     ptrWidget = &CapSense_dsFlash.wdgtArray[widgetId];
 664:Generated_Source\PSoC4/CapSense_Filter.c **** 
 665:Generated_Source\PSoC4/CapSense_Filter.c ****     #if (0u != (CapSense_CSD_AUTOTUNE & CapSense_CSD_SS_TH_EN))
 666:Generated_Source\PSoC4/CapSense_Filter.c ****         ptrWidgetRam = ptrWidget->ptr2WdgtRam;
 667:Generated_Source\PSoC4/CapSense_Filter.c ****     #endif /* (0u != (CapSense_CSD_AUTOTUNE & CapSense_CSD_SS_TH_EN)) */
 668:Generated_Source\PSoC4/CapSense_Filter.c **** 
 669:Generated_Source\PSoC4/CapSense_Filter.c ****     /* Find total amount of sensors in specified widget */
 670:Generated_Source\PSoC4/CapSense_Filter.c ****     sensorsNumber = CapSense_GET_SNS_CNT_BY_PTR(ptrWidget);
 671:Generated_Source\PSoC4/CapSense_Filter.c **** 
 672:Generated_Source\PSoC4/CapSense_Filter.c ****     for (sensorId = sensorsNumber; sensorId-- > 0u;)
 673:Generated_Source\PSoC4/CapSense_Filter.c ****     {
 674:Generated_Source\PSoC4/CapSense_Filter.c ****         /* Find pointer to specified sensor object */
 675:Generated_Source\PSoC4/CapSense_Filter.c ****         ptrSensor = ptrWidget->ptr2SnsRam;
 676:Generated_Source\PSoC4/CapSense_Filter.c ****         ptrSensor = &ptrSensor[sensorId];
 677:Generated_Source\PSoC4/CapSense_Filter.c **** 
 678:Generated_Source\PSoC4/CapSense_Filter.c ****         #if (CapSense_ENABLE == CapSense_RC_FILTER_EN)
 679:Generated_Source\PSoC4/CapSense_Filter.c ****             /* Find pointer to to specified filter sensor object */
 680:Generated_Source\PSoC4/CapSense_Filter.c ****             ptrFilterHistObj.ptr = ptrWidget->ptr2FltrHistory;
 681:Generated_Source\PSoC4/CapSense_Filter.c ****         #endif
 682:Generated_Source\PSoC4/CapSense_Filter.c **** 
 683:Generated_Source\PSoC4/CapSense_Filter.c ****         #if (0u != (CapSense_CSD_AUTOTUNE & CapSense_CSD_SS_TH_EN))
 684:Generated_Source\PSoC4/CapSense_Filter.c ****             /* Find pointer to specified noise envelope sensor object */
 685:Generated_Source\PSoC4/CapSense_Filter.c ****             ptrNoiseEnvelope = ptrWidget->ptr2NoiseEnvlp;
 686:Generated_Source\PSoC4/CapSense_Filter.c ****             ptrNoiseEnvelope = &ptrNoiseEnvelope[sensorId];
ARM GAS  C:\Users\zack.li\AppData\Local\Temp\ccvbPEtI.s 			page 19


 687:Generated_Source\PSoC4/CapSense_Filter.c ****         #endif /* (0u != (CapSense_CSD_AUTOTUNE & CapSense_CSD_SS_TH_EN)) */
 688:Generated_Source\PSoC4/CapSense_Filter.c **** 
 689:Generated_Source\PSoC4/CapSense_Filter.c ****         if ((CapSense_WD_TYPE_ENUM)ptrWidget->wdgtType != CapSense_WD_PROXIMITY_E)
 690:Generated_Source\PSoC4/CapSense_Filter.c ****         {
 691:Generated_Source\PSoC4/CapSense_Filter.c ****             #if (0u != CapSense_REGULAR_RC_ALP_FILTER_EN)
 692:Generated_Source\PSoC4/CapSense_Filter.c ****                 ptrFilterHistObj.ptrAlp = &ptrFilterHistObj.ptrAlp[sensorId];
 693:Generated_Source\PSoC4/CapSense_Filter.c ****             #elif (0u != CapSense_REGULAR_RC_FILTER_EN)
 694:Generated_Source\PSoC4/CapSense_Filter.c ****                 ptrFilterHistObj.ptrRegular = &ptrFilterHistObj.ptrRegular[sensorId];
 695:Generated_Source\PSoC4/CapSense_Filter.c ****             #endif
 696:Generated_Source\PSoC4/CapSense_Filter.c ****         }
 697:Generated_Source\PSoC4/CapSense_Filter.c ****         else
 698:Generated_Source\PSoC4/CapSense_Filter.c ****         {
 699:Generated_Source\PSoC4/CapSense_Filter.c ****             #if (0u != CapSense_PROX_RC_ALP_FILTER_EN)
 700:Generated_Source\PSoC4/CapSense_Filter.c ****                 ptrFilterHistObj.ptrAlp = &ptrFilterHistObj.ptrAlp[sensorId];
 701:Generated_Source\PSoC4/CapSense_Filter.c ****             #elif (0u != CapSense_PROX_RC_FILTER_EN)
 702:Generated_Source\PSoC4/CapSense_Filter.c ****                 ptrFilterHistObj.ptrProx = &ptrFilterHistObj.ptrProx[sensorId];
 703:Generated_Source\PSoC4/CapSense_Filter.c ****             #endif /* #if (0u != CapSense_PROX_RC_FILTER_EN) */
 704:Generated_Source\PSoC4/CapSense_Filter.c ****         }
 705:Generated_Source\PSoC4/CapSense_Filter.c **** 
 706:Generated_Source\PSoC4/CapSense_Filter.c ****         #if (CapSense_REGULAR_RC_IIR_FILTER_EN || CapSense_PROX_RC_IIR_FILTER_EN)
 707:Generated_Source\PSoC4/CapSense_Filter.c ****             CapSense_InitializeIIRInternal(ptrFilterHistObj, ptrSensor, (uint32)ptrWidget->wdgtType
 708:Generated_Source\PSoC4/CapSense_Filter.c ****         #endif /* (CapSense_REGULAR_RC_IIR_FILTER_EN || CapSense_PROX_RC_IIR_FILTER_EN) */
 709:Generated_Source\PSoC4/CapSense_Filter.c **** 
 710:Generated_Source\PSoC4/CapSense_Filter.c ****         #if (CapSense_REGULAR_RC_MEDIAN_FILTER_EN || CapSense_PROX_RC_MEDIAN_FILTER_EN)
 711:Generated_Source\PSoC4/CapSense_Filter.c ****             CapSense_InitializeMedianInternal(ptrFilterHistObj, ptrSensor, (uint32)ptrWidget->wdgtT
 712:Generated_Source\PSoC4/CapSense_Filter.c ****         #endif /* (CapSense_REGULAR_RC_MEDIAN_FILTER_EN || CapSense_PROX_RC_MEDIAN_FILTER_EN) */
 713:Generated_Source\PSoC4/CapSense_Filter.c **** 
 714:Generated_Source\PSoC4/CapSense_Filter.c ****         #if (CapSense_REGULAR_RC_AVERAGE_FILTER_EN || CapSense_PROX_RC_AVERAGE_FILTER_EN)
 715:Generated_Source\PSoC4/CapSense_Filter.c ****             CapSense_InitializeAverageInternal(ptrFilterHistObj, ptrSensor, (uint32)ptrWidget->wdgt
 716:Generated_Source\PSoC4/CapSense_Filter.c ****         #endif /* (CapSense_REGULAR_RC_AVERAGE_FILTER_EN || CapSense_PROX_RC_AVERAGE_FILTER_EN) */
 717:Generated_Source\PSoC4/CapSense_Filter.c **** 
 718:Generated_Source\PSoC4/CapSense_Filter.c ****         #if (CapSense_ALP_FILTER_EN)
 719:Generated_Source\PSoC4/CapSense_Filter.c ****             CapSense_InitializeALPInternal(ptrFilterHistObj, ptrSensor, (uint32)ptrWidget->wdgtType
 720:Generated_Source\PSoC4/CapSense_Filter.c ****         #endif
 721:Generated_Source\PSoC4/CapSense_Filter.c **** 
 722:Generated_Source\PSoC4/CapSense_Filter.c ****         #if (0u != (CapSense_CSD_AUTOTUNE & CapSense_CSD_SS_TH_EN))
 723:Generated_Source\PSoC4/CapSense_Filter.c ****             if (CapSense_SENSE_METHOD_CSD_E ==
 724:Generated_Source\PSoC4/CapSense_Filter.c ****                 CapSense_GET_SENSE_METHOD(&CapSense_dsFlash.wdgtArray[widgetId]))
 725:Generated_Source\PSoC4/CapSense_Filter.c ****             {
 726:Generated_Source\PSoC4/CapSense_Filter.c ****                 SmartSense_InitializeNoiseEnvelope(ptrSensor->raw[0u], ptrWidgetRam->sigPFC, ptrNoi
 727:Generated_Source\PSoC4/CapSense_Filter.c ****             }
 728:Generated_Source\PSoC4/CapSense_Filter.c ****         #endif /* (0u != (CapSense_CSD_AUTOTUNE & CapSense_CSD_SS_TH_EN)) */
 729:Generated_Source\PSoC4/CapSense_Filter.c ****     }
 730:Generated_Source\PSoC4/CapSense_Filter.c **** }
 731:Generated_Source\PSoC4/CapSense_Filter.c **** #endif /* ((CapSense_ENABLE == CapSense_RC_FILTER_EN) || \
 732:Generated_Source\PSoC4/CapSense_Filter.c ****            (0u != (CapSense_CSD_AUTOTUNE & CapSense_CSD_SS_TH_EN))) */
 733:Generated_Source\PSoC4/CapSense_Filter.c **** 
 734:Generated_Source\PSoC4/CapSense_Filter.c **** #if (CapSense_REGULAR_RC_IIR_FILTER_EN || CapSense_PROX_RC_IIR_FILTER_EN)
 735:Generated_Source\PSoC4/CapSense_Filter.c **** /*******************************************************************************
 736:Generated_Source\PSoC4/CapSense_Filter.c **** * Function Name: CapSense_InitializeIIR
 737:Generated_Source\PSoC4/CapSense_Filter.c **** ****************************************************************************//**
 738:Generated_Source\PSoC4/CapSense_Filter.c **** *
 739:Generated_Source\PSoC4/CapSense_Filter.c **** * \brief
 740:Generated_Source\PSoC4/CapSense_Filter.c **** *  Initialize the IIR filter history.
 741:Generated_Source\PSoC4/CapSense_Filter.c **** *
 742:Generated_Source\PSoC4/CapSense_Filter.c **** * \details
 743:Generated_Source\PSoC4/CapSense_Filter.c **** *  Initialize the IIR filter history.
ARM GAS  C:\Users\zack.li\AppData\Local\Temp\ccvbPEtI.s 			page 20


 744:Generated_Source\PSoC4/CapSense_Filter.c **** *
 745:Generated_Source\PSoC4/CapSense_Filter.c **** * \param widgetId
 746:Generated_Source\PSoC4/CapSense_Filter.c **** *  Specifies the ID number of the widget.
 747:Generated_Source\PSoC4/CapSense_Filter.c **** *
 748:Generated_Source\PSoC4/CapSense_Filter.c **** * \param sensorId
 749:Generated_Source\PSoC4/CapSense_Filter.c **** *  Specifies the ID number of the sensor in the widget.
 750:Generated_Source\PSoC4/CapSense_Filter.c **** *
 751:Generated_Source\PSoC4/CapSense_Filter.c **** *******************************************************************************/
 752:Generated_Source\PSoC4/CapSense_Filter.c **** void CapSense_InitializeIIR(uint32 widgetId, uint32 sensorId)
 753:Generated_Source\PSoC4/CapSense_Filter.c **** {
 754:Generated_Source\PSoC4/CapSense_Filter.c ****     CapSense_FLASH_WD_STRUCT const *ptrWidget = &CapSense_dsFlash.wdgtArray[widgetId];
 755:Generated_Source\PSoC4/CapSense_Filter.c ****     CapSense_RAM_SNS_STRUCT *ptrSensor = NULL;
 756:Generated_Source\PSoC4/CapSense_Filter.c ****     CapSense_PTR_FILTER_VARIANT ptrFilterHistObj;
 757:Generated_Source\PSoC4/CapSense_Filter.c **** 
 758:Generated_Source\PSoC4/CapSense_Filter.c ****     /* Find pointer to specified sensor object */
 759:Generated_Source\PSoC4/CapSense_Filter.c ****     ptrSensor = ptrWidget->ptr2SnsRam;
 760:Generated_Source\PSoC4/CapSense_Filter.c ****     ptrSensor = &ptrSensor[sensorId];
 761:Generated_Source\PSoC4/CapSense_Filter.c **** 
 762:Generated_Source\PSoC4/CapSense_Filter.c ****     /* Find pointer to specified filter sensor object */
 763:Generated_Source\PSoC4/CapSense_Filter.c ****     ptrFilterHistObj.ptr = ptrWidget->ptr2FltrHistory;
 764:Generated_Source\PSoC4/CapSense_Filter.c **** 
 765:Generated_Source\PSoC4/CapSense_Filter.c ****     if ((CapSense_WD_TYPE_ENUM)ptrWidget->wdgtType != CapSense_WD_PROXIMITY_E)
 766:Generated_Source\PSoC4/CapSense_Filter.c ****     {
 767:Generated_Source\PSoC4/CapSense_Filter.c ****         #if (CapSense_REGULAR_SENSOR_EN)
 768:Generated_Source\PSoC4/CapSense_Filter.c ****             ptrFilterHistObj.ptrRegular = &ptrFilterHistObj.ptrRegular[sensorId];
 769:Generated_Source\PSoC4/CapSense_Filter.c ****         #endif /* (CapSense_REGULAR_SENSOR_EN) */
 770:Generated_Source\PSoC4/CapSense_Filter.c ****     }
 771:Generated_Source\PSoC4/CapSense_Filter.c ****     else
 772:Generated_Source\PSoC4/CapSense_Filter.c ****     {
 773:Generated_Source\PSoC4/CapSense_Filter.c ****         #if (CapSense_PROXIMITY_SENSOR_EN)
 774:Generated_Source\PSoC4/CapSense_Filter.c ****             ptrFilterHistObj.ptrProx = &ptrFilterHistObj.ptrProx[sensorId];
 775:Generated_Source\PSoC4/CapSense_Filter.c ****         #endif /* (CapSense_PROXIMITY_SENSOR_EN) */
 776:Generated_Source\PSoC4/CapSense_Filter.c ****     }
 777:Generated_Source\PSoC4/CapSense_Filter.c **** 
 778:Generated_Source\PSoC4/CapSense_Filter.c ****     CapSense_InitializeIIRInternal(ptrFilterHistObj, ptrSensor, (uint32)ptrWidget->wdgtType);
 779:Generated_Source\PSoC4/CapSense_Filter.c **** }
 780:Generated_Source\PSoC4/CapSense_Filter.c **** 
 781:Generated_Source\PSoC4/CapSense_Filter.c **** 
 782:Generated_Source\PSoC4/CapSense_Filter.c **** /*******************************************************************************
 783:Generated_Source\PSoC4/CapSense_Filter.c **** * Function Name: CapSense_RunIIR
 784:Generated_Source\PSoC4/CapSense_Filter.c **** ****************************************************************************//**
 785:Generated_Source\PSoC4/CapSense_Filter.c **** *
 786:Generated_Source\PSoC4/CapSense_Filter.c **** * \brief
 787:Generated_Source\PSoC4/CapSense_Filter.c **** *  Executes the IIR filter algorithm on a sensor indicated by an input
 788:Generated_Source\PSoC4/CapSense_Filter.c **** *  parameter.
 789:Generated_Source\PSoC4/CapSense_Filter.c **** *
 790:Generated_Source\PSoC4/CapSense_Filter.c **** * \details
 791:Generated_Source\PSoC4/CapSense_Filter.c **** *  Executes the IIR filter algorithm on a sensor indicated by an input
 792:Generated_Source\PSoC4/CapSense_Filter.c **** *  parameter.
 793:Generated_Source\PSoC4/CapSense_Filter.c **** *
 794:Generated_Source\PSoC4/CapSense_Filter.c **** * \param widgetId
 795:Generated_Source\PSoC4/CapSense_Filter.c **** *  Specifies the ID number of the widget.
 796:Generated_Source\PSoC4/CapSense_Filter.c **** *
 797:Generated_Source\PSoC4/CapSense_Filter.c **** * \param sensorId
 798:Generated_Source\PSoC4/CapSense_Filter.c **** *  Specifies the ID number of the sensor in the widget.
 799:Generated_Source\PSoC4/CapSense_Filter.c **** *
 800:Generated_Source\PSoC4/CapSense_Filter.c **** *******************************************************************************/
ARM GAS  C:\Users\zack.li\AppData\Local\Temp\ccvbPEtI.s 			page 21


 801:Generated_Source\PSoC4/CapSense_Filter.c **** void CapSense_RunIIR(uint32 widgetId, uint32 sensorId)
 802:Generated_Source\PSoC4/CapSense_Filter.c **** {
 803:Generated_Source\PSoC4/CapSense_Filter.c ****     CapSense_FLASH_WD_STRUCT const *ptrWidget = &CapSense_dsFlash.wdgtArray[widgetId];
 804:Generated_Source\PSoC4/CapSense_Filter.c ****     CapSense_RAM_SNS_STRUCT *ptrSensor = NULL;
 805:Generated_Source\PSoC4/CapSense_Filter.c ****     CapSense_PTR_FILTER_VARIANT ptrFilterHistObj;
 806:Generated_Source\PSoC4/CapSense_Filter.c **** 
 807:Generated_Source\PSoC4/CapSense_Filter.c ****     /* Find pointer to specified sensor object */
 808:Generated_Source\PSoC4/CapSense_Filter.c ****     ptrSensor = ptrWidget->ptr2SnsRam;
 809:Generated_Source\PSoC4/CapSense_Filter.c ****     ptrSensor = &ptrSensor[sensorId];
 810:Generated_Source\PSoC4/CapSense_Filter.c **** 
 811:Generated_Source\PSoC4/CapSense_Filter.c ****     /* Find pointer to specified filter sensor object */
 812:Generated_Source\PSoC4/CapSense_Filter.c ****     ptrFilterHistObj.ptr = ptrWidget->ptr2FltrHistory;
 813:Generated_Source\PSoC4/CapSense_Filter.c **** 
 814:Generated_Source\PSoC4/CapSense_Filter.c ****     if ((CapSense_WD_TYPE_ENUM)ptrWidget->wdgtType != CapSense_WD_PROXIMITY_E)
 815:Generated_Source\PSoC4/CapSense_Filter.c ****     {
 816:Generated_Source\PSoC4/CapSense_Filter.c ****         #if (CapSense_REGULAR_SENSOR_EN)
 817:Generated_Source\PSoC4/CapSense_Filter.c ****             ptrFilterHistObj.ptrRegular = &ptrFilterHistObj.ptrRegular[sensorId];
 818:Generated_Source\PSoC4/CapSense_Filter.c ****         #endif /* (CapSense_REGULAR_SENSOR_EN) */
 819:Generated_Source\PSoC4/CapSense_Filter.c ****     }
 820:Generated_Source\PSoC4/CapSense_Filter.c ****     else
 821:Generated_Source\PSoC4/CapSense_Filter.c ****     {
 822:Generated_Source\PSoC4/CapSense_Filter.c ****         #if (CapSense_PROXIMITY_SENSOR_EN)
 823:Generated_Source\PSoC4/CapSense_Filter.c ****             ptrFilterHistObj.ptrProx = &ptrFilterHistObj.ptrProx[sensorId];
 824:Generated_Source\PSoC4/CapSense_Filter.c ****         #endif /* (CapSense_PROXIMITY_SENSOR_EN) */
 825:Generated_Source\PSoC4/CapSense_Filter.c ****     }
 826:Generated_Source\PSoC4/CapSense_Filter.c **** 
 827:Generated_Source\PSoC4/CapSense_Filter.c ****     CapSense_RunIIRInternal(ptrFilterHistObj, ptrSensor, (uint32)ptrWidget->wdgtType);
 828:Generated_Source\PSoC4/CapSense_Filter.c **** }
 829:Generated_Source\PSoC4/CapSense_Filter.c **** 
 830:Generated_Source\PSoC4/CapSense_Filter.c **** /*******************************************************************************
 831:Generated_Source\PSoC4/CapSense_Filter.c **** * Function Name: CapSense_InitializeIIRInternal
 832:Generated_Source\PSoC4/CapSense_Filter.c **** ****************************************************************************//**
 833:Generated_Source\PSoC4/CapSense_Filter.c **** *
 834:Generated_Source\PSoC4/CapSense_Filter.c **** * \brief
 835:Generated_Source\PSoC4/CapSense_Filter.c **** *  Initializes the IIR filter history.
 836:Generated_Source\PSoC4/CapSense_Filter.c **** *
 837:Generated_Source\PSoC4/CapSense_Filter.c **** * \details
 838:Generated_Source\PSoC4/CapSense_Filter.c **** *  Initializes the IIR filter history.
 839:Generated_Source\PSoC4/CapSense_Filter.c **** *
 840:Generated_Source\PSoC4/CapSense_Filter.c **** * \param ptrFilterHistObj
 841:Generated_Source\PSoC4/CapSense_Filter.c **** *  The pointer to the filter RAM object of the sensor.
 842:Generated_Source\PSoC4/CapSense_Filter.c **** *
 843:Generated_Source\PSoC4/CapSense_Filter.c **** * \param ptrSensorObj
 844:Generated_Source\PSoC4/CapSense_Filter.c **** *  The pointer to the sensor RAM object of the sensor.
 845:Generated_Source\PSoC4/CapSense_Filter.c **** *
 846:Generated_Source\PSoC4/CapSense_Filter.c **** * \param wdType
 847:Generated_Source\PSoC4/CapSense_Filter.c **** *  Specifies the type of a widget.
 848:Generated_Source\PSoC4/CapSense_Filter.c **** *
 849:Generated_Source\PSoC4/CapSense_Filter.c **** *******************************************************************************/
 850:Generated_Source\PSoC4/CapSense_Filter.c **** void CapSense_InitializeIIRInternal(CapSense_PTR_FILTER_VARIANT ptrFilterHistObj,
 851:Generated_Source\PSoC4/CapSense_Filter.c ****                                             CapSense_RAM_SNS_STRUCT *ptrSensorObj, uint32 wdType)
 852:Generated_Source\PSoC4/CapSense_Filter.c **** {
 853:Generated_Source\PSoC4/CapSense_Filter.c ****     uint32 freqChannel;
 854:Generated_Source\PSoC4/CapSense_Filter.c **** 
 855:Generated_Source\PSoC4/CapSense_Filter.c ****     for(freqChannel = CapSense_NUM_SCAN_FREQS; freqChannel-- > 0u;)
 856:Generated_Source\PSoC4/CapSense_Filter.c ****     {
 857:Generated_Source\PSoC4/CapSense_Filter.c ****         if ((CapSense_WD_TYPE_ENUM)wdType != CapSense_WD_PROXIMITY_E)
ARM GAS  C:\Users\zack.li\AppData\Local\Temp\ccvbPEtI.s 			page 22


 858:Generated_Source\PSoC4/CapSense_Filter.c ****         {
 859:Generated_Source\PSoC4/CapSense_Filter.c ****             #if (CapSense_REGULAR_SENSOR_EN && CapSense_REGULAR_RC_IIR_FILTER_EN)
 860:Generated_Source\PSoC4/CapSense_Filter.c ****                 #if (CapSense_REGULAR_IIR_RC_TYPE == CapSense_IIR_FILTER_PERFORMANCE)
 861:Generated_Source\PSoC4/CapSense_Filter.c ****                     ptrFilterHistObj.ptrRegular->regularChannel[freqChannel].iirHistory = ptrSensor
 862:Generated_Source\PSoC4/CapSense_Filter.c ****                     ptrFilterHistObj.ptrRegular->regularChannel[freqChannel].iirHistoryLow = 0u;
 863:Generated_Source\PSoC4/CapSense_Filter.c ****                 #else
 864:Generated_Source\PSoC4/CapSense_Filter.c ****                     ptrFilterHistObj.ptrRegular->regularChannel[freqChannel].iirHistory = ptrSensor
 865:Generated_Source\PSoC4/CapSense_Filter.c ****                 #endif /* (CapSense_REGULAR_IIR_RC_TYPE == CapSense_IIR_FILTER_PERFORMANCE) */
 866:Generated_Source\PSoC4/CapSense_Filter.c ****             #endif /* (CapSense_REGULAR_SENSOR_EN) */
 867:Generated_Source\PSoC4/CapSense_Filter.c ****         }
 868:Generated_Source\PSoC4/CapSense_Filter.c ****         else
 869:Generated_Source\PSoC4/CapSense_Filter.c ****         {
 870:Generated_Source\PSoC4/CapSense_Filter.c ****             #if (CapSense_PROXIMITY_SENSOR_EN && CapSense_PROX_RC_IIR_FILTER_EN)
 871:Generated_Source\PSoC4/CapSense_Filter.c ****                 #if (CapSense_PROX_IIR_RC_TYPE == CapSense_IIR_FILTER_PERFORMANCE)
 872:Generated_Source\PSoC4/CapSense_Filter.c ****                     ptrFilterHistObj.ptrProx->proxChannel[freqChannel].iirHistory = ptrSensorObj->r
 873:Generated_Source\PSoC4/CapSense_Filter.c ****                     ptrFilterHistObj.ptrProx->proxChannel[freqChannel].iirHistoryLow = 0u;
 874:Generated_Source\PSoC4/CapSense_Filter.c ****                 #else
 875:Generated_Source\PSoC4/CapSense_Filter.c ****                     ptrFilterHistObj.ptrProx->proxChannel[freqChannel].iirHistory = ptrSensorObj->r
 876:Generated_Source\PSoC4/CapSense_Filter.c ****                 #endif /* (CapSense_PROX_IIR_RC_TYPE == CapSense_IIR_FILTER_PERFORMANCE) */
 877:Generated_Source\PSoC4/CapSense_Filter.c ****             #endif /* (CapSense_PROX_SENSOR_EN) */
 878:Generated_Source\PSoC4/CapSense_Filter.c ****         }
 879:Generated_Source\PSoC4/CapSense_Filter.c ****     }
 880:Generated_Source\PSoC4/CapSense_Filter.c **** }
 881:Generated_Source\PSoC4/CapSense_Filter.c **** 
 882:Generated_Source\PSoC4/CapSense_Filter.c **** 
 883:Generated_Source\PSoC4/CapSense_Filter.c **** /*******************************************************************************
 884:Generated_Source\PSoC4/CapSense_Filter.c **** * Function Name: CapSense_RunIIRInternal
 885:Generated_Source\PSoC4/CapSense_Filter.c **** ****************************************************************************//**
 886:Generated_Source\PSoC4/CapSense_Filter.c **** *
 887:Generated_Source\PSoC4/CapSense_Filter.c **** * \brief
 888:Generated_Source\PSoC4/CapSense_Filter.c **** *  Run the IIR filter.
 889:Generated_Source\PSoC4/CapSense_Filter.c **** *
 890:Generated_Source\PSoC4/CapSense_Filter.c **** * \details
 891:Generated_Source\PSoC4/CapSense_Filter.c **** *  Run the IIR filter.
 892:Generated_Source\PSoC4/CapSense_Filter.c **** *
 893:Generated_Source\PSoC4/CapSense_Filter.c **** * \param ptrFilterHistObj
 894:Generated_Source\PSoC4/CapSense_Filter.c **** *  The pointer to the filter RAM object of the sensor.
 895:Generated_Source\PSoC4/CapSense_Filter.c **** *
 896:Generated_Source\PSoC4/CapSense_Filter.c **** * \param ptrSensorObj
 897:Generated_Source\PSoC4/CapSense_Filter.c **** *  The pointer to the sensor RAM object of the sensor.
 898:Generated_Source\PSoC4/CapSense_Filter.c **** *
 899:Generated_Source\PSoC4/CapSense_Filter.c **** * \param wdType
 900:Generated_Source\PSoC4/CapSense_Filter.c **** *  Specifies the type of a widget.
 901:Generated_Source\PSoC4/CapSense_Filter.c **** *
 902:Generated_Source\PSoC4/CapSense_Filter.c **** *******************************************************************************/
 903:Generated_Source\PSoC4/CapSense_Filter.c **** void CapSense_RunIIRInternal(CapSense_PTR_FILTER_VARIANT ptrFilterHistObj,
 904:Generated_Source\PSoC4/CapSense_Filter.c ****                                      CapSense_RAM_SNS_STRUCT *ptrSensorObj, uint32 wdType)
 905:Generated_Source\PSoC4/CapSense_Filter.c **** {
 906:Generated_Source\PSoC4/CapSense_Filter.c ****     uint32 freqChannel;
 907:Generated_Source\PSoC4/CapSense_Filter.c ****     uint32 temp;
 908:Generated_Source\PSoC4/CapSense_Filter.c **** 
 909:Generated_Source\PSoC4/CapSense_Filter.c ****     for(freqChannel = CapSense_NUM_SCAN_FREQS; freqChannel-- > 0u;)
 910:Generated_Source\PSoC4/CapSense_Filter.c ****     {
 911:Generated_Source\PSoC4/CapSense_Filter.c ****         if ((CapSense_WD_TYPE_ENUM)wdType != CapSense_WD_PROXIMITY_E)
 912:Generated_Source\PSoC4/CapSense_Filter.c ****         {
 913:Generated_Source\PSoC4/CapSense_Filter.c ****             #if (CapSense_REGULAR_SENSOR_EN && CapSense_REGULAR_RC_IIR_FILTER_EN)
 914:Generated_Source\PSoC4/CapSense_Filter.c ****                 #if (CapSense_REGULAR_IIR_RC_TYPE == CapSense_IIR_FILTER_PERFORMANCE)
ARM GAS  C:\Users\zack.li\AppData\Local\Temp\ccvbPEtI.s 			page 23


 915:Generated_Source\PSoC4/CapSense_Filter.c ****                     temp = ((uint32)ptrFilterHistObj.ptrRegular->regularChannel[freqChannel].iirHis
 916:Generated_Source\PSoC4/CapSense_Filter.c ****                     temp |= ptrFilterHistObj.ptrRegular->regularChannel[freqChannel].iirHistoryLow;
 917:Generated_Source\PSoC4/CapSense_Filter.c ****                     temp = CapSense_FtIIR1stOrder((uint32)ptrSensorObj->raw[freqChannel],
 918:Generated_Source\PSoC4/CapSense_Filter.c ****                                                         temp,
 919:Generated_Source\PSoC4/CapSense_Filter.c ****                                                         CapSense_REGULAR_IIR_RC_N,
 920:Generated_Source\PSoC4/CapSense_Filter.c ****                                                         CapSense_REGULAR_IIR_RC_SHIFT);
 921:Generated_Source\PSoC4/CapSense_Filter.c ****                     ptrFilterHistObj.ptrRegular->regularChannel[freqChannel].iirHistory = LO16(temp
 922:Generated_Source\PSoC4/CapSense_Filter.c ****                     ptrFilterHistObj.ptrRegular->regularChannel[freqChannel].iirHistoryLow = LO8(te
 923:Generated_Source\PSoC4/CapSense_Filter.c ****                     ptrSensorObj->raw[freqChannel] = LO16(temp >>CapSense_REGULAR_IIR_RC_SHIFT);
 924:Generated_Source\PSoC4/CapSense_Filter.c ****                 #else
 925:Generated_Source\PSoC4/CapSense_Filter.c ****                     temp =CapSense_FtIIR1stOrder((uint32)ptrSensorObj->raw[freqChannel],
 926:Generated_Source\PSoC4/CapSense_Filter.c ****                                                         (uint32)ptrFilterHistObj.ptrRegular->regula
 927:Generated_Source\PSoC4/CapSense_Filter.c ****                                                         CapSense_REGULAR_IIR_RC_N,
 928:Generated_Source\PSoC4/CapSense_Filter.c ****                                                         CapSense_REGULAR_IIR_RC_SHIFT);
 929:Generated_Source\PSoC4/CapSense_Filter.c ****                     ptrFilterHistObj.ptrRegular->regularChannel[freqChannel].iirHistory = LO16(temp
 930:Generated_Source\PSoC4/CapSense_Filter.c ****                     ptrSensorObj->raw[freqChannel] = LO16(temp >>CapSense_REGULAR_IIR_RC_SHIFT);
 931:Generated_Source\PSoC4/CapSense_Filter.c ****                 #endif /* (CapSense_REGULAR_IIR_RC_TYPE == CapSense_IIR_FILTER_PERFORMANCE) */
 932:Generated_Source\PSoC4/CapSense_Filter.c ****             #endif /* (CapSense_REGULAR_SENSOR_EN) */
 933:Generated_Source\PSoC4/CapSense_Filter.c ****         }
 934:Generated_Source\PSoC4/CapSense_Filter.c ****         else
 935:Generated_Source\PSoC4/CapSense_Filter.c ****         {
 936:Generated_Source\PSoC4/CapSense_Filter.c ****             #if (CapSense_PROXIMITY_SENSOR_EN && CapSense_PROX_RC_IIR_FILTER_EN)
 937:Generated_Source\PSoC4/CapSense_Filter.c ****                 #if (CapSense_PROX_IIR_RC_TYPE == CapSense_IIR_FILTER_PERFORMANCE)
 938:Generated_Source\PSoC4/CapSense_Filter.c ****                     temp =  ptrFilterHistObj.ptrProx->proxChannel[freqChannel].iirHistory << CapSen
 939:Generated_Source\PSoC4/CapSense_Filter.c ****                     temp |= ptrFilterHistObj.ptrProx->proxChannel[freqChannel].iirHistoryLow;
 940:Generated_Source\PSoC4/CapSense_Filter.c ****                     temp =CapSense_FtIIR1stOrder((uint32)ptrSensorObj->raw[freqChannel],
 941:Generated_Source\PSoC4/CapSense_Filter.c ****                                                         temp,
 942:Generated_Source\PSoC4/CapSense_Filter.c ****                                                         CapSense_PROX_IIR_RC_N,
 943:Generated_Source\PSoC4/CapSense_Filter.c ****                                                         CapSense_PROX_IIR_RC_SHIFT);
 944:Generated_Source\PSoC4/CapSense_Filter.c ****                     ptrFilterHistObj.ptrProx->proxChannel[freqChannel].iirHistory = LO16(temp >>Cap
 945:Generated_Source\PSoC4/CapSense_Filter.c ****                     ptrFilterHistObj.ptrProx->proxChannel[freqChannel].iirHistoryLow = LO8(temp);
 946:Generated_Source\PSoC4/CapSense_Filter.c ****                     ptrSensorObj->raw[freqChannel] = LO16(temp >>CapSense_PROX_IIR_RC_SHIFT);
 947:Generated_Source\PSoC4/CapSense_Filter.c ****                 #else
 948:Generated_Source\PSoC4/CapSense_Filter.c ****                     temp =CapSense_FtIIR1stOrder((uint32)ptrSensorObj->raw[freqChannel],
 949:Generated_Source\PSoC4/CapSense_Filter.c ****                                                         (uint32)ptrFilterHistObj.ptrProx->proxChann
 950:Generated_Source\PSoC4/CapSense_Filter.c ****                                                         CapSense_PROX_IIR_RC_N,
 951:Generated_Source\PSoC4/CapSense_Filter.c ****                                                         CapSense_PROX_IIR_RC_SHIFT);
 952:Generated_Source\PSoC4/CapSense_Filter.c ****                     ptrFilterHistObj.ptrProx->proxChannel[freqChannel].iirHistory = LO16(temp);
 953:Generated_Source\PSoC4/CapSense_Filter.c ****                     ptrSensorObj->raw[freqChannel] = LO16(temp >>CapSense_PROX_IIR_RC_SHIFT);
 954:Generated_Source\PSoC4/CapSense_Filter.c ****                 #endif /* (CapSense_PROX_IIR_RC_TYPE == CapSense_IIR_FILTER_PERFORMANCE) */
 955:Generated_Source\PSoC4/CapSense_Filter.c ****             #endif /* (CapSense_PROX_SENSOR_EN) */
 956:Generated_Source\PSoC4/CapSense_Filter.c ****         }
 957:Generated_Source\PSoC4/CapSense_Filter.c ****     }
 958:Generated_Source\PSoC4/CapSense_Filter.c **** }
 959:Generated_Source\PSoC4/CapSense_Filter.c **** #endif /* #if (CapSense_REGULAR_RC_IIR_FILTER_EN || CapSense_PROX_RC_IIR_FILTER_EN) */
 960:Generated_Source\PSoC4/CapSense_Filter.c **** 
 961:Generated_Source\PSoC4/CapSense_Filter.c **** 
 962:Generated_Source\PSoC4/CapSense_Filter.c **** #if (CapSense_REGULAR_RC_MEDIAN_FILTER_EN || CapSense_PROX_RC_MEDIAN_FILTER_EN)
 963:Generated_Source\PSoC4/CapSense_Filter.c **** 
 964:Generated_Source\PSoC4/CapSense_Filter.c **** /*******************************************************************************
 965:Generated_Source\PSoC4/CapSense_Filter.c **** * Function Name: CapSense_InitializeMedian
 966:Generated_Source\PSoC4/CapSense_Filter.c **** ****************************************************************************//**
 967:Generated_Source\PSoC4/CapSense_Filter.c **** *
 968:Generated_Source\PSoC4/CapSense_Filter.c **** * \brief
 969:Generated_Source\PSoC4/CapSense_Filter.c **** *  Initializes the Median filter history.
 970:Generated_Source\PSoC4/CapSense_Filter.c **** *
 971:Generated_Source\PSoC4/CapSense_Filter.c **** * \details
ARM GAS  C:\Users\zack.li\AppData\Local\Temp\ccvbPEtI.s 			page 24


 972:Generated_Source\PSoC4/CapSense_Filter.c **** *  Initializes the Median filter history.
 973:Generated_Source\PSoC4/CapSense_Filter.c **** *
 974:Generated_Source\PSoC4/CapSense_Filter.c **** * \param widgetId
 975:Generated_Source\PSoC4/CapSense_Filter.c **** *  Specifies the ID number of the widget.
 976:Generated_Source\PSoC4/CapSense_Filter.c **** *
 977:Generated_Source\PSoC4/CapSense_Filter.c **** * \param sensorId
 978:Generated_Source\PSoC4/CapSense_Filter.c **** *  Specifies the ID number of the sensor in the widget.
 979:Generated_Source\PSoC4/CapSense_Filter.c **** *
 980:Generated_Source\PSoC4/CapSense_Filter.c **** *******************************************************************************/
 981:Generated_Source\PSoC4/CapSense_Filter.c **** void CapSense_InitializeMedian(uint32 widgetId, uint32 sensorId)
 982:Generated_Source\PSoC4/CapSense_Filter.c **** {
 983:Generated_Source\PSoC4/CapSense_Filter.c ****     CapSense_FLASH_WD_STRUCT const *ptrWidget = &CapSense_dsFlash.wdgtArray[widgetId];
 984:Generated_Source\PSoC4/CapSense_Filter.c ****     CapSense_RAM_SNS_STRUCT *ptrSensor = NULL;
 985:Generated_Source\PSoC4/CapSense_Filter.c ****     CapSense_PTR_FILTER_VARIANT ptrFilterHistObj;
 986:Generated_Source\PSoC4/CapSense_Filter.c **** 
 987:Generated_Source\PSoC4/CapSense_Filter.c ****     /* Find pointer to specified sensor object */
 988:Generated_Source\PSoC4/CapSense_Filter.c ****     ptrSensor = ptrWidget->ptr2SnsRam;
 989:Generated_Source\PSoC4/CapSense_Filter.c ****     ptrSensor = &ptrSensor[sensorId];
 990:Generated_Source\PSoC4/CapSense_Filter.c **** 
 991:Generated_Source\PSoC4/CapSense_Filter.c ****     /* Find pointer to specified filter sensor object */
 992:Generated_Source\PSoC4/CapSense_Filter.c ****     ptrFilterHistObj.ptr = ptrWidget->ptr2FltrHistory;
 993:Generated_Source\PSoC4/CapSense_Filter.c **** 
 994:Generated_Source\PSoC4/CapSense_Filter.c ****     if ((CapSense_WD_TYPE_ENUM)ptrWidget->wdgtType != CapSense_WD_PROXIMITY_E)
 995:Generated_Source\PSoC4/CapSense_Filter.c ****     {
 996:Generated_Source\PSoC4/CapSense_Filter.c ****         #if (CapSense_REGULAR_SENSOR_EN)
 997:Generated_Source\PSoC4/CapSense_Filter.c ****             ptrFilterHistObj.ptrRegular = &ptrFilterHistObj.ptrRegular[sensorId];
 998:Generated_Source\PSoC4/CapSense_Filter.c ****         #endif /* (CapSense_REGULAR_SENSOR_EN) */
 999:Generated_Source\PSoC4/CapSense_Filter.c ****     }
1000:Generated_Source\PSoC4/CapSense_Filter.c ****     else
1001:Generated_Source\PSoC4/CapSense_Filter.c ****     {
1002:Generated_Source\PSoC4/CapSense_Filter.c ****         #if (CapSense_PROXIMITY_SENSOR_EN)
1003:Generated_Source\PSoC4/CapSense_Filter.c ****             ptrFilterHistObj.ptrProx = &ptrFilterHistObj.ptrProx[sensorId];
1004:Generated_Source\PSoC4/CapSense_Filter.c ****         #endif /* (CapSense_PROXIMITY_SENSOR_EN) */
1005:Generated_Source\PSoC4/CapSense_Filter.c ****     }
1006:Generated_Source\PSoC4/CapSense_Filter.c **** 
1007:Generated_Source\PSoC4/CapSense_Filter.c ****     CapSense_InitializeMedianInternal(ptrFilterHistObj, ptrSensor, (uint32)ptrWidget->wdgtType);
1008:Generated_Source\PSoC4/CapSense_Filter.c **** }
1009:Generated_Source\PSoC4/CapSense_Filter.c **** 
1010:Generated_Source\PSoC4/CapSense_Filter.c **** 
1011:Generated_Source\PSoC4/CapSense_Filter.c **** /*******************************************************************************
1012:Generated_Source\PSoC4/CapSense_Filter.c **** * Function Name: CapSense_RunMedian
1013:Generated_Source\PSoC4/CapSense_Filter.c **** ****************************************************************************//**
1014:Generated_Source\PSoC4/CapSense_Filter.c **** *
1015:Generated_Source\PSoC4/CapSense_Filter.c **** * \brief
1016:Generated_Source\PSoC4/CapSense_Filter.c **** *  Executes the Median filter algorithm on a sensor indicated by an input
1017:Generated_Source\PSoC4/CapSense_Filter.c **** *  parameter.
1018:Generated_Source\PSoC4/CapSense_Filter.c **** *
1019:Generated_Source\PSoC4/CapSense_Filter.c **** * \details
1020:Generated_Source\PSoC4/CapSense_Filter.c **** *  Executes the Median filter algorithm on a sensor indicated by an input
1021:Generated_Source\PSoC4/CapSense_Filter.c **** *  parameter.
1022:Generated_Source\PSoC4/CapSense_Filter.c **** *
1023:Generated_Source\PSoC4/CapSense_Filter.c **** * \param widgetId
1024:Generated_Source\PSoC4/CapSense_Filter.c **** *  Specifies the ID number of the widget.
1025:Generated_Source\PSoC4/CapSense_Filter.c **** *
1026:Generated_Source\PSoC4/CapSense_Filter.c **** * \param sensorId
1027:Generated_Source\PSoC4/CapSense_Filter.c **** *  Specifies the ID number of the sensor in the widget.
1028:Generated_Source\PSoC4/CapSense_Filter.c **** *
ARM GAS  C:\Users\zack.li\AppData\Local\Temp\ccvbPEtI.s 			page 25


1029:Generated_Source\PSoC4/CapSense_Filter.c **** *******************************************************************************/
1030:Generated_Source\PSoC4/CapSense_Filter.c **** void CapSense_RunMedian(uint32 widgetId, uint32 sensorId)
1031:Generated_Source\PSoC4/CapSense_Filter.c **** {
1032:Generated_Source\PSoC4/CapSense_Filter.c ****     CapSense_FLASH_WD_STRUCT const *ptrWidget = &CapSense_dsFlash.wdgtArray[widgetId];
1033:Generated_Source\PSoC4/CapSense_Filter.c ****     CapSense_RAM_SNS_STRUCT *ptrSensor = NULL;
1034:Generated_Source\PSoC4/CapSense_Filter.c ****     CapSense_PTR_FILTER_VARIANT ptrFilterHistObj;
1035:Generated_Source\PSoC4/CapSense_Filter.c **** 
1036:Generated_Source\PSoC4/CapSense_Filter.c ****     /* Find pointer to specified sensor object */
1037:Generated_Source\PSoC4/CapSense_Filter.c ****     ptrSensor = ptrWidget->ptr2SnsRam;
1038:Generated_Source\PSoC4/CapSense_Filter.c ****     ptrSensor = &ptrSensor[sensorId];
1039:Generated_Source\PSoC4/CapSense_Filter.c **** 
1040:Generated_Source\PSoC4/CapSense_Filter.c ****     /* Find pointer to specified filter sensor object */
1041:Generated_Source\PSoC4/CapSense_Filter.c ****     ptrFilterHistObj.ptr = ptrWidget->ptr2FltrHistory;
1042:Generated_Source\PSoC4/CapSense_Filter.c **** 
1043:Generated_Source\PSoC4/CapSense_Filter.c ****     if ((CapSense_WD_TYPE_ENUM)ptrWidget->wdgtType != CapSense_WD_PROXIMITY_E)
1044:Generated_Source\PSoC4/CapSense_Filter.c ****     {
1045:Generated_Source\PSoC4/CapSense_Filter.c ****         #if (CapSense_REGULAR_SENSOR_EN)
1046:Generated_Source\PSoC4/CapSense_Filter.c ****             ptrFilterHistObj.ptrRegular = &ptrFilterHistObj.ptrRegular[sensorId];
1047:Generated_Source\PSoC4/CapSense_Filter.c ****         #endif /* (CapSense_REGULAR_SENSOR_EN) */
1048:Generated_Source\PSoC4/CapSense_Filter.c ****     }
1049:Generated_Source\PSoC4/CapSense_Filter.c ****     else
1050:Generated_Source\PSoC4/CapSense_Filter.c ****     {
1051:Generated_Source\PSoC4/CapSense_Filter.c ****         #if (CapSense_PROXIMITY_SENSOR_EN)
1052:Generated_Source\PSoC4/CapSense_Filter.c ****             ptrFilterHistObj.ptrProx = &ptrFilterHistObj.ptrProx[sensorId];
1053:Generated_Source\PSoC4/CapSense_Filter.c ****         #endif /* (CapSense_PROXIMITY_SENSOR_EN) */
1054:Generated_Source\PSoC4/CapSense_Filter.c ****     }
1055:Generated_Source\PSoC4/CapSense_Filter.c **** 
1056:Generated_Source\PSoC4/CapSense_Filter.c ****     CapSense_RunMedianInternal(ptrFilterHistObj, ptrSensor, (uint32)ptrWidget->wdgtType);
1057:Generated_Source\PSoC4/CapSense_Filter.c **** }
1058:Generated_Source\PSoC4/CapSense_Filter.c **** 
1059:Generated_Source\PSoC4/CapSense_Filter.c **** 
1060:Generated_Source\PSoC4/CapSense_Filter.c **** /*******************************************************************************
1061:Generated_Source\PSoC4/CapSense_Filter.c **** * Function Name: CapSense_InitializeMedianInternal
1062:Generated_Source\PSoC4/CapSense_Filter.c **** ****************************************************************************//**
1063:Generated_Source\PSoC4/CapSense_Filter.c **** *
1064:Generated_Source\PSoC4/CapSense_Filter.c **** * \brief
1065:Generated_Source\PSoC4/CapSense_Filter.c **** *  Initializes the Median filter.
1066:Generated_Source\PSoC4/CapSense_Filter.c **** *
1067:Generated_Source\PSoC4/CapSense_Filter.c **** * \details
1068:Generated_Source\PSoC4/CapSense_Filter.c **** *  Initializes the Median filter.
1069:Generated_Source\PSoC4/CapSense_Filter.c **** *
1070:Generated_Source\PSoC4/CapSense_Filter.c **** * \param ptrFilterHistObj
1071:Generated_Source\PSoC4/CapSense_Filter.c **** *  The pointer to the filter RAM object of the sensor.
1072:Generated_Source\PSoC4/CapSense_Filter.c **** *
1073:Generated_Source\PSoC4/CapSense_Filter.c **** * \param ptrSensorObj
1074:Generated_Source\PSoC4/CapSense_Filter.c **** *  The pointer to the sensor RAM object of the sensor.
1075:Generated_Source\PSoC4/CapSense_Filter.c **** *
1076:Generated_Source\PSoC4/CapSense_Filter.c **** * \param wdType
1077:Generated_Source\PSoC4/CapSense_Filter.c **** *  Specifies the type of a widget.
1078:Generated_Source\PSoC4/CapSense_Filter.c **** *
1079:Generated_Source\PSoC4/CapSense_Filter.c **** *******************************************************************************/
1080:Generated_Source\PSoC4/CapSense_Filter.c **** void CapSense_InitializeMedianInternal(CapSense_PTR_FILTER_VARIANT ptrFilterHistObj,
1081:Generated_Source\PSoC4/CapSense_Filter.c ****                                                CapSense_RAM_SNS_STRUCT *ptrSensorObj, uint32 wdType
1082:Generated_Source\PSoC4/CapSense_Filter.c **** {
1083:Generated_Source\PSoC4/CapSense_Filter.c ****     uint32 freqChannel;
1084:Generated_Source\PSoC4/CapSense_Filter.c **** 
1085:Generated_Source\PSoC4/CapSense_Filter.c ****     for(freqChannel = CapSense_NUM_SCAN_FREQS; freqChannel-- > 0u;)
ARM GAS  C:\Users\zack.li\AppData\Local\Temp\ccvbPEtI.s 			page 26


1086:Generated_Source\PSoC4/CapSense_Filter.c ****     {
1087:Generated_Source\PSoC4/CapSense_Filter.c ****         if ((CapSense_WD_TYPE_ENUM)wdType != CapSense_WD_PROXIMITY_E)
1088:Generated_Source\PSoC4/CapSense_Filter.c ****         {
1089:Generated_Source\PSoC4/CapSense_Filter.c ****             #if (CapSense_REGULAR_SENSOR_EN && CapSense_REGULAR_RC_MEDIAN_FILTER_EN)
1090:Generated_Source\PSoC4/CapSense_Filter.c ****                 ptrFilterHistObj.ptrRegular->regularChannel[freqChannel].medHistory[0u] = ptrSensor
1091:Generated_Source\PSoC4/CapSense_Filter.c ****                 ptrFilterHistObj.ptrRegular->regularChannel[freqChannel].medHistory[1u] = ptrSensor
1092:Generated_Source\PSoC4/CapSense_Filter.c ****             #endif /* (CapSense_REGULAR_SENSOR_EN) */
1093:Generated_Source\PSoC4/CapSense_Filter.c ****         }
1094:Generated_Source\PSoC4/CapSense_Filter.c ****         else
1095:Generated_Source\PSoC4/CapSense_Filter.c ****         {
1096:Generated_Source\PSoC4/CapSense_Filter.c ****             #if (CapSense_PROXIMITY_SENSOR_EN && CapSense_PROX_RC_MEDIAN_FILTER_EN)
1097:Generated_Source\PSoC4/CapSense_Filter.c ****                 ptrFilterHistObj.ptrProx->proxChannel[freqChannel].medHistory[0u] = ptrSensorObj->r
1098:Generated_Source\PSoC4/CapSense_Filter.c ****                 ptrFilterHistObj.ptrProx->proxChannel[freqChannel].medHistory[1u] = ptrSensorObj->r
1099:Generated_Source\PSoC4/CapSense_Filter.c ****             #endif /* (CapSense_PROXIMITY_SENSOR_EN) */
1100:Generated_Source\PSoC4/CapSense_Filter.c ****         }
1101:Generated_Source\PSoC4/CapSense_Filter.c ****     }
1102:Generated_Source\PSoC4/CapSense_Filter.c **** }
1103:Generated_Source\PSoC4/CapSense_Filter.c **** 
1104:Generated_Source\PSoC4/CapSense_Filter.c **** 
1105:Generated_Source\PSoC4/CapSense_Filter.c **** /*******************************************************************************
1106:Generated_Source\PSoC4/CapSense_Filter.c **** * Function Name: CapSense_RunMedianInternal
1107:Generated_Source\PSoC4/CapSense_Filter.c **** ****************************************************************************//**
1108:Generated_Source\PSoC4/CapSense_Filter.c **** *
1109:Generated_Source\PSoC4/CapSense_Filter.c **** * \brief
1110:Generated_Source\PSoC4/CapSense_Filter.c **** *  Runs the Median filter.
1111:Generated_Source\PSoC4/CapSense_Filter.c **** *
1112:Generated_Source\PSoC4/CapSense_Filter.c **** * \details
1113:Generated_Source\PSoC4/CapSense_Filter.c **** *  Runs the Median filter.
1114:Generated_Source\PSoC4/CapSense_Filter.c **** *
1115:Generated_Source\PSoC4/CapSense_Filter.c **** * \param ptrFilterHistObj
1116:Generated_Source\PSoC4/CapSense_Filter.c **** *  The pointer to the filter RAM object of the sensor.
1117:Generated_Source\PSoC4/CapSense_Filter.c **** *
1118:Generated_Source\PSoC4/CapSense_Filter.c **** * \param ptrSensorObj
1119:Generated_Source\PSoC4/CapSense_Filter.c **** *  The pointer to the sensor RAM object of the sensor.
1120:Generated_Source\PSoC4/CapSense_Filter.c **** *
1121:Generated_Source\PSoC4/CapSense_Filter.c **** * \param wdType
1122:Generated_Source\PSoC4/CapSense_Filter.c **** *  Specifies the type of a widget.
1123:Generated_Source\PSoC4/CapSense_Filter.c **** *
1124:Generated_Source\PSoC4/CapSense_Filter.c **** *******************************************************************************/
1125:Generated_Source\PSoC4/CapSense_Filter.c **** void CapSense_RunMedianInternal(CapSense_PTR_FILTER_VARIANT ptrFilterHistObj,
1126:Generated_Source\PSoC4/CapSense_Filter.c ****                                         CapSense_RAM_SNS_STRUCT *ptrSensorObj, uint32 wdType)
1127:Generated_Source\PSoC4/CapSense_Filter.c **** {
1128:Generated_Source\PSoC4/CapSense_Filter.c ****     uint32 freqChannel;
1129:Generated_Source\PSoC4/CapSense_Filter.c **** 
1130:Generated_Source\PSoC4/CapSense_Filter.c ****     #if ((CapSense_REGULAR_SENSOR_EN && CapSense_REGULAR_RC_MEDIAN_FILTER_EN) || \
1131:Generated_Source\PSoC4/CapSense_Filter.c ****          (CapSense_PROXIMITY_SENSOR_EN && CapSense_PROX_RC_MEDIAN_FILTER_EN))
1132:Generated_Source\PSoC4/CapSense_Filter.c ****         uint32 temp;
1133:Generated_Source\PSoC4/CapSense_Filter.c ****     #endif
1134:Generated_Source\PSoC4/CapSense_Filter.c **** 
1135:Generated_Source\PSoC4/CapSense_Filter.c ****     for(freqChannel = CapSense_NUM_SCAN_FREQS; freqChannel-- > 0u;)
1136:Generated_Source\PSoC4/CapSense_Filter.c ****     {
1137:Generated_Source\PSoC4/CapSense_Filter.c ****         if ((CapSense_WD_TYPE_ENUM)wdType != CapSense_WD_PROXIMITY_E)
1138:Generated_Source\PSoC4/CapSense_Filter.c ****         {
1139:Generated_Source\PSoC4/CapSense_Filter.c ****             #if (CapSense_REGULAR_SENSOR_EN && CapSense_REGULAR_RC_MEDIAN_FILTER_EN)
1140:Generated_Source\PSoC4/CapSense_Filter.c ****                 temp = CapSense_FtMedian((uint32)ptrSensorObj->raw[freqChannel],\
1141:Generated_Source\PSoC4/CapSense_Filter.c ****                                                  (uint32)ptrFilterHistObj.ptrRegular->regularChanne
1142:Generated_Source\PSoC4/CapSense_Filter.c ****                                                  (uint32)ptrFilterHistObj.ptrRegular->regularChanne
ARM GAS  C:\Users\zack.li\AppData\Local\Temp\ccvbPEtI.s 			page 27


1143:Generated_Source\PSoC4/CapSense_Filter.c ****                 ptrFilterHistObj.ptrRegular->regularChannel[freqChannel].medHistory[1u] = \
1144:Generated_Source\PSoC4/CapSense_Filter.c ****                 ptrFilterHistObj.ptrRegular->regularChannel[freqChannel].medHistory[0u];
1145:Generated_Source\PSoC4/CapSense_Filter.c ****                 ptrFilterHistObj.ptrRegular->regularChannel[freqChannel].medHistory[0u] = ptrSensor
1146:Generated_Source\PSoC4/CapSense_Filter.c ****                 ptrSensorObj->raw[freqChannel] = LO16(temp);
1147:Generated_Source\PSoC4/CapSense_Filter.c ****             #endif /* (CapSense_REGULAR_SENSOR_EN) */
1148:Generated_Source\PSoC4/CapSense_Filter.c ****         }
1149:Generated_Source\PSoC4/CapSense_Filter.c ****         else
1150:Generated_Source\PSoC4/CapSense_Filter.c ****         {
1151:Generated_Source\PSoC4/CapSense_Filter.c ****             #if (CapSense_PROXIMITY_SENSOR_EN && CapSense_PROX_RC_MEDIAN_FILTER_EN)
1152:Generated_Source\PSoC4/CapSense_Filter.c ****                 temp = CapSense_FtMedian((uint32)ptrSensorObj->raw[freqChannel],\
1153:Generated_Source\PSoC4/CapSense_Filter.c ****                                                  (uint32)ptrFilterHistObj.ptrProx->proxChannel[freq
1154:Generated_Source\PSoC4/CapSense_Filter.c ****                                                  (uint32)ptrFilterHistObj.ptrProx->proxChannel[freq
1155:Generated_Source\PSoC4/CapSense_Filter.c ****                 ptrFilterHistObj.ptrProx->proxChannel[freqChannel].medHistory[1u] = \
1156:Generated_Source\PSoC4/CapSense_Filter.c ****                 ptrFilterHistObj.ptrProx->proxChannel[freqChannel].medHistory[0u];
1157:Generated_Source\PSoC4/CapSense_Filter.c ****                 ptrFilterHistObj.ptrProx->proxChannel[freqChannel].medHistory[0u] = ptrSensorObj->r
1158:Generated_Source\PSoC4/CapSense_Filter.c ****                 ptrSensorObj->raw[freqChannel] = LO16(temp);
1159:Generated_Source\PSoC4/CapSense_Filter.c ****             #endif /* (CapSense_PROXIMITY_SENSOR_EN) */
1160:Generated_Source\PSoC4/CapSense_Filter.c ****         }
1161:Generated_Source\PSoC4/CapSense_Filter.c ****     }
1162:Generated_Source\PSoC4/CapSense_Filter.c **** }
1163:Generated_Source\PSoC4/CapSense_Filter.c **** #endif /* (CapSense_REGULAR_RC_MEDIAN_FILTER_EN || CapSense_PROX_RC_MEDIAN_FILTER_EN) */
1164:Generated_Source\PSoC4/CapSense_Filter.c **** 
1165:Generated_Source\PSoC4/CapSense_Filter.c **** 
1166:Generated_Source\PSoC4/CapSense_Filter.c **** #if (CapSense_REGULAR_RC_AVERAGE_FILTER_EN || CapSense_PROX_RC_AVERAGE_FILTER_EN)
1167:Generated_Source\PSoC4/CapSense_Filter.c **** 
1168:Generated_Source\PSoC4/CapSense_Filter.c **** /*******************************************************************************
1169:Generated_Source\PSoC4/CapSense_Filter.c **** * Function Name: CapSense_InitializeAverage
1170:Generated_Source\PSoC4/CapSense_Filter.c **** ****************************************************************************//**
1171:Generated_Source\PSoC4/CapSense_Filter.c **** *
1172:Generated_Source\PSoC4/CapSense_Filter.c **** * \brief
1173:Generated_Source\PSoC4/CapSense_Filter.c **** *  Initializes the average filter history.
1174:Generated_Source\PSoC4/CapSense_Filter.c **** *
1175:Generated_Source\PSoC4/CapSense_Filter.c **** * \details
1176:Generated_Source\PSoC4/CapSense_Filter.c **** *  Initializes the average filter history.
1177:Generated_Source\PSoC4/CapSense_Filter.c **** *
1178:Generated_Source\PSoC4/CapSense_Filter.c **** * \param widgetId
1179:Generated_Source\PSoC4/CapSense_Filter.c **** *  Specifies the ID number of the widget.
1180:Generated_Source\PSoC4/CapSense_Filter.c **** *
1181:Generated_Source\PSoC4/CapSense_Filter.c **** * \param sensorId
1182:Generated_Source\PSoC4/CapSense_Filter.c **** *  Specifies the ID number of the sensor in the widget.
1183:Generated_Source\PSoC4/CapSense_Filter.c **** *
1184:Generated_Source\PSoC4/CapSense_Filter.c **** *******************************************************************************/
1185:Generated_Source\PSoC4/CapSense_Filter.c **** void CapSense_InitializeAverage(uint32 widgetId, uint32 sensorId)
1186:Generated_Source\PSoC4/CapSense_Filter.c **** {
1187:Generated_Source\PSoC4/CapSense_Filter.c ****     CapSense_FLASH_WD_STRUCT const *ptrWidget = &CapSense_dsFlash.wdgtArray[widgetId];
1188:Generated_Source\PSoC4/CapSense_Filter.c ****     CapSense_RAM_SNS_STRUCT *ptrSensor = NULL;
1189:Generated_Source\PSoC4/CapSense_Filter.c ****     CapSense_PTR_FILTER_VARIANT ptrFilterHistObj;
1190:Generated_Source\PSoC4/CapSense_Filter.c **** 
1191:Generated_Source\PSoC4/CapSense_Filter.c ****     /* Find pointer to specified sensor object */
1192:Generated_Source\PSoC4/CapSense_Filter.c ****     ptrSensor = ptrWidget->ptr2SnsRam;
1193:Generated_Source\PSoC4/CapSense_Filter.c ****     ptrSensor = &ptrSensor[sensorId];
1194:Generated_Source\PSoC4/CapSense_Filter.c **** 
1195:Generated_Source\PSoC4/CapSense_Filter.c ****     /* Find pointer to specified filter sensor object */
1196:Generated_Source\PSoC4/CapSense_Filter.c ****     ptrFilterHistObj.ptr = ptrWidget->ptr2FltrHistory;
1197:Generated_Source\PSoC4/CapSense_Filter.c **** 
1198:Generated_Source\PSoC4/CapSense_Filter.c ****     if ((CapSense_WD_TYPE_ENUM)ptrWidget->wdgtType != CapSense_WD_PROXIMITY_E)
1199:Generated_Source\PSoC4/CapSense_Filter.c ****     {
ARM GAS  C:\Users\zack.li\AppData\Local\Temp\ccvbPEtI.s 			page 28


1200:Generated_Source\PSoC4/CapSense_Filter.c ****         #if (CapSense_REGULAR_SENSOR_EN)
1201:Generated_Source\PSoC4/CapSense_Filter.c ****             ptrFilterHistObj.ptrRegular = &ptrFilterHistObj.ptrRegular[sensorId];
1202:Generated_Source\PSoC4/CapSense_Filter.c ****         #endif /* (CapSense_REGULAR_SENSOR_EN) */
1203:Generated_Source\PSoC4/CapSense_Filter.c ****     }
1204:Generated_Source\PSoC4/CapSense_Filter.c ****     else
1205:Generated_Source\PSoC4/CapSense_Filter.c ****     {
1206:Generated_Source\PSoC4/CapSense_Filter.c ****         #if (CapSense_PROXIMITY_SENSOR_EN)
1207:Generated_Source\PSoC4/CapSense_Filter.c ****             ptrFilterHistObj.ptrProx = &ptrFilterHistObj.ptrProx[sensorId];
1208:Generated_Source\PSoC4/CapSense_Filter.c ****         #endif /* (CapSense_PROXIMITY_SENSOR_EN) */
1209:Generated_Source\PSoC4/CapSense_Filter.c ****     }
1210:Generated_Source\PSoC4/CapSense_Filter.c **** 
1211:Generated_Source\PSoC4/CapSense_Filter.c ****     CapSense_InitializeAverageInternal(ptrFilterHistObj, ptrSensor, (uint32)ptrWidget->wdgtType);
1212:Generated_Source\PSoC4/CapSense_Filter.c **** }
1213:Generated_Source\PSoC4/CapSense_Filter.c **** 
1214:Generated_Source\PSoC4/CapSense_Filter.c **** 
1215:Generated_Source\PSoC4/CapSense_Filter.c **** /*******************************************************************************
1216:Generated_Source\PSoC4/CapSense_Filter.c **** * Function Name: CapSense_RunAverage
1217:Generated_Source\PSoC4/CapSense_Filter.c **** ****************************************************************************//**
1218:Generated_Source\PSoC4/CapSense_Filter.c **** *
1219:Generated_Source\PSoC4/CapSense_Filter.c **** * \brief
1220:Generated_Source\PSoC4/CapSense_Filter.c **** *  Executes the average filter algorithm on a sensor indicated by an input
1221:Generated_Source\PSoC4/CapSense_Filter.c **** *  parameter.
1222:Generated_Source\PSoC4/CapSense_Filter.c **** *
1223:Generated_Source\PSoC4/CapSense_Filter.c **** * \details
1224:Generated_Source\PSoC4/CapSense_Filter.c **** *  Executes the average filter algorithm on a sensor indicated by an input
1225:Generated_Source\PSoC4/CapSense_Filter.c **** *  parameter.
1226:Generated_Source\PSoC4/CapSense_Filter.c **** *
1227:Generated_Source\PSoC4/CapSense_Filter.c **** * \param widgetId
1228:Generated_Source\PSoC4/CapSense_Filter.c **** *  Specifies the ID number of the widget.
1229:Generated_Source\PSoC4/CapSense_Filter.c **** *
1230:Generated_Source\PSoC4/CapSense_Filter.c **** * \param sensorId
1231:Generated_Source\PSoC4/CapSense_Filter.c **** *  Specifies the ID number of the sensor in the widget.
1232:Generated_Source\PSoC4/CapSense_Filter.c **** *
1233:Generated_Source\PSoC4/CapSense_Filter.c **** *******************************************************************************/
1234:Generated_Source\PSoC4/CapSense_Filter.c **** void CapSense_RunAverage(uint32 widgetId, uint32 sensorId)
1235:Generated_Source\PSoC4/CapSense_Filter.c **** {
1236:Generated_Source\PSoC4/CapSense_Filter.c ****     CapSense_FLASH_WD_STRUCT const *ptrWidget = &CapSense_dsFlash.wdgtArray[widgetId];
1237:Generated_Source\PSoC4/CapSense_Filter.c ****     CapSense_RAM_SNS_STRUCT *ptrSensor = NULL;
1238:Generated_Source\PSoC4/CapSense_Filter.c ****     CapSense_PTR_FILTER_VARIANT ptrFilterHistObj;
1239:Generated_Source\PSoC4/CapSense_Filter.c **** 
1240:Generated_Source\PSoC4/CapSense_Filter.c ****     /* Find pointer to specified sensor object */
1241:Generated_Source\PSoC4/CapSense_Filter.c ****     ptrSensor = ptrWidget->ptr2SnsRam;
1242:Generated_Source\PSoC4/CapSense_Filter.c ****     ptrSensor = &ptrSensor[sensorId];
1243:Generated_Source\PSoC4/CapSense_Filter.c **** 
1244:Generated_Source\PSoC4/CapSense_Filter.c ****     /* Find pointer to specified filter sensor object */
1245:Generated_Source\PSoC4/CapSense_Filter.c ****     ptrFilterHistObj.ptr = ptrWidget->ptr2FltrHistory;
1246:Generated_Source\PSoC4/CapSense_Filter.c **** 
1247:Generated_Source\PSoC4/CapSense_Filter.c ****     if ((CapSense_WD_TYPE_ENUM)ptrWidget->wdgtType != CapSense_WD_PROXIMITY_E)
1248:Generated_Source\PSoC4/CapSense_Filter.c ****     {
1249:Generated_Source\PSoC4/CapSense_Filter.c ****         #if (CapSense_REGULAR_SENSOR_EN)
1250:Generated_Source\PSoC4/CapSense_Filter.c ****             ptrFilterHistObj.ptrRegular = &ptrFilterHistObj.ptrRegular[sensorId];
1251:Generated_Source\PSoC4/CapSense_Filter.c ****         #endif /* (CapSense_REGULAR_SENSOR_EN) */
1252:Generated_Source\PSoC4/CapSense_Filter.c ****     }
1253:Generated_Source\PSoC4/CapSense_Filter.c ****     else
1254:Generated_Source\PSoC4/CapSense_Filter.c ****     {
1255:Generated_Source\PSoC4/CapSense_Filter.c ****         #if (CapSense_PROXIMITY_SENSOR_EN)
1256:Generated_Source\PSoC4/CapSense_Filter.c ****             ptrFilterHistObj.ptrProx = &ptrFilterHistObj.ptrProx[sensorId];
ARM GAS  C:\Users\zack.li\AppData\Local\Temp\ccvbPEtI.s 			page 29


1257:Generated_Source\PSoC4/CapSense_Filter.c ****         #endif /* (CapSense_PROXIMITY_SENSOR_EN) */
1258:Generated_Source\PSoC4/CapSense_Filter.c ****     }
1259:Generated_Source\PSoC4/CapSense_Filter.c **** 
1260:Generated_Source\PSoC4/CapSense_Filter.c ****     CapSense_RunAverageInternal(ptrFilterHistObj, ptrSensor, (uint32)ptrWidget->wdgtType);
1261:Generated_Source\PSoC4/CapSense_Filter.c **** }
1262:Generated_Source\PSoC4/CapSense_Filter.c **** 
1263:Generated_Source\PSoC4/CapSense_Filter.c **** 
1264:Generated_Source\PSoC4/CapSense_Filter.c **** /*******************************************************************************
1265:Generated_Source\PSoC4/CapSense_Filter.c **** * Function Name: CapSense_InitializeAverageInternal
1266:Generated_Source\PSoC4/CapSense_Filter.c **** ****************************************************************************//**
1267:Generated_Source\PSoC4/CapSense_Filter.c **** *
1268:Generated_Source\PSoC4/CapSense_Filter.c **** * \brief
1269:Generated_Source\PSoC4/CapSense_Filter.c **** *  Initializes the average filter.
1270:Generated_Source\PSoC4/CapSense_Filter.c **** *
1271:Generated_Source\PSoC4/CapSense_Filter.c **** * \details
1272:Generated_Source\PSoC4/CapSense_Filter.c **** *  Initializes the average filter.
1273:Generated_Source\PSoC4/CapSense_Filter.c **** *
1274:Generated_Source\PSoC4/CapSense_Filter.c **** * \param ptrFilterHistObj
1275:Generated_Source\PSoC4/CapSense_Filter.c **** *  The pointer to the filter RAM object of the sensor.
1276:Generated_Source\PSoC4/CapSense_Filter.c **** *
1277:Generated_Source\PSoC4/CapSense_Filter.c **** * \param ptrSensorObj
1278:Generated_Source\PSoC4/CapSense_Filter.c **** *  The pointer to the sensor RAM object of the sensor.
1279:Generated_Source\PSoC4/CapSense_Filter.c **** *
1280:Generated_Source\PSoC4/CapSense_Filter.c **** * \param wdType
1281:Generated_Source\PSoC4/CapSense_Filter.c **** *  Specifies the type of a widget.
1282:Generated_Source\PSoC4/CapSense_Filter.c **** *
1283:Generated_Source\PSoC4/CapSense_Filter.c **** *******************************************************************************/
1284:Generated_Source\PSoC4/CapSense_Filter.c **** void CapSense_InitializeAverageInternal(CapSense_PTR_FILTER_VARIANT ptrFilterHistObj,\
1285:Generated_Source\PSoC4/CapSense_Filter.c ****                                                   CapSense_RAM_SNS_STRUCT *ptrSensorObj, uint32 wdT
1286:Generated_Source\PSoC4/CapSense_Filter.c **** {
1287:Generated_Source\PSoC4/CapSense_Filter.c ****     uint32 freqChannel;
1288:Generated_Source\PSoC4/CapSense_Filter.c **** 
1289:Generated_Source\PSoC4/CapSense_Filter.c ****     for(freqChannel = CapSense_NUM_SCAN_FREQS; freqChannel-- > 0u;)
1290:Generated_Source\PSoC4/CapSense_Filter.c ****     {
1291:Generated_Source\PSoC4/CapSense_Filter.c ****         if ((CapSense_WD_TYPE_ENUM)wdType != CapSense_WD_PROXIMITY_E)
1292:Generated_Source\PSoC4/CapSense_Filter.c ****         {
1293:Generated_Source\PSoC4/CapSense_Filter.c ****             #if (CapSense_REGULAR_SENSOR_EN && CapSense_REGULAR_RC_AVERAGE_FILTER_EN)
1294:Generated_Source\PSoC4/CapSense_Filter.c ****                 ptrFilterHistObj.ptrRegular->regularChannel[freqChannel].avgHistory[0] = ptrSensorO
1295:Generated_Source\PSoC4/CapSense_Filter.c ****                 #if (CapSense_REGULAR_AVERAGE_LEN == CapSense_AVERAGE_FILTER_LEN_4)
1296:Generated_Source\PSoC4/CapSense_Filter.c ****                     ptrFilterHistObj.ptrRegular->regularChannel[freqChannel].avgHistory[1u] = ptrSe
1297:Generated_Source\PSoC4/CapSense_Filter.c ****                     ptrFilterHistObj.ptrRegular->regularChannel[freqChannel].avgHistory[2u] = ptrSe
1298:Generated_Source\PSoC4/CapSense_Filter.c ****                 #endif /* CapSense_REGULAR_AVERAGE_LEN == CapSense_AVERAGE_FILTER_LEN_4 */
1299:Generated_Source\PSoC4/CapSense_Filter.c ****             #endif /* (CapSense_REGULAR_SENSOR_EN) */
1300:Generated_Source\PSoC4/CapSense_Filter.c ****         }
1301:Generated_Source\PSoC4/CapSense_Filter.c ****         else
1302:Generated_Source\PSoC4/CapSense_Filter.c ****         {
1303:Generated_Source\PSoC4/CapSense_Filter.c ****             #if (CapSense_PROXIMITY_SENSOR_EN && CapSense_PROX_RC_AVERAGE_FILTER_EN)
1304:Generated_Source\PSoC4/CapSense_Filter.c ****                 ptrFilterHistObj.ptrProx->proxChannel[freqChannel].avgHistory[0] = ptrSensorObj->ra
1305:Generated_Source\PSoC4/CapSense_Filter.c ****                     #if (CapSense_PROX_AVERAGE_LEN == CapSense_AVERAGE_FILTER_LEN_4)
1306:Generated_Source\PSoC4/CapSense_Filter.c ****                         ptrFilterHistObj.ptrProx->proxChannel[freqChannel].avgHistory[1u] = ptrSens
1307:Generated_Source\PSoC4/CapSense_Filter.c ****                         ptrFilterHistObj.ptrProx->proxChannel[freqChannel].avgHistory[2u] = ptrSens
1308:Generated_Source\PSoC4/CapSense_Filter.c ****                     #endif /* CapSense_REGULAR_AVERAGE_LEN == CapSense_AVERAGE_FILTER_LEN_4 */
1309:Generated_Source\PSoC4/CapSense_Filter.c ****             #endif /* (CapSense_PROXIMITY_SENSOR_EN) */
1310:Generated_Source\PSoC4/CapSense_Filter.c ****         }
1311:Generated_Source\PSoC4/CapSense_Filter.c ****     }
1312:Generated_Source\PSoC4/CapSense_Filter.c **** }
1313:Generated_Source\PSoC4/CapSense_Filter.c **** 
ARM GAS  C:\Users\zack.li\AppData\Local\Temp\ccvbPEtI.s 			page 30


1314:Generated_Source\PSoC4/CapSense_Filter.c **** 
1315:Generated_Source\PSoC4/CapSense_Filter.c **** /*******************************************************************************
1316:Generated_Source\PSoC4/CapSense_Filter.c **** * Function Name: CapSense_RunAverageInternal
1317:Generated_Source\PSoC4/CapSense_Filter.c **** ****************************************************************************//**
1318:Generated_Source\PSoC4/CapSense_Filter.c **** *
1319:Generated_Source\PSoC4/CapSense_Filter.c **** * \brief
1320:Generated_Source\PSoC4/CapSense_Filter.c **** *  Runs the average filter.
1321:Generated_Source\PSoC4/CapSense_Filter.c **** *
1322:Generated_Source\PSoC4/CapSense_Filter.c **** * \details
1323:Generated_Source\PSoC4/CapSense_Filter.c **** *  Runs the average filter.
1324:Generated_Source\PSoC4/CapSense_Filter.c **** *
1325:Generated_Source\PSoC4/CapSense_Filter.c **** * \param ptrFilterHistObj
1326:Generated_Source\PSoC4/CapSense_Filter.c **** *  The pointer to the filter RAM object of the sensor.
1327:Generated_Source\PSoC4/CapSense_Filter.c **** *
1328:Generated_Source\PSoC4/CapSense_Filter.c **** * \param ptrSensorObj
1329:Generated_Source\PSoC4/CapSense_Filter.c **** *  The pointer to the sensor RAM object of the sensor.
1330:Generated_Source\PSoC4/CapSense_Filter.c **** *
1331:Generated_Source\PSoC4/CapSense_Filter.c **** * \param wdType
1332:Generated_Source\PSoC4/CapSense_Filter.c **** *  Specifies the type of a widget.
1333:Generated_Source\PSoC4/CapSense_Filter.c **** *
1334:Generated_Source\PSoC4/CapSense_Filter.c **** *******************************************************************************/
1335:Generated_Source\PSoC4/CapSense_Filter.c **** void CapSense_RunAverageInternal(CapSense_PTR_FILTER_VARIANT ptrFilterHistObj,\
1336:Generated_Source\PSoC4/CapSense_Filter.c ****                                            CapSense_RAM_SNS_STRUCT *ptrSensorObj, uint32 wdType)
1337:Generated_Source\PSoC4/CapSense_Filter.c **** {
1338:Generated_Source\PSoC4/CapSense_Filter.c ****     uint32 freqChannel;
1339:Generated_Source\PSoC4/CapSense_Filter.c ****     uint32 temp;
1340:Generated_Source\PSoC4/CapSense_Filter.c **** 
1341:Generated_Source\PSoC4/CapSense_Filter.c ****     for(freqChannel = CapSense_NUM_SCAN_FREQS; freqChannel-- > 0u;)
1342:Generated_Source\PSoC4/CapSense_Filter.c ****     {
1343:Generated_Source\PSoC4/CapSense_Filter.c ****         if ((CapSense_WD_TYPE_ENUM)wdType != CapSense_WD_PROXIMITY_E)
1344:Generated_Source\PSoC4/CapSense_Filter.c ****         {
1345:Generated_Source\PSoC4/CapSense_Filter.c ****             #if (CapSense_REGULAR_SENSOR_EN && CapSense_REGULAR_RC_AVERAGE_FILTER_EN)
1346:Generated_Source\PSoC4/CapSense_Filter.c ****                 #if (CapSense_REGULAR_AVERAGE_LEN == CapSense_AVERAGE_FILTER_LEN_2)
1347:Generated_Source\PSoC4/CapSense_Filter.c ****                     temp = ((uint32)ptrSensorObj->raw[freqChannel] +
1348:Generated_Source\PSoC4/CapSense_Filter.c ****                             (uint32)ptrFilterHistObj.ptrRegular->regularChannel[freqChannel].avgHis
1349:Generated_Source\PSoC4/CapSense_Filter.c ****                     ptrFilterHistObj.ptrRegular->regularChannel[freqChannel].avgHistory[0] = ptrSen
1350:Generated_Source\PSoC4/CapSense_Filter.c ****                     ptrSensorObj->raw[freqChannel] = LO16(temp);
1351:Generated_Source\PSoC4/CapSense_Filter.c ****                 #else
1352:Generated_Source\PSoC4/CapSense_Filter.c ****                     temp = ((uint32)ptrSensorObj->raw[freqChannel] +
1353:Generated_Source\PSoC4/CapSense_Filter.c ****                             (uint32)ptrFilterHistObj.ptrRegular->regularChannel[freqChannel].avgHis
1354:Generated_Source\PSoC4/CapSense_Filter.c ****                             (uint32)ptrFilterHistObj.ptrRegular->regularChannel[freqChannel].avgHis
1355:Generated_Source\PSoC4/CapSense_Filter.c ****                             (uint32)ptrFilterHistObj.ptrRegular->regularChannel[freqChannel].avgHis
1356:Generated_Source\PSoC4/CapSense_Filter.c **** 
1357:Generated_Source\PSoC4/CapSense_Filter.c ****                     ptrFilterHistObj.ptrRegular->regularChannel[freqChannel].avgHistory[2u] =
1358:Generated_Source\PSoC4/CapSense_Filter.c ****                     ptrFilterHistObj.ptrRegular->regularChannel[freqChannel].avgHistory[1u];
1359:Generated_Source\PSoC4/CapSense_Filter.c ****                     ptrFilterHistObj.ptrRegular->regularChannel[freqChannel].avgHistory[1u] =
1360:Generated_Source\PSoC4/CapSense_Filter.c ****                     ptrFilterHistObj.ptrRegular->regularChannel[freqChannel].avgHistory[0];
1361:Generated_Source\PSoC4/CapSense_Filter.c ****                     ptrFilterHistObj.ptrRegular->regularChannel[freqChannel].avgHistory[0] = ptrSen
1362:Generated_Source\PSoC4/CapSense_Filter.c ****                     ptrSensorObj->raw[freqChannel] = LO16(temp);
1363:Generated_Source\PSoC4/CapSense_Filter.c ****                 #endif /* CapSense_REGULAR_AVERAGE_LEN == CapSense_AVERAGE_FILTER_LEN_4 */
1364:Generated_Source\PSoC4/CapSense_Filter.c ****             #endif /* (CapSense_REGULAR_SENSOR_EN) */
1365:Generated_Source\PSoC4/CapSense_Filter.c ****         }
1366:Generated_Source\PSoC4/CapSense_Filter.c ****         else
1367:Generated_Source\PSoC4/CapSense_Filter.c ****         {
1368:Generated_Source\PSoC4/CapSense_Filter.c ****             #if (CapSense_PROXIMITY_SENSOR_EN && CapSense_PROX_RC_AVERAGE_FILTER_EN)
1369:Generated_Source\PSoC4/CapSense_Filter.c ****                 #if (CapSense_PROX_AVERAGE_LEN == CapSense_AVERAGE_FILTER_LEN_2)
1370:Generated_Source\PSoC4/CapSense_Filter.c ****                     temp = ((uint32)ptrSensorObj->raw[freqChannel] +
ARM GAS  C:\Users\zack.li\AppData\Local\Temp\ccvbPEtI.s 			page 31


1371:Generated_Source\PSoC4/CapSense_Filter.c ****                             (uint32)ptrFilterHistObj.ptrProx->proxChannel[freqChannel].avgHistory[0
1372:Generated_Source\PSoC4/CapSense_Filter.c ****                     ptrFilterHistObj.ptrProx->proxChannel[freqChannel].avgHistory[0] = ptrSensorObj
1373:Generated_Source\PSoC4/CapSense_Filter.c ****                     ptrSensorObj->raw[freqChannel] = LO16(temp);
1374:Generated_Source\PSoC4/CapSense_Filter.c ****                 #else
1375:Generated_Source\PSoC4/CapSense_Filter.c ****                     temp = ((uint32)ptrSensorObj->raw[freqChannel] +
1376:Generated_Source\PSoC4/CapSense_Filter.c ****                             (uint32)ptrFilterHistObj.ptrProx->proxChannel[freqChannel].avgHistory[0
1377:Generated_Source\PSoC4/CapSense_Filter.c ****                             (uint32)ptrFilterHistObj.ptrProx->proxChannel[freqChannel].avgHistory[1
1378:Generated_Source\PSoC4/CapSense_Filter.c ****                             (uint32)ptrFilterHistObj.ptrProx->proxChannel[freqChannel].avgHistory[2
1379:Generated_Source\PSoC4/CapSense_Filter.c **** 
1380:Generated_Source\PSoC4/CapSense_Filter.c ****                     ptrFilterHistObj.ptrProx->proxChannel[freqChannel].avgHistory[2u] =
1381:Generated_Source\PSoC4/CapSense_Filter.c ****                     ptrFilterHistObj.ptrProx->proxChannel[freqChannel].avgHistory[1u];
1382:Generated_Source\PSoC4/CapSense_Filter.c ****                     ptrFilterHistObj.ptrProx->proxChannel[freqChannel].avgHistory[1u] =
1383:Generated_Source\PSoC4/CapSense_Filter.c ****                     ptrFilterHistObj.ptrProx->proxChannel[freqChannel].avgHistory[0];
1384:Generated_Source\PSoC4/CapSense_Filter.c ****                     ptrFilterHistObj.ptrProx->proxChannel[freqChannel].avgHistory[0] = ptrSensorObj
1385:Generated_Source\PSoC4/CapSense_Filter.c ****                     ptrSensorObj->raw[freqChannel] = LO16(temp);
1386:Generated_Source\PSoC4/CapSense_Filter.c ****                 #endif /* CapSense_PROX_AVERAGE_LEN == CapSense_AVERAGE_FILTER_LEN_4 */
1387:Generated_Source\PSoC4/CapSense_Filter.c ****             #endif /* (CapSense_PROXIMITY_SENSOR_EN) */
1388:Generated_Source\PSoC4/CapSense_Filter.c ****         }
1389:Generated_Source\PSoC4/CapSense_Filter.c ****     }
1390:Generated_Source\PSoC4/CapSense_Filter.c **** }
1391:Generated_Source\PSoC4/CapSense_Filter.c **** #endif /* (CapSense_REGULAR_RC_AVERAGE_FILTER_EN || CapSense_PROX_RC_AVERAGE_FILTER_EN) */
1392:Generated_Source\PSoC4/CapSense_Filter.c **** 
1393:Generated_Source\PSoC4/CapSense_Filter.c **** #if (CapSense_ENABLE == CapSense_ALP_FILTER_EN)
1394:Generated_Source\PSoC4/CapSense_Filter.c **** /*******************************************************************************
1395:Generated_Source\PSoC4/CapSense_Filter.c **** * Function Name: CapSense_InitializeALP
1396:Generated_Source\PSoC4/CapSense_Filter.c **** ****************************************************************************//**
1397:Generated_Source\PSoC4/CapSense_Filter.c **** *
1398:Generated_Source\PSoC4/CapSense_Filter.c **** * \brief
1399:Generated_Source\PSoC4/CapSense_Filter.c **** *  Initializes the ALP filter history.
1400:Generated_Source\PSoC4/CapSense_Filter.c **** *
1401:Generated_Source\PSoC4/CapSense_Filter.c **** * \details
1402:Generated_Source\PSoC4/CapSense_Filter.c **** *  Initializes the ALP filter history.
1403:Generated_Source\PSoC4/CapSense_Filter.c **** *
1404:Generated_Source\PSoC4/CapSense_Filter.c **** * \param widgetId
1405:Generated_Source\PSoC4/CapSense_Filter.c **** *  Specifies the ID number of the widget.
1406:Generated_Source\PSoC4/CapSense_Filter.c **** *
1407:Generated_Source\PSoC4/CapSense_Filter.c **** * \param sensorId
1408:Generated_Source\PSoC4/CapSense_Filter.c **** *  Specifies the ID number of the sensor in the widget.
1409:Generated_Source\PSoC4/CapSense_Filter.c **** *
1410:Generated_Source\PSoC4/CapSense_Filter.c **** *******************************************************************************/
1411:Generated_Source\PSoC4/CapSense_Filter.c **** void CapSense_InitializeALP(uint32 widgetId, uint32 sensorId)
1412:Generated_Source\PSoC4/CapSense_Filter.c **** {
1413:Generated_Source\PSoC4/CapSense_Filter.c ****     CapSense_FLASH_WD_STRUCT const *ptrWidget = &CapSense_dsFlash.wdgtArray[widgetId];
1414:Generated_Source\PSoC4/CapSense_Filter.c ****     CapSense_RAM_SNS_STRUCT *ptrSensor = NULL;
1415:Generated_Source\PSoC4/CapSense_Filter.c ****     CapSense_PTR_FILTER_VARIANT ptrFilterHistObj;
1416:Generated_Source\PSoC4/CapSense_Filter.c **** 
1417:Generated_Source\PSoC4/CapSense_Filter.c ****     /* Find pointer to specified sensor object */
1418:Generated_Source\PSoC4/CapSense_Filter.c ****     ptrSensor = ptrWidget->ptr2SnsRam;
1419:Generated_Source\PSoC4/CapSense_Filter.c ****     ptrSensor = &ptrSensor[sensorId];
1420:Generated_Source\PSoC4/CapSense_Filter.c **** 
1421:Generated_Source\PSoC4/CapSense_Filter.c ****     /* Find pointer to specified filter sensor object */
1422:Generated_Source\PSoC4/CapSense_Filter.c ****     ptrFilterHistObj.ptr = ptrWidget->ptr2FltrHistory;
1423:Generated_Source\PSoC4/CapSense_Filter.c ****     ptrFilterHistObj.ptrAlp = &ptrFilterHistObj.ptrAlp[sensorId];
1424:Generated_Source\PSoC4/CapSense_Filter.c ****     CapSense_InitializeALPInternal(ptrFilterHistObj, ptrSensor, (uint32)ptrWidget->wdgtType);
1425:Generated_Source\PSoC4/CapSense_Filter.c **** }
1426:Generated_Source\PSoC4/CapSense_Filter.c **** 
1427:Generated_Source\PSoC4/CapSense_Filter.c **** 
ARM GAS  C:\Users\zack.li\AppData\Local\Temp\ccvbPEtI.s 			page 32


1428:Generated_Source\PSoC4/CapSense_Filter.c **** /*******************************************************************************
1429:Generated_Source\PSoC4/CapSense_Filter.c **** * Function Name: CapSense_RunALP
1430:Generated_Source\PSoC4/CapSense_Filter.c **** ****************************************************************************//**
1431:Generated_Source\PSoC4/CapSense_Filter.c **** *
1432:Generated_Source\PSoC4/CapSense_Filter.c **** * \brief
1433:Generated_Source\PSoC4/CapSense_Filter.c **** *  Executes the ALP filter algorithm on a sensor indicated by an input
1434:Generated_Source\PSoC4/CapSense_Filter.c **** *  parameter.
1435:Generated_Source\PSoC4/CapSense_Filter.c **** *
1436:Generated_Source\PSoC4/CapSense_Filter.c **** * \details
1437:Generated_Source\PSoC4/CapSense_Filter.c **** *  Executes the ALP filter algorithm on a sensor indicated by an input
1438:Generated_Source\PSoC4/CapSense_Filter.c **** *  parameter.
1439:Generated_Source\PSoC4/CapSense_Filter.c **** *
1440:Generated_Source\PSoC4/CapSense_Filter.c **** * \param widgetId
1441:Generated_Source\PSoC4/CapSense_Filter.c **** *  Specifies the ID number of the widget.
1442:Generated_Source\PSoC4/CapSense_Filter.c **** *
1443:Generated_Source\PSoC4/CapSense_Filter.c **** * \param sensorId
1444:Generated_Source\PSoC4/CapSense_Filter.c **** *  Specifies the ID number of the sensor in the widget.
1445:Generated_Source\PSoC4/CapSense_Filter.c **** *
1446:Generated_Source\PSoC4/CapSense_Filter.c **** *******************************************************************************/
1447:Generated_Source\PSoC4/CapSense_Filter.c **** void CapSense_RunALP(uint32 widgetId, uint32 sensorId)
1448:Generated_Source\PSoC4/CapSense_Filter.c **** {
1449:Generated_Source\PSoC4/CapSense_Filter.c ****     CapSense_FLASH_WD_STRUCT const *ptrWidget = &CapSense_dsFlash.wdgtArray[widgetId];
1450:Generated_Source\PSoC4/CapSense_Filter.c ****     CapSense_RAM_SNS_STRUCT *ptrSensor = NULL;
1451:Generated_Source\PSoC4/CapSense_Filter.c ****     CapSense_PTR_FILTER_VARIANT ptrFilterHistObj;
1452:Generated_Source\PSoC4/CapSense_Filter.c ****     ALP_FLTR_CONFIG_STRUCT alpFilterConfig;
1453:Generated_Source\PSoC4/CapSense_Filter.c ****     ALP_FLTR_CONFIG_STRUCT *ptrAlpFilterConfig = &alpFilterConfig;
1454:Generated_Source\PSoC4/CapSense_Filter.c ****     CapSense_RAM_WD_BASE_STRUCT *ptrRamWidget = ptrWidget->ptr2WdgtRam;
1455:Generated_Source\PSoC4/CapSense_Filter.c **** 
1456:Generated_Source\PSoC4/CapSense_Filter.c ****     /* Find pointer to specified sensor object */
1457:Generated_Source\PSoC4/CapSense_Filter.c ****     ptrSensor = ptrWidget->ptr2SnsRam;
1458:Generated_Source\PSoC4/CapSense_Filter.c ****     ptrSensor = &ptrSensor[sensorId];
1459:Generated_Source\PSoC4/CapSense_Filter.c **** 
1460:Generated_Source\PSoC4/CapSense_Filter.c ****     ptrAlpFilterConfig->configParam0 = ptrRamWidget->alpOnTh;
1461:Generated_Source\PSoC4/CapSense_Filter.c ****     ptrAlpFilterConfig->configParam1 = ptrRamWidget->alpOffTh;
1462:Generated_Source\PSoC4/CapSense_Filter.c ****     ptrAlpFilterConfig->configParam2 = ptrRamWidget->fingerTh;
1463:Generated_Source\PSoC4/CapSense_Filter.c ****     ptrAlpFilterConfig->configParam3 = ptrRamWidget->noiseTh;
1464:Generated_Source\PSoC4/CapSense_Filter.c ****     ptrAlpFilterConfig->configParam4 = ptrRamWidget->hysteresis;
1465:Generated_Source\PSoC4/CapSense_Filter.c **** 
1466:Generated_Source\PSoC4/CapSense_Filter.c ****     /* Find pointer to specified filter sensor object */
1467:Generated_Source\PSoC4/CapSense_Filter.c ****     ptrFilterHistObj.ptr = ptrWidget->ptr2FltrHistory;
1468:Generated_Source\PSoC4/CapSense_Filter.c ****     ptrFilterHistObj.ptrAlp = &ptrFilterHistObj.ptrAlp[sensorId];
1469:Generated_Source\PSoC4/CapSense_Filter.c **** 
1470:Generated_Source\PSoC4/CapSense_Filter.c ****     if ((CapSense_WD_TYPE_ENUM)ptrWidget->wdgtType != CapSense_WD_PROXIMITY_E)
1471:Generated_Source\PSoC4/CapSense_Filter.c ****     {
1472:Generated_Source\PSoC4/CapSense_Filter.c ****         #if (CapSense_REGULAR_SENSOR_EN)
1473:Generated_Source\PSoC4/CapSense_Filter.c ****             ptrAlpFilterConfig->configParam5 = CapSense_REGULAR_RC_ALP_FILTER_COEFF;
1474:Generated_Source\PSoC4/CapSense_Filter.c ****         #endif /* (CapSense_REGULAR_SENSOR_EN) */
1475:Generated_Source\PSoC4/CapSense_Filter.c ****     }
1476:Generated_Source\PSoC4/CapSense_Filter.c ****     else
1477:Generated_Source\PSoC4/CapSense_Filter.c ****     {
1478:Generated_Source\PSoC4/CapSense_Filter.c ****         #if (CapSense_PROXIMITY_SENSOR_EN)
1479:Generated_Source\PSoC4/CapSense_Filter.c ****             ptrAlpFilterConfig->configParam5 = CapSense_PROX_RC_ALP_FILTER_COEFF;
1480:Generated_Source\PSoC4/CapSense_Filter.c ****         #endif /* (CapSense_PROXIMITY_SENSOR_EN) */
1481:Generated_Source\PSoC4/CapSense_Filter.c ****     }
1482:Generated_Source\PSoC4/CapSense_Filter.c ****     CapSense_RunALPInternal(ptrFilterHistObj, ptrAlpFilterConfig, ptrSensor, (uint32)ptrWidget->wdg
1483:Generated_Source\PSoC4/CapSense_Filter.c **** }
1484:Generated_Source\PSoC4/CapSense_Filter.c **** 
ARM GAS  C:\Users\zack.li\AppData\Local\Temp\ccvbPEtI.s 			page 33


1485:Generated_Source\PSoC4/CapSense_Filter.c **** 
1486:Generated_Source\PSoC4/CapSense_Filter.c **** /*******************************************************************************
1487:Generated_Source\PSoC4/CapSense_Filter.c **** * Function Name: CapSense_InitializeALPInternal
1488:Generated_Source\PSoC4/CapSense_Filter.c **** ****************************************************************************//**
1489:Generated_Source\PSoC4/CapSense_Filter.c **** *
1490:Generated_Source\PSoC4/CapSense_Filter.c **** * \brief
1491:Generated_Source\PSoC4/CapSense_Filter.c **** *  Initializes the ALP filter.
1492:Generated_Source\PSoC4/CapSense_Filter.c **** *
1493:Generated_Source\PSoC4/CapSense_Filter.c **** * \details
1494:Generated_Source\PSoC4/CapSense_Filter.c **** *  Initializes the ALP filter.
1495:Generated_Source\PSoC4/CapSense_Filter.c **** *
1496:Generated_Source\PSoC4/CapSense_Filter.c **** * \param ptrFilterHistObj
1497:Generated_Source\PSoC4/CapSense_Filter.c **** *  The pointer to the filter RAM object of the sensor.
1498:Generated_Source\PSoC4/CapSense_Filter.c **** *
1499:Generated_Source\PSoC4/CapSense_Filter.c **** * \param ptrSensorObj
1500:Generated_Source\PSoC4/CapSense_Filter.c **** *  The pointer to the sensor RAM object of the sensor.
1501:Generated_Source\PSoC4/CapSense_Filter.c **** *
1502:Generated_Source\PSoC4/CapSense_Filter.c **** * \param wdType
1503:Generated_Source\PSoC4/CapSense_Filter.c **** *  Specifies the type of a widget.
1504:Generated_Source\PSoC4/CapSense_Filter.c **** *
1505:Generated_Source\PSoC4/CapSense_Filter.c **** *
1506:Generated_Source\PSoC4/CapSense_Filter.c **** *******************************************************************************/
1507:Generated_Source\PSoC4/CapSense_Filter.c **** void CapSense_InitializeALPInternal(CapSense_PTR_FILTER_VARIANT ptrFilterHistObj,
1508:Generated_Source\PSoC4/CapSense_Filter.c ****                                             CapSense_RAM_SNS_STRUCT *ptrSensorObj,
1509:Generated_Source\PSoC4/CapSense_Filter.c ****                                             uint32 wdType)
1510:Generated_Source\PSoC4/CapSense_Filter.c **** {
1511:Generated_Source\PSoC4/CapSense_Filter.c ****     uint32 freqChannel;
1512:Generated_Source\PSoC4/CapSense_Filter.c **** 
1513:Generated_Source\PSoC4/CapSense_Filter.c ****     for(freqChannel = CapSense_NUM_SCAN_FREQS; freqChannel-- > 0u;)
1514:Generated_Source\PSoC4/CapSense_Filter.c ****     {
1515:Generated_Source\PSoC4/CapSense_Filter.c ****         if ((CapSense_WD_TYPE_ENUM)wdType != CapSense_WD_PROXIMITY_E)
1516:Generated_Source\PSoC4/CapSense_Filter.c ****         {
1517:Generated_Source\PSoC4/CapSense_Filter.c ****             #if (CapSense_REGULAR_SENSOR_EN && CapSense_REGULAR_RC_ALP_FILTER_EN)
1518:Generated_Source\PSoC4/CapSense_Filter.c ****                 ALP_Initialize(&ptrFilterHistObj.ptrAlp->channel[freqChannel], &ptrSensorObj->raw[f
1519:Generated_Source\PSoC4/CapSense_Filter.c ****             #endif
1520:Generated_Source\PSoC4/CapSense_Filter.c ****         }
1521:Generated_Source\PSoC4/CapSense_Filter.c ****         else
1522:Generated_Source\PSoC4/CapSense_Filter.c ****         {
1523:Generated_Source\PSoC4/CapSense_Filter.c ****             #if (CapSense_PROXIMITY_SENSOR_EN && CapSense_PROX_RC_ALP_FILTER_EN)
1524:Generated_Source\PSoC4/CapSense_Filter.c ****                 ALP_Initialize(&ptrFilterHistObj.ptrAlp->channel[freqChannel], &ptrSensorObj->raw[f
1525:Generated_Source\PSoC4/CapSense_Filter.c ****             #endif
1526:Generated_Source\PSoC4/CapSense_Filter.c ****         }
1527:Generated_Source\PSoC4/CapSense_Filter.c ****     }
1528:Generated_Source\PSoC4/CapSense_Filter.c **** }
1529:Generated_Source\PSoC4/CapSense_Filter.c **** 
1530:Generated_Source\PSoC4/CapSense_Filter.c **** /*******************************************************************************
1531:Generated_Source\PSoC4/CapSense_Filter.c **** * Function Name: CapSense_ConfigRunALPInternal
1532:Generated_Source\PSoC4/CapSense_Filter.c **** ****************************************************************************//**
1533:Generated_Source\PSoC4/CapSense_Filter.c **** *
1534:Generated_Source\PSoC4/CapSense_Filter.c **** * \brief
1535:Generated_Source\PSoC4/CapSense_Filter.c **** *  Prepares ALP configuration structure and runs the filter.
1536:Generated_Source\PSoC4/CapSense_Filter.c **** *
1537:Generated_Source\PSoC4/CapSense_Filter.c **** * \details
1538:Generated_Source\PSoC4/CapSense_Filter.c **** *  Prepares ALP configuration structure and runs the filter.
1539:Generated_Source\PSoC4/CapSense_Filter.c **** *
1540:Generated_Source\PSoC4/CapSense_Filter.c **** * \param ptrFilterHistObj
1541:Generated_Source\PSoC4/CapSense_Filter.c **** *  The pointer to the filter RAM object of the sensor.
ARM GAS  C:\Users\zack.li\AppData\Local\Temp\ccvbPEtI.s 			page 34


1542:Generated_Source\PSoC4/CapSense_Filter.c **** *
1543:Generated_Source\PSoC4/CapSense_Filter.c **** * \param ptrRamWdgt
1544:Generated_Source\PSoC4/CapSense_Filter.c **** *  The pointer to the RAM widget object.
1545:Generated_Source\PSoC4/CapSense_Filter.c **** *
1546:Generated_Source\PSoC4/CapSense_Filter.c **** * \param ptrSensorObj
1547:Generated_Source\PSoC4/CapSense_Filter.c **** *  The pointer to the sensor RAM object of the sensor.
1548:Generated_Source\PSoC4/CapSense_Filter.c **** *
1549:Generated_Source\PSoC4/CapSense_Filter.c **** * \param wdType
1550:Generated_Source\PSoC4/CapSense_Filter.c **** *  Specifies the type of a widget.
1551:Generated_Source\PSoC4/CapSense_Filter.c **** *
1552:Generated_Source\PSoC4/CapSense_Filter.c **** *******************************************************************************/
1553:Generated_Source\PSoC4/CapSense_Filter.c **** void CapSense_ConfigRunALPInternal(CapSense_PTR_FILTER_VARIANT ptrFilterHistObj,
1554:Generated_Source\PSoC4/CapSense_Filter.c ****                                     CapSense_RAM_WD_BASE_STRUCT *ptrRamWdgt,
1555:Generated_Source\PSoC4/CapSense_Filter.c ****                                     CapSense_RAM_SNS_STRUCT *ptrSensorObj,
1556:Generated_Source\PSoC4/CapSense_Filter.c ****                                     uint32 wdType)
1557:Generated_Source\PSoC4/CapSense_Filter.c **** {
1558:Generated_Source\PSoC4/CapSense_Filter.c ****     ALP_FLTR_CONFIG_STRUCT alpFilterConfig;
1559:Generated_Source\PSoC4/CapSense_Filter.c **** 
1560:Generated_Source\PSoC4/CapSense_Filter.c ****     alpFilterConfig.configParam0 = ptrRamWdgt->alpOnTh;
1561:Generated_Source\PSoC4/CapSense_Filter.c ****     alpFilterConfig.configParam1 = ptrRamWdgt->alpOffTh;
1562:Generated_Source\PSoC4/CapSense_Filter.c ****     alpFilterConfig.configParam2 = ptrRamWdgt->fingerTh;
1563:Generated_Source\PSoC4/CapSense_Filter.c ****     alpFilterConfig.configParam3 = ptrRamWdgt->noiseTh;
1564:Generated_Source\PSoC4/CapSense_Filter.c ****     alpFilterConfig.configParam4 = ptrRamWdgt->hysteresis;
1565:Generated_Source\PSoC4/CapSense_Filter.c **** 
1566:Generated_Source\PSoC4/CapSense_Filter.c ****     CapSense_RunALPInternal(ptrFilterHistObj, &alpFilterConfig, ptrSensorObj, wdType);
1567:Generated_Source\PSoC4/CapSense_Filter.c **** }
1568:Generated_Source\PSoC4/CapSense_Filter.c **** 
1569:Generated_Source\PSoC4/CapSense_Filter.c **** /*******************************************************************************
1570:Generated_Source\PSoC4/CapSense_Filter.c **** * Function Name: CapSense_RunALPInternal
1571:Generated_Source\PSoC4/CapSense_Filter.c **** ****************************************************************************//**
1572:Generated_Source\PSoC4/CapSense_Filter.c **** *
1573:Generated_Source\PSoC4/CapSense_Filter.c **** * \brief
1574:Generated_Source\PSoC4/CapSense_Filter.c **** *  Runs the ALP filter.
1575:Generated_Source\PSoC4/CapSense_Filter.c **** *
1576:Generated_Source\PSoC4/CapSense_Filter.c **** * \details
1577:Generated_Source\PSoC4/CapSense_Filter.c **** *  Runs the ALP filter.
1578:Generated_Source\PSoC4/CapSense_Filter.c **** *
1579:Generated_Source\PSoC4/CapSense_Filter.c **** * \param ptrFilterHistObj
1580:Generated_Source\PSoC4/CapSense_Filter.c **** *  The pointer to the filter RAM object of the sensor.
1581:Generated_Source\PSoC4/CapSense_Filter.c **** *
1582:Generated_Source\PSoC4/CapSense_Filter.c **** * \param ptrAlpFilterConfig
1583:Generated_Source\PSoC4/CapSense_Filter.c **** *  The pointer to the filter configuration object of the sensor.
1584:Generated_Source\PSoC4/CapSense_Filter.c **** *
1585:Generated_Source\PSoC4/CapSense_Filter.c **** * \param ptrSensorObj
1586:Generated_Source\PSoC4/CapSense_Filter.c **** *  The pointer to the sensor RAM object of the sensor.
1587:Generated_Source\PSoC4/CapSense_Filter.c **** *
1588:Generated_Source\PSoC4/CapSense_Filter.c **** * \param wdType
1589:Generated_Source\PSoC4/CapSense_Filter.c **** *  Specifies the type of a widget.
1590:Generated_Source\PSoC4/CapSense_Filter.c **** *
1591:Generated_Source\PSoC4/CapSense_Filter.c **** *******************************************************************************/
1592:Generated_Source\PSoC4/CapSense_Filter.c **** void CapSense_RunALPInternal(CapSense_PTR_FILTER_VARIANT ptrFilterHistObj,
1593:Generated_Source\PSoC4/CapSense_Filter.c ****                                     ALP_FLTR_CONFIG_STRUCT *ptrAlpFilterConfig,
1594:Generated_Source\PSoC4/CapSense_Filter.c ****                                     CapSense_RAM_SNS_STRUCT *ptrSensorObj,
1595:Generated_Source\PSoC4/CapSense_Filter.c ****                                     uint32 wdType)
1596:Generated_Source\PSoC4/CapSense_Filter.c **** {
1597:Generated_Source\PSoC4/CapSense_Filter.c ****     uint32 freqChannel;
1598:Generated_Source\PSoC4/CapSense_Filter.c **** 
ARM GAS  C:\Users\zack.li\AppData\Local\Temp\ccvbPEtI.s 			page 35


1599:Generated_Source\PSoC4/CapSense_Filter.c ****     for(freqChannel = CapSense_NUM_SCAN_FREQS; freqChannel-- > 0u;)
1600:Generated_Source\PSoC4/CapSense_Filter.c ****     {
1601:Generated_Source\PSoC4/CapSense_Filter.c ****         if ((CapSense_WD_TYPE_ENUM)wdType != CapSense_WD_PROXIMITY_E)
1602:Generated_Source\PSoC4/CapSense_Filter.c ****         {
1603:Generated_Source\PSoC4/CapSense_Filter.c ****             #if (CapSense_REGULAR_SENSOR_EN && CapSense_REGULAR_RC_ALP_FILTER_EN)
1604:Generated_Source\PSoC4/CapSense_Filter.c ****                 ptrAlpFilterConfig->configParam5 = CapSense_REGULAR_RC_ALP_FILTER_COEFF;
1605:Generated_Source\PSoC4/CapSense_Filter.c ****                 ALP_Run(&ptrFilterHistObj.ptrAlp->channel[freqChannel], ptrAlpFilterConfig, &ptrSen
1606:Generated_Source\PSoC4/CapSense_Filter.c ****             #endif
1607:Generated_Source\PSoC4/CapSense_Filter.c ****         }
1608:Generated_Source\PSoC4/CapSense_Filter.c ****         else
1609:Generated_Source\PSoC4/CapSense_Filter.c ****         {
1610:Generated_Source\PSoC4/CapSense_Filter.c ****             #if (CapSense_PROXIMITY_SENSOR_EN && CapSense_PROX_RC_ALP_FILTER_EN)
1611:Generated_Source\PSoC4/CapSense_Filter.c ****                 ptrAlpFilterConfig->configParam5 = CapSense_PROX_RC_ALP_FILTER_COEFF;
1612:Generated_Source\PSoC4/CapSense_Filter.c ****                 ALP_Run(&ptrFilterHistObj.ptrAlp->channel[freqChannel], ptrAlpFilterConfig, &ptrSen
1613:Generated_Source\PSoC4/CapSense_Filter.c ****             #endif
1614:Generated_Source\PSoC4/CapSense_Filter.c ****         }
1615:Generated_Source\PSoC4/CapSense_Filter.c ****     }
1616:Generated_Source\PSoC4/CapSense_Filter.c **** }
1617:Generated_Source\PSoC4/CapSense_Filter.c **** #endif /* (CapSense_ENABLE == CapSense_ALP_FILTER_EN) */
1618:Generated_Source\PSoC4/CapSense_Filter.c **** 
1619:Generated_Source\PSoC4/CapSense_Filter.c **** #if (CapSense_ENABLE == CapSense_RC_FILTER_EN)
1620:Generated_Source\PSoC4/CapSense_Filter.c **** /*******************************************************************************
1621:Generated_Source\PSoC4/CapSense_Filter.c **** * Function Name: CapSense_FtRunEnabledFilters
1622:Generated_Source\PSoC4/CapSense_Filter.c **** ****************************************************************************//**
1623:Generated_Source\PSoC4/CapSense_Filter.c **** *
1624:Generated_Source\PSoC4/CapSense_Filter.c **** * \brief
1625:Generated_Source\PSoC4/CapSense_Filter.c **** *  Runs all enabled filters.
1626:Generated_Source\PSoC4/CapSense_Filter.c **** *
1627:Generated_Source\PSoC4/CapSense_Filter.c **** * \details
1628:Generated_Source\PSoC4/CapSense_Filter.c **** *  Runs all enabled filters.
1629:Generated_Source\PSoC4/CapSense_Filter.c **** *
1630:Generated_Source\PSoC4/CapSense_Filter.c **** * \param widgetId
1631:Generated_Source\PSoC4/CapSense_Filter.c **** *  Specifies the ID number of a widget to update the IIR filter history.
1632:Generated_Source\PSoC4/CapSense_Filter.c **** *
1633:Generated_Source\PSoC4/CapSense_Filter.c **** * \param sensorId
1634:Generated_Source\PSoC4/CapSense_Filter.c **** *  Specifies the ID number of a sensor in the widget to update the IIR
1635:Generated_Source\PSoC4/CapSense_Filter.c **** *  filter history.
1636:Generated_Source\PSoC4/CapSense_Filter.c **** *
1637:Generated_Source\PSoC4/CapSense_Filter.c **** *******************************************************************************/
1638:Generated_Source\PSoC4/CapSense_Filter.c **** void CapSense_FtRunEnabledFilters(uint32 widgetId, uint32 sensorId)
1639:Generated_Source\PSoC4/CapSense_Filter.c **** {
1640:Generated_Source\PSoC4/CapSense_Filter.c ****     CapSense_FLASH_WD_STRUCT const *ptrWidget = &CapSense_dsFlash.wdgtArray[widgetId];
1641:Generated_Source\PSoC4/CapSense_Filter.c ****     CapSense_RAM_SNS_STRUCT *ptrSensor = NULL;
1642:Generated_Source\PSoC4/CapSense_Filter.c ****     CapSense_PTR_FILTER_VARIANT ptrFilterHistObj;
1643:Generated_Source\PSoC4/CapSense_Filter.c **** 
1644:Generated_Source\PSoC4/CapSense_Filter.c ****     /* Find pointer to specified sensor object */
1645:Generated_Source\PSoC4/CapSense_Filter.c ****     ptrSensor = ptrWidget->ptr2SnsRam;
1646:Generated_Source\PSoC4/CapSense_Filter.c ****     ptrSensor = &ptrSensor[sensorId];
1647:Generated_Source\PSoC4/CapSense_Filter.c **** 
1648:Generated_Source\PSoC4/CapSense_Filter.c ****     /* Find pointer to specified filter sensor object */
1649:Generated_Source\PSoC4/CapSense_Filter.c ****     ptrFilterHistObj.ptr = ptrWidget->ptr2FltrHistory;
1650:Generated_Source\PSoC4/CapSense_Filter.c **** 
1651:Generated_Source\PSoC4/CapSense_Filter.c ****     if ((CapSense_WD_TYPE_ENUM)ptrWidget->wdgtType != CapSense_WD_PROXIMITY_E)
1652:Generated_Source\PSoC4/CapSense_Filter.c ****     {
1653:Generated_Source\PSoC4/CapSense_Filter.c ****         #if (0u != CapSense_REGULAR_RC_ALP_FILTER_EN)
1654:Generated_Source\PSoC4/CapSense_Filter.c ****             ptrFilterHistObj.ptr = &ptrFilterHistObj.ptrAlp[sensorId];
1655:Generated_Source\PSoC4/CapSense_Filter.c ****         #elif (0u != CapSense_REGULAR_RC_FILTER_EN)
ARM GAS  C:\Users\zack.li\AppData\Local\Temp\ccvbPEtI.s 			page 36


1656:Generated_Source\PSoC4/CapSense_Filter.c ****             ptrFilterHistObj.ptr = &ptrFilterHistObj.ptrRegular[sensorId];
1657:Generated_Source\PSoC4/CapSense_Filter.c ****         #endif
1658:Generated_Source\PSoC4/CapSense_Filter.c ****     }
1659:Generated_Source\PSoC4/CapSense_Filter.c ****     else
1660:Generated_Source\PSoC4/CapSense_Filter.c ****     {
1661:Generated_Source\PSoC4/CapSense_Filter.c ****         #if (0u != CapSense_PROX_RC_ALP_FILTER_EN)
1662:Generated_Source\PSoC4/CapSense_Filter.c ****             ptrFilterHistObj.ptr = &ptrFilterHistObj.ptrAlp[sensorId];
1663:Generated_Source\PSoC4/CapSense_Filter.c ****         #elif (0u != CapSense_PROX_RC_FILTER_EN)
1664:Generated_Source\PSoC4/CapSense_Filter.c ****             ptrFilterHistObj.ptr = &ptrFilterHistObj.ptrProx[sensorId];
1665:Generated_Source\PSoC4/CapSense_Filter.c ****         #endif
1666:Generated_Source\PSoC4/CapSense_Filter.c ****     }
1667:Generated_Source\PSoC4/CapSense_Filter.c **** 
1668:Generated_Source\PSoC4/CapSense_Filter.c ****     CapSense_FtRunEnabledFiltersInternal(ptrFilterHistObj, ptrSensor, (uint32)ptrWidget->wdgtType);
1669:Generated_Source\PSoC4/CapSense_Filter.c ****     #if (CapSense_ALP_FILTER_EN)
1670:Generated_Source\PSoC4/CapSense_Filter.c ****         CapSense_ConfigRunALPInternal(ptrFilterHistObj, ptrWidget->ptr2WdgtRam, ptrSensor, (uint32)
1671:Generated_Source\PSoC4/CapSense_Filter.c ****     #endif
1672:Generated_Source\PSoC4/CapSense_Filter.c **** }
1673:Generated_Source\PSoC4/CapSense_Filter.c **** 
1674:Generated_Source\PSoC4/CapSense_Filter.c **** 
1675:Generated_Source\PSoC4/CapSense_Filter.c **** /*******************************************************************************
1676:Generated_Source\PSoC4/CapSense_Filter.c **** * Function Name: CapSense_FtRunEnabledFiltersInternal
1677:Generated_Source\PSoC4/CapSense_Filter.c **** ****************************************************************************//**
1678:Generated_Source\PSoC4/CapSense_Filter.c **** *
1679:Generated_Source\PSoC4/CapSense_Filter.c **** * \brief
1680:Generated_Source\PSoC4/CapSense_Filter.c **** *  Runs all enabled filters.
1681:Generated_Source\PSoC4/CapSense_Filter.c **** *
1682:Generated_Source\PSoC4/CapSense_Filter.c **** * \details
1683:Generated_Source\PSoC4/CapSense_Filter.c **** *  Runs all enabled filters.
1684:Generated_Source\PSoC4/CapSense_Filter.c **** *
1685:Generated_Source\PSoC4/CapSense_Filter.c **** * \param ptrFilterHistObj
1686:Generated_Source\PSoC4/CapSense_Filter.c **** *  The pointer to the filter RAM object of the sensor.
1687:Generated_Source\PSoC4/CapSense_Filter.c **** *
1688:Generated_Source\PSoC4/CapSense_Filter.c **** * \param ptrSensorObj
1689:Generated_Source\PSoC4/CapSense_Filter.c **** *  The pointer to the sensor RAM object of the sensor.
1690:Generated_Source\PSoC4/CapSense_Filter.c **** *
1691:Generated_Source\PSoC4/CapSense_Filter.c **** * \param wdType
1692:Generated_Source\PSoC4/CapSense_Filter.c **** *  Specifies the type of a widget.
1693:Generated_Source\PSoC4/CapSense_Filter.c **** *
1694:Generated_Source\PSoC4/CapSense_Filter.c **** *******************************************************************************/
1695:Generated_Source\PSoC4/CapSense_Filter.c **** void CapSense_FtRunEnabledFiltersInternal(CapSense_PTR_FILTER_VARIANT ptrFilterHistObj,
1696:Generated_Source\PSoC4/CapSense_Filter.c ****                                                   CapSense_RAM_SNS_STRUCT *ptrSensorObj, uint32 wdT
1697:Generated_Source\PSoC4/CapSense_Filter.c **** {
1698:Generated_Source\PSoC4/CapSense_Filter.c ****     #if (CapSense_REGULAR_RC_MEDIAN_FILTER_EN || CapSense_PROX_RC_MEDIAN_FILTER_EN)
1699:Generated_Source\PSoC4/CapSense_Filter.c ****         CapSense_RunMedianInternal(ptrFilterHistObj, ptrSensorObj, wdType);
1700:Generated_Source\PSoC4/CapSense_Filter.c ****     #endif /* (CapSense_REGULAR_RC_MEDIAN_FILTER_EN || CapSense_PROX_RC_MEDIAN_FILTER_EN) */
1701:Generated_Source\PSoC4/CapSense_Filter.c **** 
1702:Generated_Source\PSoC4/CapSense_Filter.c ****     #if (CapSense_REGULAR_RC_IIR_FILTER_EN || CapSense_PROX_RC_IIR_FILTER_EN)
1703:Generated_Source\PSoC4/CapSense_Filter.c ****         CapSense_RunIIRInternal(ptrFilterHistObj, ptrSensorObj, wdType);
1704:Generated_Source\PSoC4/CapSense_Filter.c ****     #endif /* (CapSense_REGULAR_RC_IIR_FILTER_EN || CapSense_PROX_RC_IIR_FILTER_EN) */
1705:Generated_Source\PSoC4/CapSense_Filter.c **** 
1706:Generated_Source\PSoC4/CapSense_Filter.c ****     #if (CapSense_REGULAR_RC_AVERAGE_FILTER_EN || CapSense_PROX_RC_AVERAGE_FILTER_EN)
1707:Generated_Source\PSoC4/CapSense_Filter.c ****         CapSense_RunAverageInternal(ptrFilterHistObj, ptrSensorObj, wdType);
1708:Generated_Source\PSoC4/CapSense_Filter.c ****     #endif /* (CapSense_REGULAR_RC_AVERAGE_FILTER_EN || CapSense_PROX_RC_AVERAGE_FILTER_EN) */
1709:Generated_Source\PSoC4/CapSense_Filter.c **** }
1710:Generated_Source\PSoC4/CapSense_Filter.c **** #endif /* (CapSense_ENABLE == CapSense_RC_FILTER_EN) */
1711:Generated_Source\PSoC4/CapSense_Filter.c **** 
1712:Generated_Source\PSoC4/CapSense_Filter.c **** 
ARM GAS  C:\Users\zack.li\AppData\Local\Temp\ccvbPEtI.s 			page 37


1713:Generated_Source\PSoC4/CapSense_Filter.c **** #if (0u != (CapSense_CSD_AUTOTUNE & CapSense_CSD_SS_TH_EN))
1714:Generated_Source\PSoC4/CapSense_Filter.c **** /*******************************************************************************
1715:Generated_Source\PSoC4/CapSense_Filter.c **** * Function Name: CapSense_RunNoiseEnvelope
1716:Generated_Source\PSoC4/CapSense_Filter.c **** ****************************************************************************//**
1717:Generated_Source\PSoC4/CapSense_Filter.c **** *
1718:Generated_Source\PSoC4/CapSense_Filter.c **** * \brief
1719:Generated_Source\PSoC4/CapSense_Filter.c **** *  Executes the noise envelope  filter algorithm on a sensor indicated by
1720:Generated_Source\PSoC4/CapSense_Filter.c **** *  an input parameter to measure the pk-to-pk noise in the sensor raw count.
1721:Generated_Source\PSoC4/CapSense_Filter.c **** *
1722:Generated_Source\PSoC4/CapSense_Filter.c **** * \details
1723:Generated_Source\PSoC4/CapSense_Filter.c **** *  Executes the noise envelope  filter algorithm on a sensor indicated by
1724:Generated_Source\PSoC4/CapSense_Filter.c **** *  an input parameter to measure the pk-to-pk noise in the sensor raw count.
1725:Generated_Source\PSoC4/CapSense_Filter.c **** *
1726:Generated_Source\PSoC4/CapSense_Filter.c **** * \param widgetId
1727:Generated_Source\PSoC4/CapSense_Filter.c **** *  Specifies the ID number of the widget.
1728:Generated_Source\PSoC4/CapSense_Filter.c **** *
1729:Generated_Source\PSoC4/CapSense_Filter.c **** * \param sensorId
1730:Generated_Source\PSoC4/CapSense_Filter.c **** *  Specifies the ID number of the sensor in the widget.
1731:Generated_Source\PSoC4/CapSense_Filter.c **** *
1732:Generated_Source\PSoC4/CapSense_Filter.c **** *******************************************************************************/
1733:Generated_Source\PSoC4/CapSense_Filter.c **** void CapSense_RunNoiseEnvelope(uint32 widgetId, uint32 sensorId)
1734:Generated_Source\PSoC4/CapSense_Filter.c **** {
1735:Generated_Source\PSoC4/CapSense_Filter.c ****     CapSense_FLASH_WD_STRUCT const *ptrWidget = &CapSense_dsFlash.wdgtArray[widgetId];
1736:Generated_Source\PSoC4/CapSense_Filter.c ****     CapSense_RAM_WD_BASE_STRUCT *ptrWidgetRam = ptrWidget->ptr2WdgtRam;
1737:Generated_Source\PSoC4/CapSense_Filter.c ****     CapSense_RAM_SNS_STRUCT *ptrSensor = NULL;
1738:Generated_Source\PSoC4/CapSense_Filter.c ****     SMARTSENSE_CSD_NOISE_ENVELOPE_STRUCT *ptrNoiseEnvelope = NULL;
1739:Generated_Source\PSoC4/CapSense_Filter.c **** 
1740:Generated_Source\PSoC4/CapSense_Filter.c ****     /* Find pointer to specified sensor object */
1741:Generated_Source\PSoC4/CapSense_Filter.c ****     ptrSensor = ptrWidget->ptr2SnsRam;
1742:Generated_Source\PSoC4/CapSense_Filter.c ****     ptrSensor = &ptrSensor[sensorId];
1743:Generated_Source\PSoC4/CapSense_Filter.c **** 
1744:Generated_Source\PSoC4/CapSense_Filter.c ****     /* Find pointer to specified filter sensor object */
1745:Generated_Source\PSoC4/CapSense_Filter.c ****     ptrNoiseEnvelope = ptrWidget->ptr2NoiseEnvlp;
1746:Generated_Source\PSoC4/CapSense_Filter.c ****     ptrNoiseEnvelope = &ptrNoiseEnvelope[sensorId];
1747:Generated_Source\PSoC4/CapSense_Filter.c **** 
1748:Generated_Source\PSoC4/CapSense_Filter.c ****     SmartSense_RunNoiseEnvelope(ptrSensor->raw[0u], ptrWidgetRam->sigPFC, ptrNoiseEnvelope);
1749:Generated_Source\PSoC4/CapSense_Filter.c **** }
1750:Generated_Source\PSoC4/CapSense_Filter.c **** 
1751:Generated_Source\PSoC4/CapSense_Filter.c **** 
1752:Generated_Source\PSoC4/CapSense_Filter.c **** /*******************************************************************************
1753:Generated_Source\PSoC4/CapSense_Filter.c **** * Function Name: CapSense_InitializeNoiseEnvelope
1754:Generated_Source\PSoC4/CapSense_Filter.c **** ****************************************************************************//**
1755:Generated_Source\PSoC4/CapSense_Filter.c **** *
1756:Generated_Source\PSoC4/CapSense_Filter.c **** * \brief
1757:Generated_Source\PSoC4/CapSense_Filter.c **** *  Initializes the noise-envelope filter
1758:Generated_Source\PSoC4/CapSense_Filter.c **** *
1759:Generated_Source\PSoC4/CapSense_Filter.c **** * \details
1760:Generated_Source\PSoC4/CapSense_Filter.c **** *  Initializes the noise-envelope filter
1761:Generated_Source\PSoC4/CapSense_Filter.c **** *
1762:Generated_Source\PSoC4/CapSense_Filter.c **** * \param widgetId
1763:Generated_Source\PSoC4/CapSense_Filter.c **** *  Specifies the ID number of the widget.
1764:Generated_Source\PSoC4/CapSense_Filter.c **** *
1765:Generated_Source\PSoC4/CapSense_Filter.c **** * \param sensorId
1766:Generated_Source\PSoC4/CapSense_Filter.c **** *  Specifies the ID number of the sensor in the widget.
1767:Generated_Source\PSoC4/CapSense_Filter.c **** *
1768:Generated_Source\PSoC4/CapSense_Filter.c **** *******************************************************************************/
1769:Generated_Source\PSoC4/CapSense_Filter.c **** void CapSense_InitializeNoiseEnvelope(uint32 widgetId, uint32 sensorId)
ARM GAS  C:\Users\zack.li\AppData\Local\Temp\ccvbPEtI.s 			page 38


1770:Generated_Source\PSoC4/CapSense_Filter.c **** {
1771:Generated_Source\PSoC4/CapSense_Filter.c ****     CapSense_FLASH_WD_STRUCT const *ptrWidget = &CapSense_dsFlash.wdgtArray[widgetId];
1772:Generated_Source\PSoC4/CapSense_Filter.c ****     CapSense_RAM_WD_BASE_STRUCT *ptrWidgetRam = ptrWidget->ptr2WdgtRam;
1773:Generated_Source\PSoC4/CapSense_Filter.c ****     CapSense_RAM_SNS_STRUCT *ptrSensor = NULL;
1774:Generated_Source\PSoC4/CapSense_Filter.c ****     SMARTSENSE_CSD_NOISE_ENVELOPE_STRUCT *ptrNoiseEnvelope = NULL;
1775:Generated_Source\PSoC4/CapSense_Filter.c **** 
1776:Generated_Source\PSoC4/CapSense_Filter.c ****     /* Find pointer to specified sensor object */
1777:Generated_Source\PSoC4/CapSense_Filter.c ****     ptrSensor = ptrWidget->ptr2SnsRam;
1778:Generated_Source\PSoC4/CapSense_Filter.c ****     ptrSensor = &ptrSensor[sensorId];
1779:Generated_Source\PSoC4/CapSense_Filter.c **** 
1780:Generated_Source\PSoC4/CapSense_Filter.c ****     /* Find pointer to specified filter sensor object */
1781:Generated_Source\PSoC4/CapSense_Filter.c ****     ptrNoiseEnvelope = ptrWidget->ptr2NoiseEnvlp;
1782:Generated_Source\PSoC4/CapSense_Filter.c ****     ptrNoiseEnvelope = &ptrNoiseEnvelope[sensorId];
1783:Generated_Source\PSoC4/CapSense_Filter.c **** 
1784:Generated_Source\PSoC4/CapSense_Filter.c ****     SmartSense_InitializeNoiseEnvelope(ptrSensor->raw[0u], ptrWidgetRam->sigPFC, ptrNoiseEnvelope);
1785:Generated_Source\PSoC4/CapSense_Filter.c **** }
1786:Generated_Source\PSoC4/CapSense_Filter.c **** #endif /* (0u != (CapSense_CSD_AUTOTUNE & CapSense_CSD_SS_TH_EN)) */
1787:Generated_Source\PSoC4/CapSense_Filter.c **** 
1788:Generated_Source\PSoC4/CapSense_Filter.c **** 
1789:Generated_Source\PSoC4/CapSense_Filter.c **** #if (CapSense_POS_MEDIAN_FILTER_EN || CapSense_REGULAR_RC_MEDIAN_FILTER_EN || CapSense_PROX_RC_MEDI
1790:Generated_Source\PSoC4/CapSense_Filter.c **** /*******************************************************************************
1791:Generated_Source\PSoC4/CapSense_Filter.c **** * Function Name: CapSense_FtMedian
1792:Generated_Source\PSoC4/CapSense_Filter.c **** ****************************************************************************//**
1793:Generated_Source\PSoC4/CapSense_Filter.c **** *
1794:Generated_Source\PSoC4/CapSense_Filter.c **** * \brief
1795:Generated_Source\PSoC4/CapSense_Filter.c **** *  Return the median value from the three passed arguments.
1796:Generated_Source\PSoC4/CapSense_Filter.c **** *
1797:Generated_Source\PSoC4/CapSense_Filter.c **** * \details
1798:Generated_Source\PSoC4/CapSense_Filter.c **** *  Return the median value from the three passed arguments.
1799:Generated_Source\PSoC4/CapSense_Filter.c **** *
1800:Generated_Source\PSoC4/CapSense_Filter.c **** * \param x1
1801:Generated_Source\PSoC4/CapSense_Filter.c **** *  The first value to be compared.
1802:Generated_Source\PSoC4/CapSense_Filter.c **** *
1803:Generated_Source\PSoC4/CapSense_Filter.c **** * \param x2
1804:Generated_Source\PSoC4/CapSense_Filter.c **** *  The second value to be compared.
1805:Generated_Source\PSoC4/CapSense_Filter.c **** *
1806:Generated_Source\PSoC4/CapSense_Filter.c **** * \param x3
1807:Generated_Source\PSoC4/CapSense_Filter.c **** *  The third value to be compared.
1808:Generated_Source\PSoC4/CapSense_Filter.c **** *
1809:Generated_Source\PSoC4/CapSense_Filter.c **** * \return
1810:Generated_Source\PSoC4/CapSense_Filter.c **** *  Returns the median value of input arguments.
1811:Generated_Source\PSoC4/CapSense_Filter.c **** *
1812:Generated_Source\PSoC4/CapSense_Filter.c **** *******************************************************************************/
1813:Generated_Source\PSoC4/CapSense_Filter.c **** uint32 CapSense_FtMedian(uint32 x1, uint32 x2, uint32 x3)
1814:Generated_Source\PSoC4/CapSense_Filter.c **** {
1815:Generated_Source\PSoC4/CapSense_Filter.c ****     uint32 tmp;
1816:Generated_Source\PSoC4/CapSense_Filter.c **** 
1817:Generated_Source\PSoC4/CapSense_Filter.c ****     if (x1 > x2)
1818:Generated_Source\PSoC4/CapSense_Filter.c ****     {
1819:Generated_Source\PSoC4/CapSense_Filter.c ****         tmp = x2;
1820:Generated_Source\PSoC4/CapSense_Filter.c ****         x2 = x1;
1821:Generated_Source\PSoC4/CapSense_Filter.c ****         x1 = tmp;
1822:Generated_Source\PSoC4/CapSense_Filter.c ****     }
1823:Generated_Source\PSoC4/CapSense_Filter.c **** 
1824:Generated_Source\PSoC4/CapSense_Filter.c ****     if (x2 > x3)
1825:Generated_Source\PSoC4/CapSense_Filter.c ****     {
1826:Generated_Source\PSoC4/CapSense_Filter.c ****         x2 = x3;
ARM GAS  C:\Users\zack.li\AppData\Local\Temp\ccvbPEtI.s 			page 39


1827:Generated_Source\PSoC4/CapSense_Filter.c ****     }
1828:Generated_Source\PSoC4/CapSense_Filter.c **** 
1829:Generated_Source\PSoC4/CapSense_Filter.c ****     return ((x1 > x2) ? x1 : x2);
1830:Generated_Source\PSoC4/CapSense_Filter.c **** }
1831:Generated_Source\PSoC4/CapSense_Filter.c **** #endif /*CapSense_POS_MEDIAN_FILTER_EN || CapSense_REGULAR_RC_MEDIAN_FILTER_EN || CapSense_PROX_RC_
1832:Generated_Source\PSoC4/CapSense_Filter.c **** 
1833:Generated_Source\PSoC4/CapSense_Filter.c **** 
1834:Generated_Source\PSoC4/CapSense_Filter.c **** /*******************************************************************************
1835:Generated_Source\PSoC4/CapSense_Filter.c **** * Function Name: CapSense_FtIIR1stOrder
1836:Generated_Source\PSoC4/CapSense_Filter.c **** ****************************************************************************//**
1837:Generated_Source\PSoC4/CapSense_Filter.c **** *
1838:Generated_Source\PSoC4/CapSense_Filter.c **** * \brief
1839:Generated_Source\PSoC4/CapSense_Filter.c **** *  Return the filtered data by the IIR 1-st order algorithm
1840:Generated_Source\PSoC4/CapSense_Filter.c **** *
1841:Generated_Source\PSoC4/CapSense_Filter.c **** * \details
1842:Generated_Source\PSoC4/CapSense_Filter.c **** *  Return the filtered data by the IIR 1-st order algorithm
1843:Generated_Source\PSoC4/CapSense_Filter.c **** *
1844:Generated_Source\PSoC4/CapSense_Filter.c **** * \param input
1845:Generated_Source\PSoC4/CapSense_Filter.c **** *  The data to be filtered.
1846:Generated_Source\PSoC4/CapSense_Filter.c **** *
1847:Generated_Source\PSoC4/CapSense_Filter.c **** * \param prevOutput
1848:Generated_Source\PSoC4/CapSense_Filter.c **** *  The previous filtered data.
1849:Generated_Source\PSoC4/CapSense_Filter.c **** *
1850:Generated_Source\PSoC4/CapSense_Filter.c **** * \param n
1851:Generated_Source\PSoC4/CapSense_Filter.c **** *  The IIR filter coefficient (n/256).
1852:Generated_Source\PSoC4/CapSense_Filter.c **** *
1853:Generated_Source\PSoC4/CapSense_Filter.c **** * \param shift
1854:Generated_Source\PSoC4/CapSense_Filter.c **** *  The parameter is used to shift input data to have free LSB
1855:Generated_Source\PSoC4/CapSense_Filter.c **** *  bits for a fraction storage of the filter output calculation.
1856:Generated_Source\PSoC4/CapSense_Filter.c **** *
1857:Generated_Source\PSoC4/CapSense_Filter.c **** * \return
1858:Generated_Source\PSoC4/CapSense_Filter.c **** *  Returns the filtered data.
1859:Generated_Source\PSoC4/CapSense_Filter.c **** *
1860:Generated_Source\PSoC4/CapSense_Filter.c **** *******************************************************************************/
1861:Generated_Source\PSoC4/CapSense_Filter.c **** uint32 CapSense_FtIIR1stOrder(uint32 input, uint32 prevOutput, uint32 n, uint32 shift)
1862:Generated_Source\PSoC4/CapSense_Filter.c **** {
1863:Generated_Source\PSoC4/CapSense_Filter.c ****     uint32 filteredOutput;
1864:Generated_Source\PSoC4/CapSense_Filter.c **** 
1865:Generated_Source\PSoC4/CapSense_Filter.c ****     /*
1866:Generated_Source\PSoC4/CapSense_Filter.c ****     * n - IIR filter coefficient (n/256)
1867:Generated_Source\PSoC4/CapSense_Filter.c ****     * shift - Used to shift input data to have free LSB bits
1868:Generated_Source\PSoC4/CapSense_Filter.c ****     * for fraction storage of filter output calculation
1869:Generated_Source\PSoC4/CapSense_Filter.c ****     */
1870:Generated_Source\PSoC4/CapSense_Filter.c ****     filteredOutput = ((n * (input << shift)) + ((CapSense_IIR_COEFFICIENT_K - n) * prevOutput)) >> 
 304              		.loc 1 1870 0
 305 0032 0279     		ldrb	r2, [r0, #4]
 306              	.LVL36:
 307              	.LBE9:
 308              	.LBE8:
 322:Generated_Source\PSoC4/CapSense_Filter.c ****                             history |= ptrSensor->bslnExt[freqChannel];
 309              		.loc 1 322 0
 310 0034 2402     		lsls	r4, r4, #8
 311              	.LVL37:
 312              	.LBB11:
 313              	.LBB10:
 314              		.loc 1 1870 0
 315 0036 1443     		orrs	r4, r2
ARM GAS  C:\Users\zack.li\AppData\Local\Temp\ccvbPEtI.s 			page 40


 316              	.LVL38:
 317 0038 6543     		muls	r5, r4
 318 003a 1B02     		lsls	r3, r3, #8
 319              	.LVL39:
 320 003c EB18     		adds	r3, r5, r3
 321 003e 1A0A     		lsrs	r2, r3, #8
 322              	.LVL40:
 323              	.LBE10:
 324              	.LBE11:
 340:Generated_Source\PSoC4/CapSense_Filter.c ****                             ptrSensor->bslnExt[freqChannel] = LO8(history);
 325              		.loc 1 340 0
 326 0040 1B0C     		lsrs	r3, r3, #16
 327 0042 4380     		strh	r3, [r0, #2]
 341:Generated_Source\PSoC4/CapSense_Filter.c ****                         #else
 328              		.loc 1 341 0
 329 0044 0271     		strb	r2, [r0, #4]
 330 0046 0FE0     		b	.L23
 331              	.LVL41:
 332              	.L22:
 311:Generated_Source\PSoC4/CapSense_Filter.c ****                     ((difference <= (uint32) ptrWidgetRam->nNoiseTh) && (sign == 0u)))
 333              		.loc 1 311 0
 334 0048 6D79     		ldrb	r5, [r5, #5]
 335              	.LVL42:
 336 004a AA42     		cmp	r2, r5
 337 004c 0CD8     		bhi	.L23
 312:Generated_Source\PSoC4/CapSense_Filter.c ****                 {
 338              		.loc 1 312 0
 339 004e 002E     		cmp	r6, #0
 340 0050 EBD0     		beq	.L24
 341 0052 09E0     		b	.L23
 342              	.LVL43:
 343              	.L20:
 298:Generated_Source\PSoC4/CapSense_Filter.c ****             {
 344              		.loc 1 298 0
 345 0054 037A     		ldrb	r3, [r0, #8]
 346 0056 2A7A     		ldrb	r2, [r5, #8]
 347              	.LVL44:
 348 0058 9A42     		cmp	r2, r3
 349 005a 02D9     		bls	.L25
 304:Generated_Source\PSoC4/CapSense_Filter.c ****             }
 350              		.loc 1 304 0
 351 005c 0133     		adds	r3, r3, #1
 352 005e 0372     		strb	r3, [r0, #8]
 353 0060 02E0     		b	.L23
 354              	.L25:
 300:Generated_Source\PSoC4/CapSense_Filter.c ****             }
 355              		.loc 1 300 0
 356 0062 0022     		movs	r2, #0
 357 0064 FFF7FEFF 		bl	CapSense_FtInitializeBaselineChannel
 358              	.LVL45:
 359              	.L23:
 398:Generated_Source\PSoC4/CapSense_Filter.c **** 
 360              		.loc 1 398 0
 361 0068 0020     		movs	r0, #0
 362              		@ sp needed
 363 006a F8BD     		pop	{r3, r4, r5, r6, r7, pc}
 364              		.cfi_endproc
ARM GAS  C:\Users\zack.li\AppData\Local\Temp\ccvbPEtI.s 			page 41


 365              	.LFE5:
 366              		.size	CapSense_FtUpdateBaseline, .-CapSense_FtUpdateBaseline
 367              		.section	.text.CapSense_UpdateSensorBaseline,"ax",%progbits
 368              		.align	1
 369              		.global	CapSense_UpdateSensorBaseline
 370              		.code	16
 371              		.thumb_func
 372              		.type	CapSense_UpdateSensorBaseline, %function
 373              	CapSense_UpdateSensorBaseline:
 374              	.LFB4:
 201:Generated_Source\PSoC4/CapSense_Filter.c ****     uint32 result = CYRET_SUCCESS;
 375              		.loc 1 201 0
 376              		.cfi_startproc
 377              		@ args = 0, pretend = 0, frame = 0
 378              		@ frame_needed = 0, uses_anonymous_args = 0
 379              	.LVL46:
 209:Generated_Source\PSoC4/CapSense_Filter.c ****     ptrSensor = &ptrSensor[sensorId];
 380              		.loc 1 209 0
 381 0000 1C23     		movs	r3, #28
 382 0002 5843     		muls	r0, r3
 383              	.LVL47:
 384 0004 054B     		ldr	r3, .L33
 201:Generated_Source\PSoC4/CapSense_Filter.c ****     uint32 result = CYRET_SUCCESS;
 385              		.loc 1 201 0
 386 0006 10B5     		push	{r4, lr}
 387              		.cfi_def_cfa_offset 8
 388              		.cfi_offset 4, -8
 389              		.cfi_offset 14, -4
 209:Generated_Source\PSoC4/CapSense_Filter.c ****     ptrSensor = &ptrSensor[sensorId];
 390              		.loc 1 209 0
 391 0008 1818     		adds	r0, r3, r0
 392              	.LVL48:
 211:Generated_Source\PSoC4/CapSense_Filter.c **** 
 393              		.loc 1 211 0
 394 000a 0A23     		movs	r3, #10
 395 000c 5943     		muls	r1, r3
 396              	.LVL49:
 397 000e 8368     		ldr	r3, [r0, #8]
 398 0010 827E     		ldrb	r2, [r0, #26]
 399 0012 5918     		adds	r1, r3, r1
 400              	.LVL50:
 401 0014 4068     		ldr	r0, [r0, #4]
 402              	.LVL51:
 403 0016 FFF7FEFF 		bl	CapSense_FtUpdateBaseline
 404              	.LVL52:
 222:Generated_Source\PSoC4/CapSense_Filter.c **** 
 405              		.loc 1 222 0
 406              		@ sp needed
 407 001a 10BD     		pop	{r4, pc}
 408              	.L34:
 409              		.align	2
 410              	.L33:
 411 001c 00000000 		.word	CapSense_dsFlash
 412              		.cfi_endproc
 413              	.LFE4:
 414              		.size	CapSense_UpdateSensorBaseline, .-CapSense_UpdateSensorBaseline
 415              		.section	.text.CapSense_UpdateWidgetBaseline,"ax",%progbits
ARM GAS  C:\Users\zack.li\AppData\Local\Temp\ccvbPEtI.s 			page 42


 416              		.align	1
 417              		.global	CapSense_UpdateWidgetBaseline
 418              		.code	16
 419              		.thumb_func
 420              		.type	CapSense_UpdateWidgetBaseline, %function
 421              	CapSense_UpdateWidgetBaseline:
 422              	.LFB3:
 144:Generated_Source\PSoC4/CapSense_Filter.c ****     uint32 sensorId;
 423              		.loc 1 144 0
 424              		.cfi_startproc
 425              		@ args = 0, pretend = 0, frame = 0
 426              		@ frame_needed = 0, uses_anonymous_args = 0
 427              	.LVL53:
 152:Generated_Source\PSoC4/CapSense_Filter.c **** 
 428              		.loc 1 152 0
 429 0000 1C23     		movs	r3, #28
 144:Generated_Source\PSoC4/CapSense_Filter.c ****     uint32 sensorId;
 430              		.loc 1 144 0
 431 0002 70B5     		push	{r4, r5, r6, lr}
 432              		.cfi_def_cfa_offset 16
 433              		.cfi_offset 4, -16
 434              		.cfi_offset 5, -12
 435              		.cfi_offset 6, -8
 436              		.cfi_offset 14, -4
 144:Generated_Source\PSoC4/CapSense_Filter.c ****     uint32 sensorId;
 437              		.loc 1 144 0
 438 0004 0400     		movs	r4, r0
 149:Generated_Source\PSoC4/CapSense_Filter.c **** 
 439              		.loc 1 149 0
 440 0006 0025     		movs	r5, #0
 152:Generated_Source\PSoC4/CapSense_Filter.c **** 
 441              		.loc 1 152 0
 442 0008 4343     		muls	r3, r0
 443 000a 074A     		ldr	r2, .L39
 444 000c D318     		adds	r3, r2, r3
 445              	.LVL54:
 446 000e 1B8B     		ldrh	r3, [r3, #24]
 447              	.LVL55:
 448              	.L36:
 154:Generated_Source\PSoC4/CapSense_Filter.c ****     {
 449              		.loc 1 154 0 discriminator 1
 450 0010 5E1E     		subs	r6, r3, #1
 451              	.LVL56:
 452 0012 002B     		cmp	r3, #0
 453 0014 06D0     		beq	.L38
 156:Generated_Source\PSoC4/CapSense_Filter.c ****     }
 454              		.loc 1 156 0
 455 0016 3100     		movs	r1, r6
 456 0018 2000     		movs	r0, r4
 457 001a FFF7FEFF 		bl	CapSense_UpdateSensorBaseline
 458              	.LVL57:
 459 001e 3300     		movs	r3, r6
 460 0020 0543     		orrs	r5, r0
 461              	.LVL58:
 462 0022 F5E7     		b	.L36
 463              	.L38:
 160:Generated_Source\PSoC4/CapSense_Filter.c **** 
ARM GAS  C:\Users\zack.li\AppData\Local\Temp\ccvbPEtI.s 			page 43


 464              		.loc 1 160 0
 465 0024 2800     		movs	r0, r5
 466              		@ sp needed
 467              	.LVL59:
 468              	.LVL60:
 469              	.LVL61:
 470 0026 70BD     		pop	{r4, r5, r6, pc}
 471              	.L40:
 472              		.align	2
 473              	.L39:
 474 0028 00000000 		.word	CapSense_dsFlash
 475              		.cfi_endproc
 476              	.LFE3:
 477              		.size	CapSense_UpdateWidgetBaseline, .-CapSense_UpdateWidgetBaseline
 478              		.section	.text.CapSense_UpdateAllBaselines,"ax",%progbits
 479              		.align	1
 480              		.global	CapSense_UpdateAllBaselines
 481              		.code	16
 482              		.thumb_func
 483              		.type	CapSense_UpdateAllBaselines, %function
 484              	CapSense_UpdateAllBaselines:
 485              	.LFB2:
  98:Generated_Source\PSoC4/CapSense_Filter.c ****     uint32 widgetId;
 486              		.loc 1 98 0
 487              		.cfi_startproc
 488              		@ args = 0, pretend = 0, frame = 0
 489              		@ frame_needed = 0, uses_anonymous_args = 0
 490              	.LVL62:
 491 0000 70B5     		push	{r4, r5, r6, lr}
 492              		.cfi_def_cfa_offset 16
 493              		.cfi_offset 4, -16
 494              		.cfi_offset 5, -12
 495              		.cfi_offset 6, -8
 496              		.cfi_offset 14, -4
 100:Generated_Source\PSoC4/CapSense_Filter.c **** 
 497              		.loc 1 100 0
 498 0002 0025     		movs	r5, #0
 102:Generated_Source\PSoC4/CapSense_Filter.c ****     {
 499              		.loc 1 102 0
 500 0004 0424     		movs	r4, #4
 501              	.LVL63:
 502              	.L42:
 102:Generated_Source\PSoC4/CapSense_Filter.c ****     {
 503              		.loc 1 102 0 is_stmt 0 discriminator 1
 504 0006 013C     		subs	r4, r4, #1
 505 0008 04D3     		bcc	.L44
 506              	.LVL64:
 104:Generated_Source\PSoC4/CapSense_Filter.c ****     }
 507              		.loc 1 104 0 is_stmt 1
 508 000a 2000     		movs	r0, r4
 509 000c FFF7FEFF 		bl	CapSense_UpdateWidgetBaseline
 510              	.LVL65:
 511 0010 0543     		orrs	r5, r0
 512              	.LVL66:
 513 0012 F8E7     		b	.L42
 514              	.L44:
 108:Generated_Source\PSoC4/CapSense_Filter.c **** 
ARM GAS  C:\Users\zack.li\AppData\Local\Temp\ccvbPEtI.s 			page 44


 515              		.loc 1 108 0
 516 0014 2800     		movs	r0, r5
 517              		@ sp needed
 518              	.LVL67:
 519              	.LVL68:
 520 0016 70BD     		pop	{r4, r5, r6, pc}
 521              		.cfi_endproc
 522              	.LFE2:
 523              		.size	CapSense_UpdateAllBaselines, .-CapSense_UpdateAllBaselines
 524              		.section	.text.CapSense_InitializeIIRInternal,"ax",%progbits
 525              		.align	1
 526              		.global	CapSense_InitializeIIRInternal
 527              		.code	16
 528              		.thumb_func
 529              		.type	CapSense_InitializeIIRInternal, %function
 530              	CapSense_InitializeIIRInternal:
 531              	.LFB15:
 852:Generated_Source\PSoC4/CapSense_Filter.c ****     uint32 freqChannel;
 532              		.loc 1 852 0
 533              		.cfi_startproc
 534              		@ args = 0, pretend = 0, frame = 0
 535              		@ frame_needed = 0, uses_anonymous_args = 0
 536              		@ link register save eliminated.
 537              	.LVL69:
 857:Generated_Source\PSoC4/CapSense_Filter.c ****         {
 538              		.loc 1 857 0
 539 0000 D2B2     		uxtb	r2, r2
 540              	.LVL70:
 541 0002 062A     		cmp	r2, #6
 542 0004 01D0     		beq	.L45
 864:Generated_Source\PSoC4/CapSense_Filter.c ****                 #endif /* (CapSense_REGULAR_IIR_RC_TYPE == CapSense_IIR_FILTER_PERFORMANCE) */
 543              		.loc 1 864 0
 544 0006 0B88     		ldrh	r3, [r1]
 545 0008 0380     		strh	r3, [r0]
 546              	.LVL71:
 547              	.L45:
 880:Generated_Source\PSoC4/CapSense_Filter.c **** 
 548              		.loc 1 880 0
 549              		@ sp needed
 550 000a 7047     		bx	lr
 551              		.cfi_endproc
 552              	.LFE15:
 553              		.size	CapSense_InitializeIIRInternal, .-CapSense_InitializeIIRInternal
 554              		.section	.text.CapSense_InitializeIIR,"ax",%progbits
 555              		.align	1
 556              		.global	CapSense_InitializeIIR
 557              		.code	16
 558              		.thumb_func
 559              		.type	CapSense_InitializeIIR, %function
 560              	CapSense_InitializeIIR:
 561              	.LFB13:
 753:Generated_Source\PSoC4/CapSense_Filter.c ****     CapSense_FLASH_WD_STRUCT const *ptrWidget = &CapSense_dsFlash.wdgtArray[widgetId];
 562              		.loc 1 753 0
 563              		.cfi_startproc
 564              		@ args = 0, pretend = 0, frame = 0
 565              		@ frame_needed = 0, uses_anonymous_args = 0
 566              	.LVL72:
ARM GAS  C:\Users\zack.li\AppData\Local\Temp\ccvbPEtI.s 			page 45


 759:Generated_Source\PSoC4/CapSense_Filter.c ****     ptrSensor = &ptrSensor[sensorId];
 567              		.loc 1 759 0
 568 0000 1C23     		movs	r3, #28
 753:Generated_Source\PSoC4/CapSense_Filter.c ****     CapSense_FLASH_WD_STRUCT const *ptrWidget = &CapSense_dsFlash.wdgtArray[widgetId];
 569              		.loc 1 753 0
 570 0002 10B5     		push	{r4, lr}
 571              		.cfi_def_cfa_offset 8
 572              		.cfi_offset 4, -8
 573              		.cfi_offset 14, -4
 760:Generated_Source\PSoC4/CapSense_Filter.c **** 
 574              		.loc 1 760 0
 575 0004 0A24     		movs	r4, #10
 759:Generated_Source\PSoC4/CapSense_Filter.c ****     ptrSensor = &ptrSensor[sensorId];
 576              		.loc 1 759 0
 577 0006 5843     		muls	r0, r3
 578              	.LVL73:
 579 0008 074B     		ldr	r3, .L55
 760:Generated_Source\PSoC4/CapSense_Filter.c **** 
 580              		.loc 1 760 0
 581 000a 4C43     		muls	r4, r1
 759:Generated_Source\PSoC4/CapSense_Filter.c ****     ptrSensor = &ptrSensor[sensorId];
 582              		.loc 1 759 0
 583 000c 1B18     		adds	r3, r3, r0
 584              	.LVL74:
 760:Generated_Source\PSoC4/CapSense_Filter.c **** 
 585              		.loc 1 760 0
 586 000e 9A68     		ldr	r2, [r3, #8]
 763:Generated_Source\PSoC4/CapSense_Filter.c **** 
 587              		.loc 1 763 0
 588 0010 D868     		ldr	r0, [r3, #12]
 760:Generated_Source\PSoC4/CapSense_Filter.c **** 
 589              		.loc 1 760 0
 590 0012 1419     		adds	r4, r2, r4
 591              	.LVL75:
 765:Generated_Source\PSoC4/CapSense_Filter.c ****     {
 592              		.loc 1 765 0
 593 0014 9A7E     		ldrb	r2, [r3, #26]
 594 0016 062A     		cmp	r2, #6
 595 0018 02D0     		beq	.L51
 768:Generated_Source\PSoC4/CapSense_Filter.c ****         #endif /* (CapSense_REGULAR_SENSOR_EN) */
 596              		.loc 1 768 0
 597 001a 0C23     		movs	r3, #12
 598              	.LVL76:
 599 001c 5943     		muls	r1, r3
 600              	.LVL77:
 601 001e 4018     		adds	r0, r0, r1
 602              	.LVL78:
 603              	.L51:
 778:Generated_Source\PSoC4/CapSense_Filter.c **** }
 604              		.loc 1 778 0
 605 0020 2100     		movs	r1, r4
 606 0022 FFF7FEFF 		bl	CapSense_InitializeIIRInternal
 607              	.LVL79:
 779:Generated_Source\PSoC4/CapSense_Filter.c **** 
 608              		.loc 1 779 0
 609              		@ sp needed
 610              	.LVL80:
ARM GAS  C:\Users\zack.li\AppData\Local\Temp\ccvbPEtI.s 			page 46


 611 0026 10BD     		pop	{r4, pc}
 612              	.L56:
 613              		.align	2
 614              	.L55:
 615 0028 00000000 		.word	CapSense_dsFlash
 616              		.cfi_endproc
 617              	.LFE13:
 618              		.size	CapSense_InitializeIIR, .-CapSense_InitializeIIR
 619              		.section	.text.CapSense_RunIIRInternal,"ax",%progbits
 620              		.align	1
 621              		.global	CapSense_RunIIRInternal
 622              		.code	16
 623              		.thumb_func
 624              		.type	CapSense_RunIIRInternal, %function
 625              	CapSense_RunIIRInternal:
 626              	.LFB16:
 905:Generated_Source\PSoC4/CapSense_Filter.c ****     uint32 freqChannel;
 627              		.loc 1 905 0
 628              		.cfi_startproc
 629              		@ args = 0, pretend = 0, frame = 0
 630              		@ frame_needed = 0, uses_anonymous_args = 0
 631              	.LVL81:
 911:Generated_Source\PSoC4/CapSense_Filter.c ****         {
 632              		.loc 1 911 0
 633 0000 D2B2     		uxtb	r2, r2
 634              	.LVL82:
 905:Generated_Source\PSoC4/CapSense_Filter.c ****     uint32 freqChannel;
 635              		.loc 1 905 0
 636 0002 10B5     		push	{r4, lr}
 637              		.cfi_def_cfa_offset 8
 638              		.cfi_offset 4, -8
 639              		.cfi_offset 14, -4
 911:Generated_Source\PSoC4/CapSense_Filter.c ****         {
 640              		.loc 1 911 0
 641 0004 062A     		cmp	r2, #6
 642 0006 09D0     		beq	.L57
 929:Generated_Source\PSoC4/CapSense_Filter.c ****                     ptrSensorObj->raw[freqChannel] = LO16(temp >>CapSense_REGULAR_IIR_RC_SHIFT);
 643              		.loc 1 929 0
 644 0008 C022     		movs	r2, #192
 645 000a 0B88     		ldrh	r3, [r1]
 646 000c 9C01     		lsls	r4, r3, #6
 647 000e 0388     		ldrh	r3, [r0]
 648 0010 5343     		muls	r3, r2
 649 0012 E318     		adds	r3, r4, r3
 650 0014 1B0A     		lsrs	r3, r3, #8
 651 0016 9BB2     		uxth	r3, r3
 652 0018 0380     		strh	r3, [r0]
 930:Generated_Source\PSoC4/CapSense_Filter.c ****                 #endif /* (CapSense_REGULAR_IIR_RC_TYPE == CapSense_IIR_FILTER_PERFORMANCE) */
 653              		.loc 1 930 0
 654 001a 0B80     		strh	r3, [r1]
 655              	.LVL83:
 656              	.L57:
 958:Generated_Source\PSoC4/CapSense_Filter.c **** #endif /* #if (CapSense_REGULAR_RC_IIR_FILTER_EN || CapSense_PROX_RC_IIR_FILTER_EN) */
 657              		.loc 1 958 0
 658              		@ sp needed
 659 001c 10BD     		pop	{r4, pc}
 660              		.cfi_endproc
ARM GAS  C:\Users\zack.li\AppData\Local\Temp\ccvbPEtI.s 			page 47


 661              	.LFE16:
 662              		.size	CapSense_RunIIRInternal, .-CapSense_RunIIRInternal
 663              		.section	.text.CapSense_RunIIR,"ax",%progbits
 664              		.align	1
 665              		.global	CapSense_RunIIR
 666              		.code	16
 667              		.thumb_func
 668              		.type	CapSense_RunIIR, %function
 669              	CapSense_RunIIR:
 670              	.LFB14:
 802:Generated_Source\PSoC4/CapSense_Filter.c ****     CapSense_FLASH_WD_STRUCT const *ptrWidget = &CapSense_dsFlash.wdgtArray[widgetId];
 671              		.loc 1 802 0
 672              		.cfi_startproc
 673              		@ args = 0, pretend = 0, frame = 0
 674              		@ frame_needed = 0, uses_anonymous_args = 0
 675              	.LVL84:
 808:Generated_Source\PSoC4/CapSense_Filter.c ****     ptrSensor = &ptrSensor[sensorId];
 676              		.loc 1 808 0
 677 0000 1C23     		movs	r3, #28
 802:Generated_Source\PSoC4/CapSense_Filter.c ****     CapSense_FLASH_WD_STRUCT const *ptrWidget = &CapSense_dsFlash.wdgtArray[widgetId];
 678              		.loc 1 802 0
 679 0002 10B5     		push	{r4, lr}
 680              		.cfi_def_cfa_offset 8
 681              		.cfi_offset 4, -8
 682              		.cfi_offset 14, -4
 809:Generated_Source\PSoC4/CapSense_Filter.c **** 
 683              		.loc 1 809 0
 684 0004 0A24     		movs	r4, #10
 808:Generated_Source\PSoC4/CapSense_Filter.c ****     ptrSensor = &ptrSensor[sensorId];
 685              		.loc 1 808 0
 686 0006 5843     		muls	r0, r3
 687              	.LVL85:
 688 0008 074B     		ldr	r3, .L67
 809:Generated_Source\PSoC4/CapSense_Filter.c **** 
 689              		.loc 1 809 0
 690 000a 4C43     		muls	r4, r1
 808:Generated_Source\PSoC4/CapSense_Filter.c ****     ptrSensor = &ptrSensor[sensorId];
 691              		.loc 1 808 0
 692 000c 1B18     		adds	r3, r3, r0
 693              	.LVL86:
 809:Generated_Source\PSoC4/CapSense_Filter.c **** 
 694              		.loc 1 809 0
 695 000e 9A68     		ldr	r2, [r3, #8]
 812:Generated_Source\PSoC4/CapSense_Filter.c **** 
 696              		.loc 1 812 0
 697 0010 D868     		ldr	r0, [r3, #12]
 809:Generated_Source\PSoC4/CapSense_Filter.c **** 
 698              		.loc 1 809 0
 699 0012 1419     		adds	r4, r2, r4
 700              	.LVL87:
 814:Generated_Source\PSoC4/CapSense_Filter.c ****     {
 701              		.loc 1 814 0
 702 0014 9A7E     		ldrb	r2, [r3, #26]
 703 0016 062A     		cmp	r2, #6
 704 0018 02D0     		beq	.L63
 817:Generated_Source\PSoC4/CapSense_Filter.c ****         #endif /* (CapSense_REGULAR_SENSOR_EN) */
 705              		.loc 1 817 0
ARM GAS  C:\Users\zack.li\AppData\Local\Temp\ccvbPEtI.s 			page 48


 706 001a 0C23     		movs	r3, #12
 707              	.LVL88:
 708 001c 5943     		muls	r1, r3
 709              	.LVL89:
 710 001e 4018     		adds	r0, r0, r1
 711              	.LVL90:
 712              	.L63:
 827:Generated_Source\PSoC4/CapSense_Filter.c **** }
 713              		.loc 1 827 0
 714 0020 2100     		movs	r1, r4
 715 0022 FFF7FEFF 		bl	CapSense_RunIIRInternal
 716              	.LVL91:
 828:Generated_Source\PSoC4/CapSense_Filter.c **** 
 717              		.loc 1 828 0
 718              		@ sp needed
 719              	.LVL92:
 720 0026 10BD     		pop	{r4, pc}
 721              	.L68:
 722              		.align	2
 723              	.L67:
 724 0028 00000000 		.word	CapSense_dsFlash
 725              		.cfi_endproc
 726              	.LFE14:
 727              		.size	CapSense_RunIIR, .-CapSense_RunIIR
 728              		.section	.text.CapSense_InitializeMedianInternal,"ax",%progbits
 729              		.align	1
 730              		.global	CapSense_InitializeMedianInternal
 731              		.code	16
 732              		.thumb_func
 733              		.type	CapSense_InitializeMedianInternal, %function
 734              	CapSense_InitializeMedianInternal:
 735              	.LFB19:
1082:Generated_Source\PSoC4/CapSense_Filter.c ****     uint32 freqChannel;
 736              		.loc 1 1082 0
 737              		.cfi_startproc
 738              		@ args = 0, pretend = 0, frame = 0
 739              		@ frame_needed = 0, uses_anonymous_args = 0
 740              		@ link register save eliminated.
 741              	.LVL93:
1087:Generated_Source\PSoC4/CapSense_Filter.c ****         {
 742              		.loc 1 1087 0
 743 0000 D2B2     		uxtb	r2, r2
 744              	.LVL94:
 745 0002 062A     		cmp	r2, #6
 746 0004 02D0     		beq	.L69
1090:Generated_Source\PSoC4/CapSense_Filter.c ****                 ptrFilterHistObj.ptrRegular->regularChannel[freqChannel].medHistory[1u] = ptrSensor
 747              		.loc 1 1090 0
 748 0006 0B88     		ldrh	r3, [r1]
 749 0008 4380     		strh	r3, [r0, #2]
1091:Generated_Source\PSoC4/CapSense_Filter.c ****             #endif /* (CapSense_REGULAR_SENSOR_EN) */
 750              		.loc 1 1091 0
 751 000a 8380     		strh	r3, [r0, #4]
 752              	.LVL95:
 753              	.L69:
1102:Generated_Source\PSoC4/CapSense_Filter.c **** 
 754              		.loc 1 1102 0
 755              		@ sp needed
ARM GAS  C:\Users\zack.li\AppData\Local\Temp\ccvbPEtI.s 			page 49


 756 000c 7047     		bx	lr
 757              		.cfi_endproc
 758              	.LFE19:
 759              		.size	CapSense_InitializeMedianInternal, .-CapSense_InitializeMedianInternal
 760              		.section	.text.CapSense_InitializeMedian,"ax",%progbits
 761              		.align	1
 762              		.global	CapSense_InitializeMedian
 763              		.code	16
 764              		.thumb_func
 765              		.type	CapSense_InitializeMedian, %function
 766              	CapSense_InitializeMedian:
 767              	.LFB17:
 982:Generated_Source\PSoC4/CapSense_Filter.c ****     CapSense_FLASH_WD_STRUCT const *ptrWidget = &CapSense_dsFlash.wdgtArray[widgetId];
 768              		.loc 1 982 0
 769              		.cfi_startproc
 770              		@ args = 0, pretend = 0, frame = 0
 771              		@ frame_needed = 0, uses_anonymous_args = 0
 772              	.LVL96:
 988:Generated_Source\PSoC4/CapSense_Filter.c ****     ptrSensor = &ptrSensor[sensorId];
 773              		.loc 1 988 0
 774 0000 1C23     		movs	r3, #28
 982:Generated_Source\PSoC4/CapSense_Filter.c ****     CapSense_FLASH_WD_STRUCT const *ptrWidget = &CapSense_dsFlash.wdgtArray[widgetId];
 775              		.loc 1 982 0
 776 0002 10B5     		push	{r4, lr}
 777              		.cfi_def_cfa_offset 8
 778              		.cfi_offset 4, -8
 779              		.cfi_offset 14, -4
 989:Generated_Source\PSoC4/CapSense_Filter.c **** 
 780              		.loc 1 989 0
 781 0004 0A24     		movs	r4, #10
 988:Generated_Source\PSoC4/CapSense_Filter.c ****     ptrSensor = &ptrSensor[sensorId];
 782              		.loc 1 988 0
 783 0006 5843     		muls	r0, r3
 784              	.LVL97:
 785 0008 074B     		ldr	r3, .L79
 989:Generated_Source\PSoC4/CapSense_Filter.c **** 
 786              		.loc 1 989 0
 787 000a 4C43     		muls	r4, r1
 988:Generated_Source\PSoC4/CapSense_Filter.c ****     ptrSensor = &ptrSensor[sensorId];
 788              		.loc 1 988 0
 789 000c 1B18     		adds	r3, r3, r0
 790              	.LVL98:
 989:Generated_Source\PSoC4/CapSense_Filter.c **** 
 791              		.loc 1 989 0
 792 000e 9A68     		ldr	r2, [r3, #8]
 992:Generated_Source\PSoC4/CapSense_Filter.c **** 
 793              		.loc 1 992 0
 794 0010 D868     		ldr	r0, [r3, #12]
 989:Generated_Source\PSoC4/CapSense_Filter.c **** 
 795              		.loc 1 989 0
 796 0012 1419     		adds	r4, r2, r4
 797              	.LVL99:
 994:Generated_Source\PSoC4/CapSense_Filter.c ****     {
 798              		.loc 1 994 0
 799 0014 9A7E     		ldrb	r2, [r3, #26]
 800 0016 062A     		cmp	r2, #6
 801 0018 02D0     		beq	.L75
ARM GAS  C:\Users\zack.li\AppData\Local\Temp\ccvbPEtI.s 			page 50


 997:Generated_Source\PSoC4/CapSense_Filter.c ****         #endif /* (CapSense_REGULAR_SENSOR_EN) */
 802              		.loc 1 997 0
 803 001a 0C23     		movs	r3, #12
 804              	.LVL100:
 805 001c 5943     		muls	r1, r3
 806              	.LVL101:
 807 001e 4018     		adds	r0, r0, r1
 808              	.LVL102:
 809              	.L75:
1007:Generated_Source\PSoC4/CapSense_Filter.c **** }
 810              		.loc 1 1007 0
 811 0020 2100     		movs	r1, r4
 812 0022 FFF7FEFF 		bl	CapSense_InitializeMedianInternal
 813              	.LVL103:
1008:Generated_Source\PSoC4/CapSense_Filter.c **** 
 814              		.loc 1 1008 0
 815              		@ sp needed
 816              	.LVL104:
 817 0026 10BD     		pop	{r4, pc}
 818              	.L80:
 819              		.align	2
 820              	.L79:
 821 0028 00000000 		.word	CapSense_dsFlash
 822              		.cfi_endproc
 823              	.LFE17:
 824              		.size	CapSense_InitializeMedian, .-CapSense_InitializeMedian
 825              		.section	.text.CapSense_RunMedianInternal,"ax",%progbits
 826              		.align	1
 827              		.global	CapSense_RunMedianInternal
 828              		.code	16
 829              		.thumb_func
 830              		.type	CapSense_RunMedianInternal, %function
 831              	CapSense_RunMedianInternal:
 832              	.LFB20:
1127:Generated_Source\PSoC4/CapSense_Filter.c ****     uint32 freqChannel;
 833              		.loc 1 1127 0
 834              		.cfi_startproc
 835              		@ args = 0, pretend = 0, frame = 0
 836              		@ frame_needed = 0, uses_anonymous_args = 0
 837              	.LVL105:
1137:Generated_Source\PSoC4/CapSense_Filter.c ****         {
 838              		.loc 1 1137 0
 839 0000 D2B2     		uxtb	r2, r2
 840              	.LVL106:
1127:Generated_Source\PSoC4/CapSense_Filter.c ****     uint32 freqChannel;
 841              		.loc 1 1127 0
 842 0002 70B5     		push	{r4, r5, r6, lr}
 843              		.cfi_def_cfa_offset 16
 844              		.cfi_offset 4, -16
 845              		.cfi_offset 5, -12
 846              		.cfi_offset 6, -8
 847              		.cfi_offset 14, -4
1137:Generated_Source\PSoC4/CapSense_Filter.c ****         {
 848              		.loc 1 1137 0
 849 0004 062A     		cmp	r2, #6
 850 0006 11D0     		beq	.L81
1140:Generated_Source\PSoC4/CapSense_Filter.c ****                                                  (uint32)ptrFilterHistObj.ptrRegular->regularChanne
ARM GAS  C:\Users\zack.li\AppData\Local\Temp\ccvbPEtI.s 			page 51


 851              		.loc 1 1140 0
 852 0008 0A88     		ldrh	r2, [r1]
1141:Generated_Source\PSoC4/CapSense_Filter.c ****                                                  (uint32)ptrFilterHistObj.ptrRegular->regularChanne
 853              		.loc 1 1141 0
 854 000a 4488     		ldrh	r4, [r0, #2]
1140:Generated_Source\PSoC4/CapSense_Filter.c ****                                                  (uint32)ptrFilterHistObj.ptrRegular->regularChanne
 855              		.loc 1 1140 0
 856 000c 1500     		movs	r5, r2
 857 000e 2600     		movs	r6, r4
 858 0010 8388     		ldrh	r3, [r0, #4]
 859              	.LVL107:
 860              	.LBB12:
 861              	.LBB13:
1817:Generated_Source\PSoC4/CapSense_Filter.c ****     {
 862              		.loc 1 1817 0
 863 0012 A242     		cmp	r2, r4
 864 0014 01D9     		bls	.L83
 865 0016 2500     		movs	r5, r4
 866 0018 1600     		movs	r6, r2
 867              	.L83:
 868              	.LVL108:
 869              	.LBE13:
 870              	.LBE12:
1143:Generated_Source\PSoC4/CapSense_Filter.c ****                 ptrFilterHistObj.ptrRegular->regularChannel[freqChannel].medHistory[0u];
 871              		.loc 1 1143 0
 872 001a 8480     		strh	r4, [r0, #4]
1145:Generated_Source\PSoC4/CapSense_Filter.c ****                 ptrSensorObj->raw[freqChannel] = LO16(temp);
 873              		.loc 1 1145 0
 874 001c 4280     		strh	r2, [r0, #2]
1146:Generated_Source\PSoC4/CapSense_Filter.c ****             #endif /* (CapSense_REGULAR_SENSOR_EN) */
 875              		.loc 1 1146 0
 876 001e B342     		cmp	r3, r6
 877 0020 00D9     		bls	.L84
 878 0022 3300     		movs	r3, r6
 879              	.L84:
 880 0024 AB42     		cmp	r3, r5
 881 0026 00D2     		bcs	.L85
 882 0028 2B00     		movs	r3, r5
 883              	.L85:
 884 002a 0B80     		strh	r3, [r1]
 885              	.LVL109:
 886              	.L81:
1162:Generated_Source\PSoC4/CapSense_Filter.c **** #endif /* (CapSense_REGULAR_RC_MEDIAN_FILTER_EN || CapSense_PROX_RC_MEDIAN_FILTER_EN) */
 887              		.loc 1 1162 0
 888              		@ sp needed
 889 002c 70BD     		pop	{r4, r5, r6, pc}
 890              		.cfi_endproc
 891              	.LFE20:
 892              		.size	CapSense_RunMedianInternal, .-CapSense_RunMedianInternal
 893              		.section	.text.CapSense_RunMedian,"ax",%progbits
 894              		.align	1
 895              		.global	CapSense_RunMedian
 896              		.code	16
 897              		.thumb_func
 898              		.type	CapSense_RunMedian, %function
 899              	CapSense_RunMedian:
 900              	.LFB18:
ARM GAS  C:\Users\zack.li\AppData\Local\Temp\ccvbPEtI.s 			page 52


1031:Generated_Source\PSoC4/CapSense_Filter.c ****     CapSense_FLASH_WD_STRUCT const *ptrWidget = &CapSense_dsFlash.wdgtArray[widgetId];
 901              		.loc 1 1031 0
 902              		.cfi_startproc
 903              		@ args = 0, pretend = 0, frame = 0
 904              		@ frame_needed = 0, uses_anonymous_args = 0
 905              	.LVL110:
1037:Generated_Source\PSoC4/CapSense_Filter.c ****     ptrSensor = &ptrSensor[sensorId];
 906              		.loc 1 1037 0
 907 0000 1C23     		movs	r3, #28
1031:Generated_Source\PSoC4/CapSense_Filter.c ****     CapSense_FLASH_WD_STRUCT const *ptrWidget = &CapSense_dsFlash.wdgtArray[widgetId];
 908              		.loc 1 1031 0
 909 0002 10B5     		push	{r4, lr}
 910              		.cfi_def_cfa_offset 8
 911              		.cfi_offset 4, -8
 912              		.cfi_offset 14, -4
1038:Generated_Source\PSoC4/CapSense_Filter.c **** 
 913              		.loc 1 1038 0
 914 0004 0A24     		movs	r4, #10
1037:Generated_Source\PSoC4/CapSense_Filter.c ****     ptrSensor = &ptrSensor[sensorId];
 915              		.loc 1 1037 0
 916 0006 5843     		muls	r0, r3
 917              	.LVL111:
 918 0008 074B     		ldr	r3, .L94
1038:Generated_Source\PSoC4/CapSense_Filter.c **** 
 919              		.loc 1 1038 0
 920 000a 4C43     		muls	r4, r1
1037:Generated_Source\PSoC4/CapSense_Filter.c ****     ptrSensor = &ptrSensor[sensorId];
 921              		.loc 1 1037 0
 922 000c 1B18     		adds	r3, r3, r0
 923              	.LVL112:
1038:Generated_Source\PSoC4/CapSense_Filter.c **** 
 924              		.loc 1 1038 0
 925 000e 9A68     		ldr	r2, [r3, #8]
1041:Generated_Source\PSoC4/CapSense_Filter.c **** 
 926              		.loc 1 1041 0
 927 0010 D868     		ldr	r0, [r3, #12]
1038:Generated_Source\PSoC4/CapSense_Filter.c **** 
 928              		.loc 1 1038 0
 929 0012 1419     		adds	r4, r2, r4
 930              	.LVL113:
1043:Generated_Source\PSoC4/CapSense_Filter.c ****     {
 931              		.loc 1 1043 0
 932 0014 9A7E     		ldrb	r2, [r3, #26]
 933 0016 062A     		cmp	r2, #6
 934 0018 02D0     		beq	.L90
1046:Generated_Source\PSoC4/CapSense_Filter.c ****         #endif /* (CapSense_REGULAR_SENSOR_EN) */
 935              		.loc 1 1046 0
 936 001a 0C23     		movs	r3, #12
 937              	.LVL114:
 938 001c 5943     		muls	r1, r3
 939              	.LVL115:
 940 001e 4018     		adds	r0, r0, r1
 941              	.LVL116:
 942              	.L90:
1056:Generated_Source\PSoC4/CapSense_Filter.c **** }
 943              		.loc 1 1056 0
 944 0020 2100     		movs	r1, r4
ARM GAS  C:\Users\zack.li\AppData\Local\Temp\ccvbPEtI.s 			page 53


 945 0022 FFF7FEFF 		bl	CapSense_RunMedianInternal
 946              	.LVL117:
1057:Generated_Source\PSoC4/CapSense_Filter.c **** 
 947              		.loc 1 1057 0
 948              		@ sp needed
 949              	.LVL118:
 950 0026 10BD     		pop	{r4, pc}
 951              	.L95:
 952              		.align	2
 953              	.L94:
 954 0028 00000000 		.word	CapSense_dsFlash
 955              		.cfi_endproc
 956              	.LFE18:
 957              		.size	CapSense_RunMedian, .-CapSense_RunMedian
 958              		.section	.text.CapSense_InitializeAverageInternal,"ax",%progbits
 959              		.align	1
 960              		.global	CapSense_InitializeAverageInternal
 961              		.code	16
 962              		.thumb_func
 963              		.type	CapSense_InitializeAverageInternal, %function
 964              	CapSense_InitializeAverageInternal:
 965              	.LFB23:
1286:Generated_Source\PSoC4/CapSense_Filter.c ****     uint32 freqChannel;
 966              		.loc 1 1286 0
 967              		.cfi_startproc
 968              		@ args = 0, pretend = 0, frame = 0
 969              		@ frame_needed = 0, uses_anonymous_args = 0
 970              		@ link register save eliminated.
 971              	.LVL119:
1291:Generated_Source\PSoC4/CapSense_Filter.c ****         {
 972              		.loc 1 1291 0
 973 0000 D2B2     		uxtb	r2, r2
 974              	.LVL120:
 975 0002 062A     		cmp	r2, #6
 976 0004 03D0     		beq	.L96
1294:Generated_Source\PSoC4/CapSense_Filter.c ****                 #if (CapSense_REGULAR_AVERAGE_LEN == CapSense_AVERAGE_FILTER_LEN_4)
 977              		.loc 1 1294 0
 978 0006 0B88     		ldrh	r3, [r1]
 979 0008 C380     		strh	r3, [r0, #6]
1296:Generated_Source\PSoC4/CapSense_Filter.c ****                     ptrFilterHistObj.ptrRegular->regularChannel[freqChannel].avgHistory[2u] = ptrSe
 980              		.loc 1 1296 0
 981 000a 0381     		strh	r3, [r0, #8]
1297:Generated_Source\PSoC4/CapSense_Filter.c ****                 #endif /* CapSense_REGULAR_AVERAGE_LEN == CapSense_AVERAGE_FILTER_LEN_4 */
 982              		.loc 1 1297 0
 983 000c 4381     		strh	r3, [r0, #10]
 984              	.LVL121:
 985              	.L96:
1312:Generated_Source\PSoC4/CapSense_Filter.c **** 
 986              		.loc 1 1312 0
 987              		@ sp needed
 988 000e 7047     		bx	lr
 989              		.cfi_endproc
 990              	.LFE23:
 991              		.size	CapSense_InitializeAverageInternal, .-CapSense_InitializeAverageInternal
 992              		.section	.text.CapSense_InitializeWidgetFilter,"ax",%progbits
 993              		.align	1
 994              		.global	CapSense_InitializeWidgetFilter
ARM GAS  C:\Users\zack.li\AppData\Local\Temp\ccvbPEtI.s 			page 54


 995              		.code	16
 996              		.thumb_func
 997              		.type	CapSense_InitializeWidgetFilter, %function
 998              	CapSense_InitializeWidgetFilter:
 999              	.LFB12:
 648:Generated_Source\PSoC4/CapSense_Filter.c ****     uint32 sensorId;
 1000              		.loc 1 648 0
 1001              		.cfi_startproc
 1002              		@ args = 0, pretend = 0, frame = 24
 1003              		@ frame_needed = 0, uses_anonymous_args = 0
 1004              	.LVL122:
 670:Generated_Source\PSoC4/CapSense_Filter.c **** 
 1005              		.loc 1 670 0
 1006 0000 1C21     		movs	r1, #28
 1007 0002 0A22     		movs	r2, #10
 648:Generated_Source\PSoC4/CapSense_Filter.c ****     uint32 sensorId;
 1008              		.loc 1 648 0
 1009 0004 F0B5     		push	{r4, r5, r6, r7, lr}
 1010              		.cfi_def_cfa_offset 20
 1011              		.cfi_offset 4, -20
 1012              		.cfi_offset 5, -16
 1013              		.cfi_offset 6, -12
 1014              		.cfi_offset 7, -8
 1015              		.cfi_offset 14, -4
 1016 0006 87B0     		sub	sp, sp, #28
 1017              		.cfi_def_cfa_offset 48
 1018              	.LVL123:
 648:Generated_Source\PSoC4/CapSense_Filter.c ****     uint32 sensorId;
 1019              		.loc 1 648 0
 1020 0008 0390     		str	r0, [sp, #12]
 1021              	.LVL124:
 670:Generated_Source\PSoC4/CapSense_Filter.c **** 
 1022              		.loc 1 670 0
 1023 000a 039B     		ldr	r3, [sp, #12]
 1024 000c 1B48     		ldr	r0, .L109
 1025              	.LVL125:
 1026 000e 4B43     		muls	r3, r1
 1027              	.LVL126:
 1028 0010 C318     		adds	r3, r0, r3
 1029 0012 1B8B     		ldrh	r3, [r3, #24]
 1030              	.LVL127:
 1031 0014 0490     		str	r0, [sp, #16]
 1032 0016 5A43     		muls	r2, r3
 1033 0018 0A3A     		subs	r2, r2, #10
 1034 001a 0192     		str	r2, [sp, #4]
 1035 001c 0C22     		movs	r2, #12
 672:Generated_Source\PSoC4/CapSense_Filter.c ****     {
 1036              		.loc 1 672 0
 1037 001e 1F00     		movs	r7, r3
 1038 0020 5A43     		muls	r2, r3
 1039 0022 0C3A     		subs	r2, r2, #12
 1040 0024 0292     		str	r2, [sp, #8]
 675:Generated_Source\PSoC4/CapSense_Filter.c ****         ptrSensor = &ptrSensor[sensorId];
 1041              		.loc 1 675 0
 1042 0026 0591     		str	r1, [sp, #20]
 1043              	.LVL128:
 1044              	.L102:
ARM GAS  C:\Users\zack.li\AppData\Local\Temp\ccvbPEtI.s 			page 55


 672:Generated_Source\PSoC4/CapSense_Filter.c ****     {
 1045              		.loc 1 672 0 discriminator 1
 1046 0028 002F     		cmp	r7, #0
 1047 002a 24D0     		beq	.L108
 675:Generated_Source\PSoC4/CapSense_Filter.c ****         ptrSensor = &ptrSensor[sensorId];
 1048              		.loc 1 675 0
 1049 002c 039A     		ldr	r2, [sp, #12]
 1050 002e 059B     		ldr	r3, [sp, #20]
 676:Generated_Source\PSoC4/CapSense_Filter.c **** 
 1051              		.loc 1 676 0
 1052 0030 0199     		ldr	r1, [sp, #4]
 675:Generated_Source\PSoC4/CapSense_Filter.c ****         ptrSensor = &ptrSensor[sensorId];
 1053              		.loc 1 675 0
 1054 0032 5343     		muls	r3, r2
 1055 0034 049A     		ldr	r2, [sp, #16]
 1056 0036 D318     		adds	r3, r2, r3
 1057              	.LVL129:
 676:Generated_Source\PSoC4/CapSense_Filter.c **** 
 1058              		.loc 1 676 0
 1059 0038 9A68     		ldr	r2, [r3, #8]
 689:Generated_Source\PSoC4/CapSense_Filter.c ****         {
 1060              		.loc 1 689 0
 1061 003a 9E7E     		ldrb	r6, [r3, #26]
 676:Generated_Source\PSoC4/CapSense_Filter.c **** 
 1062              		.loc 1 676 0
 1063 003c 5518     		adds	r5, r2, r1
 1064              	.LVL130:
 680:Generated_Source\PSoC4/CapSense_Filter.c ****         #endif
 1065              		.loc 1 680 0
 1066 003e DC68     		ldr	r4, [r3, #12]
 1067              	.LVL131:
 689:Generated_Source\PSoC4/CapSense_Filter.c ****         {
 1068              		.loc 1 689 0
 1069 0040 062E     		cmp	r6, #6
 1070 0042 01D0     		beq	.L103
 694:Generated_Source\PSoC4/CapSense_Filter.c ****             #endif
 1071              		.loc 1 694 0
 1072 0044 029B     		ldr	r3, [sp, #8]
 1073 0046 E418     		adds	r4, r4, r3
 1074              	.LVL132:
 1075              	.L103:
 707:Generated_Source\PSoC4/CapSense_Filter.c ****         #endif /* (CapSense_REGULAR_RC_IIR_FILTER_EN || CapSense_PROX_RC_IIR_FILTER_EN) */
 1076              		.loc 1 707 0
 1077 0048 3200     		movs	r2, r6
 1078 004a 2900     		movs	r1, r5
 1079 004c 2000     		movs	r0, r4
 1080 004e FFF7FEFF 		bl	CapSense_InitializeIIRInternal
 1081              	.LVL133:
 711:Generated_Source\PSoC4/CapSense_Filter.c ****         #endif /* (CapSense_REGULAR_RC_MEDIAN_FILTER_EN || CapSense_PROX_RC_MEDIAN_FILTER_EN) */
 1082              		.loc 1 711 0
 1083 0052 3200     		movs	r2, r6
 1084 0054 2900     		movs	r1, r5
 1085 0056 2000     		movs	r0, r4
 1086 0058 FFF7FEFF 		bl	CapSense_InitializeMedianInternal
 1087              	.LVL134:
 715:Generated_Source\PSoC4/CapSense_Filter.c ****         #endif /* (CapSense_REGULAR_RC_AVERAGE_FILTER_EN || CapSense_PROX_RC_AVERAGE_FILTER_EN) */
 1088              		.loc 1 715 0
ARM GAS  C:\Users\zack.li\AppData\Local\Temp\ccvbPEtI.s 			page 56


 1089 005c 3200     		movs	r2, r6
 1090 005e 2900     		movs	r1, r5
 1091 0060 2000     		movs	r0, r4
 1092 0062 FFF7FEFF 		bl	CapSense_InitializeAverageInternal
 1093              	.LVL135:
 1094 0066 019B     		ldr	r3, [sp, #4]
 1095 0068 013F     		subs	r7, r7, #1
 1096              	.LVL136:
 1097 006a 0A3B     		subs	r3, r3, #10
 1098 006c 0193     		str	r3, [sp, #4]
 1099 006e 029B     		ldr	r3, [sp, #8]
 1100 0070 0C3B     		subs	r3, r3, #12
 1101 0072 0293     		str	r3, [sp, #8]
 1102 0074 D8E7     		b	.L102
 1103              	.LVL137:
 1104              	.L108:
 730:Generated_Source\PSoC4/CapSense_Filter.c **** #endif /* ((CapSense_ENABLE == CapSense_RC_FILTER_EN) || \
 1105              		.loc 1 730 0
 1106 0076 07B0     		add	sp, sp, #28
 1107              		@ sp needed
 1108              	.LVL138:
 1109 0078 F0BD     		pop	{r4, r5, r6, r7, pc}
 1110              	.L110:
 1111 007a C046     		.align	2
 1112              	.L109:
 1113 007c 00000000 		.word	CapSense_dsFlash
 1114              		.cfi_endproc
 1115              	.LFE12:
 1116              		.size	CapSense_InitializeWidgetFilter, .-CapSense_InitializeWidgetFilter
 1117              		.section	.text.CapSense_InitializeAllFilters,"ax",%progbits
 1118              		.align	1
 1119              		.global	CapSense_InitializeAllFilters
 1120              		.code	16
 1121              		.thumb_func
 1122              		.type	CapSense_InitializeAllFilters, %function
 1123              	CapSense_InitializeAllFilters:
 1124              	.LFB11:
 618:Generated_Source\PSoC4/CapSense_Filter.c ****     uint32 widgetId;
 1125              		.loc 1 618 0
 1126              		.cfi_startproc
 1127              		@ args = 0, pretend = 0, frame = 0
 1128              		@ frame_needed = 0, uses_anonymous_args = 0
 1129              	.LVL139:
 1130 0000 10B5     		push	{r4, lr}
 1131              		.cfi_def_cfa_offset 8
 1132              		.cfi_offset 4, -8
 1133              		.cfi_offset 14, -4
 623:Generated_Source\PSoC4/CapSense_Filter.c ****     }
 1134              		.loc 1 623 0
 1135 0002 0320     		movs	r0, #3
 1136 0004 FFF7FEFF 		bl	CapSense_InitializeWidgetFilter
 1137              	.LVL140:
 1138 0008 0220     		movs	r0, #2
 1139 000a FFF7FEFF 		bl	CapSense_InitializeWidgetFilter
 1140              	.LVL141:
 1141 000e 0120     		movs	r0, #1
 1142 0010 FFF7FEFF 		bl	CapSense_InitializeWidgetFilter
ARM GAS  C:\Users\zack.li\AppData\Local\Temp\ccvbPEtI.s 			page 57


 1143              	.LVL142:
 1144 0014 0020     		movs	r0, #0
 1145 0016 FFF7FEFF 		bl	CapSense_InitializeWidgetFilter
 1146              	.LVL143:
 625:Generated_Source\PSoC4/CapSense_Filter.c **** 
 1147              		.loc 1 625 0
 1148              		@ sp needed
 1149 001a 10BD     		pop	{r4, pc}
 1150              		.cfi_endproc
 1151              	.LFE11:
 1152              		.size	CapSense_InitializeAllFilters, .-CapSense_InitializeAllFilters
 1153              		.section	.text.CapSense_FtInitialize,"ax",%progbits
 1154              		.align	1
 1155              		.global	CapSense_FtInitialize
 1156              		.code	16
 1157              		.thumb_func
 1158              		.type	CapSense_FtInitialize, %function
 1159              	CapSense_FtInitialize:
 1160              	.LFB1:
  63:Generated_Source\PSoC4/CapSense_Filter.c ****     #if ((CapSense_ENABLE == CapSense_RC_FILTER_EN) || \
 1161              		.loc 1 63 0
 1162              		.cfi_startproc
 1163              		@ args = 0, pretend = 0, frame = 0
 1164              		@ frame_needed = 0, uses_anonymous_args = 0
 1165 0000 10B5     		push	{r4, lr}
 1166              		.cfi_def_cfa_offset 8
 1167              		.cfi_offset 4, -8
 1168              		.cfi_offset 14, -4
  66:Generated_Source\PSoC4/CapSense_Filter.c ****     #endif /* ((CapSense_ENABLE == CapSense_RC_FILTER_EN) || \
 1169              		.loc 1 66 0
 1170 0002 FFF7FEFF 		bl	CapSense_InitializeAllFilters
 1171              	.LVL144:
  69:Generated_Source\PSoC4/CapSense_Filter.c **** 
 1172              		.loc 1 69 0
 1173              		@ sp needed
 1174 0006 10BD     		pop	{r4, pc}
 1175              		.cfi_endproc
 1176              	.LFE1:
 1177              		.size	CapSense_FtInitialize, .-CapSense_FtInitialize
 1178              		.section	.text.CapSense_InitializeAverage,"ax",%progbits
 1179              		.align	1
 1180              		.global	CapSense_InitializeAverage
 1181              		.code	16
 1182              		.thumb_func
 1183              		.type	CapSense_InitializeAverage, %function
 1184              	CapSense_InitializeAverage:
 1185              	.LFB21:
1186:Generated_Source\PSoC4/CapSense_Filter.c ****     CapSense_FLASH_WD_STRUCT const *ptrWidget = &CapSense_dsFlash.wdgtArray[widgetId];
 1186              		.loc 1 1186 0
 1187              		.cfi_startproc
 1188              		@ args = 0, pretend = 0, frame = 0
 1189              		@ frame_needed = 0, uses_anonymous_args = 0
 1190              	.LVL145:
1192:Generated_Source\PSoC4/CapSense_Filter.c ****     ptrSensor = &ptrSensor[sensorId];
 1191              		.loc 1 1192 0
 1192 0000 1C23     		movs	r3, #28
1186:Generated_Source\PSoC4/CapSense_Filter.c ****     CapSense_FLASH_WD_STRUCT const *ptrWidget = &CapSense_dsFlash.wdgtArray[widgetId];
ARM GAS  C:\Users\zack.li\AppData\Local\Temp\ccvbPEtI.s 			page 58


 1193              		.loc 1 1186 0
 1194 0002 10B5     		push	{r4, lr}
 1195              		.cfi_def_cfa_offset 8
 1196              		.cfi_offset 4, -8
 1197              		.cfi_offset 14, -4
1193:Generated_Source\PSoC4/CapSense_Filter.c **** 
 1198              		.loc 1 1193 0
 1199 0004 0A24     		movs	r4, #10
1192:Generated_Source\PSoC4/CapSense_Filter.c ****     ptrSensor = &ptrSensor[sensorId];
 1200              		.loc 1 1192 0
 1201 0006 5843     		muls	r0, r3
 1202              	.LVL146:
 1203 0008 074B     		ldr	r3, .L118
1193:Generated_Source\PSoC4/CapSense_Filter.c **** 
 1204              		.loc 1 1193 0
 1205 000a 4C43     		muls	r4, r1
1192:Generated_Source\PSoC4/CapSense_Filter.c ****     ptrSensor = &ptrSensor[sensorId];
 1206              		.loc 1 1192 0
 1207 000c 1B18     		adds	r3, r3, r0
 1208              	.LVL147:
1193:Generated_Source\PSoC4/CapSense_Filter.c **** 
 1209              		.loc 1 1193 0
 1210 000e 9A68     		ldr	r2, [r3, #8]
1196:Generated_Source\PSoC4/CapSense_Filter.c **** 
 1211              		.loc 1 1196 0
 1212 0010 D868     		ldr	r0, [r3, #12]
1193:Generated_Source\PSoC4/CapSense_Filter.c **** 
 1213              		.loc 1 1193 0
 1214 0012 1419     		adds	r4, r2, r4
 1215              	.LVL148:
1198:Generated_Source\PSoC4/CapSense_Filter.c ****     {
 1216              		.loc 1 1198 0
 1217 0014 9A7E     		ldrb	r2, [r3, #26]
 1218 0016 062A     		cmp	r2, #6
 1219 0018 02D0     		beq	.L114
1201:Generated_Source\PSoC4/CapSense_Filter.c ****         #endif /* (CapSense_REGULAR_SENSOR_EN) */
 1220              		.loc 1 1201 0
 1221 001a 0C23     		movs	r3, #12
 1222              	.LVL149:
 1223 001c 5943     		muls	r1, r3
 1224              	.LVL150:
 1225 001e 4018     		adds	r0, r0, r1
 1226              	.LVL151:
 1227              	.L114:
1211:Generated_Source\PSoC4/CapSense_Filter.c **** }
 1228              		.loc 1 1211 0
 1229 0020 2100     		movs	r1, r4
 1230 0022 FFF7FEFF 		bl	CapSense_InitializeAverageInternal
 1231              	.LVL152:
1212:Generated_Source\PSoC4/CapSense_Filter.c **** 
 1232              		.loc 1 1212 0
 1233              		@ sp needed
 1234              	.LVL153:
 1235 0026 10BD     		pop	{r4, pc}
 1236              	.L119:
 1237              		.align	2
 1238              	.L118:
ARM GAS  C:\Users\zack.li\AppData\Local\Temp\ccvbPEtI.s 			page 59


 1239 0028 00000000 		.word	CapSense_dsFlash
 1240              		.cfi_endproc
 1241              	.LFE21:
 1242              		.size	CapSense_InitializeAverage, .-CapSense_InitializeAverage
 1243              		.section	.text.CapSense_RunAverageInternal,"ax",%progbits
 1244              		.align	1
 1245              		.global	CapSense_RunAverageInternal
 1246              		.code	16
 1247              		.thumb_func
 1248              		.type	CapSense_RunAverageInternal, %function
 1249              	CapSense_RunAverageInternal:
 1250              	.LFB24:
1337:Generated_Source\PSoC4/CapSense_Filter.c ****     uint32 freqChannel;
 1251              		.loc 1 1337 0
 1252              		.cfi_startproc
 1253              		@ args = 0, pretend = 0, frame = 0
 1254              		@ frame_needed = 0, uses_anonymous_args = 0
 1255              	.LVL154:
1343:Generated_Source\PSoC4/CapSense_Filter.c ****         {
 1256              		.loc 1 1343 0
 1257 0000 D2B2     		uxtb	r2, r2
 1258              	.LVL155:
1337:Generated_Source\PSoC4/CapSense_Filter.c ****     uint32 freqChannel;
 1259              		.loc 1 1337 0
 1260 0002 70B5     		push	{r4, r5, r6, lr}
 1261              		.cfi_def_cfa_offset 16
 1262              		.cfi_offset 4, -16
 1263              		.cfi_offset 5, -12
 1264              		.cfi_offset 6, -8
 1265              		.cfi_offset 14, -4
1343:Generated_Source\PSoC4/CapSense_Filter.c ****         {
 1266              		.loc 1 1343 0
 1267 0004 062A     		cmp	r2, #6
 1268 0006 0BD0     		beq	.L120
1352:Generated_Source\PSoC4/CapSense_Filter.c ****                             (uint32)ptrFilterHistObj.ptrRegular->regularChannel[freqChannel].avgHis
 1269              		.loc 1 1352 0
 1270 0008 0C88     		ldrh	r4, [r1]
1353:Generated_Source\PSoC4/CapSense_Filter.c ****                             (uint32)ptrFilterHistObj.ptrRegular->regularChannel[freqChannel].avgHis
 1271              		.loc 1 1353 0
 1272 000a C588     		ldrh	r5, [r0, #6]
1354:Generated_Source\PSoC4/CapSense_Filter.c ****                             (uint32)ptrFilterHistObj.ptrRegular->regularChannel[freqChannel].avgHis
 1273              		.loc 1 1354 0
 1274 000c 0689     		ldrh	r6, [r0, #8]
1352:Generated_Source\PSoC4/CapSense_Filter.c ****                             (uint32)ptrFilterHistObj.ptrRegular->regularChannel[freqChannel].avgHis
 1275              		.loc 1 1352 0
 1276 000e 4289     		ldrh	r2, [r0, #10]
 1277 0010 6319     		adds	r3, r4, r5
 1278 0012 9B19     		adds	r3, r3, r6
 1279 0014 9B18     		adds	r3, r3, r2
 1280 0016 9B08     		lsrs	r3, r3, #2
 1281              	.LVL156:
1357:Generated_Source\PSoC4/CapSense_Filter.c ****                     ptrFilterHistObj.ptrRegular->regularChannel[freqChannel].avgHistory[1u];
 1282              		.loc 1 1357 0
 1283 0018 4681     		strh	r6, [r0, #10]
1359:Generated_Source\PSoC4/CapSense_Filter.c ****                     ptrFilterHistObj.ptrRegular->regularChannel[freqChannel].avgHistory[0];
 1284              		.loc 1 1359 0
 1285 001a 0581     		strh	r5, [r0, #8]
ARM GAS  C:\Users\zack.li\AppData\Local\Temp\ccvbPEtI.s 			page 60


1361:Generated_Source\PSoC4/CapSense_Filter.c ****                     ptrSensorObj->raw[freqChannel] = LO16(temp);
 1286              		.loc 1 1361 0
 1287 001c C480     		strh	r4, [r0, #6]
1362:Generated_Source\PSoC4/CapSense_Filter.c ****                 #endif /* CapSense_REGULAR_AVERAGE_LEN == CapSense_AVERAGE_FILTER_LEN_4 */
 1288              		.loc 1 1362 0
 1289 001e 0B80     		strh	r3, [r1]
 1290              	.LVL157:
 1291              	.L120:
1390:Generated_Source\PSoC4/CapSense_Filter.c **** #endif /* (CapSense_REGULAR_RC_AVERAGE_FILTER_EN || CapSense_PROX_RC_AVERAGE_FILTER_EN) */
 1292              		.loc 1 1390 0
 1293              		@ sp needed
 1294 0020 70BD     		pop	{r4, r5, r6, pc}
 1295              		.cfi_endproc
 1296              	.LFE24:
 1297              		.size	CapSense_RunAverageInternal, .-CapSense_RunAverageInternal
 1298              		.section	.text.CapSense_RunAverage,"ax",%progbits
 1299              		.align	1
 1300              		.global	CapSense_RunAverage
 1301              		.code	16
 1302              		.thumb_func
 1303              		.type	CapSense_RunAverage, %function
 1304              	CapSense_RunAverage:
 1305              	.LFB22:
1235:Generated_Source\PSoC4/CapSense_Filter.c ****     CapSense_FLASH_WD_STRUCT const *ptrWidget = &CapSense_dsFlash.wdgtArray[widgetId];
 1306              		.loc 1 1235 0
 1307              		.cfi_startproc
 1308              		@ args = 0, pretend = 0, frame = 0
 1309              		@ frame_needed = 0, uses_anonymous_args = 0
 1310              	.LVL158:
1241:Generated_Source\PSoC4/CapSense_Filter.c ****     ptrSensor = &ptrSensor[sensorId];
 1311              		.loc 1 1241 0
 1312 0000 1C23     		movs	r3, #28
1235:Generated_Source\PSoC4/CapSense_Filter.c ****     CapSense_FLASH_WD_STRUCT const *ptrWidget = &CapSense_dsFlash.wdgtArray[widgetId];
 1313              		.loc 1 1235 0
 1314 0002 10B5     		push	{r4, lr}
 1315              		.cfi_def_cfa_offset 8
 1316              		.cfi_offset 4, -8
 1317              		.cfi_offset 14, -4
1242:Generated_Source\PSoC4/CapSense_Filter.c **** 
 1318              		.loc 1 1242 0
 1319 0004 0A24     		movs	r4, #10
1241:Generated_Source\PSoC4/CapSense_Filter.c ****     ptrSensor = &ptrSensor[sensorId];
 1320              		.loc 1 1241 0
 1321 0006 5843     		muls	r0, r3
 1322              	.LVL159:
 1323 0008 074B     		ldr	r3, .L130
1242:Generated_Source\PSoC4/CapSense_Filter.c **** 
 1324              		.loc 1 1242 0
 1325 000a 4C43     		muls	r4, r1
1241:Generated_Source\PSoC4/CapSense_Filter.c ****     ptrSensor = &ptrSensor[sensorId];
 1326              		.loc 1 1241 0
 1327 000c 1B18     		adds	r3, r3, r0
 1328              	.LVL160:
1242:Generated_Source\PSoC4/CapSense_Filter.c **** 
 1329              		.loc 1 1242 0
 1330 000e 9A68     		ldr	r2, [r3, #8]
1245:Generated_Source\PSoC4/CapSense_Filter.c **** 
ARM GAS  C:\Users\zack.li\AppData\Local\Temp\ccvbPEtI.s 			page 61


 1331              		.loc 1 1245 0
 1332 0010 D868     		ldr	r0, [r3, #12]
1242:Generated_Source\PSoC4/CapSense_Filter.c **** 
 1333              		.loc 1 1242 0
 1334 0012 1419     		adds	r4, r2, r4
 1335              	.LVL161:
1247:Generated_Source\PSoC4/CapSense_Filter.c ****     {
 1336              		.loc 1 1247 0
 1337 0014 9A7E     		ldrb	r2, [r3, #26]
 1338 0016 062A     		cmp	r2, #6
 1339 0018 02D0     		beq	.L126
1250:Generated_Source\PSoC4/CapSense_Filter.c ****         #endif /* (CapSense_REGULAR_SENSOR_EN) */
 1340              		.loc 1 1250 0
 1341 001a 0C23     		movs	r3, #12
 1342              	.LVL162:
 1343 001c 5943     		muls	r1, r3
 1344              	.LVL163:
 1345 001e 4018     		adds	r0, r0, r1
 1346              	.LVL164:
 1347              	.L126:
1260:Generated_Source\PSoC4/CapSense_Filter.c **** }
 1348              		.loc 1 1260 0
 1349 0020 2100     		movs	r1, r4
 1350 0022 FFF7FEFF 		bl	CapSense_RunAverageInternal
 1351              	.LVL165:
1261:Generated_Source\PSoC4/CapSense_Filter.c **** 
 1352              		.loc 1 1261 0
 1353              		@ sp needed
 1354              	.LVL166:
 1355 0026 10BD     		pop	{r4, pc}
 1356              	.L131:
 1357              		.align	2
 1358              	.L130:
 1359 0028 00000000 		.word	CapSense_dsFlash
 1360              		.cfi_endproc
 1361              	.LFE22:
 1362              		.size	CapSense_RunAverage, .-CapSense_RunAverage
 1363              		.section	.text.CapSense_FtRunEnabledFiltersInternal,"ax",%progbits
 1364              		.align	1
 1365              		.global	CapSense_FtRunEnabledFiltersInternal
 1366              		.code	16
 1367              		.thumb_func
 1368              		.type	CapSense_FtRunEnabledFiltersInternal, %function
 1369              	CapSense_FtRunEnabledFiltersInternal:
 1370              	.LFB26:
1697:Generated_Source\PSoC4/CapSense_Filter.c ****     #if (CapSense_REGULAR_RC_MEDIAN_FILTER_EN || CapSense_PROX_RC_MEDIAN_FILTER_EN)
 1371              		.loc 1 1697 0
 1372              		.cfi_startproc
 1373              		@ args = 0, pretend = 0, frame = 0
 1374              		@ frame_needed = 0, uses_anonymous_args = 0
 1375              	.LVL167:
 1376 0000 70B5     		push	{r4, r5, r6, lr}
 1377              		.cfi_def_cfa_offset 16
 1378              		.cfi_offset 4, -16
 1379              		.cfi_offset 5, -12
 1380              		.cfi_offset 6, -8
 1381              		.cfi_offset 14, -4
ARM GAS  C:\Users\zack.li\AppData\Local\Temp\ccvbPEtI.s 			page 62


1697:Generated_Source\PSoC4/CapSense_Filter.c ****     #if (CapSense_REGULAR_RC_MEDIAN_FILTER_EN || CapSense_PROX_RC_MEDIAN_FILTER_EN)
 1382              		.loc 1 1697 0
 1383 0002 0D00     		movs	r5, r1
 1384 0004 1600     		movs	r6, r2
 1385 0006 0400     		movs	r4, r0
1699:Generated_Source\PSoC4/CapSense_Filter.c ****     #endif /* (CapSense_REGULAR_RC_MEDIAN_FILTER_EN || CapSense_PROX_RC_MEDIAN_FILTER_EN) */
 1386              		.loc 1 1699 0
 1387 0008 FFF7FEFF 		bl	CapSense_RunMedianInternal
 1388              	.LVL168:
1703:Generated_Source\PSoC4/CapSense_Filter.c ****     #endif /* (CapSense_REGULAR_RC_IIR_FILTER_EN || CapSense_PROX_RC_IIR_FILTER_EN) */
 1389              		.loc 1 1703 0
 1390 000c 3200     		movs	r2, r6
 1391 000e 2900     		movs	r1, r5
 1392              	.LVL169:
 1393 0010 2000     		movs	r0, r4
 1394 0012 FFF7FEFF 		bl	CapSense_RunIIRInternal
 1395              	.LVL170:
1707:Generated_Source\PSoC4/CapSense_Filter.c ****     #endif /* (CapSense_REGULAR_RC_AVERAGE_FILTER_EN || CapSense_PROX_RC_AVERAGE_FILTER_EN) */
 1396              		.loc 1 1707 0
 1397 0016 3200     		movs	r2, r6
 1398 0018 2900     		movs	r1, r5
 1399 001a 2000     		movs	r0, r4
 1400 001c FFF7FEFF 		bl	CapSense_RunAverageInternal
 1401              	.LVL171:
1709:Generated_Source\PSoC4/CapSense_Filter.c **** #endif /* (CapSense_ENABLE == CapSense_RC_FILTER_EN) */
 1402              		.loc 1 1709 0
 1403              		@ sp needed
 1404              	.LVL172:
 1405              	.LVL173:
 1406              	.LVL174:
 1407 0020 70BD     		pop	{r4, r5, r6, pc}
 1408              		.cfi_endproc
 1409              	.LFE26:
 1410              		.size	CapSense_FtRunEnabledFiltersInternal, .-CapSense_FtRunEnabledFiltersInternal
 1411              		.section	.text.CapSense_FtRunEnabledFilters,"ax",%progbits
 1412              		.align	1
 1413              		.global	CapSense_FtRunEnabledFilters
 1414              		.code	16
 1415              		.thumb_func
 1416              		.type	CapSense_FtRunEnabledFilters, %function
 1417              	CapSense_FtRunEnabledFilters:
 1418              	.LFB25:
1639:Generated_Source\PSoC4/CapSense_Filter.c ****     CapSense_FLASH_WD_STRUCT const *ptrWidget = &CapSense_dsFlash.wdgtArray[widgetId];
 1419              		.loc 1 1639 0
 1420              		.cfi_startproc
 1421              		@ args = 0, pretend = 0, frame = 0
 1422              		@ frame_needed = 0, uses_anonymous_args = 0
 1423              	.LVL175:
1645:Generated_Source\PSoC4/CapSense_Filter.c ****     ptrSensor = &ptrSensor[sensorId];
 1424              		.loc 1 1645 0
 1425 0000 1C23     		movs	r3, #28
1639:Generated_Source\PSoC4/CapSense_Filter.c ****     CapSense_FLASH_WD_STRUCT const *ptrWidget = &CapSense_dsFlash.wdgtArray[widgetId];
 1426              		.loc 1 1639 0
 1427 0002 10B5     		push	{r4, lr}
 1428              		.cfi_def_cfa_offset 8
 1429              		.cfi_offset 4, -8
 1430              		.cfi_offset 14, -4
ARM GAS  C:\Users\zack.li\AppData\Local\Temp\ccvbPEtI.s 			page 63


1646:Generated_Source\PSoC4/CapSense_Filter.c **** 
 1431              		.loc 1 1646 0
 1432 0004 0A24     		movs	r4, #10
1645:Generated_Source\PSoC4/CapSense_Filter.c ****     ptrSensor = &ptrSensor[sensorId];
 1433              		.loc 1 1645 0
 1434 0006 5843     		muls	r0, r3
 1435              	.LVL176:
 1436 0008 074B     		ldr	r3, .L138
1646:Generated_Source\PSoC4/CapSense_Filter.c **** 
 1437              		.loc 1 1646 0
 1438 000a 4C43     		muls	r4, r1
1645:Generated_Source\PSoC4/CapSense_Filter.c ****     ptrSensor = &ptrSensor[sensorId];
 1439              		.loc 1 1645 0
 1440 000c 1B18     		adds	r3, r3, r0
 1441              	.LVL177:
1646:Generated_Source\PSoC4/CapSense_Filter.c **** 
 1442              		.loc 1 1646 0
 1443 000e 9A68     		ldr	r2, [r3, #8]
1649:Generated_Source\PSoC4/CapSense_Filter.c **** 
 1444              		.loc 1 1649 0
 1445 0010 D868     		ldr	r0, [r3, #12]
1646:Generated_Source\PSoC4/CapSense_Filter.c **** 
 1446              		.loc 1 1646 0
 1447 0012 1419     		adds	r4, r2, r4
 1448              	.LVL178:
1651:Generated_Source\PSoC4/CapSense_Filter.c ****     {
 1449              		.loc 1 1651 0
 1450 0014 9A7E     		ldrb	r2, [r3, #26]
 1451 0016 062A     		cmp	r2, #6
 1452 0018 02D0     		beq	.L134
1656:Generated_Source\PSoC4/CapSense_Filter.c ****         #endif
 1453              		.loc 1 1656 0
 1454 001a 0C23     		movs	r3, #12
 1455              	.LVL179:
 1456 001c 5943     		muls	r1, r3
 1457              	.LVL180:
 1458 001e 4018     		adds	r0, r0, r1
 1459              	.LVL181:
 1460              	.L134:
1668:Generated_Source\PSoC4/CapSense_Filter.c ****     #if (CapSense_ALP_FILTER_EN)
 1461              		.loc 1 1668 0
 1462 0020 2100     		movs	r1, r4
 1463 0022 FFF7FEFF 		bl	CapSense_FtRunEnabledFiltersInternal
 1464              	.LVL182:
1672:Generated_Source\PSoC4/CapSense_Filter.c **** 
 1465              		.loc 1 1672 0
 1466              		@ sp needed
 1467              	.LVL183:
 1468 0026 10BD     		pop	{r4, pc}
 1469              	.L139:
 1470              		.align	2
 1471              	.L138:
 1472 0028 00000000 		.word	CapSense_dsFlash
 1473              		.cfi_endproc
 1474              	.LFE25:
 1475              		.size	CapSense_FtRunEnabledFilters, .-CapSense_FtRunEnabledFilters
