ARM GAS  C:\Users\zack.li\AppData\Local\Temp\cc6kR1xZ.s 			page 1


   1              		.syntax unified
   2              		.cpu cortex-m0
   3              		.fpu softvfp
   4              		.eabi_attribute 20, 1
   5              		.eabi_attribute 21, 1
   6              		.eabi_attribute 23, 3
   7              		.eabi_attribute 24, 1
   8              		.eabi_attribute 25, 1
   9              		.eabi_attribute 26, 1
  10              		.eabi_attribute 30, 4
  11              		.eabi_attribute 34, 0
  12              		.eabi_attribute 18, 4
  13              		.thumb
  14              		.syntax unified
  15              		.file	"CapSense_Structure.c"
  16              		.text
  17              	.Ltext0:
  18              		.cfi_sections	.debug_frame
  19              		.section	.text.DsParseParamId,"ax",%progbits
  20              		.align	1
  21              		.code	16
  22              		.thumb_func
  23              		.type	DsParseParamId, %function
  24              	DsParseParamId:
  25              	.LFB2:
  26              		.file 1 "Generated_Source\\PSoC4\\CapSense_Structure.c"
   1:Generated_Source\PSoC4/CapSense_Structure.c **** /***************************************************************************//**
   2:Generated_Source\PSoC4/CapSense_Structure.c **** * \file CapSense_Structure.c
   3:Generated_Source\PSoC4/CapSense_Structure.c **** * \version 7.0
   4:Generated_Source\PSoC4/CapSense_Structure.c **** *
   5:Generated_Source\PSoC4/CapSense_Structure.c **** * \brief
   6:Generated_Source\PSoC4/CapSense_Structure.c **** *   This file defines the data structure global variables and provides implementation
   7:Generated_Source\PSoC4/CapSense_Structure.c **** *   for the high-level and low-level APIs of the Data Structure module.
   8:Generated_Source\PSoC4/CapSense_Structure.c **** *
   9:Generated_Source\PSoC4/CapSense_Structure.c **** * \see CapSense v7.0 Datasheet
  10:Generated_Source\PSoC4/CapSense_Structure.c **** *
  11:Generated_Source\PSoC4/CapSense_Structure.c **** *//*****************************************************************************
  12:Generated_Source\PSoC4/CapSense_Structure.c **** * Copyright (2016-2019), Cypress Semiconductor Corporation.
  13:Generated_Source\PSoC4/CapSense_Structure.c **** ********************************************************************************
  14:Generated_Source\PSoC4/CapSense_Structure.c **** * This software is owned by Cypress Semiconductor Corporation (Cypress) and is
  15:Generated_Source\PSoC4/CapSense_Structure.c **** * protected by and subject to worldwide patent protection (United States and
  16:Generated_Source\PSoC4/CapSense_Structure.c **** * foreign), United States copyright laws and international treaty provisions.
  17:Generated_Source\PSoC4/CapSense_Structure.c **** * Cypress hereby grants to licensee a personal, non-exclusive, non-transferable
  18:Generated_Source\PSoC4/CapSense_Structure.c **** * license to copy, use, modify, create derivative works of, and compile the
  19:Generated_Source\PSoC4/CapSense_Structure.c **** * Cypress Source Code and derivative works for the sole purpose of creating
  20:Generated_Source\PSoC4/CapSense_Structure.c **** * custom software in support of licensee product to be used only in conjunction
  21:Generated_Source\PSoC4/CapSense_Structure.c **** * with a Cypress integrated circuit as specified in the applicable agreement.
  22:Generated_Source\PSoC4/CapSense_Structure.c **** * Any reproduction, modification, translation, compilation, or representation of
  23:Generated_Source\PSoC4/CapSense_Structure.c **** * this software except as specified above is prohibited without the express
  24:Generated_Source\PSoC4/CapSense_Structure.c **** * written permission of Cypress.
  25:Generated_Source\PSoC4/CapSense_Structure.c **** *
  26:Generated_Source\PSoC4/CapSense_Structure.c **** * Disclaimer: CYPRESS MAKES NO WARRANTY OF ANY KIND, EXPRESS OR IMPLIED, WITH
  27:Generated_Source\PSoC4/CapSense_Structure.c **** * REGARD TO THIS MATERIAL, INCLUDING, BUT NOT LIMITED TO, THE IMPLIED
  28:Generated_Source\PSoC4/CapSense_Structure.c **** * WARRANTIES OF MERCHANTABILITY AND FITNESS FOR A PARTICULAR PURPOSE.
  29:Generated_Source\PSoC4/CapSense_Structure.c **** * Cypress reserves the right to make changes without further notice to the
  30:Generated_Source\PSoC4/CapSense_Structure.c **** * materials described herein. Cypress does not assume any liability arising out
  31:Generated_Source\PSoC4/CapSense_Structure.c **** * of the application or use of any product or circuit described herein. Cypress
ARM GAS  C:\Users\zack.li\AppData\Local\Temp\cc6kR1xZ.s 			page 2


  32:Generated_Source\PSoC4/CapSense_Structure.c **** * does not authorize its products for use as critical components in life-support
  33:Generated_Source\PSoC4/CapSense_Structure.c **** * systems where a malfunction or failure may reasonably be expected to result in
  34:Generated_Source\PSoC4/CapSense_Structure.c **** * significant injury to the user. The inclusion of Cypress' product in a life-
  35:Generated_Source\PSoC4/CapSense_Structure.c **** * support systems application implies that the manufacturer assumes all risk of
  36:Generated_Source\PSoC4/CapSense_Structure.c **** * such use and in doing so indemnifies Cypress against all charges. Use may be
  37:Generated_Source\PSoC4/CapSense_Structure.c **** * limited by and subject to the applicable Cypress software license agreement.
  38:Generated_Source\PSoC4/CapSense_Structure.c **** *******************************************************************************/
  39:Generated_Source\PSoC4/CapSense_Structure.c **** 
  40:Generated_Source\PSoC4/CapSense_Structure.c **** #include <cytypes.h>
  41:Generated_Source\PSoC4/CapSense_Structure.c **** #include "CyLib.h"
  42:Generated_Source\PSoC4/CapSense_Structure.c **** #include "CapSense_Structure.h"
  43:Generated_Source\PSoC4/CapSense_Structure.c **** #include "CapSense_Configuration.h"
  44:Generated_Source\PSoC4/CapSense_Structure.c **** 
  45:Generated_Source\PSoC4/CapSense_Structure.c **** #if (0u != CapSense_ADC_EN)
  46:Generated_Source\PSoC4/CapSense_Structure.c ****     #include "CapSense_Adc.h"
  47:Generated_Source\PSoC4/CapSense_Structure.c **** #endif /* (0u != CapSense_ADC_EN) */
  48:Generated_Source\PSoC4/CapSense_Structure.c **** 
  49:Generated_Source\PSoC4/CapSense_Structure.c **** #if (CapSense_ENABLE == CapSense_SELF_TEST_EN)
  50:Generated_Source\PSoC4/CapSense_Structure.c ****     #include "CapSense_SelfTest.h"
  51:Generated_Source\PSoC4/CapSense_Structure.c **** #endif
  52:Generated_Source\PSoC4/CapSense_Structure.c **** 
  53:Generated_Source\PSoC4/CapSense_Structure.c **** #if (CapSense_ENABLE == CapSense_CENTROID_5X5_CSD_EN)
  54:Generated_Source\PSoC4/CapSense_Structure.c ****     #include "CapSense_AdvancedCentroid_LL.h"
  55:Generated_Source\PSoC4/CapSense_Structure.c **** #endif
  56:Generated_Source\PSoC4/CapSense_Structure.c **** 
  57:Generated_Source\PSoC4/CapSense_Structure.c **** #if (CapSense_ENABLE == CapSense_GES_GLOBAL_EN)
  58:Generated_Source\PSoC4/CapSense_Structure.c ****     #include "CapSense_Gesture.h"
  59:Generated_Source\PSoC4/CapSense_Structure.c **** #endif /* (CapSense_ENABLE == CapSense_GES_GLOBAL_EN) */
  60:Generated_Source\PSoC4/CapSense_Structure.c **** 
  61:Generated_Source\PSoC4/CapSense_Structure.c **** /*******************************************************************************
  62:Generated_Source\PSoC4/CapSense_Structure.c **** * Defines the RAM Data Structure variables and their init data in flash
  63:Generated_Source\PSoC4/CapSense_Structure.c **** *******************************************************************************/
  64:Generated_Source\PSoC4/CapSense_Structure.c **** /**
  65:Generated_Source\PSoC4/CapSense_Structure.c **** * \cond SECTION_GLOBAL_VARIABLES
  66:Generated_Source\PSoC4/CapSense_Structure.c **** * \addtogroup group_global_variables
  67:Generated_Source\PSoC4/CapSense_Structure.c **** * \{
  68:Generated_Source\PSoC4/CapSense_Structure.c **** */
  69:Generated_Source\PSoC4/CapSense_Structure.c **** 
  70:Generated_Source\PSoC4/CapSense_Structure.c **** /**
  71:Generated_Source\PSoC4/CapSense_Structure.c **** * The variable that contains the CapSense configuration, settings and
  72:Generated_Source\PSoC4/CapSense_Structure.c **** * scanning results. CapSense_dsRam represents RAM Data Structure.
  73:Generated_Source\PSoC4/CapSense_Structure.c **** */
  74:Generated_Source\PSoC4/CapSense_Structure.c **** CapSense_RAM_STRUCT CapSense_dsRam;
  75:Generated_Source\PSoC4/CapSense_Structure.c **** /** \}
  76:Generated_Source\PSoC4/CapSense_Structure.c **** * \endcond */
  77:Generated_Source\PSoC4/CapSense_Structure.c **** 
  78:Generated_Source\PSoC4/CapSense_Structure.c **** /*******************************************************************************
  79:Generated_Source\PSoC4/CapSense_Structure.c **** * Declares Widget's De-bounce Counters
  80:Generated_Source\PSoC4/CapSense_Structure.c **** *******************************************************************************/
  81:Generated_Source\PSoC4/CapSense_Structure.c **** static uint8 CapSense_debounceUP[CapSense_UP_NUM_SENSORS];
  82:Generated_Source\PSoC4/CapSense_Structure.c **** static uint8 CapSense_debounceDOWN[CapSense_DOWN_NUM_SENSORS];
  83:Generated_Source\PSoC4/CapSense_Structure.c **** static uint8 CapSense_debounceLEFT[CapSense_LEFT_NUM_SENSORS];
  84:Generated_Source\PSoC4/CapSense_Structure.c **** static uint8 CapSense_debounceRIGHT[CapSense_RIGHT_NUM_SENSORS];
  85:Generated_Source\PSoC4/CapSense_Structure.c **** 
  86:Generated_Source\PSoC4/CapSense_Structure.c **** 
  87:Generated_Source\PSoC4/CapSense_Structure.c **** /***************************************************************************//**
  88:Generated_Source\PSoC4/CapSense_Structure.c **** * Declares Filter History Objects
ARM GAS  C:\Users\zack.li\AppData\Local\Temp\cc6kR1xZ.s 			page 3


  89:Generated_Source\PSoC4/CapSense_Structure.c **** *******************************************************************************/
  90:Generated_Source\PSoC4/CapSense_Structure.c **** static CapSense_REGULAR_FLTR_STRUCT CapSense_fltrHistoryUP[CapSense_UP_NUM_SENSORS];
  91:Generated_Source\PSoC4/CapSense_Structure.c **** static CapSense_REGULAR_FLTR_STRUCT CapSense_fltrHistoryDOWN[CapSense_DOWN_NUM_SENSORS];
  92:Generated_Source\PSoC4/CapSense_Structure.c **** static CapSense_REGULAR_FLTR_STRUCT CapSense_fltrHistoryLEFT[CapSense_LEFT_NUM_SENSORS];
  93:Generated_Source\PSoC4/CapSense_Structure.c **** static CapSense_REGULAR_FLTR_STRUCT CapSense_fltrHistoryRIGHT[CapSense_RIGHT_NUM_SENSORS];
  94:Generated_Source\PSoC4/CapSense_Structure.c **** 
  95:Generated_Source\PSoC4/CapSense_Structure.c **** /*******************************************************************************
  96:Generated_Source\PSoC4/CapSense_Structure.c **** * Defines and initializes the Flash Data Structure
  97:Generated_Source\PSoC4/CapSense_Structure.c **** *******************************************************************************/
  98:Generated_Source\PSoC4/CapSense_Structure.c **** 
  99:Generated_Source\PSoC4/CapSense_Structure.c **** 
 100:Generated_Source\PSoC4/CapSense_Structure.c **** 
 101:Generated_Source\PSoC4/CapSense_Structure.c **** /**
 102:Generated_Source\PSoC4/CapSense_Structure.c **** * \cond SECTION_API_CONSTANTS
 103:Generated_Source\PSoC4/CapSense_Structure.c **** * \addtogroup group_api_constants
 104:Generated_Source\PSoC4/CapSense_Structure.c **** * \{
 105:Generated_Source\PSoC4/CapSense_Structure.c **** */
 106:Generated_Source\PSoC4/CapSense_Structure.c **** /**
 107:Generated_Source\PSoC4/CapSense_Structure.c **** * Constant for the FLASH Data Structure
 108:Generated_Source\PSoC4/CapSense_Structure.c **** */
 109:Generated_Source\PSoC4/CapSense_Structure.c **** const CapSense_FLASH_STRUCT CapSense_dsFlash =
 110:Generated_Source\PSoC4/CapSense_Structure.c **** {
 111:Generated_Source\PSoC4/CapSense_Structure.c ****     /* Flash Widget Initialization Data */
 112:Generated_Source\PSoC4/CapSense_Structure.c ****     {
 113:Generated_Source\PSoC4/CapSense_Structure.c ****         { /* UP */
 114:Generated_Source\PSoC4/CapSense_Structure.c ****             &CapSense_ioList[0u],
 115:Generated_Source\PSoC4/CapSense_Structure.c ****             (void *)&CapSense_dsRam.wdgtList.up,
 116:Generated_Source\PSoC4/CapSense_Structure.c ****             CapSense_dsRam.snsList.up,
 117:Generated_Source\PSoC4/CapSense_Structure.c ****             (void *)CapSense_fltrHistoryUP,
 118:Generated_Source\PSoC4/CapSense_Structure.c ****             CapSense_debounceUP,
 119:Generated_Source\PSoC4/CapSense_Structure.c ****             CapSense_UP_STATIC_CONFIG,
 120:Generated_Source\PSoC4/CapSense_Structure.c ****             CapSense_UP_NUM_SENSORS,
 121:Generated_Source\PSoC4/CapSense_Structure.c ****             (uint8)CapSense_WD_BUTTON_E,
 122:Generated_Source\PSoC4/CapSense_Structure.c ****             CapSense_UP_NUM_SENSORS,
 123:Generated_Source\PSoC4/CapSense_Structure.c ****         },
 124:Generated_Source\PSoC4/CapSense_Structure.c ****         { /* DOWN */
 125:Generated_Source\PSoC4/CapSense_Structure.c ****             &CapSense_ioList[1u],
 126:Generated_Source\PSoC4/CapSense_Structure.c ****             (void *)&CapSense_dsRam.wdgtList.down,
 127:Generated_Source\PSoC4/CapSense_Structure.c ****             CapSense_dsRam.snsList.down,
 128:Generated_Source\PSoC4/CapSense_Structure.c ****             (void *)CapSense_fltrHistoryDOWN,
 129:Generated_Source\PSoC4/CapSense_Structure.c ****             CapSense_debounceDOWN,
 130:Generated_Source\PSoC4/CapSense_Structure.c ****             CapSense_DOWN_STATIC_CONFIG,
 131:Generated_Source\PSoC4/CapSense_Structure.c ****             CapSense_DOWN_NUM_SENSORS,
 132:Generated_Source\PSoC4/CapSense_Structure.c ****             (uint8)CapSense_WD_BUTTON_E,
 133:Generated_Source\PSoC4/CapSense_Structure.c ****             CapSense_DOWN_NUM_SENSORS,
 134:Generated_Source\PSoC4/CapSense_Structure.c ****         },
 135:Generated_Source\PSoC4/CapSense_Structure.c ****         { /* LEFT */
 136:Generated_Source\PSoC4/CapSense_Structure.c ****             &CapSense_ioList[2u],
 137:Generated_Source\PSoC4/CapSense_Structure.c ****             (void *)&CapSense_dsRam.wdgtList.left,
 138:Generated_Source\PSoC4/CapSense_Structure.c ****             CapSense_dsRam.snsList.left,
 139:Generated_Source\PSoC4/CapSense_Structure.c ****             (void *)CapSense_fltrHistoryLEFT,
 140:Generated_Source\PSoC4/CapSense_Structure.c ****             CapSense_debounceLEFT,
 141:Generated_Source\PSoC4/CapSense_Structure.c ****             CapSense_LEFT_STATIC_CONFIG,
 142:Generated_Source\PSoC4/CapSense_Structure.c ****             CapSense_LEFT_NUM_SENSORS,
 143:Generated_Source\PSoC4/CapSense_Structure.c ****             (uint8)CapSense_WD_BUTTON_E,
 144:Generated_Source\PSoC4/CapSense_Structure.c ****             CapSense_LEFT_NUM_SENSORS,
 145:Generated_Source\PSoC4/CapSense_Structure.c ****         },
ARM GAS  C:\Users\zack.li\AppData\Local\Temp\cc6kR1xZ.s 			page 4


 146:Generated_Source\PSoC4/CapSense_Structure.c ****         { /* RIGHT */
 147:Generated_Source\PSoC4/CapSense_Structure.c ****             &CapSense_ioList[3u],
 148:Generated_Source\PSoC4/CapSense_Structure.c ****             (void *)&CapSense_dsRam.wdgtList.right,
 149:Generated_Source\PSoC4/CapSense_Structure.c ****             CapSense_dsRam.snsList.right,
 150:Generated_Source\PSoC4/CapSense_Structure.c ****             (void *)CapSense_fltrHistoryRIGHT,
 151:Generated_Source\PSoC4/CapSense_Structure.c ****             CapSense_debounceRIGHT,
 152:Generated_Source\PSoC4/CapSense_Structure.c ****             CapSense_RIGHT_STATIC_CONFIG,
 153:Generated_Source\PSoC4/CapSense_Structure.c ****             CapSense_RIGHT_NUM_SENSORS,
 154:Generated_Source\PSoC4/CapSense_Structure.c ****             (uint8)CapSense_WD_BUTTON_E,
 155:Generated_Source\PSoC4/CapSense_Structure.c ****             CapSense_RIGHT_NUM_SENSORS,
 156:Generated_Source\PSoC4/CapSense_Structure.c ****         },
 157:Generated_Source\PSoC4/CapSense_Structure.c ****     },
 158:Generated_Source\PSoC4/CapSense_Structure.c **** };
 159:Generated_Source\PSoC4/CapSense_Structure.c **** 
 160:Generated_Source\PSoC4/CapSense_Structure.c **** /**
 161:Generated_Source\PSoC4/CapSense_Structure.c **** * The array of the pointers to the electrode specific register.
 162:Generated_Source\PSoC4/CapSense_Structure.c **** */
 163:Generated_Source\PSoC4/CapSense_Structure.c **** const CapSense_FLASH_IO_STRUCT CapSense_ioList[CapSense_TOTAL_ELECTRODES] =
 164:Generated_Source\PSoC4/CapSense_Structure.c **** {
 165:Generated_Source\PSoC4/CapSense_Structure.c ****     { /* 0: UP_Sns0 */
 166:Generated_Source\PSoC4/CapSense_Structure.c ****         (reg32 *)CapSense_Sns__0__HSIOM,
 167:Generated_Source\PSoC4/CapSense_Structure.c ****         (reg32 *)CapSense_Sns__0__PC,
 168:Generated_Source\PSoC4/CapSense_Structure.c ****         (reg32 *)CapSense_Sns__0__DR,
 169:Generated_Source\PSoC4/CapSense_Structure.c ****         (reg32 *)CapSense_Sns__0__PS,
 170:Generated_Source\PSoC4/CapSense_Structure.c ****         CapSense_Sns__0__HSIOM_MASK,
 171:Generated_Source\PSoC4/CapSense_Structure.c ****         CapSense_Sns__0__MASK,
 172:Generated_Source\PSoC4/CapSense_Structure.c ****         CapSense_Sns__0__HSIOM_SHIFT,
 173:Generated_Source\PSoC4/CapSense_Structure.c ****         (uint8)CapSense_Sns__0__SHIFT,
 174:Generated_Source\PSoC4/CapSense_Structure.c ****         (uint8)CapSense_Sns__0__SHIFT * 3u,
 175:Generated_Source\PSoC4/CapSense_Structure.c ****     },
 176:Generated_Source\PSoC4/CapSense_Structure.c ****     { /* 1: DOWN_Sns0 */
 177:Generated_Source\PSoC4/CapSense_Structure.c ****         (reg32 *)CapSense_Sns__1__HSIOM,
 178:Generated_Source\PSoC4/CapSense_Structure.c ****         (reg32 *)CapSense_Sns__1__PC,
 179:Generated_Source\PSoC4/CapSense_Structure.c ****         (reg32 *)CapSense_Sns__1__DR,
 180:Generated_Source\PSoC4/CapSense_Structure.c ****         (reg32 *)CapSense_Sns__1__PS,
 181:Generated_Source\PSoC4/CapSense_Structure.c ****         CapSense_Sns__1__HSIOM_MASK,
 182:Generated_Source\PSoC4/CapSense_Structure.c ****         CapSense_Sns__1__MASK,
 183:Generated_Source\PSoC4/CapSense_Structure.c ****         CapSense_Sns__1__HSIOM_SHIFT,
 184:Generated_Source\PSoC4/CapSense_Structure.c ****         (uint8)CapSense_Sns__1__SHIFT,
 185:Generated_Source\PSoC4/CapSense_Structure.c ****         (uint8)CapSense_Sns__1__SHIFT * 3u,
 186:Generated_Source\PSoC4/CapSense_Structure.c ****     },
 187:Generated_Source\PSoC4/CapSense_Structure.c ****     { /* 2: LEFT_Sns0 */
 188:Generated_Source\PSoC4/CapSense_Structure.c ****         (reg32 *)CapSense_Sns__2__HSIOM,
 189:Generated_Source\PSoC4/CapSense_Structure.c ****         (reg32 *)CapSense_Sns__2__PC,
 190:Generated_Source\PSoC4/CapSense_Structure.c ****         (reg32 *)CapSense_Sns__2__DR,
 191:Generated_Source\PSoC4/CapSense_Structure.c ****         (reg32 *)CapSense_Sns__2__PS,
 192:Generated_Source\PSoC4/CapSense_Structure.c ****         CapSense_Sns__2__HSIOM_MASK,
 193:Generated_Source\PSoC4/CapSense_Structure.c ****         CapSense_Sns__2__MASK,
 194:Generated_Source\PSoC4/CapSense_Structure.c ****         CapSense_Sns__2__HSIOM_SHIFT,
 195:Generated_Source\PSoC4/CapSense_Structure.c ****         (uint8)CapSense_Sns__2__SHIFT,
 196:Generated_Source\PSoC4/CapSense_Structure.c ****         (uint8)CapSense_Sns__2__SHIFT * 3u,
 197:Generated_Source\PSoC4/CapSense_Structure.c ****     },
 198:Generated_Source\PSoC4/CapSense_Structure.c ****     { /* 3: RIGHT_Sns0 */
 199:Generated_Source\PSoC4/CapSense_Structure.c ****         (reg32 *)CapSense_Sns__3__HSIOM,
 200:Generated_Source\PSoC4/CapSense_Structure.c ****         (reg32 *)CapSense_Sns__3__PC,
 201:Generated_Source\PSoC4/CapSense_Structure.c ****         (reg32 *)CapSense_Sns__3__DR,
 202:Generated_Source\PSoC4/CapSense_Structure.c ****         (reg32 *)CapSense_Sns__3__PS,
ARM GAS  C:\Users\zack.li\AppData\Local\Temp\cc6kR1xZ.s 			page 5


 203:Generated_Source\PSoC4/CapSense_Structure.c ****         CapSense_Sns__3__HSIOM_MASK,
 204:Generated_Source\PSoC4/CapSense_Structure.c ****         CapSense_Sns__3__MASK,
 205:Generated_Source\PSoC4/CapSense_Structure.c ****         CapSense_Sns__3__HSIOM_SHIFT,
 206:Generated_Source\PSoC4/CapSense_Structure.c ****         (uint8)CapSense_Sns__3__SHIFT,
 207:Generated_Source\PSoC4/CapSense_Structure.c ****         (uint8)CapSense_Sns__3__SHIFT * 3u,
 208:Generated_Source\PSoC4/CapSense_Structure.c ****     },
 209:Generated_Source\PSoC4/CapSense_Structure.c **** };
 210:Generated_Source\PSoC4/CapSense_Structure.c **** 
 211:Generated_Source\PSoC4/CapSense_Structure.c **** /**
 212:Generated_Source\PSoC4/CapSense_Structure.c ****  *  The array of the pointers to the shield electrode specific register.
 213:Generated_Source\PSoC4/CapSense_Structure.c ****  */
 214:Generated_Source\PSoC4/CapSense_Structure.c **** const CapSense_SHIELD_IO_STRUCT CapSense_shieldIoList[CapSense_CSD_TOTAL_SHIELD_COUNT] =
 215:Generated_Source\PSoC4/CapSense_Structure.c **** {
 216:Generated_Source\PSoC4/CapSense_Structure.c ****     {
 217:Generated_Source\PSoC4/CapSense_Structure.c ****         (reg32 *)CapSense_Shield__0__HSIOM,
 218:Generated_Source\PSoC4/CapSense_Structure.c ****         (reg32 *)CapSense_Shield__0__PC,
 219:Generated_Source\PSoC4/CapSense_Structure.c ****         (reg32 *)CapSense_Shield__0__DR,
 220:Generated_Source\PSoC4/CapSense_Structure.c ****         CapSense_Shield__0__HSIOM_MASK,
 221:Generated_Source\PSoC4/CapSense_Structure.c ****         CapSense_Shield__0__HSIOM_SHIFT,
 222:Generated_Source\PSoC4/CapSense_Structure.c ****         (uint8)CapSense_Shield__0__SHIFT,
 223:Generated_Source\PSoC4/CapSense_Structure.c ****         (uint8)CapSense_Shield__0__SHIFT * 3u,
 224:Generated_Source\PSoC4/CapSense_Structure.c ****     },
 225:Generated_Source\PSoC4/CapSense_Structure.c **** };
 226:Generated_Source\PSoC4/CapSense_Structure.c **** 
 227:Generated_Source\PSoC4/CapSense_Structure.c **** 
 228:Generated_Source\PSoC4/CapSense_Structure.c **** /** \}
 229:Generated_Source\PSoC4/CapSense_Structure.c **** * \endcond */
 230:Generated_Source\PSoC4/CapSense_Structure.c **** 
 231:Generated_Source\PSoC4/CapSense_Structure.c **** /* Initialization data for RAM widget list */
 232:Generated_Source\PSoC4/CapSense_Structure.c **** const CapSense_RAM_WD_LIST_STRUCT CapSense_ramWidgetInit =
 233:Generated_Source\PSoC4/CapSense_Structure.c **** {
 234:Generated_Source\PSoC4/CapSense_Structure.c ****     { /* UP */
 235:Generated_Source\PSoC4/CapSense_Structure.c ****         CapSense_UP_RESOLUTION,
 236:Generated_Source\PSoC4/CapSense_Structure.c ****         CapSense_UP_FINGER_TH,
 237:Generated_Source\PSoC4/CapSense_Structure.c ****         CapSense_UP_NOISE_TH,
 238:Generated_Source\PSoC4/CapSense_Structure.c ****         CapSense_UP_NNOISE_TH,
 239:Generated_Source\PSoC4/CapSense_Structure.c ****         CapSense_UP_HYSTERESIS,
 240:Generated_Source\PSoC4/CapSense_Structure.c ****         CapSense_UP_ON_DEBOUNCE,
 241:Generated_Source\PSoC4/CapSense_Structure.c ****         CapSense_UP_LOW_BSLN_RST,
 242:Generated_Source\PSoC4/CapSense_Structure.c ****         {
 243:Generated_Source\PSoC4/CapSense_Structure.c ****             CapSense_UP_IDAC_MOD0,
 244:Generated_Source\PSoC4/CapSense_Structure.c ****         },
 245:Generated_Source\PSoC4/CapSense_Structure.c ****         CapSense_UP_IDAC_GAIN_INDEX,
 246:Generated_Source\PSoC4/CapSense_Structure.c ****         CapSense_UP_SNS_CLK,
 247:Generated_Source\PSoC4/CapSense_Structure.c ****         CapSense_UP_SNS_CLK_SOURCE,
 248:Generated_Source\PSoC4/CapSense_Structure.c ****     },
 249:Generated_Source\PSoC4/CapSense_Structure.c ****     { /* DOWN */
 250:Generated_Source\PSoC4/CapSense_Structure.c ****         CapSense_DOWN_RESOLUTION,
 251:Generated_Source\PSoC4/CapSense_Structure.c ****         CapSense_DOWN_FINGER_TH,
 252:Generated_Source\PSoC4/CapSense_Structure.c ****         CapSense_DOWN_NOISE_TH,
 253:Generated_Source\PSoC4/CapSense_Structure.c ****         CapSense_DOWN_NNOISE_TH,
 254:Generated_Source\PSoC4/CapSense_Structure.c ****         CapSense_DOWN_HYSTERESIS,
 255:Generated_Source\PSoC4/CapSense_Structure.c ****         CapSense_DOWN_ON_DEBOUNCE,
 256:Generated_Source\PSoC4/CapSense_Structure.c ****         CapSense_DOWN_LOW_BSLN_RST,
 257:Generated_Source\PSoC4/CapSense_Structure.c ****         {
 258:Generated_Source\PSoC4/CapSense_Structure.c ****             CapSense_DOWN_IDAC_MOD0,
 259:Generated_Source\PSoC4/CapSense_Structure.c ****         },
ARM GAS  C:\Users\zack.li\AppData\Local\Temp\cc6kR1xZ.s 			page 6


 260:Generated_Source\PSoC4/CapSense_Structure.c ****         CapSense_DOWN_IDAC_GAIN_INDEX,
 261:Generated_Source\PSoC4/CapSense_Structure.c ****         CapSense_DOWN_SNS_CLK,
 262:Generated_Source\PSoC4/CapSense_Structure.c ****         CapSense_DOWN_SNS_CLK_SOURCE,
 263:Generated_Source\PSoC4/CapSense_Structure.c ****     },
 264:Generated_Source\PSoC4/CapSense_Structure.c ****     { /* LEFT */
 265:Generated_Source\PSoC4/CapSense_Structure.c ****         CapSense_LEFT_RESOLUTION,
 266:Generated_Source\PSoC4/CapSense_Structure.c ****         CapSense_LEFT_FINGER_TH,
 267:Generated_Source\PSoC4/CapSense_Structure.c ****         CapSense_LEFT_NOISE_TH,
 268:Generated_Source\PSoC4/CapSense_Structure.c ****         CapSense_LEFT_NNOISE_TH,
 269:Generated_Source\PSoC4/CapSense_Structure.c ****         CapSense_LEFT_HYSTERESIS,
 270:Generated_Source\PSoC4/CapSense_Structure.c ****         CapSense_LEFT_ON_DEBOUNCE,
 271:Generated_Source\PSoC4/CapSense_Structure.c ****         CapSense_LEFT_LOW_BSLN_RST,
 272:Generated_Source\PSoC4/CapSense_Structure.c ****         {
 273:Generated_Source\PSoC4/CapSense_Structure.c ****             CapSense_LEFT_IDAC_MOD0,
 274:Generated_Source\PSoC4/CapSense_Structure.c ****         },
 275:Generated_Source\PSoC4/CapSense_Structure.c ****         CapSense_LEFT_IDAC_GAIN_INDEX,
 276:Generated_Source\PSoC4/CapSense_Structure.c ****         CapSense_LEFT_SNS_CLK,
 277:Generated_Source\PSoC4/CapSense_Structure.c ****         CapSense_LEFT_SNS_CLK_SOURCE,
 278:Generated_Source\PSoC4/CapSense_Structure.c ****     },
 279:Generated_Source\PSoC4/CapSense_Structure.c ****     { /* RIGHT */
 280:Generated_Source\PSoC4/CapSense_Structure.c ****         CapSense_RIGHT_RESOLUTION,
 281:Generated_Source\PSoC4/CapSense_Structure.c ****         CapSense_RIGHT_FINGER_TH,
 282:Generated_Source\PSoC4/CapSense_Structure.c ****         CapSense_RIGHT_NOISE_TH,
 283:Generated_Source\PSoC4/CapSense_Structure.c ****         CapSense_RIGHT_NNOISE_TH,
 284:Generated_Source\PSoC4/CapSense_Structure.c ****         CapSense_RIGHT_HYSTERESIS,
 285:Generated_Source\PSoC4/CapSense_Structure.c ****         CapSense_RIGHT_ON_DEBOUNCE,
 286:Generated_Source\PSoC4/CapSense_Structure.c ****         CapSense_RIGHT_LOW_BSLN_RST,
 287:Generated_Source\PSoC4/CapSense_Structure.c ****         {
 288:Generated_Source\PSoC4/CapSense_Structure.c ****             CapSense_RIGHT_IDAC_MOD0,
 289:Generated_Source\PSoC4/CapSense_Structure.c ****         },
 290:Generated_Source\PSoC4/CapSense_Structure.c ****         CapSense_RIGHT_IDAC_GAIN_INDEX,
 291:Generated_Source\PSoC4/CapSense_Structure.c ****         CapSense_RIGHT_SNS_CLK,
 292:Generated_Source\PSoC4/CapSense_Structure.c ****         CapSense_RIGHT_SNS_CLK_SOURCE,
 293:Generated_Source\PSoC4/CapSense_Structure.c ****     },
 294:Generated_Source\PSoC4/CapSense_Structure.c **** };
 295:Generated_Source\PSoC4/CapSense_Structure.c **** 
 296:Generated_Source\PSoC4/CapSense_Structure.c **** 
 297:Generated_Source\PSoC4/CapSense_Structure.c **** /* IDAC Initialization Data */
 298:Generated_Source\PSoC4/CapSense_Structure.c **** const uint8 CapSense_ramIdacInit[CapSense_TOTAL_SENSORS] =
 299:Generated_Source\PSoC4/CapSense_Structure.c **** {
 300:Generated_Source\PSoC4/CapSense_Structure.c ****     /* UP */
 301:Generated_Source\PSoC4/CapSense_Structure.c ****     CapSense_UP_SNS0_IDAC_COMP0,
 302:Generated_Source\PSoC4/CapSense_Structure.c **** 
 303:Generated_Source\PSoC4/CapSense_Structure.c ****     /* DOWN */
 304:Generated_Source\PSoC4/CapSense_Structure.c ****     CapSense_DOWN_SNS0_IDAC_COMP0,
 305:Generated_Source\PSoC4/CapSense_Structure.c **** 
 306:Generated_Source\PSoC4/CapSense_Structure.c ****     /* LEFT */
 307:Generated_Source\PSoC4/CapSense_Structure.c ****     CapSense_LEFT_SNS0_IDAC_COMP0,
 308:Generated_Source\PSoC4/CapSense_Structure.c **** 
 309:Generated_Source\PSoC4/CapSense_Structure.c ****     /* RIGHT */
 310:Generated_Source\PSoC4/CapSense_Structure.c ****     CapSense_RIGHT_SNS0_IDAC_COMP0,
 311:Generated_Source\PSoC4/CapSense_Structure.c **** };
 312:Generated_Source\PSoC4/CapSense_Structure.c **** 
 313:Generated_Source\PSoC4/CapSense_Structure.c **** 
 314:Generated_Source\PSoC4/CapSense_Structure.c **** 
 315:Generated_Source\PSoC4/CapSense_Structure.c **** 
 316:Generated_Source\PSoC4/CapSense_Structure.c **** 
ARM GAS  C:\Users\zack.li\AppData\Local\Temp\cc6kR1xZ.s 			page 7


 317:Generated_Source\PSoC4/CapSense_Structure.c **** /*******************************************************************************
 318:Generated_Source\PSoC4/CapSense_Structure.c **** * Defines internal data types and statements
 319:Generated_Source\PSoC4/CapSense_Structure.c **** *******************************************************************************/
 320:Generated_Source\PSoC4/CapSense_Structure.c **** #define PARAM_TYPE_OFFSET       (30u)
 321:Generated_Source\PSoC4/CapSense_Structure.c **** #define PARAM_TYPE_MASK         (3Lu << PARAM_TYPE_OFFSET)
 322:Generated_Source\PSoC4/CapSense_Structure.c **** #define PARAM_RWBIT_OFFSET      (29u)
 323:Generated_Source\PSoC4/CapSense_Structure.c **** #define PARAM_RWBIT_MASK        (1Lu << PARAM_RWBIT_OFFSET)
 324:Generated_Source\PSoC4/CapSense_Structure.c **** #define PARAM_FBIT_OFFSET       (28u)
 325:Generated_Source\PSoC4/CapSense_Structure.c **** #define PARAM_FBIT_MASK         (1Lu << PARAM_FBIT_OFFSET)
 326:Generated_Source\PSoC4/CapSense_Structure.c **** #define PARAM_UBIT_OFFSET       (23u)
 327:Generated_Source\PSoC4/CapSense_Structure.c **** #define PARAM_UBIT_MASK         (1Lu << PARAM_UBIT_OFFSET)
 328:Generated_Source\PSoC4/CapSense_Structure.c **** #define PARAM_WDID_OFFSET       (16u)
 329:Generated_Source\PSoC4/CapSense_Structure.c **** #define PARAM_WDID_MASK         (0x7FLu << PARAM_WDID_OFFSET)
 330:Generated_Source\PSoC4/CapSense_Structure.c **** #define PARAM_CRC_OFFSET        (24u)
 331:Generated_Source\PSoC4/CapSense_Structure.c **** #define PARAM_CRC_MASK          (0x0FLu << PARAM_CRC_OFFSET)
 332:Generated_Source\PSoC4/CapSense_Structure.c **** 
 333:Generated_Source\PSoC4/CapSense_Structure.c **** /* Defines align masks for uint16 and uint32 */
 334:Generated_Source\PSoC4/CapSense_Structure.c **** #define UINT16_ALIGN_MASK       (1Lu)
 335:Generated_Source\PSoC4/CapSense_Structure.c **** #define UINT32_ALIGN_MASK       (3Lu)
 336:Generated_Source\PSoC4/CapSense_Structure.c **** 
 337:Generated_Source\PSoC4/CapSense_Structure.c **** /* Defines supported parameter types */
 338:Generated_Source\PSoC4/CapSense_Structure.c **** #define DS_PARAM_TYPE_UINT8     (0x01u)
 339:Generated_Source\PSoC4/CapSense_Structure.c **** #define DS_PARAM_TYPE_UINT16    (0x02u)
 340:Generated_Source\PSoC4/CapSense_Structure.c **** #define DS_PARAM_TYPE_UINT32    (0x03u)
 341:Generated_Source\PSoC4/CapSense_Structure.c **** 
 342:Generated_Source\PSoC4/CapSense_Structure.c **** 
 343:Generated_Source\PSoC4/CapSense_Structure.c **** /* Defines PARAM_ID structure */
 344:Generated_Source\PSoC4/CapSense_Structure.c **** typedef struct
 345:Generated_Source\PSoC4/CapSense_Structure.c **** {
 346:Generated_Source\PSoC4/CapSense_Structure.c ****     uint16 offset;      /* parameter offset */
 347:Generated_Source\PSoC4/CapSense_Structure.c ****     uint8  widgetId;    /* widget Id parameter belongs to */
 348:Generated_Source\PSoC4/CapSense_Structure.c ****     uint8  affectsCrc;  /* parameter affects widget CRC */
 349:Generated_Source\PSoC4/CapSense_Structure.c ****     uint8  crc;         /* parameter CRC */
 350:Generated_Source\PSoC4/CapSense_Structure.c ****     uint8  flash;       /* parameter located in FLASH flag */
 351:Generated_Source\PSoC4/CapSense_Structure.c ****     uint8  rw;          /* parameter is read/write flag */
 352:Generated_Source\PSoC4/CapSense_Structure.c ****     uint8  type;        /* parameter type: uint8/uint16/uint32 */
 353:Generated_Source\PSoC4/CapSense_Structure.c **** } PARAM_ID_STRUCT;
 354:Generated_Source\PSoC4/CapSense_Structure.c **** 
 355:Generated_Source\PSoC4/CapSense_Structure.c **** 
 356:Generated_Source\PSoC4/CapSense_Structure.c **** /*******************************************************************************
 357:Generated_Source\PSoC4/CapSense_Structure.c **** * Static Function Prototypes
 358:Generated_Source\PSoC4/CapSense_Structure.c **** *******************************************************************************/
 359:Generated_Source\PSoC4/CapSense_Structure.c **** /**
 360:Generated_Source\PSoC4/CapSense_Structure.c **** * \cond SECTION_C_INTERNAL
 361:Generated_Source\PSoC4/CapSense_Structure.c **** * \addtogroup group_c_internal
 362:Generated_Source\PSoC4/CapSense_Structure.c **** * \{
 363:Generated_Source\PSoC4/CapSense_Structure.c **** */
 364:Generated_Source\PSoC4/CapSense_Structure.c **** 
 365:Generated_Source\PSoC4/CapSense_Structure.c **** 
 366:Generated_Source\PSoC4/CapSense_Structure.c **** 
 367:Generated_Source\PSoC4/CapSense_Structure.c **** static cystatus DsParseParamId(uint32 paramId, PARAM_ID_STRUCT *pData);
 368:Generated_Source\PSoC4/CapSense_Structure.c **** 
 369:Generated_Source\PSoC4/CapSense_Structure.c **** /** \}
 370:Generated_Source\PSoC4/CapSense_Structure.c **** * \endcond */
 371:Generated_Source\PSoC4/CapSense_Structure.c **** 
 372:Generated_Source\PSoC4/CapSense_Structure.c **** 
 373:Generated_Source\PSoC4/CapSense_Structure.c **** /*******************************************************************************
ARM GAS  C:\Users\zack.li\AppData\Local\Temp\cc6kR1xZ.s 			page 8


 374:Generated_Source\PSoC4/CapSense_Structure.c **** * Function Name: CapSense_DsInitialize
 375:Generated_Source\PSoC4/CapSense_Structure.c **** ****************************************************************************//**
 376:Generated_Source\PSoC4/CapSense_Structure.c **** *
 377:Generated_Source\PSoC4/CapSense_Structure.c **** * \brief
 378:Generated_Source\PSoC4/CapSense_Structure.c **** *   This function initializes the Data Structure storage.
 379:Generated_Source\PSoC4/CapSense_Structure.c **** *
 380:Generated_Source\PSoC4/CapSense_Structure.c **** * \details
 381:Generated_Source\PSoC4/CapSense_Structure.c **** *   This function copies the default widget configuration parameters
 382:Generated_Source\PSoC4/CapSense_Structure.c **** *   from the Flash storage into the RAM Data Structure.
 383:Generated_Source\PSoC4/CapSense_Structure.c **** *
 384:Generated_Source\PSoC4/CapSense_Structure.c **** *******************************************************************************/
 385:Generated_Source\PSoC4/CapSense_Structure.c **** void CapSense_DsInitialize(void)
 386:Generated_Source\PSoC4/CapSense_Structure.c **** {
 387:Generated_Source\PSoC4/CapSense_Structure.c ****     #if ((CapSense_ENABLE == CapSense_CSX_EN) || \
 388:Generated_Source\PSoC4/CapSense_Structure.c ****          (CapSense_ENABLE == CapSense_CSD_IDAC_COMP_EN) || \
 389:Generated_Source\PSoC4/CapSense_Structure.c ****         ((CapSense_ENABLE == CapSense_CSX_EN) && \
 390:Generated_Source\PSoC4/CapSense_Structure.c ****          (CapSense_ENABLE == CapSense_CSX_SKIP_OVSMPL_SPECIFIC_NODES)))
 391:Generated_Source\PSoC4/CapSense_Structure.c ****         uint32 snsId;
 392:Generated_Source\PSoC4/CapSense_Structure.c ****         uint32 wdgtId;
 393:Generated_Source\PSoC4/CapSense_Structure.c ****         CapSense_RAM_SNS_STRUCT * ptrSnsTmp;
 394:Generated_Source\PSoC4/CapSense_Structure.c ****         CapSense_FLASH_WD_STRUCT const * ptrFlashWdgt;
 395:Generated_Source\PSoC4/CapSense_Structure.c ****     #endif
 396:Generated_Source\PSoC4/CapSense_Structure.c **** 
 397:Generated_Source\PSoC4/CapSense_Structure.c ****     #if ((CapSense_ENABLE == CapSense_CSX_EN) && \
 398:Generated_Source\PSoC4/CapSense_Structure.c ****          (CapSense_ENABLE == CapSense_CSX_SKIP_OVSMPL_SPECIFIC_NODES))
 399:Generated_Source\PSoC4/CapSense_Structure.c ****         uint16 subConvNumber;
 400:Generated_Source\PSoC4/CapSense_Structure.c ****     #endif
 401:Generated_Source\PSoC4/CapSense_Structure.c **** 
 402:Generated_Source\PSoC4/CapSense_Structure.c ****     #if ((0u != CapSense_CSX_EN) || (0 != CapSense_CSD_IDAC_COMP_EN))
 403:Generated_Source\PSoC4/CapSense_Structure.c ****         uint8 const * ptrIdacInit = CapSense_ramIdacInit;
 404:Generated_Source\PSoC4/CapSense_Structure.c ****     #endif
 405:Generated_Source\PSoC4/CapSense_Structure.c **** 
 406:Generated_Source\PSoC4/CapSense_Structure.c ****     /* Reset RAM data structure content */
 407:Generated_Source\PSoC4/CapSense_Structure.c ****     (void)memset(&CapSense_dsRam, 0, sizeof(CapSense_dsRam));
 408:Generated_Source\PSoC4/CapSense_Structure.c **** 
 409:Generated_Source\PSoC4/CapSense_Structure.c ****     /* Initialize configId, deviceId and hwClock registers */
 410:Generated_Source\PSoC4/CapSense_Structure.c ****     CapSense_dsRam.configId = CapSense_CONFIG_ID;
 411:Generated_Source\PSoC4/CapSense_Structure.c ****     CapSense_dsRam.deviceId = CapSense_DEVICE_ID;
 412:Generated_Source\PSoC4/CapSense_Structure.c ****     CapSense_dsRam.hwClock = CapSense_HW_CLOCK;
 413:Generated_Source\PSoC4/CapSense_Structure.c **** 
 414:Generated_Source\PSoC4/CapSense_Structure.c ****     /* Initialize global RAM data */
 415:Generated_Source\PSoC4/CapSense_Structure.c ****     CapSense_dsRam.csd0Config = CapSense_CSD0_CONFIG;
 416:Generated_Source\PSoC4/CapSense_Structure.c **** 
 417:Generated_Source\PSoC4/CapSense_Structure.c ****     CapSense_dsRam.scanCurrentISC = CapSense_SNS_CONNECTION_UNDEFINED;
 418:Generated_Source\PSoC4/CapSense_Structure.c ****     #if (0u != CapSense_TOTAL_CSD_WIDGETS)
 419:Generated_Source\PSoC4/CapSense_Structure.c ****         CapSense_dsRam.modCsdClk = CapSense_CSD_SCANSPEED_DIVIDER;
 420:Generated_Source\PSoC4/CapSense_Structure.c ****         CapSense_dsRam.scanCsdISC = CapSense_CSD_INACTIVE_SNS_CONNECTION;
 421:Generated_Source\PSoC4/CapSense_Structure.c **** 
 422:Generated_Source\PSoC4/CapSense_Structure.c ****         #if (0u != CapSense_CSD_COMMON_SNS_CLK_EN)
 423:Generated_Source\PSoC4/CapSense_Structure.c ****             CapSense_dsRam.snsCsdClk = CapSense_CSD_SNS_CLK_DIVIDER;
 424:Generated_Source\PSoC4/CapSense_Structure.c ****         #endif /* #if (0u != CapSense_CSD_COMMON_SNS_CLK_EN) */
 425:Generated_Source\PSoC4/CapSense_Structure.c ****     #endif /* #if (0u != CapSense_TOTAL_CSD_WIDGETS) */
 426:Generated_Source\PSoC4/CapSense_Structure.c **** 
 427:Generated_Source\PSoC4/CapSense_Structure.c ****     #if (CapSense_ENABLE == CapSense_CSX_EN)
 428:Generated_Source\PSoC4/CapSense_Structure.c ****         CapSense_dsRam.modCsxClk = CapSense_CSX_SCANSPEED_DIVIDER;
 429:Generated_Source\PSoC4/CapSense_Structure.c ****         CapSense_dsRam.scanCsxISC = CapSense_CSX_INACTIVE_SNS_CONNECTION;
 430:Generated_Source\PSoC4/CapSense_Structure.c **** 
ARM GAS  C:\Users\zack.li\AppData\Local\Temp\cc6kR1xZ.s 			page 9


 431:Generated_Source\PSoC4/CapSense_Structure.c ****         #if (0u != CapSense_CSX_COMMON_TX_CLK_EN)
 432:Generated_Source\PSoC4/CapSense_Structure.c ****             CapSense_dsRam.snsCsxClk = CapSense_CSX_TX_CLK_DIVIDER;
 433:Generated_Source\PSoC4/CapSense_Structure.c ****         #endif /* #if (0u != CapSense_CSX_COMMON_TX_CLK_EN) */
 434:Generated_Source\PSoC4/CapSense_Structure.c ****     #endif /* #if (CapSense_ENABLE == CapSense_CSX_EN) */
 435:Generated_Source\PSoC4/CapSense_Structure.c **** 
 436:Generated_Source\PSoC4/CapSense_Structure.c ****     #if (CapSense_ENABLE == CapSense_ISX_EN)
 437:Generated_Source\PSoC4/CapSense_Structure.c ****         CapSense_dsRam.modIsxClk = CapSense_ISX_SCANSPEED_DIVIDER;
 438:Generated_Source\PSoC4/CapSense_Structure.c ****     #endif /* #if (0u != CapSense_ISX_EN) */
 439:Generated_Source\PSoC4/CapSense_Structure.c **** 
 440:Generated_Source\PSoC4/CapSense_Structure.c ****     #if (0u != CapSense_SELF_TEST_EN)
 441:Generated_Source\PSoC4/CapSense_Structure.c **** 
 442:Generated_Source\PSoC4/CapSense_Structure.c ****         CapSense_dsRam.glbCrc = CapSense_GLB_CRC;
 443:Generated_Source\PSoC4/CapSense_Structure.c ****         CapSense_dsRam.selfTestConfig.fineInitTime = (uint8)CapSense_TST_FINE_INIT_TIME;
 444:Generated_Source\PSoC4/CapSense_Structure.c ****         CapSense_dsRam.selfTestConfig.startupDelay = CapSense_TST_ANALOG_STARTUP_DELAY_US;
 445:Generated_Source\PSoC4/CapSense_Structure.c **** 
 446:Generated_Source\PSoC4/CapSense_Structure.c ****         #if (0u != CapSense_TST_SNS_SHORT_EN)
 447:Generated_Source\PSoC4/CapSense_Structure.c ****             CapSense_dsRam.selfTestConfig.snsShortTimeUs = CapSense_TST_SNS_SHORT_TIME;
 448:Generated_Source\PSoC4/CapSense_Structure.c ****         #endif
 449:Generated_Source\PSoC4/CapSense_Structure.c **** 
 450:Generated_Source\PSoC4/CapSense_Structure.c ****         #if ((0u != CapSense_TST_SNS_CAP_EN) ||\
 451:Generated_Source\PSoC4/CapSense_Structure.c ****              (0u != CapSense_TST_SH_CAP_EN))
 452:Generated_Source\PSoC4/CapSense_Structure.c ****             CapSense_dsRam.selfTestConfig.snsCapSnsClkDivider = CapSense_TST_SNS_CAP_SNS_CLK_DIVIDE
 453:Generated_Source\PSoC4/CapSense_Structure.c ****             CapSense_dsRam.selfTestConfig.snsCapSnsClkHz = CapSense_TST_SNS_CAP_SNS_CLK_HZ;
 454:Generated_Source\PSoC4/CapSense_Structure.c ****             CapSense_dsRam.selfTestConfig.snsCapResolution = CapSense_TST_SNS_CAP_RESOLUTION;
 455:Generated_Source\PSoC4/CapSense_Structure.c ****             CapSense_dsRam.selfTestConfig.snsCapVrefGain = CapSense_TST_SNS_CAP_VREF_GAIN ;
 456:Generated_Source\PSoC4/CapSense_Structure.c ****             CapSense_dsRam.selfTestConfig.snsCapVrefVoltage = CapSense_TST_SNS_CAP_VREF_MV;
 457:Generated_Source\PSoC4/CapSense_Structure.c ****             CapSense_dsRam.selfTestConfig.snsCapModClkDivider = CapSense_TST_MOD_CLK_DIVIDER ;
 458:Generated_Source\PSoC4/CapSense_Structure.c ****             CapSense_dsRam.selfTestConfig.snsCapModClkKHz = CapSense_TST_MOD_CLK_KHZ ;
 459:Generated_Source\PSoC4/CapSense_Structure.c ****         #endif /* ((0u != CapSense_TST_SNS_CAP_EN) ||
 460:Generated_Source\PSoC4/CapSense_Structure.c ****                    (0u != CapSense_TST_SH_CAP_EN)) */
 461:Generated_Source\PSoC4/CapSense_Structure.c **** 
 462:Generated_Source\PSoC4/CapSense_Structure.c ****         #if (0u != CapSense_TST_SNS_CAP_EN)
 463:Generated_Source\PSoC4/CapSense_Structure.c ****             #if (0u != CapSense_CSD_EN)
 464:Generated_Source\PSoC4/CapSense_Structure.c ****                 CapSense_dsRam.selfTestConfig.bistCsdSnsCapISC = CapSense_SNS_CAP_CSD_INACTIVE_CONN
 465:Generated_Source\PSoC4/CapSense_Structure.c ****             #endif /* (0u != CapSense_CSD_EN) */
 466:Generated_Source\PSoC4/CapSense_Structure.c ****             #if (0u != CapSense_CSX_EN)
 467:Generated_Source\PSoC4/CapSense_Structure.c ****                 CapSense_dsRam.selfTestConfig.bistCsxSnsCapISC = CapSense_SNS_CAP_CSX_INACTIVE_CONN
 468:Generated_Source\PSoC4/CapSense_Structure.c ****             #endif /* (0u != CapSense_CSX_EN) */
 469:Generated_Source\PSoC4/CapSense_Structure.c ****         #endif /* (0u != CapSense_TST_SNS_CAP_EN) */
 470:Generated_Source\PSoC4/CapSense_Structure.c **** 
 471:Generated_Source\PSoC4/CapSense_Structure.c ****         #if (0u != CapSense_TST_SH_CAP_EN)
 472:Generated_Source\PSoC4/CapSense_Structure.c ****             #if ((0u != CapSense_CSD_EN) && (0u != CapSense_CSD_SHIELD_EN))
 473:Generated_Source\PSoC4/CapSense_Structure.c ****                 CapSense_dsRam.selfTestConfig.bistCsdShCapISC = CapSense_SHIELD_CAP_INACTIVE_CONNEC
 474:Generated_Source\PSoC4/CapSense_Structure.c ****             #endif /* ((0u != CapSense_CSD_EN) && (0u != CapSense_CSD_SHIELD_EN)) */
 475:Generated_Source\PSoC4/CapSense_Structure.c ****         #endif /* (0u != CapSense_TST_SH_CAP_EN) */
 476:Generated_Source\PSoC4/CapSense_Structure.c **** 
 477:Generated_Source\PSoC4/CapSense_Structure.c ****         #if (0u != CapSense_TST_EXTERNAL_CAP_EN)
 478:Generated_Source\PSoC4/CapSense_Structure.c ****             CapSense_dsRam.selfTestConfig.extCapVrefGain = CapSense_TST_EXT_CAP_VREF_GAIN;
 479:Generated_Source\PSoC4/CapSense_Structure.c ****             CapSense_dsRam.selfTestConfig.extCapVrefVoltage = CapSense_TST_EXT_CAP_VREF_MV;
 480:Generated_Source\PSoC4/CapSense_Structure.c ****         #endif /* #if (0u != CapSense_TST_EXTERNAL_CAP_EN) */
 481:Generated_Source\PSoC4/CapSense_Structure.c **** 
 482:Generated_Source\PSoC4/CapSense_Structure.c ****         #if (0u != CapSense_TST_VDDA_EN)
 483:Generated_Source\PSoC4/CapSense_Structure.c ****             CapSense_dsRam.selfTestConfig.vddaResolution = CapSense_TST_VDDA_RESOLUTION;
 484:Generated_Source\PSoC4/CapSense_Structure.c ****             CapSense_dsRam.selfTestConfig.vddaModClkDivider = CapSense_TST_VDDA_MOD_CLK_DIVIDER;
 485:Generated_Source\PSoC4/CapSense_Structure.c **** 
 486:Generated_Source\PSoC4/CapSense_Structure.c ****             CapSense_dsRam.selfTestConfig.vddaVrefGain = CapSense_TST_VDDA_VREF_GAIN;
 487:Generated_Source\PSoC4/CapSense_Structure.c ****             CapSense_dsRam.selfTestConfig.vddaVrefVoltage = CapSense_TST_VDDA_VREF_MV;
ARM GAS  C:\Users\zack.li\AppData\Local\Temp\cc6kR1xZ.s 			page 10


 488:Generated_Source\PSoC4/CapSense_Structure.c ****         #endif /* #if (0u != CapSense_TST_VDDA_EN) */
 489:Generated_Source\PSoC4/CapSense_Structure.c **** 
 490:Generated_Source\PSoC4/CapSense_Structure.c ****     #endif /* #if (0u != CapSense_SELF_TEST_EN) */
 491:Generated_Source\PSoC4/CapSense_Structure.c **** 
 492:Generated_Source\PSoC4/CapSense_Structure.c ****     /* Initialize RAM widget data */
 493:Generated_Source\PSoC4/CapSense_Structure.c ****     CapSense_dsRam.wdgtList = CapSense_ramWidgetInit;
 494:Generated_Source\PSoC4/CapSense_Structure.c **** 
 495:Generated_Source\PSoC4/CapSense_Structure.c ****     /* Initialize Gesture configuration structure */
 496:Generated_Source\PSoC4/CapSense_Structure.c ****     #if ((0u != CapSense_GES_GLOBAL_EN) || (0u != CapSense_BALLISTIC_MULTIPLIER_EN))
 497:Generated_Source\PSoC4/CapSense_Structure.c ****         CapSense_dsRam.timestampInterval = CapSense_TIMESTAMP_INTERVAL;
 498:Generated_Source\PSoC4/CapSense_Structure.c ****     #endif /* ((0u != CapSense_GES_GLOBAL_EN) || (0u != CapSense_BALLISTIC_MULTIPLIER_EN)) */
 499:Generated_Source\PSoC4/CapSense_Structure.c **** 
 500:Generated_Source\PSoC4/CapSense_Structure.c ****     #if (0u != CapSense_GES_GLOBAL_EN)
 501:Generated_Source\PSoC4/CapSense_Structure.c ****         CapSense_dsRam.gestures = CapSense_ramGesturesInit;
 502:Generated_Source\PSoC4/CapSense_Structure.c ****     #endif /* (0u != CapSense_GES_GLOBAL_EN) */
 503:Generated_Source\PSoC4/CapSense_Structure.c **** 
 504:Generated_Source\PSoC4/CapSense_Structure.c ****     #if (0u != CapSense_BALLISTIC_MULTIPLIER_EN)
 505:Generated_Source\PSoC4/CapSense_Structure.c ****         CapSense_dsRam.ballisticConfig = CapSense_ramBallisticInit;
 506:Generated_Source\PSoC4/CapSense_Structure.c ****     #endif /* (0u != CapSense_BALLISTIC_MULTIPLIER_EN) */
 507:Generated_Source\PSoC4/CapSense_Structure.c **** 
 508:Generated_Source\PSoC4/CapSense_Structure.c ****     #if (0u != CapSense_CSX_EN) || (0 != CapSense_CSD_IDAC_COMP_EN)
 509:Generated_Source\PSoC4/CapSense_Structure.c ****         /* Initialize IDAC data */
 510:Generated_Source\PSoC4/CapSense_Structure.c ****         ptrFlashWdgt = CapSense_dsFlash.wdgtArray;
 511:Generated_Source\PSoC4/CapSense_Structure.c **** 
 512:Generated_Source\PSoC4/CapSense_Structure.c ****         for (wdgtId = CapSense_TOTAL_WIDGETS; wdgtId-- > 0u; )
 513:Generated_Source\PSoC4/CapSense_Structure.c ****         {
 514:Generated_Source\PSoC4/CapSense_Structure.c ****             ptrSnsTmp = ptrFlashWdgt->ptr2SnsRam;
 515:Generated_Source\PSoC4/CapSense_Structure.c **** 
 516:Generated_Source\PSoC4/CapSense_Structure.c ****             for (snsId = CapSense_GET_SNS_CNT_BY_PTR(ptrFlashWdgt); snsId-- > 0u;)
 517:Generated_Source\PSoC4/CapSense_Structure.c ****             {
 518:Generated_Source\PSoC4/CapSense_Structure.c ****                 ptrSnsTmp->idacComp[0u] = *ptrIdacInit;
 519:Generated_Source\PSoC4/CapSense_Structure.c ****                 ptrIdacInit++;
 520:Generated_Source\PSoC4/CapSense_Structure.c **** 
 521:Generated_Source\PSoC4/CapSense_Structure.c ****                 #if (0u != CapSense_MULTI_FREQ_SCAN_EN)
 522:Generated_Source\PSoC4/CapSense_Structure.c ****                     ptrSnsTmp->idacComp[1u] = *ptrIdacInit;
 523:Generated_Source\PSoC4/CapSense_Structure.c ****                     ptrIdacInit++;
 524:Generated_Source\PSoC4/CapSense_Structure.c **** 
 525:Generated_Source\PSoC4/CapSense_Structure.c ****                     ptrSnsTmp->idacComp[2u] = *ptrIdacInit;
 526:Generated_Source\PSoC4/CapSense_Structure.c ****                     ptrIdacInit++;
 527:Generated_Source\PSoC4/CapSense_Structure.c ****                 #endif /* #if (0u != CapSense_MULTI_FREQ_SCAN_EN) */
 528:Generated_Source\PSoC4/CapSense_Structure.c **** 
 529:Generated_Source\PSoC4/CapSense_Structure.c ****                 ptrSnsTmp++;
 530:Generated_Source\PSoC4/CapSense_Structure.c ****             }
 531:Generated_Source\PSoC4/CapSense_Structure.c **** 
 532:Generated_Source\PSoC4/CapSense_Structure.c ****             ptrFlashWdgt++; /* Move to next widget */
 533:Generated_Source\PSoC4/CapSense_Structure.c ****         }
 534:Generated_Source\PSoC4/CapSense_Structure.c ****     #endif /*(0u != CapSense_CSX_EN) || (0 != CapSense_CSD_IDAC_COMP_EN)*/
 535:Generated_Source\PSoC4/CapSense_Structure.c **** 
 536:Generated_Source\PSoC4/CapSense_Structure.c ****     #if ((CapSense_ENABLE == CapSense_CSX_EN) && \
 537:Generated_Source\PSoC4/CapSense_Structure.c ****          (CapSense_ENABLE == CapSense_CSX_SKIP_OVSMPL_SPECIFIC_NODES))
 538:Generated_Source\PSoC4/CapSense_Structure.c ****         /* Initialize Sub-Conversion Number for each node of each CSX widget */
 539:Generated_Source\PSoC4/CapSense_Structure.c ****         ptrFlashWdgt = CapSense_dsFlash.wdgtArray;
 540:Generated_Source\PSoC4/CapSense_Structure.c ****         for (wdgtId = CapSense_TOTAL_WIDGETS; wdgtId-- > 0u;)
 541:Generated_Source\PSoC4/CapSense_Structure.c ****         {
 542:Generated_Source\PSoC4/CapSense_Structure.c ****             /* Check for widget sense method */
 543:Generated_Source\PSoC4/CapSense_Structure.c ****             if (CapSense_SENSE_METHOD_CSX_E == CapSense_GET_SENSE_METHOD(ptrFlashWdgt))
 544:Generated_Source\PSoC4/CapSense_Structure.c ****             {
ARM GAS  C:\Users\zack.li\AppData\Local\Temp\cc6kR1xZ.s 			page 11


 545:Generated_Source\PSoC4/CapSense_Structure.c ****                 /* Take the sub-convesion number of a CSX widget and initialize each node of this w
 546:Generated_Source\PSoC4/CapSense_Structure.c ****                 subConvNumber = ((CapSense_RAM_WD_BASE_STRUCT *)(ptrFlashWdgt->ptr2WdgtRam))->resol
 547:Generated_Source\PSoC4/CapSense_Structure.c ****                 ptrSnsTmp = ptrFlashWdgt->ptr2SnsRam;
 548:Generated_Source\PSoC4/CapSense_Structure.c ****                 for (snsId = CapSense_GET_SNS_CNT_BY_PTR(ptrFlashWdgt); snsId-- > 0u;)
 549:Generated_Source\PSoC4/CapSense_Structure.c ****                 {
 550:Generated_Source\PSoC4/CapSense_Structure.c ****                     ptrSnsTmp->subConvNum = subConvNumber;
 551:Generated_Source\PSoC4/CapSense_Structure.c ****                     ptrSnsTmp++;
 552:Generated_Source\PSoC4/CapSense_Structure.c ****                 }
 553:Generated_Source\PSoC4/CapSense_Structure.c ****             }
 554:Generated_Source\PSoC4/CapSense_Structure.c ****             /* Move to the next widget */
 555:Generated_Source\PSoC4/CapSense_Structure.c ****             ptrFlashWdgt++;
 556:Generated_Source\PSoC4/CapSense_Structure.c ****         }
 557:Generated_Source\PSoC4/CapSense_Structure.c ****     #endif /* ((CapSense_ENABLE == CapSense_CSX_EN) && \
 558:Generated_Source\PSoC4/CapSense_Structure.c ****                (CapSense_ENABLE == CapSense_CSX_SKIP_OVSMPL_SPECIFIC_NODES)) */
 559:Generated_Source\PSoC4/CapSense_Structure.c **** 
 560:Generated_Source\PSoC4/CapSense_Structure.c ****     #if (0u != CapSense_ADC_EN)
 561:Generated_Source\PSoC4/CapSense_Structure.c ****         CapSense_AdcDsInitialize();
 562:Generated_Source\PSoC4/CapSense_Structure.c ****     #endif /* (0u != CapSense_ADC_EN) */
 563:Generated_Source\PSoC4/CapSense_Structure.c **** }
 564:Generated_Source\PSoC4/CapSense_Structure.c **** 
 565:Generated_Source\PSoC4/CapSense_Structure.c **** 
 566:Generated_Source\PSoC4/CapSense_Structure.c **** #if (0u != CapSense_ADC_EN)
 567:Generated_Source\PSoC4/CapSense_Structure.c ****     /*******************************************************************************
 568:Generated_Source\PSoC4/CapSense_Structure.c ****     * Function Name: CapSense_AdcDsInitialize
 569:Generated_Source\PSoC4/CapSense_Structure.c ****     ****************************************************************************//**
 570:Generated_Source\PSoC4/CapSense_Structure.c ****     *
 571:Generated_Source\PSoC4/CapSense_Structure.c ****     * \brief
 572:Generated_Source\PSoC4/CapSense_Structure.c ****     *   Configures the initial Adc datastructure members.
 573:Generated_Source\PSoC4/CapSense_Structure.c ****     *
 574:Generated_Source\PSoC4/CapSense_Structure.c ****     *******************************************************************************/
 575:Generated_Source\PSoC4/CapSense_Structure.c ****     void CapSense_AdcDsInitialize(void)
 576:Generated_Source\PSoC4/CapSense_Structure.c ****     {
 577:Generated_Source\PSoC4/CapSense_Structure.c ****         CapSense_dsRam.adcResolution = CapSense_ADC_RESOLUTION;
 578:Generated_Source\PSoC4/CapSense_Structure.c ****         CapSense_dsRam.adcIdac = (uint8)(CapSense_ADC_IDAC_DEFAULT);
 579:Generated_Source\PSoC4/CapSense_Structure.c ****         CapSense_dsRam.adcActiveCh = CapSense_AdcNO_CHANNEL;
 580:Generated_Source\PSoC4/CapSense_Structure.c ****     }
 581:Generated_Source\PSoC4/CapSense_Structure.c **** #endif /* (0u != CapSense_ADC_EN) */
 582:Generated_Source\PSoC4/CapSense_Structure.c **** 
 583:Generated_Source\PSoC4/CapSense_Structure.c **** 
 584:Generated_Source\PSoC4/CapSense_Structure.c **** /*******************************************************************************
 585:Generated_Source\PSoC4/CapSense_Structure.c **** * Function Name: DsParseParamId
 586:Generated_Source\PSoC4/CapSense_Structure.c **** ****************************************************************************//**
 587:Generated_Source\PSoC4/CapSense_Structure.c **** *
 588:Generated_Source\PSoC4/CapSense_Structure.c **** * \brief
 589:Generated_Source\PSoC4/CapSense_Structure.c **** *   This function parses the parameter ID and checks its correctness.
 590:Generated_Source\PSoC4/CapSense_Structure.c **** *
 591:Generated_Source\PSoC4/CapSense_Structure.c **** * \details
 592:Generated_Source\PSoC4/CapSense_Structure.c **** *   This function checks the parameter CRC if the self-test is enabled,
 593:Generated_Source\PSoC4/CapSense_Structure.c **** *   validates the offset value and parameter type.
 594:Generated_Source\PSoC4/CapSense_Structure.c **** *
 595:Generated_Source\PSoC4/CapSense_Structure.c **** * \param paramId The parameter to parse.
 596:Generated_Source\PSoC4/CapSense_Structure.c **** * \param pData   The pointer to the structure that will hold parsed data.
 597:Generated_Source\PSoC4/CapSense_Structure.c **** *
 598:Generated_Source\PSoC4/CapSense_Structure.c **** * \return CYRET_SUCCESS     If the parameter is valid
 599:Generated_Source\PSoC4/CapSense_Structure.c **** *         CYRET_BAD_PARAM   If the parameter is invalid
 600:Generated_Source\PSoC4/CapSense_Structure.c **** *
 601:Generated_Source\PSoC4/CapSense_Structure.c **** *******************************************************************************/
ARM GAS  C:\Users\zack.li\AppData\Local\Temp\cc6kR1xZ.s 			page 12


 602:Generated_Source\PSoC4/CapSense_Structure.c **** static cystatus DsParseParamId(uint32 paramId, PARAM_ID_STRUCT *pData)
 603:Generated_Source\PSoC4/CapSense_Structure.c **** {
  27              		.loc 1 603 0
  28              		.cfi_startproc
  29              		@ args = 0, pretend = 0, frame = 0
  30              		@ frame_needed = 0, uses_anonymous_args = 0
  31              	.LVL0:
 604:Generated_Source\PSoC4/CapSense_Structure.c ****     cystatus result = CYRET_SUCCESS;
 605:Generated_Source\PSoC4/CapSense_Structure.c **** 
 606:Generated_Source\PSoC4/CapSense_Structure.c ****     #if (0u != CapSense_SELF_TEST_EN)
 607:Generated_Source\PSoC4/CapSense_Structure.c ****         const uint8 crcTable[] =
 608:Generated_Source\PSoC4/CapSense_Structure.c ****         {
 609:Generated_Source\PSoC4/CapSense_Structure.c ****             0x00u, 0x09u, 0x0Bu, 0x02u, 0x0Fu, 0x06u, 0x04u, 0x0Du,
 610:Generated_Source\PSoC4/CapSense_Structure.c ****             0x07u, 0x0Eu, 0x0Cu, 0x05u, 0x08u, 0x01u, 0x03u, 0x0Au
 611:Generated_Source\PSoC4/CapSense_Structure.c ****         };
 612:Generated_Source\PSoC4/CapSense_Structure.c **** 
 613:Generated_Source\PSoC4/CapSense_Structure.c ****         uint32 i;
 614:Generated_Source\PSoC4/CapSense_Structure.c ****         uint32 actualCrc = 0u;
 615:Generated_Source\PSoC4/CapSense_Structure.c ****         uint32 crcIndex;
 616:Generated_Source\PSoC4/CapSense_Structure.c ****     #endif /* #if (0u != CapSense_SELF_TEST_EN) */
 617:Generated_Source\PSoC4/CapSense_Structure.c **** 
 618:Generated_Source\PSoC4/CapSense_Structure.c ****     /* Extract parameter data */
 619:Generated_Source\PSoC4/CapSense_Structure.c ****     pData->offset     = LO16(paramId);
 620:Generated_Source\PSoC4/CapSense_Structure.c ****     pData->affectsCrc = LO8((paramId & PARAM_UBIT_MASK)  >> PARAM_UBIT_OFFSET);
  32              		.loc 1 620 0
  33 0000 0123     		movs	r3, #1
  34 0002 C20D     		lsrs	r2, r0, #23
  35 0004 1A40     		ands	r2, r3
  36 0006 CA70     		strb	r2, [r1, #3]
 621:Generated_Source\PSoC4/CapSense_Structure.c ****     pData->widgetId   = LO8((paramId & PARAM_WDID_MASK)  >> PARAM_WDID_OFFSET);
  37              		.loc 1 621 0
  38 0008 4202     		lsls	r2, r0, #9
  39 000a 520E     		lsrs	r2, r2, #25
 603:Generated_Source\PSoC4/CapSense_Structure.c ****     cystatus result = CYRET_SUCCESS;
  40              		.loc 1 603 0
  41 000c 70B5     		push	{r4, r5, r6, lr}
  42              		.cfi_def_cfa_offset 16
  43              		.cfi_offset 4, -16
  44              		.cfi_offset 5, -12
  45              		.cfi_offset 6, -8
  46              		.cfi_offset 14, -4
  47              		.loc 1 621 0
  48 000e 8A70     		strb	r2, [r1, #2]
 619:Generated_Source\PSoC4/CapSense_Structure.c ****     pData->affectsCrc = LO8((paramId & PARAM_UBIT_MASK)  >> PARAM_UBIT_OFFSET);
  49              		.loc 1 619 0
  50 0010 84B2     		uxth	r4, r0
 622:Generated_Source\PSoC4/CapSense_Structure.c ****     pData->type       = LO8((paramId & PARAM_TYPE_MASK)  >> PARAM_TYPE_OFFSET);
  51              		.loc 1 622 0
  52 0012 820F     		lsrs	r2, r0, #30
 623:Generated_Source\PSoC4/CapSense_Structure.c ****     pData->flash      = LO8((paramId & PARAM_FBIT_MASK)  >> PARAM_FBIT_OFFSET);
  53              		.loc 1 623 0
  54 0014 060F     		lsrs	r6, r0, #28
 624:Generated_Source\PSoC4/CapSense_Structure.c ****     pData->rw         = LO8((paramId & PARAM_RWBIT_MASK) >> PARAM_RWBIT_OFFSET);
  55              		.loc 1 624 0
  56 0016 450F     		lsrs	r5, r0, #29
 625:Generated_Source\PSoC4/CapSense_Structure.c ****     pData->crc        = LO8((paramId & PARAM_CRC_MASK)   >> PARAM_CRC_OFFSET);
  57              		.loc 1 625 0
ARM GAS  C:\Users\zack.li\AppData\Local\Temp\cc6kR1xZ.s 			page 13


  58 0018 0001     		lsls	r0, r0, #4
  59              	.LVL1:
  60 001a 000F     		lsrs	r0, r0, #28
 623:Generated_Source\PSoC4/CapSense_Structure.c ****     pData->flash      = LO8((paramId & PARAM_FBIT_MASK)  >> PARAM_FBIT_OFFSET);
  61              		.loc 1 623 0
  62 001c 1E40     		ands	r6, r3
 624:Generated_Source\PSoC4/CapSense_Structure.c ****     pData->rw         = LO8((paramId & PARAM_RWBIT_MASK) >> PARAM_RWBIT_OFFSET);
  63              		.loc 1 624 0
  64 001e 1D40     		ands	r5, r3
  65              		.loc 1 625 0
  66 0020 0871     		strb	r0, [r1, #4]
 619:Generated_Source\PSoC4/CapSense_Structure.c ****     pData->affectsCrc = LO8((paramId & PARAM_UBIT_MASK)  >> PARAM_UBIT_OFFSET);
  67              		.loc 1 619 0
  68 0022 0C80     		strh	r4, [r1]
 622:Generated_Source\PSoC4/CapSense_Structure.c ****     pData->flash      = LO8((paramId & PARAM_FBIT_MASK)  >> PARAM_FBIT_OFFSET);
  69              		.loc 1 622 0
  70 0024 CA71     		strb	r2, [r1, #7]
 623:Generated_Source\PSoC4/CapSense_Structure.c ****     pData->rw         = LO8((paramId & PARAM_RWBIT_MASK) >> PARAM_RWBIT_OFFSET);
  71              		.loc 1 623 0
  72 0026 4E71     		strb	r6, [r1, #5]
 624:Generated_Source\PSoC4/CapSense_Structure.c ****     pData->crc        = LO8((paramId & PARAM_CRC_MASK)   >> PARAM_CRC_OFFSET);
  73              		.loc 1 624 0
  74 0028 8D71     		strb	r5, [r1, #6]
  75 002a 1800     		movs	r0, r3
 626:Generated_Source\PSoC4/CapSense_Structure.c **** 
 627:Generated_Source\PSoC4/CapSense_Structure.c ****     /* Check parameter CRC if self-test is enabled */
 628:Generated_Source\PSoC4/CapSense_Structure.c ****     #if (0u != CapSense_SELF_TEST_EN)
 629:Generated_Source\PSoC4/CapSense_Structure.c **** 
 630:Generated_Source\PSoC4/CapSense_Structure.c ****         /* Calculate CRC for bits 0..24.
 631:Generated_Source\PSoC4/CapSense_Structure.c ****          * The CRC is calculated using nibbles (4-bits).
 632:Generated_Source\PSoC4/CapSense_Structure.c ****          * So for 0..24 bits there are in total 6 nibbles. */
 633:Generated_Source\PSoC4/CapSense_Structure.c ****         for (i = 6u; i > 0u; i--)
 634:Generated_Source\PSoC4/CapSense_Structure.c ****         {
 635:Generated_Source\PSoC4/CapSense_Structure.c ****             crcIndex = actualCrc ^ (paramId & 0x0Fu);
 636:Generated_Source\PSoC4/CapSense_Structure.c ****             actualCrc = crcTable[crcIndex];
 637:Generated_Source\PSoC4/CapSense_Structure.c ****             paramId >>= 4u;
 638:Generated_Source\PSoC4/CapSense_Structure.c ****         }
 639:Generated_Source\PSoC4/CapSense_Structure.c **** 
 640:Generated_Source\PSoC4/CapSense_Structure.c ****         /* Add bits 28..32 */
 641:Generated_Source\PSoC4/CapSense_Structure.c ****         crcIndex = actualCrc ^ ((paramId >> 4u) & 0x0Fu);
 642:Generated_Source\PSoC4/CapSense_Structure.c ****         actualCrc = crcTable[crcIndex];
 643:Generated_Source\PSoC4/CapSense_Structure.c **** 
 644:Generated_Source\PSoC4/CapSense_Structure.c ****         /* Add bits 24..28 (CRC) */
 645:Generated_Source\PSoC4/CapSense_Structure.c ****         crcIndex = actualCrc ^ (paramId & 0x0Fu);
 646:Generated_Source\PSoC4/CapSense_Structure.c ****         actualCrc = crcTable[crcIndex];
 647:Generated_Source\PSoC4/CapSense_Structure.c **** 
 648:Generated_Source\PSoC4/CapSense_Structure.c ****         if (0u != actualCrc)
 649:Generated_Source\PSoC4/CapSense_Structure.c ****         {
 650:Generated_Source\PSoC4/CapSense_Structure.c ****             /* CRC mismatch */
 651:Generated_Source\PSoC4/CapSense_Structure.c ****             result = CYRET_BAD_PARAM;
 652:Generated_Source\PSoC4/CapSense_Structure.c ****         }
 653:Generated_Source\PSoC4/CapSense_Structure.c **** 
 654:Generated_Source\PSoC4/CapSense_Structure.c ****         if ((CYRET_SUCCESS == result) &&
 655:Generated_Source\PSoC4/CapSense_Structure.c ****             (0u != pData->affectsCrc) && (pData->widgetId >= CapSense_TOTAL_WIDGETS ))
 656:Generated_Source\PSoC4/CapSense_Structure.c ****         {
 657:Generated_Source\PSoC4/CapSense_Structure.c ****             /* Wrong widgetId for protected parameter */
 658:Generated_Source\PSoC4/CapSense_Structure.c ****             result = CYRET_BAD_PARAM;
ARM GAS  C:\Users\zack.li\AppData\Local\Temp\cc6kR1xZ.s 			page 14


 659:Generated_Source\PSoC4/CapSense_Structure.c ****         }
 660:Generated_Source\PSoC4/CapSense_Structure.c **** 
 661:Generated_Source\PSoC4/CapSense_Structure.c ****         /* Check offset value range */
 662:Generated_Source\PSoC4/CapSense_Structure.c ****         if (CYRET_SUCCESS == result)
 663:Generated_Source\PSoC4/CapSense_Structure.c ****         {
 664:Generated_Source\PSoC4/CapSense_Structure.c ****             if (0u == pData->flash)
 665:Generated_Source\PSoC4/CapSense_Structure.c ****             {
 666:Generated_Source\PSoC4/CapSense_Structure.c ****                 /* Check offset for RAM Data Structure range */
 667:Generated_Source\PSoC4/CapSense_Structure.c ****                 if (pData->offset >= sizeof(CapSense_dsRam))
 668:Generated_Source\PSoC4/CapSense_Structure.c ****                 {
 669:Generated_Source\PSoC4/CapSense_Structure.c ****                     result = CYRET_BAD_PARAM;
 670:Generated_Source\PSoC4/CapSense_Structure.c ****                 }
 671:Generated_Source\PSoC4/CapSense_Structure.c ****             }
 672:Generated_Source\PSoC4/CapSense_Structure.c ****             else
 673:Generated_Source\PSoC4/CapSense_Structure.c ****             {
 674:Generated_Source\PSoC4/CapSense_Structure.c ****                 /* Check offset for Flash Data Structure range */
 675:Generated_Source\PSoC4/CapSense_Structure.c ****                 if (pData->offset >= sizeof(CapSense_dsFlash))
 676:Generated_Source\PSoC4/CapSense_Structure.c ****                 {
 677:Generated_Source\PSoC4/CapSense_Structure.c ****                     result = CYRET_BAD_PARAM;
 678:Generated_Source\PSoC4/CapSense_Structure.c ****                 }
 679:Generated_Source\PSoC4/CapSense_Structure.c **** 
 680:Generated_Source\PSoC4/CapSense_Structure.c ****                 /* Check if it is marked as Read Only */
 681:Generated_Source\PSoC4/CapSense_Structure.c ****                 if (0u != pData->rw)
 682:Generated_Source\PSoC4/CapSense_Structure.c ****                 {
 683:Generated_Source\PSoC4/CapSense_Structure.c ****                     result = CYRET_BAD_PARAM;
 684:Generated_Source\PSoC4/CapSense_Structure.c ****                 }
 685:Generated_Source\PSoC4/CapSense_Structure.c ****             }
 686:Generated_Source\PSoC4/CapSense_Structure.c ****         }
 687:Generated_Source\PSoC4/CapSense_Structure.c ****     #else /* #if (0u != CapSense_SELF_TEST_EN) */
 688:Generated_Source\PSoC4/CapSense_Structure.c ****         /* Check offset value range */
 689:Generated_Source\PSoC4/CapSense_Structure.c ****         if (0u == pData->flash)
  76              		.loc 1 689 0
  77 002c 002E     		cmp	r6, #0
  78 002e 02D1     		bne	.L2
 690:Generated_Source\PSoC4/CapSense_Structure.c ****         {
 691:Generated_Source\PSoC4/CapSense_Structure.c ****             /* Check offset for RAM Data Structure range */
 692:Generated_Source\PSoC4/CapSense_Structure.c ****             if (pData->offset >= sizeof(CapSense_dsRam))
  79              		.loc 1 692 0
  80 0030 8F2C     		cmp	r4, #143
  81 0032 12D8     		bhi	.L3
  82 0034 03E0     		b	.L4
  83              	.L2:
  84              	.LVL2:
 693:Generated_Source\PSoC4/CapSense_Structure.c ****             {
 694:Generated_Source\PSoC4/CapSense_Structure.c ****                 result = CYRET_BAD_PARAM;
 695:Generated_Source\PSoC4/CapSense_Structure.c ****             }
 696:Generated_Source\PSoC4/CapSense_Structure.c ****         }
 697:Generated_Source\PSoC4/CapSense_Structure.c ****         else
 698:Generated_Source\PSoC4/CapSense_Structure.c ****         {
 699:Generated_Source\PSoC4/CapSense_Structure.c ****             /* Check offset for Flash Data Structure range */
 700:Generated_Source\PSoC4/CapSense_Structure.c ****             if (pData->offset >= sizeof(CapSense_dsFlash))
 701:Generated_Source\PSoC4/CapSense_Structure.c ****             {
 702:Generated_Source\PSoC4/CapSense_Structure.c ****                 result = CYRET_BAD_PARAM;
 703:Generated_Source\PSoC4/CapSense_Structure.c ****             }
 704:Generated_Source\PSoC4/CapSense_Structure.c **** 
 705:Generated_Source\PSoC4/CapSense_Structure.c ****             /* Check if it is marked as Read Only */
 706:Generated_Source\PSoC4/CapSense_Structure.c ****             if (0u != pData->rw)
ARM GAS  C:\Users\zack.li\AppData\Local\Temp\cc6kR1xZ.s 			page 15


  85              		.loc 1 706 0
  86 0036 002D     		cmp	r5, #0
  87 0038 0FD1     		bne	.L3
 707:Generated_Source\PSoC4/CapSense_Structure.c ****             {
 708:Generated_Source\PSoC4/CapSense_Structure.c ****                 result = CYRET_BAD_PARAM;
 709:Generated_Source\PSoC4/CapSense_Structure.c ****             }
 710:Generated_Source\PSoC4/CapSense_Structure.c ****         }
 711:Generated_Source\PSoC4/CapSense_Structure.c ****     #endif /* #if (0u != CapSense_SELF_TEST_EN) */
 712:Generated_Source\PSoC4/CapSense_Structure.c **** 
 713:Generated_Source\PSoC4/CapSense_Structure.c ****     if (CYRET_SUCCESS == result)
  88              		.loc 1 713 0
  89 003a 6F2C     		cmp	r4, #111
  90 003c 0DD8     		bhi	.L3
  91              	.LVL3:
  92              	.L4:
 714:Generated_Source\PSoC4/CapSense_Structure.c ****     {
 715:Generated_Source\PSoC4/CapSense_Structure.c ****         /* Check parameter type, offset alignment */
 716:Generated_Source\PSoC4/CapSense_Structure.c ****         switch (pData->type)
 717:Generated_Source\PSoC4/CapSense_Structure.c ****         {
 718:Generated_Source\PSoC4/CapSense_Structure.c ****         case DS_PARAM_TYPE_UINT16:
 719:Generated_Source\PSoC4/CapSense_Structure.c ****             if (0u != (pData->offset & UINT16_ALIGN_MASK))
 720:Generated_Source\PSoC4/CapSense_Structure.c ****             {
 721:Generated_Source\PSoC4/CapSense_Structure.c ****                 result = CYRET_BAD_PARAM;
  93              		.loc 1 721 0
  94 003e 2340     		ands	r3, r4
  95 0040 1800     		movs	r0, r3
 716:Generated_Source\PSoC4/CapSense_Structure.c ****         {
  96              		.loc 1 716 0
  97 0042 022A     		cmp	r2, #2
  98 0044 09D0     		beq	.L3
  99 0046 032A     		cmp	r2, #3
 100 0048 03D0     		beq	.L7
 722:Generated_Source\PSoC4/CapSense_Structure.c ****             }
 723:Generated_Source\PSoC4/CapSense_Structure.c ****             break;
 724:Generated_Source\PSoC4/CapSense_Structure.c **** 
 725:Generated_Source\PSoC4/CapSense_Structure.c ****         case DS_PARAM_TYPE_UINT32:
 726:Generated_Source\PSoC4/CapSense_Structure.c ****             if (0u != (pData->offset & UINT32_ALIGN_MASK))
 727:Generated_Source\PSoC4/CapSense_Structure.c ****             {
 728:Generated_Source\PSoC4/CapSense_Structure.c ****                 result = CYRET_BAD_PARAM;
 729:Generated_Source\PSoC4/CapSense_Structure.c ****             }
 730:Generated_Source\PSoC4/CapSense_Structure.c ****             break;
 731:Generated_Source\PSoC4/CapSense_Structure.c **** 
 732:Generated_Source\PSoC4/CapSense_Structure.c ****         case DS_PARAM_TYPE_UINT8:
 733:Generated_Source\PSoC4/CapSense_Structure.c ****             break;
 734:Generated_Source\PSoC4/CapSense_Structure.c **** 
 735:Generated_Source\PSoC4/CapSense_Structure.c ****         default:
 736:Generated_Source\PSoC4/CapSense_Structure.c ****             result = CYRET_BAD_PARAM;
 101              		.loc 1 736 0
 102 004a 501E     		subs	r0, r2, #1
 103 004c 431E     		subs	r3, r0, #1
 104 004e 9841     		sbcs	r0, r0, r3
 105 0050 03E0     		b	.L3
 106              	.L7:
 721:Generated_Source\PSoC4/CapSense_Structure.c ****             }
 107              		.loc 1 721 0
 108 0052 2000     		movs	r0, r4
 109 0054 1040     		ands	r0, r2
ARM GAS  C:\Users\zack.li\AppData\Local\Temp\cc6kR1xZ.s 			page 16


 110 0056 421E     		subs	r2, r0, #1
 111 0058 9041     		sbcs	r0, r0, r2
 112              	.L3:
 113              	.LVL4:
 737:Generated_Source\PSoC4/CapSense_Structure.c ****             break;
 738:Generated_Source\PSoC4/CapSense_Structure.c ****         }
 739:Generated_Source\PSoC4/CapSense_Structure.c ****     }
 740:Generated_Source\PSoC4/CapSense_Structure.c **** 
 741:Generated_Source\PSoC4/CapSense_Structure.c ****     return result;
 742:Generated_Source\PSoC4/CapSense_Structure.c **** }
 114              		.loc 1 742 0
 115              		@ sp needed
 116 005a 70BD     		pop	{r4, r5, r6, pc}
 117              		.cfi_endproc
 118              	.LFE2:
 119              		.size	DsParseParamId, .-DsParseParamId
 120              		.section	.text.CapSense_DsInitialize,"ax",%progbits
 121              		.align	1
 122              		.global	CapSense_DsInitialize
 123              		.code	16
 124              		.thumb_func
 125              		.type	CapSense_DsInitialize, %function
 126              	CapSense_DsInitialize:
 127              	.LFB1:
 386:Generated_Source\PSoC4/CapSense_Structure.c ****     #if ((CapSense_ENABLE == CapSense_CSX_EN) || \
 128              		.loc 1 386 0
 129              		.cfi_startproc
 130              		@ args = 0, pretend = 0, frame = 0
 131              		@ frame_needed = 0, uses_anonymous_args = 0
 132              	.LVL5:
 133 0000 F8B5     		push	{r3, r4, r5, r6, r7, lr}
 134              		.cfi_def_cfa_offset 24
 135              		.cfi_offset 3, -24
 136              		.cfi_offset 4, -20
 137              		.cfi_offset 5, -16
 138              		.cfi_offset 6, -12
 139              		.cfi_offset 7, -8
 140              		.cfi_offset 14, -4
 407:Generated_Source\PSoC4/CapSense_Structure.c **** 
 141              		.loc 1 407 0
 142 0002 184C     		ldr	r4, .L20
 143 0004 9022     		movs	r2, #144
 144 0006 0021     		movs	r1, #0
 145 0008 2000     		movs	r0, r4
 146 000a FFF7FEFF 		bl	memset
 147              	.LVL6:
 410:Generated_Source\PSoC4/CapSense_Structure.c ****     CapSense_dsRam.deviceId = CapSense_DEVICE_ID;
 148              		.loc 1 410 0
 149 000e B123     		movs	r3, #177
 150 0010 DB00     		lsls	r3, r3, #3
 151 0012 2380     		strh	r3, [r4]
 412:Generated_Source\PSoC4/CapSense_Structure.c **** 
 152              		.loc 1 412 0
 153 0014 144B     		ldr	r3, .L20+4
 417:Generated_Source\PSoC4/CapSense_Structure.c ****     #if (0u != CapSense_TOTAL_CSD_WIDGETS)
 154              		.loc 1 417 0
 155 0016 0322     		movs	r2, #3
ARM GAS  C:\Users\zack.li\AppData\Local\Temp\cc6kR1xZ.s 			page 17


 412:Generated_Source\PSoC4/CapSense_Structure.c **** 
 156              		.loc 1 412 0
 157 0018 A380     		strh	r3, [r4, #4]
 415:Generated_Source\PSoC4/CapSense_Structure.c **** 
 158              		.loc 1 415 0
 159 001a 8023     		movs	r3, #128
 160 001c 5B00     		lsls	r3, r3, #1
 161 001e A383     		strh	r3, [r4, #28]
 417:Generated_Source\PSoC4/CapSense_Structure.c ****     #if (0u != CapSense_TOTAL_CSD_WIDGETS)
 162              		.loc 1 417 0
 163 0020 2300     		movs	r3, r4
 493:Generated_Source\PSoC4/CapSense_Structure.c **** 
 164              		.loc 1 493 0
 165 0022 2000     		movs	r0, r4
 417:Generated_Source\PSoC4/CapSense_Structure.c ****     #if (0u != CapSense_TOTAL_CSD_WIDGETS)
 166              		.loc 1 417 0
 167 0024 8F33     		adds	r3, r3, #143
 168 0026 1A70     		strb	r2, [r3]
 419:Generated_Source\PSoC4/CapSense_Structure.c ****         CapSense_dsRam.scanCsdISC = CapSense_CSD_INACTIVE_SNS_CONNECTION;
 169              		.loc 1 419 0
 170 0028 0123     		movs	r3, #1
 493:Generated_Source\PSoC4/CapSense_Structure.c **** 
 171              		.loc 1 493 0
 172 002a 104D     		ldr	r5, .L20+8
 173 002c 2030     		adds	r0, r0, #32
 174 002e 291D     		adds	r1, r5, #4
 175 0030 3D32     		adds	r2, r2, #61
 419:Generated_Source\PSoC4/CapSense_Structure.c ****         CapSense_dsRam.scanCsdISC = CapSense_CSD_INACTIVE_SNS_CONNECTION;
 176              		.loc 1 419 0
 177 0032 A377     		strb	r3, [r4, #30]
 178 0034 2E00     		movs	r6, r5
 493:Generated_Source\PSoC4/CapSense_Structure.c **** 
 179              		.loc 1 493 0
 180 0036 FFF7FEFF 		bl	memcpy
 181              	.LVL7:
 182 003a 2B00     		movs	r3, r5
 183 003c BC36     		adds	r6, r6, #188
 184 003e 4C33     		adds	r3, r3, #76
 185              	.LVL8:
 186              	.L14:
 512:Generated_Source\PSoC4/CapSense_Structure.c ****         {
 187              		.loc 1 512 0 discriminator 1
 188 0040 B342     		cmp	r3, r6
 189 0042 0DD0     		beq	.L18
 516:Generated_Source\PSoC4/CapSense_Structure.c ****             {
 190              		.loc 1 516 0
 191 0044 1C8A     		ldrh	r4, [r3, #16]
 192 0046 2800     		movs	r0, r5
 193 0048 2200     		movs	r2, r4
 514:Generated_Source\PSoC4/CapSense_Structure.c **** 
 194              		.loc 1 514 0
 195 004a 1968     		ldr	r1, [r3]
 196              	.LVL9:
 197              	.L15:
 516:Generated_Source\PSoC4/CapSense_Structure.c ****             {
 198              		.loc 1 516 0 discriminator 1
 199 004c 013A     		subs	r2, r2, #1
ARM GAS  C:\Users\zack.li\AppData\Local\Temp\cc6kR1xZ.s 			page 18


 200 004e 04D3     		bcc	.L19
 201              	.LVL10:
 518:Generated_Source\PSoC4/CapSense_Structure.c ****                 ptrIdacInit++;
 202              		.loc 1 518 0
 203 0050 0778     		ldrb	r7, [r0]
 519:Generated_Source\PSoC4/CapSense_Structure.c **** 
 204              		.loc 1 519 0
 205 0052 0130     		adds	r0, r0, #1
 206              	.LVL11:
 518:Generated_Source\PSoC4/CapSense_Structure.c ****                 ptrIdacInit++;
 207              		.loc 1 518 0
 208 0054 4F72     		strb	r7, [r1, #9]
 529:Generated_Source\PSoC4/CapSense_Structure.c ****             }
 209              		.loc 1 529 0
 210 0056 0A31     		adds	r1, r1, #10
 211              	.LVL12:
 212 0058 F8E7     		b	.L15
 213              	.L19:
 214 005a 2D19     		adds	r5, r5, r4
 215              	.LVL13:
 216 005c 1C33     		adds	r3, r3, #28
 217              	.LVL14:
 218 005e EFE7     		b	.L14
 219              	.LVL15:
 220              	.L18:
 563:Generated_Source\PSoC4/CapSense_Structure.c **** 
 221              		.loc 1 563 0
 222              		@ sp needed
 223              	.LVL16:
 224 0060 F8BD     		pop	{r3, r4, r5, r6, r7, pc}
 225              	.L21:
 226 0062 C046     		.align	2
 227              	.L20:
 228 0064 00000000 		.word	CapSense_dsRam
 229 0068 B80B0000 		.word	3000
 230 006c 00000000 		.word	.LANCHOR0
 231              		.cfi_endproc
 232              	.LFE1:
 233              		.size	CapSense_DsInitialize, .-CapSense_DsInitialize
 234              		.section	.text.CapSense_GetParam,"ax",%progbits
 235              		.align	1
 236              		.global	CapSense_GetParam
 237              		.code	16
 238              		.thumb_func
 239              		.type	CapSense_GetParam, %function
 240              	CapSense_GetParam:
 241              	.LFB3:
 743:Generated_Source\PSoC4/CapSense_Structure.c **** 
 744:Generated_Source\PSoC4/CapSense_Structure.c **** /*******************************************************************************
 745:Generated_Source\PSoC4/CapSense_Structure.c **** * Function Name: CapSense_GetParam
 746:Generated_Source\PSoC4/CapSense_Structure.c **** ****************************************************************************//**
 747:Generated_Source\PSoC4/CapSense_Structure.c **** *
 748:Generated_Source\PSoC4/CapSense_Structure.c **** * \brief
 749:Generated_Source\PSoC4/CapSense_Structure.c **** *  Gets the specified parameter value from the \ref group_structures.
 750:Generated_Source\PSoC4/CapSense_Structure.c **** *
 751:Generated_Source\PSoC4/CapSense_Structure.c **** * \details
 752:Generated_Source\PSoC4/CapSense_Structure.c **** *  This function gets the value of the specified parameter by the paramId
ARM GAS  C:\Users\zack.li\AppData\Local\Temp\cc6kR1xZ.s 			page 19


 753:Generated_Source\PSoC4/CapSense_Structure.c **** *  argument. The paramId for each register is available in the
 754:Generated_Source\PSoC4/CapSense_Structure.c **** *  CapSense RegisterMap header file as
 755:Generated_Source\PSoC4/CapSense_Structure.c **** *  CapSense_<ParameterName>_PARAM_ID. The paramId is a special
 756:Generated_Source\PSoC4/CapSense_Structure.c **** *  enumerated value generated by the customizer. The format of paramId is as
 757:Generated_Source\PSoC4/CapSense_Structure.c **** *  follows:
 758:Generated_Source\PSoC4/CapSense_Structure.c **** *    1. [ byte 3 byte 2 byte 1 byte 0 ]
 759:Generated_Source\PSoC4/CapSense_Structure.c **** *    2. [ TTWFCCCC UIIIIIII MMMMMMMM LLLLLLLL ]
 760:Generated_Source\PSoC4/CapSense_Structure.c **** *    3. T - encodes the parameter type:
 761:Generated_Source\PSoC4/CapSense_Structure.c **** *      - 01b: uint8
 762:Generated_Source\PSoC4/CapSense_Structure.c **** *      - 10b: uint16
 763:Generated_Source\PSoC4/CapSense_Structure.c **** *      - 11b: uint32
 764:Generated_Source\PSoC4/CapSense_Structure.c **** *    4. W - indicates whether the parameter is writable:
 765:Generated_Source\PSoC4/CapSense_Structure.c **** *      - 0: ReadOnly
 766:Generated_Source\PSoC4/CapSense_Structure.c **** *      - 1: Read/Write
 767:Generated_Source\PSoC4/CapSense_Structure.c **** *    5. C - 4 bit CRC (X^3 + 1) of the whole paramId word, the C bits are
 768:Generated_Source\PSoC4/CapSense_Structure.c **** *       filled with 0s when the CRC is calculated.
 769:Generated_Source\PSoC4/CapSense_Structure.c **** *    6. U - indicates if the parameter affects the RAM Widget Object CRC.
 770:Generated_Source\PSoC4/CapSense_Structure.c **** *    7. I - specifies that the widgetId parameter belongs to
 771:Generated_Source\PSoC4/CapSense_Structure.c **** *    8. M,L - the parameter offset MSB and LSB accordingly in:
 772:Generated_Source\PSoC4/CapSense_Structure.c **** *      - Flash Data Structure if W bit is 0.
 773:Generated_Source\PSoC4/CapSense_Structure.c **** *      - RAM Data Structure if W bit is 1.
 774:Generated_Source\PSoC4/CapSense_Structure.c **** *
 775:Generated_Source\PSoC4/CapSense_Structure.c **** *  Refer to the \ref group_structures section for details of the data structure
 776:Generated_Source\PSoC4/CapSense_Structure.c **** *  organization and examples of its register access.
 777:Generated_Source\PSoC4/CapSense_Structure.c **** *
 778:Generated_Source\PSoC4/CapSense_Structure.c **** * \param paramId
 779:Generated_Source\PSoC4/CapSense_Structure.c **** *  Specifies the ID of parameter to get its value.
 780:Generated_Source\PSoC4/CapSense_Structure.c **** *  A macro for the parameter ID can be found in the CapSense RegisterMap header
 781:Generated_Source\PSoC4/CapSense_Structure.c **** *  file defined as CapSense_<ParameterName>_PARAM_ID.
 782:Generated_Source\PSoC4/CapSense_Structure.c **** *
 783:Generated_Source\PSoC4/CapSense_Structure.c **** * \param value
 784:Generated_Source\PSoC4/CapSense_Structure.c **** *  The pointer to a variable to be updated with the obtained value.
 785:Generated_Source\PSoC4/CapSense_Structure.c **** *
 786:Generated_Source\PSoC4/CapSense_Structure.c **** * \return
 787:Generated_Source\PSoC4/CapSense_Structure.c **** *  Returns the status of the operation:
 788:Generated_Source\PSoC4/CapSense_Structure.c **** *    - CYRET_SUCCESS - The operation is successfully completed.
 789:Generated_Source\PSoC4/CapSense_Structure.c **** *    - CYRET_BAD_PARAM - The input parameter is invalid.
 790:Generated_Source\PSoC4/CapSense_Structure.c **** *
 791:Generated_Source\PSoC4/CapSense_Structure.c **** *******************************************************************************/
 792:Generated_Source\PSoC4/CapSense_Structure.c **** cystatus CapSense_GetParam(uint32 paramId, uint32 *value)
 793:Generated_Source\PSoC4/CapSense_Structure.c **** {
 242              		.loc 1 793 0
 243              		.cfi_startproc
 244              		@ args = 0, pretend = 0, frame = 8
 245              		@ frame_needed = 0, uses_anonymous_args = 0
 246              	.LVL17:
 247 0000 13B5     		push	{r0, r1, r4, lr}
 248              		.cfi_def_cfa_offset 16
 249              		.cfi_offset 0, -16
 250              		.cfi_offset 1, -12
 251              		.cfi_offset 4, -8
 252              		.cfi_offset 14, -4
 253              		.loc 1 793 0
 254 0002 0C00     		movs	r4, r1
 794:Generated_Source\PSoC4/CapSense_Structure.c ****     PARAM_ID_STRUCT pData;
 795:Generated_Source\PSoC4/CapSense_Structure.c ****     cystatus result;
 796:Generated_Source\PSoC4/CapSense_Structure.c **** 
ARM GAS  C:\Users\zack.li\AppData\Local\Temp\cc6kR1xZ.s 			page 20


 797:Generated_Source\PSoC4/CapSense_Structure.c ****     union
 798:Generated_Source\PSoC4/CapSense_Structure.c ****     {
 799:Generated_Source\PSoC4/CapSense_Structure.c ****         volatile void   const * ptr;
 800:Generated_Source\PSoC4/CapSense_Structure.c ****         volatile uint8  const * ptrUint8;
 801:Generated_Source\PSoC4/CapSense_Structure.c ****         volatile uint16 const * ptrUint16;
 802:Generated_Source\PSoC4/CapSense_Structure.c ****         volatile uint32 const * ptrUint32;
 803:Generated_Source\PSoC4/CapSense_Structure.c ****     } ptrData;
 804:Generated_Source\PSoC4/CapSense_Structure.c **** 
 805:Generated_Source\PSoC4/CapSense_Structure.c ****     result = DsParseParamId(paramId, &pData);
 255              		.loc 1 805 0
 256 0004 6946     		mov	r1, sp
 257              	.LVL18:
 258 0006 FFF7FEFF 		bl	DsParseParamId
 259              	.LVL19:
 806:Generated_Source\PSoC4/CapSense_Structure.c **** 
 807:Generated_Source\PSoC4/CapSense_Structure.c ****     /* Parse and validate paramId */
 808:Generated_Source\PSoC4/CapSense_Structure.c ****     if (CYRET_SUCCESS == result)
 260              		.loc 1 808 0
 261 000a 0028     		cmp	r0, #0
 262 000c 17D1     		bne	.L23
 809:Generated_Source\PSoC4/CapSense_Structure.c ****     {
 810:Generated_Source\PSoC4/CapSense_Structure.c ****         /* Get base address of parameter */
 811:Generated_Source\PSoC4/CapSense_Structure.c ****         if (0u == pData.flash)
 263              		.loc 1 811 0
 264 000e 6B46     		mov	r3, sp
 265 0010 5A79     		ldrb	r2, [r3, #5]
 812:Generated_Source\PSoC4/CapSense_Structure.c ****         {
 813:Generated_Source\PSoC4/CapSense_Structure.c ****             ptrData.ptr = &CapSense_dsRam;
 266              		.loc 1 813 0
 267 0012 0B4B     		ldr	r3, .L30
 811:Generated_Source\PSoC4/CapSense_Structure.c ****         {
 268              		.loc 1 811 0
 269 0014 002A     		cmp	r2, #0
 270 0016 01D0     		beq	.L24
 814:Generated_Source\PSoC4/CapSense_Structure.c ****         }
 815:Generated_Source\PSoC4/CapSense_Structure.c ****         else
 816:Generated_Source\PSoC4/CapSense_Structure.c ****         {
 817:Generated_Source\PSoC4/CapSense_Structure.c ****             ptrData.ptr = &CapSense_dsFlash;
 271              		.loc 1 817 0
 272 0018 0A4B     		ldr	r3, .L30+4
 273 001a 4433     		adds	r3, r3, #68
 274              	.L24:
 275              	.LVL20:
 818:Generated_Source\PSoC4/CapSense_Structure.c ****         }
 819:Generated_Source\PSoC4/CapSense_Structure.c **** 
 820:Generated_Source\PSoC4/CapSense_Structure.c ****         /* Add offset to base address */
 821:Generated_Source\PSoC4/CapSense_Structure.c ****         ptrData.ptrUint8 += pData.offset;
 276              		.loc 1 821 0
 277 001c 6A46     		mov	r2, sp
 278 001e 1288     		ldrh	r2, [r2]
 279 0020 9B18     		adds	r3, r3, r2
 280              	.LVL21:
 822:Generated_Source\PSoC4/CapSense_Structure.c **** 
 823:Generated_Source\PSoC4/CapSense_Structure.c ****         /* Read data */
 824:Generated_Source\PSoC4/CapSense_Structure.c ****         if (DS_PARAM_TYPE_UINT8 == pData.type)
 281              		.loc 1 824 0
 282 0022 6A46     		mov	r2, sp
ARM GAS  C:\Users\zack.li\AppData\Local\Temp\cc6kR1xZ.s 			page 21


 283 0024 D279     		ldrb	r2, [r2, #7]
 284 0026 012A     		cmp	r2, #1
 285 0028 01D1     		bne	.L25
 825:Generated_Source\PSoC4/CapSense_Structure.c ****         {
 826:Generated_Source\PSoC4/CapSense_Structure.c ****             *value = (uint32) (*ptrData.ptrUint8);
 286              		.loc 1 826 0
 287 002a 1B78     		ldrb	r3, [r3]
 288              	.LVL22:
 289 002c 06E0     		b	.L29
 290              	.LVL23:
 291              	.L25:
 827:Generated_Source\PSoC4/CapSense_Structure.c ****         }
 828:Generated_Source\PSoC4/CapSense_Structure.c ****         else if (DS_PARAM_TYPE_UINT16 == pData.type)
 292              		.loc 1 828 0
 293 002e 022A     		cmp	r2, #2
 294 0030 01D1     		bne	.L26
 829:Generated_Source\PSoC4/CapSense_Structure.c ****         {
 830:Generated_Source\PSoC4/CapSense_Structure.c ****             *value = (uint32) (*ptrData.ptrUint16);
 295              		.loc 1 830 0
 296 0032 1B88     		ldrh	r3, [r3]
 297              	.LVL24:
 298 0034 02E0     		b	.L29
 299              	.LVL25:
 300              	.L26:
 831:Generated_Source\PSoC4/CapSense_Structure.c ****         }
 832:Generated_Source\PSoC4/CapSense_Structure.c ****         else if (DS_PARAM_TYPE_UINT32 == pData.type)
 301              		.loc 1 832 0
 302 0036 032A     		cmp	r2, #3
 303 0038 01D1     		bne	.L23
 833:Generated_Source\PSoC4/CapSense_Structure.c ****         {
 834:Generated_Source\PSoC4/CapSense_Structure.c ****             *value = *ptrData.ptrUint32;
 304              		.loc 1 834 0
 305 003a 1B68     		ldr	r3, [r3]
 306              	.LVL26:
 307              	.L29:
 308 003c 2360     		str	r3, [r4]
 309              	.L23:
 835:Generated_Source\PSoC4/CapSense_Structure.c ****         }
 836:Generated_Source\PSoC4/CapSense_Structure.c ****         else
 837:Generated_Source\PSoC4/CapSense_Structure.c ****         {
 838:Generated_Source\PSoC4/CapSense_Structure.c ****             /* Parameter comes here already validated. */
 839:Generated_Source\PSoC4/CapSense_Structure.c ****             CYASSERT(0u);
 840:Generated_Source\PSoC4/CapSense_Structure.c ****         }
 841:Generated_Source\PSoC4/CapSense_Structure.c ****     }
 842:Generated_Source\PSoC4/CapSense_Structure.c **** 
 843:Generated_Source\PSoC4/CapSense_Structure.c ****     return result;
 844:Generated_Source\PSoC4/CapSense_Structure.c **** }
 310              		.loc 1 844 0
 311              		@ sp needed
 312              	.LVL27:
 313 003e 16BD     		pop	{r1, r2, r4, pc}
 314              	.L31:
 315              		.align	2
 316              	.L30:
 317 0040 00000000 		.word	CapSense_dsRam
 318 0044 00000000 		.word	.LANCHOR0
 319              		.cfi_endproc
ARM GAS  C:\Users\zack.li\AppData\Local\Temp\cc6kR1xZ.s 			page 22


 320              	.LFE3:
 321              		.size	CapSense_GetParam, .-CapSense_GetParam
 322              		.section	.text.CapSense_SetParam,"ax",%progbits
 323              		.align	1
 324              		.global	CapSense_SetParam
 325              		.code	16
 326              		.thumb_func
 327              		.type	CapSense_SetParam, %function
 328              	CapSense_SetParam:
 329              	.LFB4:
 845:Generated_Source\PSoC4/CapSense_Structure.c **** 
 846:Generated_Source\PSoC4/CapSense_Structure.c **** 
 847:Generated_Source\PSoC4/CapSense_Structure.c **** /*******************************************************************************
 848:Generated_Source\PSoC4/CapSense_Structure.c **** * Function Name: CapSense_SetParam
 849:Generated_Source\PSoC4/CapSense_Structure.c **** ****************************************************************************//**
 850:Generated_Source\PSoC4/CapSense_Structure.c **** *
 851:Generated_Source\PSoC4/CapSense_Structure.c **** * \brief
 852:Generated_Source\PSoC4/CapSense_Structure.c **** *  Sets a new value for the specified parameter in the \ref group_structures.
 853:Generated_Source\PSoC4/CapSense_Structure.c **** *
 854:Generated_Source\PSoC4/CapSense_Structure.c **** * \details
 855:Generated_Source\PSoC4/CapSense_Structure.c **** *  This function sets the value of the specified parameter by the paramId
 856:Generated_Source\PSoC4/CapSense_Structure.c **** *  argument. The paramId for each register is available in the
 857:Generated_Source\PSoC4/CapSense_Structure.c **** *  CapSense RegisterMap header file as
 858:Generated_Source\PSoC4/CapSense_Structure.c **** *  CapSense_<ParameterName>_PARAM_ID. The paramId is a special
 859:Generated_Source\PSoC4/CapSense_Structure.c **** *  enumerated value generated by the customizer. The format of paramId is as
 860:Generated_Source\PSoC4/CapSense_Structure.c **** *  follows:
 861:Generated_Source\PSoC4/CapSense_Structure.c **** *    1. [ byte 3 byte 2 byte 1 byte 0 ]
 862:Generated_Source\PSoC4/CapSense_Structure.c **** *    2. [ TTWFCCCC UIIIIIII MMMMMMMM LLLLLLLL ]
 863:Generated_Source\PSoC4/CapSense_Structure.c **** *    3. T - encodes the parameter type:
 864:Generated_Source\PSoC4/CapSense_Structure.c **** *      - 01b: uint8
 865:Generated_Source\PSoC4/CapSense_Structure.c **** *      - 10b: uint16
 866:Generated_Source\PSoC4/CapSense_Structure.c **** *      - 11b: uint32
 867:Generated_Source\PSoC4/CapSense_Structure.c **** *    4. W - indicates whether the parameter is writable:
 868:Generated_Source\PSoC4/CapSense_Structure.c **** *      - 0: ReadOnly
 869:Generated_Source\PSoC4/CapSense_Structure.c **** *      - 1: Read/Write
 870:Generated_Source\PSoC4/CapSense_Structure.c **** *    5. C - 4 bit CRC (X^3 + 1) of the whole paramId word, the C bits are
 871:Generated_Source\PSoC4/CapSense_Structure.c **** *       filled with 0s when the CRC is calculated.
 872:Generated_Source\PSoC4/CapSense_Structure.c **** *    6. U - indicates if the parameter affects the RAM Widget Object CRC.
 873:Generated_Source\PSoC4/CapSense_Structure.c **** *    7. I - specifies that the widgetId parameter belongs to
 874:Generated_Source\PSoC4/CapSense_Structure.c **** *    8. M,L - the parameter offset MSB and LSB accordingly in:
 875:Generated_Source\PSoC4/CapSense_Structure.c **** *      - Flash Data Structure if W bit is 0.
 876:Generated_Source\PSoC4/CapSense_Structure.c **** *      - RAM Data Structure if W bit is 1.
 877:Generated_Source\PSoC4/CapSense_Structure.c **** *
 878:Generated_Source\PSoC4/CapSense_Structure.c **** *  Refer to the \ref group_structures section for details of the data structure
 879:Generated_Source\PSoC4/CapSense_Structure.c **** *  organization and examples of its register access.
 880:Generated_Source\PSoC4/CapSense_Structure.c **** *
 881:Generated_Source\PSoC4/CapSense_Structure.c **** *  This function writes specified value into the desired register without
 882:Generated_Source\PSoC4/CapSense_Structure.c **** *  other registers update. It is application layer responsibility to keep all
 883:Generated_Source\PSoC4/CapSense_Structure.c **** *  the data structure registers aligned. Repeated call of
 884:Generated_Source\PSoC4/CapSense_Structure.c **** *  CapSense_Start() function helps aligning dependent register values.
 885:Generated_Source\PSoC4/CapSense_Structure.c **** *
 886:Generated_Source\PSoC4/CapSense_Structure.c **** * \param paramId
 887:Generated_Source\PSoC4/CapSense_Structure.c **** *  Specifies the ID of parameter to set its value.
 888:Generated_Source\PSoC4/CapSense_Structure.c **** *  A macro for the parameter ID can be found in the CapSense RegisterMap header
 889:Generated_Source\PSoC4/CapSense_Structure.c **** *  file defined as CapSense_<ParameterName>_PARAM_ID.
 890:Generated_Source\PSoC4/CapSense_Structure.c **** 
 891:Generated_Source\PSoC4/CapSense_Structure.c **** * \param value
ARM GAS  C:\Users\zack.li\AppData\Local\Temp\cc6kR1xZ.s 			page 23


 892:Generated_Source\PSoC4/CapSense_Structure.c **** *  Specifies the new parameter's value.
 893:Generated_Source\PSoC4/CapSense_Structure.c **** *
 894:Generated_Source\PSoC4/CapSense_Structure.c **** * \return
 895:Generated_Source\PSoC4/CapSense_Structure.c **** *  Returns the status of the operation:
 896:Generated_Source\PSoC4/CapSense_Structure.c **** *    - CYRET_SUCCESS - The operation is successfully completed.
 897:Generated_Source\PSoC4/CapSense_Structure.c **** *    - CYRET_BAD_PARAM - The input parameter is invalid.
 898:Generated_Source\PSoC4/CapSense_Structure.c **** *
 899:Generated_Source\PSoC4/CapSense_Structure.c **** *******************************************************************************/
 900:Generated_Source\PSoC4/CapSense_Structure.c **** cystatus CapSense_SetParam(uint32 paramId, uint32 value)
 901:Generated_Source\PSoC4/CapSense_Structure.c **** {
 330              		.loc 1 901 0
 331              		.cfi_startproc
 332              		@ args = 0, pretend = 0, frame = 8
 333              		@ frame_needed = 0, uses_anonymous_args = 0
 334              	.LVL28:
 335 0000 13B5     		push	{r0, r1, r4, lr}
 336              		.cfi_def_cfa_offset 16
 337              		.cfi_offset 0, -16
 338              		.cfi_offset 1, -12
 339              		.cfi_offset 4, -8
 340              		.cfi_offset 14, -4
 341              		.loc 1 901 0
 342 0002 0C00     		movs	r4, r1
 902:Generated_Source\PSoC4/CapSense_Structure.c ****     cystatus result;
 903:Generated_Source\PSoC4/CapSense_Structure.c ****     PARAM_ID_STRUCT pData;
 904:Generated_Source\PSoC4/CapSense_Structure.c **** 
 905:Generated_Source\PSoC4/CapSense_Structure.c ****     union
 906:Generated_Source\PSoC4/CapSense_Structure.c ****     {
 907:Generated_Source\PSoC4/CapSense_Structure.c ****         volatile void   * ptr;
 908:Generated_Source\PSoC4/CapSense_Structure.c ****         volatile uint8  * ptrUint8;
 909:Generated_Source\PSoC4/CapSense_Structure.c ****         volatile uint16 * ptrUint16;
 910:Generated_Source\PSoC4/CapSense_Structure.c ****         volatile uint32 * ptrUint32;
 911:Generated_Source\PSoC4/CapSense_Structure.c ****     } ptrData;
 912:Generated_Source\PSoC4/CapSense_Structure.c **** 
 913:Generated_Source\PSoC4/CapSense_Structure.c ****     result = DsParseParamId(paramId, &pData);
 343              		.loc 1 913 0
 344 0004 6946     		mov	r1, sp
 345              	.LVL29:
 346 0006 FFF7FEFF 		bl	DsParseParamId
 347              	.LVL30:
 914:Generated_Source\PSoC4/CapSense_Structure.c **** 
 915:Generated_Source\PSoC4/CapSense_Structure.c ****     /* verify if parameter is writable */
 916:Generated_Source\PSoC4/CapSense_Structure.c ****     if (CYRET_SUCCESS == result)
 348              		.loc 1 916 0
 349 000a 0028     		cmp	r0, #0
 350 000c 18D1     		bne	.L40
 917:Generated_Source\PSoC4/CapSense_Structure.c ****     {
 918:Generated_Source\PSoC4/CapSense_Structure.c ****         if (0u == pData.rw)
 351              		.loc 1 918 0
 352 000e 6B46     		mov	r3, sp
 353 0010 9B79     		ldrb	r3, [r3, #6]
 354 0012 002B     		cmp	r3, #0
 355 0014 01D1     		bne	.L43
 919:Generated_Source\PSoC4/CapSense_Structure.c ****         {
 920:Generated_Source\PSoC4/CapSense_Structure.c ****             result = CYRET_BAD_PARAM;
 356              		.loc 1 920 0
 357 0016 0120     		movs	r0, #1
ARM GAS  C:\Users\zack.li\AppData\Local\Temp\cc6kR1xZ.s 			page 24


 358              	.LVL31:
 921:Generated_Source\PSoC4/CapSense_Structure.c ****         }
 922:Generated_Source\PSoC4/CapSense_Structure.c ****     }
 923:Generated_Source\PSoC4/CapSense_Structure.c **** 
 924:Generated_Source\PSoC4/CapSense_Structure.c ****     /* Parse and validate paramId */
 925:Generated_Source\PSoC4/CapSense_Structure.c ****     if (CYRET_SUCCESS == result)
 926:Generated_Source\PSoC4/CapSense_Structure.c ****     {
 927:Generated_Source\PSoC4/CapSense_Structure.c ****         /* Get base address of parameter */
 928:Generated_Source\PSoC4/CapSense_Structure.c ****         ptrData.ptr = &CapSense_dsRam;
 929:Generated_Source\PSoC4/CapSense_Structure.c **** 
 930:Generated_Source\PSoC4/CapSense_Structure.c ****         /* Add offset to base address */
 931:Generated_Source\PSoC4/CapSense_Structure.c ****         ptrData.ptrUint8 += pData.offset;
 932:Generated_Source\PSoC4/CapSense_Structure.c **** 
 933:Generated_Source\PSoC4/CapSense_Structure.c ****         /* Write data */
 934:Generated_Source\PSoC4/CapSense_Structure.c ****         if (DS_PARAM_TYPE_UINT8 == pData.type)
 935:Generated_Source\PSoC4/CapSense_Structure.c ****         {
 936:Generated_Source\PSoC4/CapSense_Structure.c ****             *ptrData.ptrUint8 = LO8(value);
 937:Generated_Source\PSoC4/CapSense_Structure.c ****         }
 938:Generated_Source\PSoC4/CapSense_Structure.c ****         else if (DS_PARAM_TYPE_UINT16 == pData.type)
 939:Generated_Source\PSoC4/CapSense_Structure.c ****         {
 940:Generated_Source\PSoC4/CapSense_Structure.c ****             *ptrData.ptrUint16 = LO16(value);
 941:Generated_Source\PSoC4/CapSense_Structure.c ****         }
 942:Generated_Source\PSoC4/CapSense_Structure.c ****         else if (DS_PARAM_TYPE_UINT32 == pData.type)
 943:Generated_Source\PSoC4/CapSense_Structure.c ****         {
 944:Generated_Source\PSoC4/CapSense_Structure.c ****             *ptrData.ptrUint32 = value;
 945:Generated_Source\PSoC4/CapSense_Structure.c ****         }
 946:Generated_Source\PSoC4/CapSense_Structure.c ****         else
 947:Generated_Source\PSoC4/CapSense_Structure.c ****         {
 948:Generated_Source\PSoC4/CapSense_Structure.c ****             /* Parameter comes here already validated. */
 949:Generated_Source\PSoC4/CapSense_Structure.c ****             CYASSERT(0u);
 950:Generated_Source\PSoC4/CapSense_Structure.c ****         }
 951:Generated_Source\PSoC4/CapSense_Structure.c **** 
 952:Generated_Source\PSoC4/CapSense_Structure.c ****         #if (CapSense_ENABLE == (CapSense_TST_WDGT_CRC_EN || CapSense_TST_GLOBAL_CRC_EN))
 953:Generated_Source\PSoC4/CapSense_Structure.c ****             /* Update widget or global CRC if self-test is enabled and parameter affects it */
 954:Generated_Source\PSoC4/CapSense_Structure.c ****             if (0u != pData.affectsCrc)
 955:Generated_Source\PSoC4/CapSense_Structure.c ****             {
 956:Generated_Source\PSoC4/CapSense_Structure.c ****                 if ((ptrData.ptrUint16 >= &CapSense_dsRam.csd0Config) &&
 957:Generated_Source\PSoC4/CapSense_Structure.c ****                     (ptrData.ptrUint16 <  &CapSense_dsRam.glbCrc))
 958:Generated_Source\PSoC4/CapSense_Structure.c ****                 {
 959:Generated_Source\PSoC4/CapSense_Structure.c **** 
 960:Generated_Source\PSoC4/CapSense_Structure.c ****                     #if (CapSense_ENABLE == CapSense_TST_GLOBAL_CRC_EN)
 961:Generated_Source\PSoC4/CapSense_Structure.c ****                         CapSense_DsUpdateGlobalCrc();
 962:Generated_Source\PSoC4/CapSense_Structure.c ****                     #endif /* (CapSense_ENABLE == CapSense_TST_GLOBAL_CRC_EN) */
 963:Generated_Source\PSoC4/CapSense_Structure.c **** 
 964:Generated_Source\PSoC4/CapSense_Structure.c ****                 }
 965:Generated_Source\PSoC4/CapSense_Structure.c ****                 else
 966:Generated_Source\PSoC4/CapSense_Structure.c ****                 {
 967:Generated_Source\PSoC4/CapSense_Structure.c ****                     #if (CapSense_ENABLE == CapSense_TST_WDGT_CRC_EN)
 968:Generated_Source\PSoC4/CapSense_Structure.c ****                         CapSense_DsUpdateWidgetCrc((uint32)pData.widgetId);
 969:Generated_Source\PSoC4/CapSense_Structure.c ****                     #endif /* (CapSense_ENABLE == CapSense_TST_WDGT_CRC_EN) */
 970:Generated_Source\PSoC4/CapSense_Structure.c ****                 }
 971:Generated_Source\PSoC4/CapSense_Structure.c ****             }
 972:Generated_Source\PSoC4/CapSense_Structure.c ****         #endif /* (CapSense_ENABLE == (CapSense_TST_WDGT_CRC_EN || CapSense_TST_GLOBAL_CRC_EN)) */
 973:Generated_Source\PSoC4/CapSense_Structure.c ****     }
 974:Generated_Source\PSoC4/CapSense_Structure.c **** 
 975:Generated_Source\PSoC4/CapSense_Structure.c ****     return result;
 359              		.loc 1 975 0
ARM GAS  C:\Users\zack.li\AppData\Local\Temp\cc6kR1xZ.s 			page 25


 360 0018 12E0     		b	.L40
 361              	.LVL32:
 362              	.L43:
 931:Generated_Source\PSoC4/CapSense_Structure.c **** 
 363              		.loc 1 931 0
 364 001a 6B46     		mov	r3, sp
 365 001c 1A88     		ldrh	r2, [r3]
 366 001e 094B     		ldr	r3, .L44
 367 0020 D318     		adds	r3, r2, r3
 368              	.LVL33:
 934:Generated_Source\PSoC4/CapSense_Structure.c ****         {
 369              		.loc 1 934 0
 370 0022 6A46     		mov	r2, sp
 371 0024 D279     		ldrb	r2, [r2, #7]
 372 0026 012A     		cmp	r2, #1
 373 0028 02D1     		bne	.L42
 936:Generated_Source\PSoC4/CapSense_Structure.c ****         }
 374              		.loc 1 936 0
 375 002a E4B2     		uxtb	r4, r4
 376              	.LVL34:
 377 002c 1C70     		strb	r4, [r3]
 378 002e 07E0     		b	.L40
 379              	.LVL35:
 380              	.L42:
 938:Generated_Source\PSoC4/CapSense_Structure.c ****         {
 381              		.loc 1 938 0
 382 0030 022A     		cmp	r2, #2
 383 0032 02D1     		bne	.L36
 940:Generated_Source\PSoC4/CapSense_Structure.c ****         }
 384              		.loc 1 940 0
 385 0034 A4B2     		uxth	r4, r4
 386              	.LVL36:
 387 0036 1C80     		strh	r4, [r3]
 388 0038 02E0     		b	.L40
 389              	.LVL37:
 390              	.L36:
 942:Generated_Source\PSoC4/CapSense_Structure.c ****         {
 391              		.loc 1 942 0
 392 003a 032A     		cmp	r2, #3
 393 003c 00D1     		bne	.L40
 944:Generated_Source\PSoC4/CapSense_Structure.c ****         }
 394              		.loc 1 944 0
 395 003e 1C60     		str	r4, [r3]
 396              	.LVL38:
 397              	.L40:
 976:Generated_Source\PSoC4/CapSense_Structure.c **** }
 398              		.loc 1 976 0
 399              		@ sp needed
 400 0040 16BD     		pop	{r1, r2, r4, pc}
 401              	.L45:
 402 0042 C046     		.align	2
 403              	.L44:
 404 0044 00000000 		.word	CapSense_dsRam
 405              		.cfi_endproc
 406              	.LFE4:
 407              		.size	CapSense_SetParam, .-CapSense_SetParam
 408              		.section	.text.CapSense_IsAnyWidgetActive,"ax",%progbits
ARM GAS  C:\Users\zack.li\AppData\Local\Temp\cc6kR1xZ.s 			page 26


 409              		.align	1
 410              		.global	CapSense_IsAnyWidgetActive
 411              		.code	16
 412              		.thumb_func
 413              		.type	CapSense_IsAnyWidgetActive, %function
 414              	CapSense_IsAnyWidgetActive:
 415              	.LFB5:
 977:Generated_Source\PSoC4/CapSense_Structure.c **** 
 978:Generated_Source\PSoC4/CapSense_Structure.c **** /*******************************************************************************
 979:Generated_Source\PSoC4/CapSense_Structure.c **** * Function Name: CapSense_IsAnyWidgetActive
 980:Generated_Source\PSoC4/CapSense_Structure.c **** ****************************************************************************//**
 981:Generated_Source\PSoC4/CapSense_Structure.c **** *
 982:Generated_Source\PSoC4/CapSense_Structure.c **** * \brief
 983:Generated_Source\PSoC4/CapSense_Structure.c **** *  Reports if any widget has detected a touch.
 984:Generated_Source\PSoC4/CapSense_Structure.c **** *
 985:Generated_Source\PSoC4/CapSense_Structure.c **** * \details
 986:Generated_Source\PSoC4/CapSense_Structure.c **** *  This function reports if any widget has detected a touch or not by extracting
 987:Generated_Source\PSoC4/CapSense_Structure.c **** *  information from the wdgtStatus registers
 988:Generated_Source\PSoC4/CapSense_Structure.c **** *  (CapSense_WDGT_STATUS<X>_VALUE). This function does not process a
 989:Generated_Source\PSoC4/CapSense_Structure.c **** *  widget but extracts processed results from the \ref group_structures.
 990:Generated_Source\PSoC4/CapSense_Structure.c **** *
 991:Generated_Source\PSoC4/CapSense_Structure.c **** * \return
 992:Generated_Source\PSoC4/CapSense_Structure.c **** *   Returns the touch detection status of all the widgets:
 993:Generated_Source\PSoC4/CapSense_Structure.c **** *     - Zero - No touch is detected in all the widgets or sensors.
 994:Generated_Source\PSoC4/CapSense_Structure.c **** *     - Non-zero - At least one widget or sensor detected a touch.
 995:Generated_Source\PSoC4/CapSense_Structure.c **** *
 996:Generated_Source\PSoC4/CapSense_Structure.c **** *******************************************************************************/
 997:Generated_Source\PSoC4/CapSense_Structure.c **** uint32 CapSense_IsAnyWidgetActive(void)
 998:Generated_Source\PSoC4/CapSense_Structure.c **** {
 416              		.loc 1 998 0
 417              		.cfi_startproc
 418              		@ args = 0, pretend = 0, frame = 0
 419              		@ frame_needed = 0, uses_anonymous_args = 0
 420              		@ link register save eliminated.
 421              	.LVL39:
 999:Generated_Source\PSoC4/CapSense_Structure.c ****     uint32 result = 0Lu;
1000:Generated_Source\PSoC4/CapSense_Structure.c ****     uint32 wdWord;
1001:Generated_Source\PSoC4/CapSense_Structure.c **** 
1002:Generated_Source\PSoC4/CapSense_Structure.c ****     for (wdWord = CapSense_WDGT_STATUS_WORDS; wdWord-- > 0u;)
1003:Generated_Source\PSoC4/CapSense_Structure.c ****     {
1004:Generated_Source\PSoC4/CapSense_Structure.c ****         result |= CapSense_dsRam.wdgtStatus[wdWord];
 422              		.loc 1 1004 0
 423 0000 014B     		ldr	r3, .L47
1005:Generated_Source\PSoC4/CapSense_Structure.c ****     }
1006:Generated_Source\PSoC4/CapSense_Structure.c **** 
1007:Generated_Source\PSoC4/CapSense_Structure.c ****     return result;
1008:Generated_Source\PSoC4/CapSense_Structure.c **** }
 424              		.loc 1 1008 0
 425              		@ sp needed
1007:Generated_Source\PSoC4/CapSense_Structure.c **** }
 426              		.loc 1 1007 0
 427 0002 5869     		ldr	r0, [r3, #20]
 428              		.loc 1 1008 0
 429 0004 7047     		bx	lr
 430              	.L48:
 431 0006 C046     		.align	2
 432              	.L47:
ARM GAS  C:\Users\zack.li\AppData\Local\Temp\cc6kR1xZ.s 			page 27


 433 0008 00000000 		.word	CapSense_dsRam
 434              		.cfi_endproc
 435              	.LFE5:
 436              		.size	CapSense_IsAnyWidgetActive, .-CapSense_IsAnyWidgetActive
 437              		.section	.text.CapSense_IsWidgetActive,"ax",%progbits
 438              		.align	1
 439              		.global	CapSense_IsWidgetActive
 440              		.code	16
 441              		.thumb_func
 442              		.type	CapSense_IsWidgetActive, %function
 443              	CapSense_IsWidgetActive:
 444              	.LFB6:
1009:Generated_Source\PSoC4/CapSense_Structure.c **** 
1010:Generated_Source\PSoC4/CapSense_Structure.c **** 
1011:Generated_Source\PSoC4/CapSense_Structure.c **** /*******************************************************************************
1012:Generated_Source\PSoC4/CapSense_Structure.c **** * Function Name: CapSense_IsWidgetActive
1013:Generated_Source\PSoC4/CapSense_Structure.c **** ****************************************************************************//**
1014:Generated_Source\PSoC4/CapSense_Structure.c **** *
1015:Generated_Source\PSoC4/CapSense_Structure.c **** * \brief
1016:Generated_Source\PSoC4/CapSense_Structure.c **** *  Reports if the specified widget detects a touch on any of its sensors.
1017:Generated_Source\PSoC4/CapSense_Structure.c **** *
1018:Generated_Source\PSoC4/CapSense_Structure.c **** * \details
1019:Generated_Source\PSoC4/CapSense_Structure.c **** *  This function reports if the specified widget has detected a touch or not by
1020:Generated_Source\PSoC4/CapSense_Structure.c **** *  extracting information from the wdgtStatus registers
1021:Generated_Source\PSoC4/CapSense_Structure.c **** *  (CapSense_WDGT_STATUS<X>_VALUE). This function does not process the
1022:Generated_Source\PSoC4/CapSense_Structure.c **** *  widget but extracts processed results from the \ref group_structures.
1023:Generated_Source\PSoC4/CapSense_Structure.c **** *
1024:Generated_Source\PSoC4/CapSense_Structure.c **** * \param widgetId
1025:Generated_Source\PSoC4/CapSense_Structure.c **** *  Specifies the ID number of the widget to get its status.
1026:Generated_Source\PSoC4/CapSense_Structure.c **** *  A macro for the widget ID can be found in the CapSense Configuration header
1027:Generated_Source\PSoC4/CapSense_Structure.c **** *  file defined as CapSense_<WidgetName>_WDGT_ID.
1028:Generated_Source\PSoC4/CapSense_Structure.c **** *
1029:Generated_Source\PSoC4/CapSense_Structure.c **** * \return
1030:Generated_Source\PSoC4/CapSense_Structure.c **** *  Returns the touch detection status of the specified widgets:
1031:Generated_Source\PSoC4/CapSense_Structure.c **** *    - Zero - No touch is detected in the specified widget or a wrong widgetId
1032:Generated_Source\PSoC4/CapSense_Structure.c **** *      is specified.
1033:Generated_Source\PSoC4/CapSense_Structure.c **** *    - Non-zero if at least one sensor of the specified widget is active, i.e.
1034:Generated_Source\PSoC4/CapSense_Structure.c **** *      a touch is detected.
1035:Generated_Source\PSoC4/CapSense_Structure.c **** *
1036:Generated_Source\PSoC4/CapSense_Structure.c **** *******************************************************************************/
1037:Generated_Source\PSoC4/CapSense_Structure.c **** uint32 CapSense_IsWidgetActive(uint32 widgetId)
1038:Generated_Source\PSoC4/CapSense_Structure.c **** {
 445              		.loc 1 1038 0
 446              		.cfi_startproc
 447              		@ args = 0, pretend = 0, frame = 0
 448              		@ frame_needed = 0, uses_anonymous_args = 0
 449              		@ link register save eliminated.
 450              	.LVL40:
 451              		.loc 1 1038 0
 452 0000 0300     		movs	r3, r0
1039:Generated_Source\PSoC4/CapSense_Structure.c ****     uint32 result = 0Lu;
 453              		.loc 1 1039 0
 454 0002 0020     		movs	r0, #0
 455              	.LVL41:
1040:Generated_Source\PSoC4/CapSense_Structure.c **** 
1041:Generated_Source\PSoC4/CapSense_Structure.c ****     if (widgetId < CapSense_TOTAL_WIDGETS)
 456              		.loc 1 1041 0
ARM GAS  C:\Users\zack.li\AppData\Local\Temp\cc6kR1xZ.s 			page 28


 457 0004 032B     		cmp	r3, #3
 458 0006 04D8     		bhi	.L50
1042:Generated_Source\PSoC4/CapSense_Structure.c ****     {
1043:Generated_Source\PSoC4/CapSense_Structure.c ****         result = CapSense_GET_WIDGET_ACTIVE_STATUS(widgetId);
 459              		.loc 1 1043 0
 460 0008 0130     		adds	r0, r0, #1
 461 000a 9840     		lsls	r0, r0, r3
 462 000c 014B     		ldr	r3, .L52
 463              	.LVL42:
 464 000e 5B69     		ldr	r3, [r3, #20]
 465 0010 1840     		ands	r0, r3
 466              	.LVL43:
 467              	.L50:
1044:Generated_Source\PSoC4/CapSense_Structure.c ****     }
1045:Generated_Source\PSoC4/CapSense_Structure.c ****     return result;
1046:Generated_Source\PSoC4/CapSense_Structure.c **** }
 468              		.loc 1 1046 0
 469              		@ sp needed
 470 0012 7047     		bx	lr
 471              	.L53:
 472              		.align	2
 473              	.L52:
 474 0014 00000000 		.word	CapSense_dsRam
 475              		.cfi_endproc
 476              	.LFE6:
 477              		.size	CapSense_IsWidgetActive, .-CapSense_IsWidgetActive
 478              		.section	.text.CapSense_IsSensorActive,"ax",%progbits
 479              		.align	1
 480              		.global	CapSense_IsSensorActive
 481              		.code	16
 482              		.thumb_func
 483              		.type	CapSense_IsSensorActive, %function
 484              	CapSense_IsSensorActive:
 485              	.LFB7:
1047:Generated_Source\PSoC4/CapSense_Structure.c **** 
1048:Generated_Source\PSoC4/CapSense_Structure.c **** 
1049:Generated_Source\PSoC4/CapSense_Structure.c **** /*******************************************************************************
1050:Generated_Source\PSoC4/CapSense_Structure.c **** * Function Name: CapSense_IsSensorActive
1051:Generated_Source\PSoC4/CapSense_Structure.c **** ****************************************************************************//**
1052:Generated_Source\PSoC4/CapSense_Structure.c **** *
1053:Generated_Source\PSoC4/CapSense_Structure.c **** * \brief
1054:Generated_Source\PSoC4/CapSense_Structure.c **** *  Reports if the specified sensor in the widget detects a touch.
1055:Generated_Source\PSoC4/CapSense_Structure.c **** *
1056:Generated_Source\PSoC4/CapSense_Structure.c **** * \details
1057:Generated_Source\PSoC4/CapSense_Structure.c **** *  This function reports if the specified sensor in the widget has detected a
1058:Generated_Source\PSoC4/CapSense_Structure.c **** *  touch or not by extracting information from the wdgtStatus registers
1059:Generated_Source\PSoC4/CapSense_Structure.c **** *  (CapSense_WDGT_STATUS<X>_VALUE). This function does not process the
1060:Generated_Source\PSoC4/CapSense_Structure.c **** *  widget or sensor but extracts processed results from the \ref group_structures.
1061:Generated_Source\PSoC4/CapSense_Structure.c **** *
1062:Generated_Source\PSoC4/CapSense_Structure.c **** *  For proximity sensors, this function returns the proximity detection status. To
1063:Generated_Source\PSoC4/CapSense_Structure.c **** *  get the finger touch status of proximity sensors, use the
1064:Generated_Source\PSoC4/CapSense_Structure.c **** *  CapSense_IsProximitySensorActive() function.
1065:Generated_Source\PSoC4/CapSense_Structure.c **** *
1066:Generated_Source\PSoC4/CapSense_Structure.c **** * \param widgetId
1067:Generated_Source\PSoC4/CapSense_Structure.c **** *  Specifies the ID number of the widget.
1068:Generated_Source\PSoC4/CapSense_Structure.c **** *  A macro for the widget ID can be found in the CapSense Configuration header
1069:Generated_Source\PSoC4/CapSense_Structure.c **** *  file defined as CapSense_<WidgetName>_WDGT_ID.
ARM GAS  C:\Users\zack.li\AppData\Local\Temp\cc6kR1xZ.s 			page 29


1070:Generated_Source\PSoC4/CapSense_Structure.c **** 
1071:Generated_Source\PSoC4/CapSense_Structure.c **** * \param sensorId
1072:Generated_Source\PSoC4/CapSense_Structure.c **** *  Specifies the ID number of the sensor within the widget to get its touch
1073:Generated_Source\PSoC4/CapSense_Structure.c **** *  detection status.
1074:Generated_Source\PSoC4/CapSense_Structure.c **** *  A macro for the sensor ID within the specified widget can be found in the
1075:Generated_Source\PSoC4/CapSense_Structure.c **** *  CapSense Configuration header file defined as
1076:Generated_Source\PSoC4/CapSense_Structure.c **** *  CapSense_<WidgetName>_SNS<SensorNumber>_ID.
1077:Generated_Source\PSoC4/CapSense_Structure.c **** *
1078:Generated_Source\PSoC4/CapSense_Structure.c **** * \return
1079:Generated_Source\PSoC4/CapSense_Structure.c **** *  Returns the touch detection status of the specified sensor / widget:
1080:Generated_Source\PSoC4/CapSense_Structure.c **** *    - Zero if no touch is detected in the specified sensor / widget or a wrong
1081:Generated_Source\PSoC4/CapSense_Structure.c **** *      widget ID / sensor ID is specified.
1082:Generated_Source\PSoC4/CapSense_Structure.c **** *    - Non-zero if the specified sensor is active i.e. touch is detected. If the
1083:Generated_Source\PSoC4/CapSense_Structure.c **** *      specific sensor belongs to a proximity widget, the proximity detection
1084:Generated_Source\PSoC4/CapSense_Structure.c **** *      status is returned.
1085:Generated_Source\PSoC4/CapSense_Structure.c **** *
1086:Generated_Source\PSoC4/CapSense_Structure.c **** *******************************************************************************/
1087:Generated_Source\PSoC4/CapSense_Structure.c **** uint32 CapSense_IsSensorActive(uint32 widgetId, uint32 sensorId)
1088:Generated_Source\PSoC4/CapSense_Structure.c **** {
 486              		.loc 1 1088 0
 487              		.cfi_startproc
 488              		@ args = 0, pretend = 0, frame = 0
 489              		@ frame_needed = 0, uses_anonymous_args = 0
 490              	.LVL44:
 491 0000 0200     		movs	r2, r0
 492 0002 10B5     		push	{r4, lr}
 493              		.cfi_def_cfa_offset 8
 494              		.cfi_offset 4, -8
 495              		.cfi_offset 14, -4
1089:Generated_Source\PSoC4/CapSense_Structure.c ****     uint32 result = 0Lu;
 496              		.loc 1 1089 0
 497 0004 0020     		movs	r0, #0
 498              	.LVL45:
1090:Generated_Source\PSoC4/CapSense_Structure.c **** 
1091:Generated_Source\PSoC4/CapSense_Structure.c ****     if ((widgetId < CapSense_TOTAL_WIDGETS) &&
 499              		.loc 1 1091 0
 500 0006 032A     		cmp	r2, #3
 501 0008 0DD8     		bhi	.L55
1092:Generated_Source\PSoC4/CapSense_Structure.c ****         (sensorId < CapSense_GET_SENSOR_COUNT(widgetId)))
 502              		.loc 1 1092 0 discriminator 1
 503 000a 1C23     		movs	r3, #28
 504 000c 5343     		muls	r3, r2
 505 000e 064C     		ldr	r4, .L58
 506 0010 E318     		adds	r3, r4, r3
 507 0012 5C33     		adds	r3, r3, #92
1091:Generated_Source\PSoC4/CapSense_Structure.c ****         (sensorId < CapSense_GET_SENSOR_COUNT(widgetId)))
 508              		.loc 1 1091 0 discriminator 1
 509 0014 1B88     		ldrh	r3, [r3]
 510 0016 8B42     		cmp	r3, r1
 511 0018 05D9     		bls	.L55
1093:Generated_Source\PSoC4/CapSense_Structure.c ****     {
1094:Generated_Source\PSoC4/CapSense_Structure.c ****         #if (CapSense_ENABLE == CapSense_PROXIMITY_WIDGET_EN)
1095:Generated_Source\PSoC4/CapSense_Structure.c ****             if (CapSense_WD_PROXIMITY_E ==
1096:Generated_Source\PSoC4/CapSense_Structure.c ****                 (CapSense_WD_TYPE_ENUM)CapSense_dsFlash.wdgtArray[widgetId].wdgtType)
1097:Generated_Source\PSoC4/CapSense_Structure.c ****             {
1098:Generated_Source\PSoC4/CapSense_Structure.c ****                 sensorId = CapSense_PROX_STS_OFFSET(sensorId);
1099:Generated_Source\PSoC4/CapSense_Structure.c ****             }
ARM GAS  C:\Users\zack.li\AppData\Local\Temp\cc6kR1xZ.s 			page 30


1100:Generated_Source\PSoC4/CapSense_Structure.c ****         #endif /* (CapSense_ENABLE != CapSense_PROXIMITY_WIDGET_EN) */
1101:Generated_Source\PSoC4/CapSense_Structure.c ****         result = CapSense_dsRam.snsStatus[widgetId] & (1Lu << sensorId);
 512              		.loc 1 1101 0
 513 001a 0448     		ldr	r0, .L58+4
 514 001c 8218     		adds	r2, r0, r2
 515              	.LVL46:
 516 001e 0120     		movs	r0, #1
 517 0020 8840     		lsls	r0, r0, r1
 518 0022 137E     		ldrb	r3, [r2, #24]
 519 0024 1840     		ands	r0, r3
 520              	.LVL47:
 521              	.L55:
1102:Generated_Source\PSoC4/CapSense_Structure.c ****     }
1103:Generated_Source\PSoC4/CapSense_Structure.c **** 
1104:Generated_Source\PSoC4/CapSense_Structure.c ****     return result;
1105:Generated_Source\PSoC4/CapSense_Structure.c **** }
 522              		.loc 1 1105 0
 523              		@ sp needed
 524 0026 10BD     		pop	{r4, pc}
 525              	.L59:
 526              		.align	2
 527              	.L58:
 528 0028 00000000 		.word	.LANCHOR0
 529 002c 00000000 		.word	CapSense_dsRam
 530              		.cfi_endproc
 531              	.LFE7:
 532              		.size	CapSense_IsSensorActive, .-CapSense_IsSensorActive
 533              		.global	CapSense_ramIdacInit
 534              		.global	CapSense_ramWidgetInit
 535              		.global	CapSense_shieldIoList
 536              		.global	CapSense_ioList
 537              		.global	CapSense_dsFlash
 538              		.comm	CapSense_dsRam,144,4
 539              		.section	.rodata
 540              		.align	2
 541              		.set	.LANCHOR0,. + 0
 542              		.type	CapSense_ramIdacInit, %object
 543              		.size	CapSense_ramIdacInit, 4
 544              	CapSense_ramIdacInit:
 545 0000 20       		.byte	32
 546 0001 20       		.byte	32
 547 0002 20       		.byte	32
 548 0003 20       		.byte	32
 549              		.type	CapSense_ramWidgetInit, %object
 550              		.size	CapSense_ramWidgetInit, 64
 551              	CapSense_ramWidgetInit:
 552 0004 0C00     		.short	12
 553 0006 2C01     		.short	300
 554 0008 FA       		.byte	-6
 555 0009 28       		.byte	40
 556 000a 0A       		.byte	10
 557 000b 03       		.byte	3
 558 000c 1E       		.byte	30
 559 000d 20       		.byte	32
 560 000e 00       		.byte	0
 561 000f 00       		.space	1
 562 0010 0400     		.short	4
ARM GAS  C:\Users\zack.li\AppData\Local\Temp\cc6kR1xZ.s 			page 31


 563 0012 00       		.byte	0
 564 0013 00       		.space	1
 565 0014 0C00     		.short	12
 566 0016 2C01     		.short	300
 567 0018 FA       		.byte	-6
 568 0019 28       		.byte	40
 569 001a 0A       		.byte	10
 570 001b 03       		.byte	3
 571 001c 1E       		.byte	30
 572 001d 20       		.byte	32
 573 001e 00       		.byte	0
 574 001f 00       		.space	1
 575 0020 0400     		.short	4
 576 0022 00       		.byte	0
 577 0023 00       		.space	1
 578 0024 0C00     		.short	12
 579 0026 2C01     		.short	300
 580 0028 FA       		.byte	-6
 581 0029 28       		.byte	40
 582 002a 0A       		.byte	10
 583 002b 03       		.byte	3
 584 002c 1E       		.byte	30
 585 002d 20       		.byte	32
 586 002e 00       		.byte	0
 587 002f 00       		.space	1
 588 0030 0400     		.short	4
 589 0032 00       		.byte	0
 590 0033 00       		.space	1
 591 0034 0C00     		.short	12
 592 0036 2C01     		.short	300
 593 0038 FA       		.byte	-6
 594 0039 28       		.byte	40
 595 003a 0A       		.byte	10
 596 003b 03       		.byte	3
 597 003c 1E       		.byte	30
 598 003d 20       		.byte	32
 599 003e 00       		.byte	0
 600 003f 00       		.space	1
 601 0040 0400     		.short	4
 602 0042 00       		.byte	0
 603 0043 00       		.space	1
 604              		.type	CapSense_dsFlash, %object
 605              		.size	CapSense_dsFlash, 112
 606              	CapSense_dsFlash:
 607 0044 00000000 		.word	CapSense_ioList
 608 0048 20000000 		.word	CapSense_dsRam+32
 609 004c 60000000 		.word	CapSense_dsRam+96
 610 0050 24000000 		.word	CapSense_fltrHistoryUP
 611 0054 33000000 		.word	CapSense_debounceUP
 612 0058 01280000 		.word	10241
 613 005c 0100     		.short	1
 614 005e 01       		.byte	1
 615 005f 01       		.byte	1
 616 0060 1C000000 		.word	CapSense_ioList+28
 617 0064 30000000 		.word	CapSense_dsRam+48
 618 0068 6A000000 		.word	CapSense_dsRam+106
 619 006c 18000000 		.word	CapSense_fltrHistoryDOWN
ARM GAS  C:\Users\zack.li\AppData\Local\Temp\cc6kR1xZ.s 			page 32


 620 0070 32000000 		.word	CapSense_debounceDOWN
 621 0074 01280000 		.word	10241
 622 0078 0100     		.short	1
 623 007a 01       		.byte	1
 624 007b 01       		.byte	1
 625 007c 38000000 		.word	CapSense_ioList+56
 626 0080 40000000 		.word	CapSense_dsRam+64
 627 0084 74000000 		.word	CapSense_dsRam+116
 628 0088 0C000000 		.word	CapSense_fltrHistoryLEFT
 629 008c 31000000 		.word	CapSense_debounceLEFT
 630 0090 01280000 		.word	10241
 631 0094 0100     		.short	1
 632 0096 01       		.byte	1
 633 0097 01       		.byte	1
 634 0098 54000000 		.word	CapSense_ioList+84
 635 009c 50000000 		.word	CapSense_dsRam+80
 636 00a0 7E000000 		.word	CapSense_dsRam+126
 637 00a4 00000000 		.word	CapSense_fltrHistoryRIGHT
 638 00a8 30000000 		.word	CapSense_debounceRIGHT
 639 00ac 01280000 		.word	10241
 640 00b0 0100     		.short	1
 641 00b2 01       		.byte	1
 642 00b3 01       		.byte	1
 643              		.type	CapSense_shieldIoList, %object
 644              		.size	CapSense_shieldIoList, 20
 645              	CapSense_shieldIoList:
 646 00b4 00060240 		.word	1073874432
 647 00b8 08060440 		.word	1074005512
 648 00bc 00060440 		.word	1074005504
 649 00c0 000F0000 		.word	3840
 650 00c4 08       		.byte	8
 651 00c5 02       		.byte	2
 652 00c6 06       		.byte	6
 653 00c7 00       		.space	1
 654              		.type	CapSense_ioList, %object
 655              		.size	CapSense_ioList, 112
 656              	CapSense_ioList:
 657 00c8 00040240 		.word	1073873920
 658 00cc 08040440 		.word	1074005000
 659 00d0 00040440 		.word	1074004992
 660 00d4 04040440 		.word	1074004996
 661 00d8 0000F000 		.word	15728640
 662 00dc 20000000 		.word	32
 663 00e0 14       		.byte	20
 664 00e1 05       		.byte	5
 665 00e2 0F       		.byte	15
 666 00e3 00       		.space	1
 667 00e4 00030240 		.word	1073873664
 668 00e8 08030440 		.word	1074004744
 669 00ec 00030440 		.word	1074004736
 670 00f0 04030440 		.word	1074004740
 671 00f4 00000F00 		.word	983040
 672 00f8 10000000 		.word	16
 673 00fc 10       		.byte	16
 674 00fd 04       		.byte	4
 675 00fe 0C       		.byte	12
 676 00ff 00       		.space	1
ARM GAS  C:\Users\zack.li\AppData\Local\Temp\cc6kR1xZ.s 			page 33


 677 0100 00040240 		.word	1073873920
 678 0104 08040440 		.word	1074005000
 679 0108 00040440 		.word	1074004992
 680 010c 04040440 		.word	1074004996
 681 0110 0000000F 		.word	251658240
 682 0114 40000000 		.word	64
 683 0118 18       		.byte	24
 684 0119 06       		.byte	6
 685 011a 12       		.byte	18
 686 011b 00       		.space	1
 687 011c 00030240 		.word	1073873664
 688 0120 08030440 		.word	1074004744
 689 0124 00030440 		.word	1074004736
 690 0128 04030440 		.word	1074004740
 691 012c 0000F000 		.word	15728640
 692 0130 20000000 		.word	32
 693 0134 14       		.byte	20
 694 0135 05       		.byte	5
 695 0136 0F       		.byte	15
 696 0137 00       		.space	1
 697              		.bss
 698              		.align	1
 699              		.type	CapSense_fltrHistoryRIGHT, %object
 700              		.size	CapSense_fltrHistoryRIGHT, 12
 701              	CapSense_fltrHistoryRIGHT:
 702 0000 00000000 		.space	12
 702      00000000 
 702      00000000 
 703              		.type	CapSense_fltrHistoryLEFT, %object
 704              		.size	CapSense_fltrHistoryLEFT, 12
 705              	CapSense_fltrHistoryLEFT:
 706 000c 00000000 		.space	12
 706      00000000 
 706      00000000 
 707              		.type	CapSense_fltrHistoryDOWN, %object
 708              		.size	CapSense_fltrHistoryDOWN, 12
 709              	CapSense_fltrHistoryDOWN:
 710 0018 00000000 		.space	12
 710      00000000 
 710      00000000 
 711              		.type	CapSense_fltrHistoryUP, %object
 712              		.size	CapSense_fltrHistoryUP, 12
 713              	CapSense_fltrHistoryUP:
 714 0024 00000000 		.space	12
 714      00000000 
 714      00000000 
 715              		.type	CapSense_debounceRIGHT, %object
 716              		.size	CapSense_debounceRIGHT, 1
 717              	CapSense_debounceRIGHT:
 718 0030 00       		.space	1
 719              		.type	CapSense_debounceLEFT, %object
 720              		.size	CapSense_debounceLEFT, 1
 721              	CapSense_debounceLEFT:
 722 0031 00       		.space	1
 723              		.type	CapSense_debounceDOWN, %object
 724              		.size	CapSense_debounceDOWN, 1
 725              	CapSense_debounceDOWN:
ARM GAS  C:\Users\zack.li\AppData\Local\Temp\cc6kR1xZ.s 			page 34


 726 0032 00       		.space	1
 727              		.type	CapSense_debounceUP, %object
 728              		.size	CapSense_debounceUP, 1
 729              	CapSense_debounceUP:
 730 0033 00       		.space	1
 731              		.text
 732              	.Letext0:
 733              		.file 2 "Generated_Source\\PSoC4/cytypes.h"
 734              		.file 3 "Generated_Source\\PSoC4\\CapSense_Configuration.h"
 735              		.file 4 "Generated_Source\\PSoC4\\CapSense_Structure.h"