ARM GAS  C:\Users\zack.li\AppData\Local\Temp\ccqQ36cF.s 			page 1


   1              		.syntax unified
   2              		.cpu cortex-m0
   3              		.fpu softvfp
   4              		.eabi_attribute 20, 1
   5              		.eabi_attribute 21, 1
   6              		.eabi_attribute 23, 3
   7              		.eabi_attribute 24, 1
   8              		.eabi_attribute 25, 1
   9              		.eabi_attribute 26, 1
  10              		.eabi_attribute 30, 4
  11              		.eabi_attribute 34, 0
  12              		.eabi_attribute 18, 4
  13              		.thumb
  14              		.syntax unified
  15              		.file	"cyfitter_cfg.c"
  16              		.text
  17              	.Ltext0:
  18              		.cfi_sections	.debug_frame
  19              		.section	.text.SetAnalogRoutingPumps,"ax",%progbits
  20              		.align	1
  21              		.global	SetAnalogRoutingPumps
  22              		.code	16
  23              		.thumb_func
  24              		.type	SetAnalogRoutingPumps, %function
  25              	SetAnalogRoutingPumps:
  26              	.LFB7:
  27              		.file 1 "Generated_Source\\PSoC4\\cyfitter_cfg.c"
   1:Generated_Source\PSoC4/cyfitter_cfg.c **** 
   2:Generated_Source\PSoC4/cyfitter_cfg.c **** /*******************************************************************************
   3:Generated_Source\PSoC4/cyfitter_cfg.c **** * File Name: cyfitter_cfg.c
   4:Generated_Source\PSoC4/cyfitter_cfg.c **** * 
   5:Generated_Source\PSoC4/cyfitter_cfg.c **** * PSoC Creator  4.2
   6:Generated_Source\PSoC4/cyfitter_cfg.c **** *
   7:Generated_Source\PSoC4/cyfitter_cfg.c **** * Description:
   8:Generated_Source\PSoC4/cyfitter_cfg.c **** * This file contains device initialization code.
   9:Generated_Source\PSoC4/cyfitter_cfg.c **** * Except for the user defined sections in CyClockStartupError(), this file should not be modified.
  10:Generated_Source\PSoC4/cyfitter_cfg.c **** * This file is automatically generated by PSoC Creator.
  11:Generated_Source\PSoC4/cyfitter_cfg.c **** *
  12:Generated_Source\PSoC4/cyfitter_cfg.c **** ********************************************************************************
  13:Generated_Source\PSoC4/cyfitter_cfg.c **** * Copyright (c) 2007-2018 Cypress Semiconductor.  All rights reserved.
  14:Generated_Source\PSoC4/cyfitter_cfg.c **** * You may use this file only in accordance with the license, terms, conditions, 
  15:Generated_Source\PSoC4/cyfitter_cfg.c **** * disclaimers, and limitations in the end user license agreement accompanying 
  16:Generated_Source\PSoC4/cyfitter_cfg.c **** * the software package with which this file was provided.
  17:Generated_Source\PSoC4/cyfitter_cfg.c **** ********************************************************************************/
  18:Generated_Source\PSoC4/cyfitter_cfg.c **** 
  19:Generated_Source\PSoC4/cyfitter_cfg.c **** #include <string.h>
  20:Generated_Source\PSoC4/cyfitter_cfg.c **** #include "cytypes.h"
  21:Generated_Source\PSoC4/cyfitter_cfg.c **** #include "cydevice_trm.h"
  22:Generated_Source\PSoC4/cyfitter_cfg.c **** #include "cyfitter.h"
  23:Generated_Source\PSoC4/cyfitter_cfg.c **** #include "CyLib.h"
  24:Generated_Source\PSoC4/cyfitter_cfg.c **** #include "CyLFClk.h"
  25:Generated_Source\PSoC4/cyfitter_cfg.c **** #include "cyfitter_cfg.h"
  26:Generated_Source\PSoC4/cyfitter_cfg.c **** #include "cyapicallbacks.h"
  27:Generated_Source\PSoC4/cyfitter_cfg.c **** 
  28:Generated_Source\PSoC4/cyfitter_cfg.c **** 
  29:Generated_Source\PSoC4/cyfitter_cfg.c **** #if defined(__GNUC__) || defined(__ARMCC_VERSION)
  30:Generated_Source\PSoC4/cyfitter_cfg.c ****     #define CYPACKED 
ARM GAS  C:\Users\zack.li\AppData\Local\Temp\ccqQ36cF.s 			page 2


  31:Generated_Source\PSoC4/cyfitter_cfg.c ****     #define CYPACKED_ATTR __attribute__ ((packed))
  32:Generated_Source\PSoC4/cyfitter_cfg.c ****     #define CYALIGNED __attribute__ ((aligned))
  33:Generated_Source\PSoC4/cyfitter_cfg.c ****     #define CY_CFG_UNUSED __attribute__ ((unused))
  34:Generated_Source\PSoC4/cyfitter_cfg.c ****     #ifndef CY_CFG_SECTION
  35:Generated_Source\PSoC4/cyfitter_cfg.c ****         #define CY_CFG_SECTION __attribute__ ((section(".psocinit")))
  36:Generated_Source\PSoC4/cyfitter_cfg.c ****     #endif
  37:Generated_Source\PSoC4/cyfitter_cfg.c ****     
  38:Generated_Source\PSoC4/cyfitter_cfg.c ****     #if defined(__ARMCC_VERSION)
  39:Generated_Source\PSoC4/cyfitter_cfg.c ****         #define CY_CFG_MEMORY_BARRIER() __memory_changed()
  40:Generated_Source\PSoC4/cyfitter_cfg.c ****     #else
  41:Generated_Source\PSoC4/cyfitter_cfg.c ****         #define CY_CFG_MEMORY_BARRIER() __sync_synchronize()
  42:Generated_Source\PSoC4/cyfitter_cfg.c ****     #endif
  43:Generated_Source\PSoC4/cyfitter_cfg.c ****     
  44:Generated_Source\PSoC4/cyfitter_cfg.c **** #elif defined(__ICCARM__)
  45:Generated_Source\PSoC4/cyfitter_cfg.c ****     #include <intrinsics.h>
  46:Generated_Source\PSoC4/cyfitter_cfg.c **** 
  47:Generated_Source\PSoC4/cyfitter_cfg.c ****     #define CYPACKED __packed
  48:Generated_Source\PSoC4/cyfitter_cfg.c ****     #define CYPACKED_ATTR 
  49:Generated_Source\PSoC4/cyfitter_cfg.c ****     #define CYALIGNED _Pragma("data_alignment=4")
  50:Generated_Source\PSoC4/cyfitter_cfg.c ****     #define CY_CFG_UNUSED _Pragma("diag_suppress=Pe177")
  51:Generated_Source\PSoC4/cyfitter_cfg.c ****     #define CY_CFG_SECTION _Pragma("location=\".psocinit\"")
  52:Generated_Source\PSoC4/cyfitter_cfg.c ****     
  53:Generated_Source\PSoC4/cyfitter_cfg.c ****     #define CY_CFG_MEMORY_BARRIER() __DMB()
  54:Generated_Source\PSoC4/cyfitter_cfg.c ****     
  55:Generated_Source\PSoC4/cyfitter_cfg.c **** #else
  56:Generated_Source\PSoC4/cyfitter_cfg.c ****     #error Unsupported toolchain
  57:Generated_Source\PSoC4/cyfitter_cfg.c **** #endif
  58:Generated_Source\PSoC4/cyfitter_cfg.c **** 
  59:Generated_Source\PSoC4/cyfitter_cfg.c **** #ifndef CYCODE
  60:Generated_Source\PSoC4/cyfitter_cfg.c ****     #define CYCODE
  61:Generated_Source\PSoC4/cyfitter_cfg.c **** #endif
  62:Generated_Source\PSoC4/cyfitter_cfg.c **** #ifndef CYDATA
  63:Generated_Source\PSoC4/cyfitter_cfg.c ****     #define CYDATA
  64:Generated_Source\PSoC4/cyfitter_cfg.c **** #endif
  65:Generated_Source\PSoC4/cyfitter_cfg.c **** #ifndef CYFAR
  66:Generated_Source\PSoC4/cyfitter_cfg.c ****     #define CYFAR
  67:Generated_Source\PSoC4/cyfitter_cfg.c **** #endif
  68:Generated_Source\PSoC4/cyfitter_cfg.c **** #ifndef CYXDATA
  69:Generated_Source\PSoC4/cyfitter_cfg.c ****     #define CYXDATA
  70:Generated_Source\PSoC4/cyfitter_cfg.c **** #endif
  71:Generated_Source\PSoC4/cyfitter_cfg.c **** 
  72:Generated_Source\PSoC4/cyfitter_cfg.c **** 
  73:Generated_Source\PSoC4/cyfitter_cfg.c **** CY_CFG_UNUSED
  74:Generated_Source\PSoC4/cyfitter_cfg.c **** static void CYMEMZERO(void *s, size_t n);
  75:Generated_Source\PSoC4/cyfitter_cfg.c **** CY_CFG_UNUSED
  76:Generated_Source\PSoC4/cyfitter_cfg.c **** static void CYMEMZERO(void *s, size_t n)
  77:Generated_Source\PSoC4/cyfitter_cfg.c **** {
  78:Generated_Source\PSoC4/cyfitter_cfg.c **** 	(void)memset(s, 0, n);
  79:Generated_Source\PSoC4/cyfitter_cfg.c **** }
  80:Generated_Source\PSoC4/cyfitter_cfg.c **** CY_CFG_UNUSED
  81:Generated_Source\PSoC4/cyfitter_cfg.c **** static void CYCONFIGCPY(void *dest, const void *src, size_t n);
  82:Generated_Source\PSoC4/cyfitter_cfg.c **** CY_CFG_UNUSED
  83:Generated_Source\PSoC4/cyfitter_cfg.c **** static void CYCONFIGCPY(void *dest, const void *src, size_t n)
  84:Generated_Source\PSoC4/cyfitter_cfg.c **** {
  85:Generated_Source\PSoC4/cyfitter_cfg.c **** 	(void)memcpy(dest, src, n);
  86:Generated_Source\PSoC4/cyfitter_cfg.c **** }
  87:Generated_Source\PSoC4/cyfitter_cfg.c **** CY_CFG_UNUSED
ARM GAS  C:\Users\zack.li\AppData\Local\Temp\ccqQ36cF.s 			page 3


  88:Generated_Source\PSoC4/cyfitter_cfg.c **** static void CYCONFIGCPYCODE(void *dest, const void *src, size_t n);
  89:Generated_Source\PSoC4/cyfitter_cfg.c **** CY_CFG_UNUSED
  90:Generated_Source\PSoC4/cyfitter_cfg.c **** static void CYCONFIGCPYCODE(void *dest, const void *src, size_t n)
  91:Generated_Source\PSoC4/cyfitter_cfg.c **** {
  92:Generated_Source\PSoC4/cyfitter_cfg.c **** 	(void)memcpy(dest, src, n);
  93:Generated_Source\PSoC4/cyfitter_cfg.c **** }
  94:Generated_Source\PSoC4/cyfitter_cfg.c **** 
  95:Generated_Source\PSoC4/cyfitter_cfg.c **** 
  96:Generated_Source\PSoC4/cyfitter_cfg.c **** 
  97:Generated_Source\PSoC4/cyfitter_cfg.c **** 
  98:Generated_Source\PSoC4/cyfitter_cfg.c **** /* Clock startup error codes                                                   */
  99:Generated_Source\PSoC4/cyfitter_cfg.c **** #define CYCLOCKSTART_NO_ERROR    0u
 100:Generated_Source\PSoC4/cyfitter_cfg.c **** #define CYCLOCKSTART_XTAL_ERROR  1u
 101:Generated_Source\PSoC4/cyfitter_cfg.c **** #define CYCLOCKSTART_32KHZ_ERROR 2u
 102:Generated_Source\PSoC4/cyfitter_cfg.c **** #define CYCLOCKSTART_PLL_ERROR   3u
 103:Generated_Source\PSoC4/cyfitter_cfg.c **** #define CYCLOCKSTART_FLL_ERROR   4u
 104:Generated_Source\PSoC4/cyfitter_cfg.c **** #define CYCLOCKSTART_WCO_ERROR   5u
 105:Generated_Source\PSoC4/cyfitter_cfg.c **** 
 106:Generated_Source\PSoC4/cyfitter_cfg.c **** 
 107:Generated_Source\PSoC4/cyfitter_cfg.c **** #ifdef CY_NEED_CYCLOCKSTARTUPERROR
 108:Generated_Source\PSoC4/cyfitter_cfg.c **** /*******************************************************************************
 109:Generated_Source\PSoC4/cyfitter_cfg.c **** * Function Name: CyClockStartupError
 110:Generated_Source\PSoC4/cyfitter_cfg.c **** ********************************************************************************
 111:Generated_Source\PSoC4/cyfitter_cfg.c **** * Summary:
 112:Generated_Source\PSoC4/cyfitter_cfg.c **** *  If an error is encountered during clock configuration (crystal startup error,
 113:Generated_Source\PSoC4/cyfitter_cfg.c **** *  PLL lock error, etc.), the system will end up here.  Unless reimplemented by
 114:Generated_Source\PSoC4/cyfitter_cfg.c **** *  the customer, this function will stop in an infinite loop.
 115:Generated_Source\PSoC4/cyfitter_cfg.c **** *
 116:Generated_Source\PSoC4/cyfitter_cfg.c **** * Parameters:
 117:Generated_Source\PSoC4/cyfitter_cfg.c **** *   void
 118:Generated_Source\PSoC4/cyfitter_cfg.c **** *
 119:Generated_Source\PSoC4/cyfitter_cfg.c **** * Return:
 120:Generated_Source\PSoC4/cyfitter_cfg.c **** *   void
 121:Generated_Source\PSoC4/cyfitter_cfg.c **** *
 122:Generated_Source\PSoC4/cyfitter_cfg.c **** *******************************************************************************/
 123:Generated_Source\PSoC4/cyfitter_cfg.c **** CY_CFG_UNUSED
 124:Generated_Source\PSoC4/cyfitter_cfg.c **** static void CyClockStartupError(uint8 errorCode);
 125:Generated_Source\PSoC4/cyfitter_cfg.c **** CY_CFG_UNUSED
 126:Generated_Source\PSoC4/cyfitter_cfg.c **** static void CyClockStartupError(uint8 errorCode)
 127:Generated_Source\PSoC4/cyfitter_cfg.c **** {
 128:Generated_Source\PSoC4/cyfitter_cfg.c ****     /* To remove the compiler warning if errorCode not used.                */
 129:Generated_Source\PSoC4/cyfitter_cfg.c ****     errorCode = errorCode;
 130:Generated_Source\PSoC4/cyfitter_cfg.c **** 
 131:Generated_Source\PSoC4/cyfitter_cfg.c ****     /* If we have a clock startup error (bad MHz crystal, PLL lock, etc.),  */
 132:Generated_Source\PSoC4/cyfitter_cfg.c ****     /* we will end up here to allow the customer to implement something to  */
 133:Generated_Source\PSoC4/cyfitter_cfg.c ****     /* deal with the clock condition.                                       */
 134:Generated_Source\PSoC4/cyfitter_cfg.c **** 
 135:Generated_Source\PSoC4/cyfitter_cfg.c **** #ifdef CY_CFG_CLOCK_STARTUP_ERROR_CALLBACK
 136:Generated_Source\PSoC4/cyfitter_cfg.c ****     CY_CFG_Clock_Startup_ErrorCallback();
 137:Generated_Source\PSoC4/cyfitter_cfg.c **** #else
 138:Generated_Source\PSoC4/cyfitter_cfg.c ****     /*  If not using CY_CFG_CLOCK_STARTUP_ERROR_CALLBACK, place your clock startup code here. */
 139:Generated_Source\PSoC4/cyfitter_cfg.c ****     /* `#START CyClockStartupError` */
 140:Generated_Source\PSoC4/cyfitter_cfg.c **** 
 141:Generated_Source\PSoC4/cyfitter_cfg.c **** 
 142:Generated_Source\PSoC4/cyfitter_cfg.c **** 
 143:Generated_Source\PSoC4/cyfitter_cfg.c ****     /* `#END` */
 144:Generated_Source\PSoC4/cyfitter_cfg.c **** 
ARM GAS  C:\Users\zack.li\AppData\Local\Temp\ccqQ36cF.s 			page 4


 145:Generated_Source\PSoC4/cyfitter_cfg.c ****     while(1) {}
 146:Generated_Source\PSoC4/cyfitter_cfg.c **** #endif /* CY_CFG_CLOCK_STARTUP_ERROR_CALLBACK */
 147:Generated_Source\PSoC4/cyfitter_cfg.c **** }
 148:Generated_Source\PSoC4/cyfitter_cfg.c **** #endif
 149:Generated_Source\PSoC4/cyfitter_cfg.c **** 
 150:Generated_Source\PSoC4/cyfitter_cfg.c **** #define CY_CFG_BASE_ADDR_COUNT 5u
 151:Generated_Source\PSoC4/cyfitter_cfg.c **** CYPACKED typedef struct
 152:Generated_Source\PSoC4/cyfitter_cfg.c **** {
 153:Generated_Source\PSoC4/cyfitter_cfg.c **** 	uint8 offset;
 154:Generated_Source\PSoC4/cyfitter_cfg.c **** 	uint8 value;
 155:Generated_Source\PSoC4/cyfitter_cfg.c **** } CYPACKED_ATTR cy_cfg_addrvalue_t;
 156:Generated_Source\PSoC4/cyfitter_cfg.c **** 
 157:Generated_Source\PSoC4/cyfitter_cfg.c **** 
 158:Generated_Source\PSoC4/cyfitter_cfg.c **** 
 159:Generated_Source\PSoC4/cyfitter_cfg.c **** /*******************************************************************************
 160:Generated_Source\PSoC4/cyfitter_cfg.c **** * Function Name: cfg_write_bytes32
 161:Generated_Source\PSoC4/cyfitter_cfg.c **** ********************************************************************************
 162:Generated_Source\PSoC4/cyfitter_cfg.c **** * Summary:
 163:Generated_Source\PSoC4/cyfitter_cfg.c **** *  This function is used for setting up the chip configuration areas that
 164:Generated_Source\PSoC4/cyfitter_cfg.c **** *  contain relatively sparse data.
 165:Generated_Source\PSoC4/cyfitter_cfg.c **** *
 166:Generated_Source\PSoC4/cyfitter_cfg.c **** * Parameters:
 167:Generated_Source\PSoC4/cyfitter_cfg.c **** *   void
 168:Generated_Source\PSoC4/cyfitter_cfg.c **** *
 169:Generated_Source\PSoC4/cyfitter_cfg.c **** * Return:
 170:Generated_Source\PSoC4/cyfitter_cfg.c **** *   void
 171:Generated_Source\PSoC4/cyfitter_cfg.c **** *
 172:Generated_Source\PSoC4/cyfitter_cfg.c **** *******************************************************************************/
 173:Generated_Source\PSoC4/cyfitter_cfg.c **** static void cfg_write_bytes32(const uint32 addr_table[], const cy_cfg_addrvalue_t data_table[]);
 174:Generated_Source\PSoC4/cyfitter_cfg.c **** static void cfg_write_bytes32(const uint32 addr_table[], const cy_cfg_addrvalue_t data_table[])
 175:Generated_Source\PSoC4/cyfitter_cfg.c **** {
 176:Generated_Source\PSoC4/cyfitter_cfg.c **** 	/* For 32-bit little-endian architectures */
 177:Generated_Source\PSoC4/cyfitter_cfg.c **** 	uint32 i, j = 0u;
 178:Generated_Source\PSoC4/cyfitter_cfg.c **** 	for (i = 0u; i < CY_CFG_BASE_ADDR_COUNT; i++)
 179:Generated_Source\PSoC4/cyfitter_cfg.c **** 	{
 180:Generated_Source\PSoC4/cyfitter_cfg.c **** 		uint32 baseAddr = addr_table[i];
 181:Generated_Source\PSoC4/cyfitter_cfg.c **** 		uint8 count = (uint8)baseAddr;
 182:Generated_Source\PSoC4/cyfitter_cfg.c **** 		baseAddr &= 0xFFFFFF00u;
 183:Generated_Source\PSoC4/cyfitter_cfg.c **** 		while (count != 0u)
 184:Generated_Source\PSoC4/cyfitter_cfg.c **** 		{
 185:Generated_Source\PSoC4/cyfitter_cfg.c **** 			CY_SET_REG8((void *)(baseAddr + data_table[j].offset), data_table[j].value);
 186:Generated_Source\PSoC4/cyfitter_cfg.c **** 			j++;
 187:Generated_Source\PSoC4/cyfitter_cfg.c **** 			count--;
 188:Generated_Source\PSoC4/cyfitter_cfg.c **** 		}
 189:Generated_Source\PSoC4/cyfitter_cfg.c **** 	}
 190:Generated_Source\PSoC4/cyfitter_cfg.c **** }
 191:Generated_Source\PSoC4/cyfitter_cfg.c **** 
 192:Generated_Source\PSoC4/cyfitter_cfg.c **** 
 193:Generated_Source\PSoC4/cyfitter_cfg.c **** /*******************************************************************************
 194:Generated_Source\PSoC4/cyfitter_cfg.c **** * Function Name: ClockSetup
 195:Generated_Source\PSoC4/cyfitter_cfg.c **** ********************************************************************************
 196:Generated_Source\PSoC4/cyfitter_cfg.c **** *
 197:Generated_Source\PSoC4/cyfitter_cfg.c **** * Summary:
 198:Generated_Source\PSoC4/cyfitter_cfg.c **** *   Performs the initialization of all of the clocks in the device based on the
 199:Generated_Source\PSoC4/cyfitter_cfg.c **** *   settings in the Clock tab of the DWR.  This includes enabling the requested
 200:Generated_Source\PSoC4/cyfitter_cfg.c **** *   clocks and setting the necessary dividers to produce the desired frequency. 
 201:Generated_Source\PSoC4/cyfitter_cfg.c **** *
ARM GAS  C:\Users\zack.li\AppData\Local\Temp\ccqQ36cF.s 			page 5


 202:Generated_Source\PSoC4/cyfitter_cfg.c **** * Parameters:
 203:Generated_Source\PSoC4/cyfitter_cfg.c **** *   void
 204:Generated_Source\PSoC4/cyfitter_cfg.c **** *
 205:Generated_Source\PSoC4/cyfitter_cfg.c **** * Return:
 206:Generated_Source\PSoC4/cyfitter_cfg.c **** *   void
 207:Generated_Source\PSoC4/cyfitter_cfg.c **** *
 208:Generated_Source\PSoC4/cyfitter_cfg.c **** *******************************************************************************/
 209:Generated_Source\PSoC4/cyfitter_cfg.c **** static void ClockSetup(void);
 210:Generated_Source\PSoC4/cyfitter_cfg.c **** CY_CFG_SECTION
 211:Generated_Source\PSoC4/cyfitter_cfg.c **** static void ClockSetup(void)
 212:Generated_Source\PSoC4/cyfitter_cfg.c **** {
 213:Generated_Source\PSoC4/cyfitter_cfg.c **** 
 214:Generated_Source\PSoC4/cyfitter_cfg.c **** 	/* Set Flash Cycles based on max possible frequency in case a glitch occurs during ClockSetup(). *
 215:Generated_Source\PSoC4/cyfitter_cfg.c **** 	CY_SET_REG32((void CYXDATA *)(CYREG_CPUSS_FLASH_CTL), (0x0012u));
 216:Generated_Source\PSoC4/cyfitter_cfg.c **** 	/* Setup and trim IMO based on desired frequency. */
 217:Generated_Source\PSoC4/cyfitter_cfg.c **** 	CySysClkWriteImoFreq(24u);
 218:Generated_Source\PSoC4/cyfitter_cfg.c **** 	/* CYDEV_CLK_ILO_CONFIG Starting address: CYDEV_CLK_ILO_CONFIG */
 219:Generated_Source\PSoC4/cyfitter_cfg.c **** 	CY_SET_REG32((void *)(CYREG_CLK_ILO_CONFIG), 0x80000006u);
 220:Generated_Source\PSoC4/cyfitter_cfg.c **** 
 221:Generated_Source\PSoC4/cyfitter_cfg.c **** 
 222:Generated_Source\PSoC4/cyfitter_cfg.c **** 	/* Setup phase aligned clocks */
 223:Generated_Source\PSoC4/cyfitter_cfg.c **** 	CY_SET_REG32((void *)CYREG_PERI_DIV_16_CTL4, 0x005DBF00u);
 224:Generated_Source\PSoC4/cyfitter_cfg.c **** 	CY_SET_REG32((void *)CYREG_PERI_DIV_CMD, 0x8000FF44u);
 225:Generated_Source\PSoC4/cyfitter_cfg.c **** 	CY_SET_REG32((void *)CYREG_PERI_DIV_16_CTL0, 0x0000FE00u);
 226:Generated_Source\PSoC4/cyfitter_cfg.c **** 	CY_SET_REG32((void *)CYREG_PERI_DIV_CMD, 0x8000FF40u);
 227:Generated_Source\PSoC4/cyfitter_cfg.c **** 	CY_SET_REG32((void *)CYREG_PERI_DIV_16_CTL1, 0x0000FE00u);
 228:Generated_Source\PSoC4/cyfitter_cfg.c **** 	CY_SET_REG32((void *)CYREG_PERI_DIV_CMD, 0x8000FF41u);
 229:Generated_Source\PSoC4/cyfitter_cfg.c **** 	CY_SET_REG32((void *)CYREG_PERI_DIV_16_CTL3, 0x00001000u);
 230:Generated_Source\PSoC4/cyfitter_cfg.c **** 	CY_SET_REG32((void *)CYREG_PERI_DIV_CMD, 0x8000FF43u);
 231:Generated_Source\PSoC4/cyfitter_cfg.c **** 	CY_SET_REG32((void *)CYREG_PERI_DIV_16_CTL2, 0x00000E00u);
 232:Generated_Source\PSoC4/cyfitter_cfg.c **** 	CY_SET_REG32((void *)CYREG_PERI_DIV_CMD, 0x8000FF42u);
 233:Generated_Source\PSoC4/cyfitter_cfg.c **** 
 234:Generated_Source\PSoC4/cyfitter_cfg.c **** 	/* CYDEV_CLK_IMO_CONFIG Starting address: CYDEV_CLK_IMO_CONFIG */
 235:Generated_Source\PSoC4/cyfitter_cfg.c **** 	CY_SET_REG32((void *)(CYREG_CLK_IMO_CONFIG), 0x80000000u);
 236:Generated_Source\PSoC4/cyfitter_cfg.c **** 
 237:Generated_Source\PSoC4/cyfitter_cfg.c **** 	/* CYDEV_CLK_SELECT Starting address: CYDEV_CLK_SELECT */
 238:Generated_Source\PSoC4/cyfitter_cfg.c **** 	CY_SET_REG32((void *)(CYREG_CLK_SELECT), 0x00000000u);
 239:Generated_Source\PSoC4/cyfitter_cfg.c **** 
 240:Generated_Source\PSoC4/cyfitter_cfg.c **** 	/* CYDEV_PERI_PCLK_CTL11 Starting address: CYDEV_PERI_PCLK_CTL11 */
 241:Generated_Source\PSoC4/cyfitter_cfg.c **** 	CY_SET_REG32((void *)(CYREG_PERI_PCLK_CTL11), 0x00000044u);
 242:Generated_Source\PSoC4/cyfitter_cfg.c **** 
 243:Generated_Source\PSoC4/cyfitter_cfg.c **** 	/* CYDEV_PERI_PCLK_CTL7 Starting address: CYDEV_PERI_PCLK_CTL7 */
 244:Generated_Source\PSoC4/cyfitter_cfg.c **** 	CY_SET_REG32((void *)(CYREG_PERI_PCLK_CTL7), 0x00000040u);
 245:Generated_Source\PSoC4/cyfitter_cfg.c **** 
 246:Generated_Source\PSoC4/cyfitter_cfg.c **** 	/* CYDEV_PERI_PCLK_CTL6 Starting address: CYDEV_PERI_PCLK_CTL6 */
 247:Generated_Source\PSoC4/cyfitter_cfg.c **** 	CY_SET_REG32((void *)(CYREG_PERI_PCLK_CTL6), 0x00000041u);
 248:Generated_Source\PSoC4/cyfitter_cfg.c **** 
 249:Generated_Source\PSoC4/cyfitter_cfg.c **** 	/* CYDEV_PERI_PCLK_CTL5 Starting address: CYDEV_PERI_PCLK_CTL5 */
 250:Generated_Source\PSoC4/cyfitter_cfg.c **** 	CY_SET_REG32((void *)(CYREG_PERI_PCLK_CTL5), 0x00000043u);
 251:Generated_Source\PSoC4/cyfitter_cfg.c **** 
 252:Generated_Source\PSoC4/cyfitter_cfg.c **** 	/* CYDEV_PERI_PCLK_CTL2 Starting address: CYDEV_PERI_PCLK_CTL2 */
 253:Generated_Source\PSoC4/cyfitter_cfg.c **** 	CY_SET_REG32((void *)(CYREG_PERI_PCLK_CTL2), 0x00000042u);
 254:Generated_Source\PSoC4/cyfitter_cfg.c **** 
 255:Generated_Source\PSoC4/cyfitter_cfg.c **** 	(void)CyIntSetVector(7u, &CySysWdtIsr);
 256:Generated_Source\PSoC4/cyfitter_cfg.c **** 	CyIntEnable(7u);
 257:Generated_Source\PSoC4/cyfitter_cfg.c **** 	CY_SET_REG32((void *)(CYREG_WDT_CONFIG), 0x00000000u);
 258:Generated_Source\PSoC4/cyfitter_cfg.c **** 	/* Set Flash Cycles based on newly configured 24.00MHz HFCLK. */
ARM GAS  C:\Users\zack.li\AppData\Local\Temp\ccqQ36cF.s 			page 6


 259:Generated_Source\PSoC4/cyfitter_cfg.c **** 	CY_SET_REG32((void CYXDATA *)(CYREG_CPUSS_FLASH_CTL), (0x0011u));
 260:Generated_Source\PSoC4/cyfitter_cfg.c **** }
 261:Generated_Source\PSoC4/cyfitter_cfg.c **** 
 262:Generated_Source\PSoC4/cyfitter_cfg.c **** 
 263:Generated_Source\PSoC4/cyfitter_cfg.c **** /* Analog API Functions */
 264:Generated_Source\PSoC4/cyfitter_cfg.c **** 
 265:Generated_Source\PSoC4/cyfitter_cfg.c **** 
 266:Generated_Source\PSoC4/cyfitter_cfg.c **** /*******************************************************************************
 267:Generated_Source\PSoC4/cyfitter_cfg.c **** * Function Name: AnalogSetDefault
 268:Generated_Source\PSoC4/cyfitter_cfg.c **** ********************************************************************************
 269:Generated_Source\PSoC4/cyfitter_cfg.c **** *
 270:Generated_Source\PSoC4/cyfitter_cfg.c **** * Summary:
 271:Generated_Source\PSoC4/cyfitter_cfg.c **** *  Sets up the analog portions of the chip to default values based on chip
 272:Generated_Source\PSoC4/cyfitter_cfg.c **** *  configuration options from the project.
 273:Generated_Source\PSoC4/cyfitter_cfg.c **** *
 274:Generated_Source\PSoC4/cyfitter_cfg.c **** * Parameters:
 275:Generated_Source\PSoC4/cyfitter_cfg.c **** *  void
 276:Generated_Source\PSoC4/cyfitter_cfg.c **** *
 277:Generated_Source\PSoC4/cyfitter_cfg.c **** * Return:
 278:Generated_Source\PSoC4/cyfitter_cfg.c **** *  void
 279:Generated_Source\PSoC4/cyfitter_cfg.c **** *
 280:Generated_Source\PSoC4/cyfitter_cfg.c **** *******************************************************************************/
 281:Generated_Source\PSoC4/cyfitter_cfg.c **** static void AnalogSetDefault(void);
 282:Generated_Source\PSoC4/cyfitter_cfg.c **** static void AnalogSetDefault(void)
 283:Generated_Source\PSoC4/cyfitter_cfg.c **** {
 284:Generated_Source\PSoC4/cyfitter_cfg.c **** 	CY_SET_XTND_REG32((void CYFAR *)CYREG_CTBM0_DFT_CTRL, 0x00000003u);
 285:Generated_Source\PSoC4/cyfitter_cfg.c **** 	CY_SET_XTND_REG32((void CYFAR *)CYREG_CTBM1_DFT_CTRL, 0x00000003u);
 286:Generated_Source\PSoC4/cyfitter_cfg.c **** 	CY_SET_XTND_REG32((void CYFAR *)CYREG_PASS_DSAB_DSAB_CTRL, 0x00000000u);
 287:Generated_Source\PSoC4/cyfitter_cfg.c **** 	SetAnalogRoutingPumps(1);
 288:Generated_Source\PSoC4/cyfitter_cfg.c **** }
 289:Generated_Source\PSoC4/cyfitter_cfg.c **** 
 290:Generated_Source\PSoC4/cyfitter_cfg.c **** 
 291:Generated_Source\PSoC4/cyfitter_cfg.c **** /*******************************************************************************
 292:Generated_Source\PSoC4/cyfitter_cfg.c **** * Function Name: SetAnalogRoutingPumps
 293:Generated_Source\PSoC4/cyfitter_cfg.c **** ********************************************************************************
 294:Generated_Source\PSoC4/cyfitter_cfg.c **** *
 295:Generated_Source\PSoC4/cyfitter_cfg.c **** * Summary:
 296:Generated_Source\PSoC4/cyfitter_cfg.c **** * Enables or disables the analog pumps feeding analog routing switches.
 297:Generated_Source\PSoC4/cyfitter_cfg.c **** * Intended to be called at startup, based on the Vdda system configuration;
 298:Generated_Source\PSoC4/cyfitter_cfg.c **** * may be called during operation when the user informs us that the Vdda voltage crossed the pump th
 299:Generated_Source\PSoC4/cyfitter_cfg.c **** *
 300:Generated_Source\PSoC4/cyfitter_cfg.c **** * Parameters:
 301:Generated_Source\PSoC4/cyfitter_cfg.c **** *  enabled - 1 to enable the pumps, 0 to disable the pumps
 302:Generated_Source\PSoC4/cyfitter_cfg.c **** *
 303:Generated_Source\PSoC4/cyfitter_cfg.c **** * Return:
 304:Generated_Source\PSoC4/cyfitter_cfg.c **** *  void
 305:Generated_Source\PSoC4/cyfitter_cfg.c **** *
 306:Generated_Source\PSoC4/cyfitter_cfg.c **** *******************************************************************************/
 307:Generated_Source\PSoC4/cyfitter_cfg.c **** void SetAnalogRoutingPumps(uint8 enabled)
 308:Generated_Source\PSoC4/cyfitter_cfg.c **** {
  28              		.loc 1 308 0
  29              		.cfi_startproc
  30              		@ args = 0, pretend = 0, frame = 0
  31              		@ frame_needed = 0, uses_anonymous_args = 0
  32              		@ link register save eliminated.
  33              	.LVL0:
 309:Generated_Source\PSoC4/cyfitter_cfg.c **** 	uint32 regValue = CY_GET_XTND_REG32((void *)(CYREG_SAR_PUMP_CTRL));
ARM GAS  C:\Users\zack.li\AppData\Local\Temp\ccqQ36cF.s 			page 7


  34              		.loc 1 309 0
  35 0000 0B4A     		ldr	r2, .L7
  36 0002 1368     		ldr	r3, [r2]
  37              	.LVL1:
 310:Generated_Source\PSoC4/cyfitter_cfg.c **** 	if (enabled != 0u)
  38              		.loc 1 310 0
  39 0004 0028     		cmp	r0, #0
  40 0006 03D0     		beq	.L2
 311:Generated_Source\PSoC4/cyfitter_cfg.c **** 	{
 312:Generated_Source\PSoC4/cyfitter_cfg.c **** 		regValue |= 0x80000000u;
  41              		.loc 1 312 0
  42 0008 8021     		movs	r1, #128
  43 000a 0906     		lsls	r1, r1, #24
  44 000c 0B43     		orrs	r3, r1
  45              	.LVL2:
  46 000e 01E0     		b	.L3
  47              	.L2:
 313:Generated_Source\PSoC4/cyfitter_cfg.c **** 	}
 314:Generated_Source\PSoC4/cyfitter_cfg.c **** 	else
 315:Generated_Source\PSoC4/cyfitter_cfg.c **** 	{
 316:Generated_Source\PSoC4/cyfitter_cfg.c **** 		regValue &= ~0x80000000u;
  48              		.loc 1 316 0
  49 0010 5B00     		lsls	r3, r3, #1
  50              	.LVL3:
  51 0012 5B08     		lsrs	r3, r3, #1
  52              	.LVL4:
  53              	.L3:
 317:Generated_Source\PSoC4/cyfitter_cfg.c **** 	}
 318:Generated_Source\PSoC4/cyfitter_cfg.c **** 	CY_SET_XTND_REG32((void *)(CYREG_SAR_PUMP_CTRL), regValue);
  54              		.loc 1 318 0
  55 0014 1360     		str	r3, [r2]
 319:Generated_Source\PSoC4/cyfitter_cfg.c **** 	regValue = CY_GET_XTND_REG32((void *)(CYREG_CLK_IMO_CONFIG));
  56              		.loc 1 319 0
  57 0016 074A     		ldr	r2, .L7+4
  58 0018 1368     		ldr	r3, [r2]
  59              	.LVL5:
 320:Generated_Source\PSoC4/cyfitter_cfg.c **** 	if (enabled != 0u)
  60              		.loc 1 320 0
  61 001a 0028     		cmp	r0, #0
  62 001c 03D0     		beq	.L4
 321:Generated_Source\PSoC4/cyfitter_cfg.c **** 	{
 322:Generated_Source\PSoC4/cyfitter_cfg.c **** 		regValue |= 0x02000000u;
  63              		.loc 1 322 0
  64 001e 8021     		movs	r1, #128
  65 0020 8904     		lsls	r1, r1, #18
  66 0022 0B43     		orrs	r3, r1
  67              	.LVL6:
  68 0024 01E0     		b	.L5
  69              	.L4:
 323:Generated_Source\PSoC4/cyfitter_cfg.c **** 	}
 324:Generated_Source\PSoC4/cyfitter_cfg.c **** 	else
 325:Generated_Source\PSoC4/cyfitter_cfg.c **** 	{
 326:Generated_Source\PSoC4/cyfitter_cfg.c **** 		regValue &= ~0x02000000u;
  70              		.loc 1 326 0
  71 0026 0449     		ldr	r1, .L7+8
  72 0028 0B40     		ands	r3, r1
  73              	.LVL7:
ARM GAS  C:\Users\zack.li\AppData\Local\Temp\ccqQ36cF.s 			page 8


  74              	.L5:
 327:Generated_Source\PSoC4/cyfitter_cfg.c **** 	}
 328:Generated_Source\PSoC4/cyfitter_cfg.c **** 	CY_SET_XTND_REG32((void *)(CYREG_CLK_IMO_CONFIG), regValue);
  75              		.loc 1 328 0
  76 002a 1360     		str	r3, [r2]
 329:Generated_Source\PSoC4/cyfitter_cfg.c **** }
  77              		.loc 1 329 0
  78              		@ sp needed
  79 002c 7047     		bx	lr
  80              	.L8:
  81 002e C046     		.align	2
  82              	.L7:
  83 0030 80033A40 		.word	1077543808
  84 0034 08010B40 		.word	1074462984
  85 0038 FFFFFFFD 		.word	-33554433
  86              		.cfi_endproc
  87              	.LFE7:
  88              		.size	SetAnalogRoutingPumps, .-SetAnalogRoutingPumps
  89              		.section	.psocinit,"ax",%progbits
  90              		.align	1
  91              		.global	cyfitter_cfg
  92              		.code	16
  93              		.thumb_func
  94              		.type	cyfitter_cfg, %function
  95              	cyfitter_cfg:
  96              	.LFB8:
 330:Generated_Source\PSoC4/cyfitter_cfg.c **** 
 331:Generated_Source\PSoC4/cyfitter_cfg.c **** 
 332:Generated_Source\PSoC4/cyfitter_cfg.c **** #define CY_AMUX_UNUSED CYREG_CM0_ROM_DWT
 333:Generated_Source\PSoC4/cyfitter_cfg.c **** 
 334:Generated_Source\PSoC4/cyfitter_cfg.c **** 
 335:Generated_Source\PSoC4/cyfitter_cfg.c **** /*******************************************************************************
 336:Generated_Source\PSoC4/cyfitter_cfg.c **** * Function Name: cyfitter_cfg
 337:Generated_Source\PSoC4/cyfitter_cfg.c **** ********************************************************************************
 338:Generated_Source\PSoC4/cyfitter_cfg.c **** * Summary:
 339:Generated_Source\PSoC4/cyfitter_cfg.c **** *  This function is called by the start-up code for the selected device. It
 340:Generated_Source\PSoC4/cyfitter_cfg.c **** *  performs all of the necessary device configuration based on the design
 341:Generated_Source\PSoC4/cyfitter_cfg.c **** *  settings.  This includes settings from the Design Wide Resources (DWR) such
 342:Generated_Source\PSoC4/cyfitter_cfg.c **** *  as Clocks and Pins as well as any component configuration that is necessary.
 343:Generated_Source\PSoC4/cyfitter_cfg.c **** *
 344:Generated_Source\PSoC4/cyfitter_cfg.c **** * Parameters:
 345:Generated_Source\PSoC4/cyfitter_cfg.c **** *   void
 346:Generated_Source\PSoC4/cyfitter_cfg.c **** *
 347:Generated_Source\PSoC4/cyfitter_cfg.c **** * Return:
 348:Generated_Source\PSoC4/cyfitter_cfg.c **** *   void
 349:Generated_Source\PSoC4/cyfitter_cfg.c **** *
 350:Generated_Source\PSoC4/cyfitter_cfg.c **** *******************************************************************************/
 351:Generated_Source\PSoC4/cyfitter_cfg.c **** CY_CFG_SECTION
 352:Generated_Source\PSoC4/cyfitter_cfg.c **** void cyfitter_cfg(void)
 353:Generated_Source\PSoC4/cyfitter_cfg.c **** {
  97              		.loc 1 353 0
  98              		.cfi_startproc
  99              		@ args = 0, pretend = 0, frame = 8
 100              		@ frame_needed = 0, uses_anonymous_args = 0
 101 0000 F7B5     		push	{r0, r1, r2, r4, r5, r6, r7, lr}
 102              		.cfi_def_cfa_offset 32
 103              		.cfi_offset 0, -32
ARM GAS  C:\Users\zack.li\AppData\Local\Temp\ccqQ36cF.s 			page 9


 104              		.cfi_offset 1, -28
 105              		.cfi_offset 2, -24
 106              		.cfi_offset 4, -20
 107              		.cfi_offset 5, -16
 108              		.cfi_offset 6, -12
 109              		.cfi_offset 7, -8
 110              		.cfi_offset 14, -4
 354:Generated_Source\PSoC4/cyfitter_cfg.c **** 	/* Disable interrupts by default. Let user enable if/when they want. */
 355:Generated_Source\PSoC4/cyfitter_cfg.c **** 	CyGlobalIntDisable;
 111              		.loc 1 355 0
 112              		.syntax divided
 113              	@ 355 "Generated_Source\PSoC4\cyfitter_cfg.c" 1
 114 0002 72B6     		CPSID   i
 115              	@ 0 "" 2
 116              	.LVL8:
 117              		.thumb
 118              		.syntax unified
 119              	.LBB14:
 120              	.LBB15:
 121              	.LBB16:
 122              	.LBB17:
  78:Generated_Source\PSoC4/cyfitter_cfg.c **** }
 123              		.loc 1 78 0
 124 0004 8022     		movs	r2, #128
 125 0006 0021     		movs	r1, #0
 126 0008 D200     		lsls	r2, r2, #3
 127 000a 5C48     		ldr	r0, .L15
 128 000c FFF7FEFF 		bl	memset
 129              	.LVL9:
 130 0010 8022     		movs	r2, #128
 131 0012 0021     		movs	r1, #0
 132 0014 D200     		lsls	r2, r2, #3
 133 0016 5A48     		ldr	r0, .L15+4
 134 0018 FFF7FEFF 		bl	memset
 135              	.LVL10:
 136 001c 0022     		movs	r2, #0
 137              	.LBE17:
 138              	.LBE16:
 139              	.LBE15:
 140              	.LBB20:
 141              	.LBB21:
 142              	.LBB22:
 182:Generated_Source\PSoC4/cyfitter_cfg.c **** 		while (count != 0u)
 143              		.loc 1 182 0
 144 001e FF25     		movs	r5, #255
 145              	.LBE22:
 146              	.LBE21:
 147              	.LBE20:
 148              	.LBB25:
 149              	.LBB19:
 150              	.LBB18:
  78:Generated_Source\PSoC4/cyfitter_cfg.c **** }
 151              		.loc 1 78 0
 152 0020 1100     		movs	r1, r2
 153 0022 584E     		ldr	r6, .L15+8
 154 0024 1436     		adds	r6, r6, #20
 155              	.LVL11:
ARM GAS  C:\Users\zack.li\AppData\Local\Temp\ccqQ36cF.s 			page 10


 156              	.L12:
 157              	.LBE18:
 158              	.LBE19:
 159              	.LBE25:
 160              	.LBB26:
 161              	.LBB24:
 162              	.LBB23:
 180:Generated_Source\PSoC4/cyfitter_cfg.c **** 		uint8 count = (uint8)baseAddr;
 163              		.loc 1 180 0
 164 0026 574B     		ldr	r3, .L15+8
 165 0028 D058     		ldr	r0, [r2, r3]
 166              	.LVL12:
 167 002a 4B00     		lsls	r3, r1, #1
 182:Generated_Source\PSoC4/cyfitter_cfg.c **** 		while (count != 0u)
 168              		.loc 1 182 0
 169 002c 0700     		movs	r7, r0
 170 002e 2840     		ands	r0, r5
 171              	.LVL13:
 172 0030 0918     		adds	r1, r1, r0
 173              	.LVL14:
 174 0032 4800     		lsls	r0, r1, #1
 175 0034 0130     		adds	r0, r0, #1
 176 0036 0133     		adds	r3, r3, #1
 177 0038 3018     		adds	r0, r6, r0
 178 003a AF43     		bics	r7, r5
 179              	.LVL15:
 180 003c F318     		adds	r3, r6, r3
 181 003e 0190     		str	r0, [sp, #4]
 182              	.LVL16:
 183              	.L10:
 183:Generated_Source\PSoC4/cyfitter_cfg.c **** 		{
 184              		.loc 1 183 0
 185 0040 0198     		ldr	r0, [sp, #4]
 186 0042 8342     		cmp	r3, r0
 187 0044 07D0     		beq	.L14
 185:Generated_Source\PSoC4/cyfitter_cfg.c **** 			j++;
 188              		.loc 1 185 0
 189 0046 581E     		subs	r0, r3, #1
 190 0048 0078     		ldrb	r0, [r0]
 191 004a C019     		adds	r0, r0, r7
 192 004c 0400     		movs	r4, r0
 193 004e 1878     		ldrb	r0, [r3]
 194 0050 0233     		adds	r3, r3, #2
 195 0052 2070     		strb	r0, [r4]
 196 0054 F4E7     		b	.L10
 197              	.L14:
 198              	.LVL17:
 199 0056 0432     		adds	r2, r2, #4
 200              	.LBE23:
 178:Generated_Source\PSoC4/cyfitter_cfg.c **** 	{
 201              		.loc 1 178 0
 202 0058 142A     		cmp	r2, #20
 203 005a E4D1     		bne	.L12
 204              	.LVL18:
 205              	.LBE24:
 206              	.LBE26:
 356:Generated_Source\PSoC4/cyfitter_cfg.c **** 
ARM GAS  C:\Users\zack.li\AppData\Local\Temp\ccqQ36cF.s 			page 11


 357:Generated_Source\PSoC4/cyfitter_cfg.c **** 	{
 358:Generated_Source\PSoC4/cyfitter_cfg.c **** 		static const uint32 CYCODE cy_cfg_addr_table[] = {
 359:Generated_Source\PSoC4/cyfitter_cfg.c **** 			0x400F3004u, /* Base address: 0x400F3000 Count: 4 */
 360:Generated_Source\PSoC4/cyfitter_cfg.c **** 			0x400F3101u, /* Base address: 0x400F3100 Count: 1 */
 361:Generated_Source\PSoC4/cyfitter_cfg.c **** 			0x400F3301u, /* Base address: 0x400F3300 Count: 1 */
 362:Generated_Source\PSoC4/cyfitter_cfg.c **** 			0x400F4203u, /* Base address: 0x400F4200 Count: 3 */
 363:Generated_Source\PSoC4/cyfitter_cfg.c **** 			0x400F4302u, /* Base address: 0x400F4300 Count: 2 */
 364:Generated_Source\PSoC4/cyfitter_cfg.c **** 		};
 365:Generated_Source\PSoC4/cyfitter_cfg.c **** 
 366:Generated_Source\PSoC4/cyfitter_cfg.c **** 		static const cy_cfg_addrvalue_t CYCODE cy_cfg_data_table[] = {
 367:Generated_Source\PSoC4/cyfitter_cfg.c **** 			{0x38u, 0x80u},
 368:Generated_Source\PSoC4/cyfitter_cfg.c **** 			{0x3Eu, 0x40u},
 369:Generated_Source\PSoC4/cyfitter_cfg.c **** 			{0x58u, 0x04u},
 370:Generated_Source\PSoC4/cyfitter_cfg.c **** 			{0x5Fu, 0x01u},
 371:Generated_Source\PSoC4/cyfitter_cfg.c **** 			{0x18u, 0x01u},
 372:Generated_Source\PSoC4/cyfitter_cfg.c **** 			{0xB4u, 0x01u},
 373:Generated_Source\PSoC4/cyfitter_cfg.c **** 			{0x6Cu, 0x40u},
 374:Generated_Source\PSoC4/cyfitter_cfg.c **** 			{0x70u, 0x08u},
 375:Generated_Source\PSoC4/cyfitter_cfg.c **** 			{0xDCu, 0x03u},
 376:Generated_Source\PSoC4/cyfitter_cfg.c **** 			{0xB4u, 0x48u},
 377:Generated_Source\PSoC4/cyfitter_cfg.c **** 			{0xECu, 0x08u},
 378:Generated_Source\PSoC4/cyfitter_cfg.c **** 		};
 379:Generated_Source\PSoC4/cyfitter_cfg.c **** 
 380:Generated_Source\PSoC4/cyfitter_cfg.c **** 
 381:Generated_Source\PSoC4/cyfitter_cfg.c **** 
 382:Generated_Source\PSoC4/cyfitter_cfg.c **** 		CYPACKED typedef struct {
 383:Generated_Source\PSoC4/cyfitter_cfg.c **** 			void CYFAR *address;
 384:Generated_Source\PSoC4/cyfitter_cfg.c **** 			uint16 size;
 385:Generated_Source\PSoC4/cyfitter_cfg.c **** 		} CYPACKED_ATTR cfg_memset_t;
 386:Generated_Source\PSoC4/cyfitter_cfg.c **** 
 387:Generated_Source\PSoC4/cyfitter_cfg.c **** 		static const cfg_memset_t CYCODE cfg_memset_list[] = {
 388:Generated_Source\PSoC4/cyfitter_cfg.c **** 			/* address, size */
 389:Generated_Source\PSoC4/cyfitter_cfg.c **** 			{(void CYFAR *)(CYDEV_UDB_P0_U0_BASE), 1024u},
 390:Generated_Source\PSoC4/cyfitter_cfg.c **** 			{(void CYFAR *)(CYDEV_UDB_DSI0_BASE), 1024u},
 391:Generated_Source\PSoC4/cyfitter_cfg.c **** 		};
 392:Generated_Source\PSoC4/cyfitter_cfg.c **** 
 393:Generated_Source\PSoC4/cyfitter_cfg.c **** 		uint8 CYDATA i;
 394:Generated_Source\PSoC4/cyfitter_cfg.c **** 
 395:Generated_Source\PSoC4/cyfitter_cfg.c **** 		/* Zero out critical memory blocks before beginning configuration */
 396:Generated_Source\PSoC4/cyfitter_cfg.c **** 		for (i = 0u; i < (sizeof(cfg_memset_list)/sizeof(cfg_memset_list[0])); i++)
 397:Generated_Source\PSoC4/cyfitter_cfg.c **** 		{
 398:Generated_Source\PSoC4/cyfitter_cfg.c **** 			const cfg_memset_t CYCODE * CYDATA ms = &cfg_memset_list[i];
 399:Generated_Source\PSoC4/cyfitter_cfg.c **** 			CYMEMZERO(ms->address, (size_t)(uint32)(ms->size));
 400:Generated_Source\PSoC4/cyfitter_cfg.c **** 		}
 401:Generated_Source\PSoC4/cyfitter_cfg.c **** 
 402:Generated_Source\PSoC4/cyfitter_cfg.c **** 		cfg_write_bytes32(cy_cfg_addr_table, cy_cfg_data_table);
 403:Generated_Source\PSoC4/cyfitter_cfg.c **** 
 404:Generated_Source\PSoC4/cyfitter_cfg.c **** 		/* HSIOM Starting address: CYDEV_HSIOM_BASE */
 405:Generated_Source\PSoC4/cyfitter_cfg.c **** 		CY_SET_REG32((void *)(CYREG_HSIOM_PORT_SEL3), 0x0000EE00u);
 207              		.loc 1 405 0
 208 005c EE21     		movs	r1, #238
 209 005e 4A4B     		ldr	r3, .L15+12
 210 0060 0902     		lsls	r1, r1, #8
 211 0062 1960     		str	r1, [r3]
 406:Generated_Source\PSoC4/cyfitter_cfg.c **** 		CY_SET_REG32((void *)(CYREG_HSIOM_PORT_SEL4), 0x000000EEu);
 212              		.loc 1 406 0
 213 0064 EE21     		movs	r1, #238
ARM GAS  C:\Users\zack.li\AppData\Local\Temp\ccqQ36cF.s 			page 12


 214 0066 494B     		ldr	r3, .L15+16
 407:Generated_Source\PSoC4/cyfitter_cfg.c **** 		CY_SET_REG32((void *)(CYREG_HSIOM_PORT_SEL7), 0x00000099u);
 408:Generated_Source\PSoC4/cyfitter_cfg.c **** 
 409:Generated_Source\PSoC4/cyfitter_cfg.c **** 		/* UDB_PA_0 Starting address: CYDEV_UDB_PA0_BASE */
 410:Generated_Source\PSoC4/cyfitter_cfg.c **** 		CY_SET_REG32((void *)(CYDEV_UDB_PA0_BASE), 0x00990000u);
 411:Generated_Source\PSoC4/cyfitter_cfg.c **** 
 412:Generated_Source\PSoC4/cyfitter_cfg.c **** 		/* UDB_PA_3 Starting address: CYDEV_UDB_PA3_BASE */
 413:Generated_Source\PSoC4/cyfitter_cfg.c **** 		CY_SET_REG32((void *)(CYDEV_UDB_PA3_BASE), 0x00990000u);
 414:Generated_Source\PSoC4/cyfitter_cfg.c **** 
 415:Generated_Source\PSoC4/cyfitter_cfg.c **** 		/* Enable UDB array and digital routing */
 416:Generated_Source\PSoC4/cyfitter_cfg.c **** 		CY_SET_XTND_REG8((void *)CYREG_UDB_UDBIF_WAIT_CFG, (uint8)((CY_GET_XTND_REG8((void *)CYREG_UDB_UD
 215              		.loc 1 416 0
 216 0068 3C20     		movs	r0, #60
 406:Generated_Source\PSoC4/cyfitter_cfg.c **** 		CY_SET_REG32((void *)(CYREG_HSIOM_PORT_SEL4), 0x000000EEu);
 217              		.loc 1 406 0
 218 006a 1960     		str	r1, [r3]
 407:Generated_Source\PSoC4/cyfitter_cfg.c **** 		CY_SET_REG32((void *)(CYREG_HSIOM_PORT_SEL7), 0x00000099u);
 219              		.loc 1 407 0
 220 006c 484B     		ldr	r3, .L15+20
 221 006e 5539     		subs	r1, r1, #85
 222 0070 1960     		str	r1, [r3]
 410:Generated_Source\PSoC4/cyfitter_cfg.c **** 
 223              		.loc 1 410 0
 224 0072 9923     		movs	r3, #153
 225 0074 4749     		ldr	r1, .L15+24
 226 0076 1B04     		lsls	r3, r3, #16
 227 0078 0B60     		str	r3, [r1]
 413:Generated_Source\PSoC4/cyfitter_cfg.c **** 
 228              		.loc 1 413 0
 229 007a 4749     		ldr	r1, .L15+28
 230              	.LBE14:
 417:Generated_Source\PSoC4/cyfitter_cfg.c **** 		CY_SET_XTND_REG8((void *)CYREG_UDB_UDBIF_BANK_CTL, (uint8)(CY_GET_XTND_REG8((void *)CYREG_UDB_UDB
 418:Generated_Source\PSoC4/cyfitter_cfg.c **** 	}
 419:Generated_Source\PSoC4/cyfitter_cfg.c **** 
 420:Generated_Source\PSoC4/cyfitter_cfg.c **** 	/* Perform second pass device configuration. These items must be configured in specific order afte
 421:Generated_Source\PSoC4/cyfitter_cfg.c **** 	/* IOPINS0_0 Starting address: CYDEV_GPIO_PRT0_BASE */
 422:Generated_Source\PSoC4/cyfitter_cfg.c **** 	CY_SET_REG32((void *)(CYDEV_GPIO_PRT0_BASE), 0x00000040u);
 231              		.loc 1 422 0
 232 007c 4026     		movs	r6, #64
 233              	.LBB27:
 413:Generated_Source\PSoC4/cyfitter_cfg.c **** 
 234              		.loc 1 413 0
 235 007e 0B60     		str	r3, [r1]
 416:Generated_Source\PSoC4/cyfitter_cfg.c **** 		CY_SET_XTND_REG8((void *)CYREG_UDB_UDBIF_BANK_CTL, (uint8)(CY_GET_XTND_REG8((void *)CYREG_UDB_UDB
 236              		.loc 1 416 0
 237 0080 4649     		ldr	r1, .L15+32
 238              	.LBE27:
 423:Generated_Source\PSoC4/cyfitter_cfg.c **** 	CY_SET_REG32((void *)(CYREG_GPIO_PRT0_PC), 0x00180000u);
 424:Generated_Source\PSoC4/cyfitter_cfg.c **** 
 425:Generated_Source\PSoC4/cyfitter_cfg.c **** 	/* IOPINS0_3 Starting address: CYDEV_GPIO_PRT3_BASE */
 426:Generated_Source\PSoC4/cyfitter_cfg.c **** 	CY_SET_REG32((void *)(CYDEV_GPIO_PRT3_BASE), 0x00000030u);
 427:Generated_Source\PSoC4/cyfitter_cfg.c **** 	CY_SET_REG32((void *)(CYREG_GPIO_PRT3_PC), 0x00000D80u);
 428:Generated_Source\PSoC4/cyfitter_cfg.c **** 	CY_SET_REG32((void *)(CYREG_GPIO_PRT3_PC2), 0x00000030u);
 429:Generated_Source\PSoC4/cyfitter_cfg.c **** 
 430:Generated_Source\PSoC4/cyfitter_cfg.c **** 	/* IOPINS0_4 Starting address: CYDEV_GPIO_PRT4_BASE */
 431:Generated_Source\PSoC4/cyfitter_cfg.c **** 	CY_SET_REG32((void *)(CYDEV_GPIO_PRT4_BASE), 0x00000043u);
 239              		.loc 1 431 0
ARM GAS  C:\Users\zack.li\AppData\Local\Temp\ccqQ36cF.s 			page 13


 240 0082 4325     		movs	r5, #67
 241              	.LBB28:
 416:Generated_Source\PSoC4/cyfitter_cfg.c **** 		CY_SET_XTND_REG8((void *)CYREG_UDB_UDBIF_BANK_CTL, (uint8)(CY_GET_XTND_REG8((void *)CYREG_UDB_UDB
 242              		.loc 1 416 0
 243 0084 0B78     		ldrb	r3, [r1]
 244              	.LBE28:
 245              	.LBB29:
 246              	.LBB30:
 215:Generated_Source\PSoC4/cyfitter_cfg.c **** 	/* Setup and trim IMO based on desired frequency. */
 247              		.loc 1 215 0
 248 0086 464C     		ldr	r4, .L15+36
 249              	.LBE30:
 250              	.LBE29:
 251              	.LBB35:
 416:Generated_Source\PSoC4/cyfitter_cfg.c **** 		CY_SET_XTND_REG8((void *)CYREG_UDB_UDBIF_BANK_CTL, (uint8)(CY_GET_XTND_REG8((void *)CYREG_UDB_UDB
 252              		.loc 1 416 0
 253 0088 8343     		bics	r3, r0
 254 008a 1A43     		orrs	r2, r3
 255 008c D2B2     		uxtb	r2, r2
 256 008e 0A70     		strb	r2, [r1]
 417:Generated_Source\PSoC4/cyfitter_cfg.c **** 	}
 257              		.loc 1 417 0
 258 0090 1621     		movs	r1, #22
 259 0092 444A     		ldr	r2, .L15+40
 260              	.LBE35:
 261              	.LBB36:
 262              	.LBB31:
 217:Generated_Source\PSoC4/cyfitter_cfg.c **** 	/* CYDEV_CLK_ILO_CONFIG Starting address: CYDEV_CLK_ILO_CONFIG */
 263              		.loc 1 217 0
 264 0094 2438     		subs	r0, r0, #36
 265              	.LBE31:
 266              	.LBE36:
 267              	.LBB37:
 417:Generated_Source\PSoC4/cyfitter_cfg.c **** 	}
 268              		.loc 1 417 0
 269 0096 1378     		ldrb	r3, [r2]
 270              	.LBE37:
 271              	.LBB38:
 272              	.LBB32:
 238:Generated_Source\PSoC4/cyfitter_cfg.c **** 
 273              		.loc 1 238 0
 274 0098 0027     		movs	r7, #0
 275              	.LBE32:
 276              	.LBE38:
 277              	.LBB39:
 417:Generated_Source\PSoC4/cyfitter_cfg.c **** 	}
 278              		.loc 1 417 0
 279 009a 0B43     		orrs	r3, r1
 280 009c 1370     		strb	r3, [r2]
 281              	.LBE39:
 423:Generated_Source\PSoC4/cyfitter_cfg.c **** 
 282              		.loc 1 423 0
 283 009e C022     		movs	r2, #192
 422:Generated_Source\PSoC4/cyfitter_cfg.c **** 	CY_SET_REG32((void *)(CYREG_GPIO_PRT0_PC), 0x00180000u);
 284              		.loc 1 422 0
 285 00a0 414B     		ldr	r3, .L15+44
 423:Generated_Source\PSoC4/cyfitter_cfg.c **** 
ARM GAS  C:\Users\zack.li\AppData\Local\Temp\ccqQ36cF.s 			page 14


 286              		.loc 1 423 0
 287 00a2 5203     		lsls	r2, r2, #13
 422:Generated_Source\PSoC4/cyfitter_cfg.c **** 	CY_SET_REG32((void *)(CYREG_GPIO_PRT0_PC), 0x00180000u);
 288              		.loc 1 422 0
 289 00a4 1E60     		str	r6, [r3]
 423:Generated_Source\PSoC4/cyfitter_cfg.c **** 
 290              		.loc 1 423 0
 291 00a6 414B     		ldr	r3, .L15+48
 427:Generated_Source\PSoC4/cyfitter_cfg.c **** 	CY_SET_REG32((void *)(CYREG_GPIO_PRT3_PC2), 0x00000030u);
 292              		.loc 1 427 0
 293 00a8 D821     		movs	r1, #216
 423:Generated_Source\PSoC4/cyfitter_cfg.c **** 
 294              		.loc 1 423 0
 295 00aa 1A60     		str	r2, [r3]
 426:Generated_Source\PSoC4/cyfitter_cfg.c **** 	CY_SET_REG32((void *)(CYREG_GPIO_PRT3_PC), 0x00000D80u);
 296              		.loc 1 426 0
 297 00ac 3023     		movs	r3, #48
 298 00ae 404A     		ldr	r2, .L15+52
 427:Generated_Source\PSoC4/cyfitter_cfg.c **** 	CY_SET_REG32((void *)(CYREG_GPIO_PRT3_PC2), 0x00000030u);
 299              		.loc 1 427 0
 300 00b0 0901     		lsls	r1, r1, #4
 426:Generated_Source\PSoC4/cyfitter_cfg.c **** 	CY_SET_REG32((void *)(CYREG_GPIO_PRT3_PC), 0x00000D80u);
 301              		.loc 1 426 0
 302 00b2 1360     		str	r3, [r2]
 427:Generated_Source\PSoC4/cyfitter_cfg.c **** 	CY_SET_REG32((void *)(CYREG_GPIO_PRT3_PC2), 0x00000030u);
 303              		.loc 1 427 0
 304 00b4 3F4A     		ldr	r2, .L15+56
 432:Generated_Source\PSoC4/cyfitter_cfg.c **** 	CY_SET_REG32((void *)(CYREG_GPIO_PRT4_PC), 0x00000024u);
 433:Generated_Source\PSoC4/cyfitter_cfg.c **** 	CY_SET_REG32((void *)(CYREG_GPIO_PRT4_PC2), 0x00000064u);
 434:Generated_Source\PSoC4/cyfitter_cfg.c **** 
 435:Generated_Source\PSoC4/cyfitter_cfg.c **** 	/* IOPINS0_6 Starting address: CYDEV_GPIO_PRT6_BASE */
 436:Generated_Source\PSoC4/cyfitter_cfg.c **** 	CY_SET_REG32((void *)(CYREG_GPIO_PRT6_PC2), 0x00000004u);
 437:Generated_Source\PSoC4/cyfitter_cfg.c **** 
 438:Generated_Source\PSoC4/cyfitter_cfg.c **** 	/* IOPINS0_7 Starting address: CYDEV_GPIO_PRT7_BASE */
 439:Generated_Source\PSoC4/cyfitter_cfg.c **** 	CY_SET_REG32((void *)(CYDEV_GPIO_PRT7_BASE), 0x00000002u);
 440:Generated_Source\PSoC4/cyfitter_cfg.c **** 	CY_SET_REG32((void *)(CYREG_GPIO_PRT7_PC), 0x00000031u);
 441:Generated_Source\PSoC4/cyfitter_cfg.c **** 	CY_SET_REG32((void *)(CYREG_GPIO_PRT7_PC2), 0x00000002u);
 442:Generated_Source\PSoC4/cyfitter_cfg.c **** 
 443:Generated_Source\PSoC4/cyfitter_cfg.c **** 
 444:Generated_Source\PSoC4/cyfitter_cfg.c **** 	/* Setup clocks based on selections from Clock DWR */
 445:Generated_Source\PSoC4/cyfitter_cfg.c **** 	ClockSetup();
 446:Generated_Source\PSoC4/cyfitter_cfg.c **** 
 447:Generated_Source\PSoC4/cyfitter_cfg.c **** 	/* Perform basic analog initialization to defaults */
 448:Generated_Source\PSoC4/cyfitter_cfg.c **** 	AnalogSetDefault();
 449:Generated_Source\PSoC4/cyfitter_cfg.c **** 
 450:Generated_Source\PSoC4/cyfitter_cfg.c **** }
 305              		.loc 1 450 0
 306              		@ sp needed
 427:Generated_Source\PSoC4/cyfitter_cfg.c **** 	CY_SET_REG32((void *)(CYREG_GPIO_PRT3_PC2), 0x00000030u);
 307              		.loc 1 427 0
 308 00b6 1160     		str	r1, [r2]
 428:Generated_Source\PSoC4/cyfitter_cfg.c **** 
 309              		.loc 1 428 0
 310 00b8 3F4A     		ldr	r2, .L15+60
 440:Generated_Source\PSoC4/cyfitter_cfg.c **** 	CY_SET_REG32((void *)(CYREG_GPIO_PRT7_PC2), 0x00000002u);
 311              		.loc 1 440 0
 312 00ba 3121     		movs	r1, #49
ARM GAS  C:\Users\zack.li\AppData\Local\Temp\ccqQ36cF.s 			page 15


 428:Generated_Source\PSoC4/cyfitter_cfg.c **** 
 313              		.loc 1 428 0
 314 00bc 1360     		str	r3, [r2]
 432:Generated_Source\PSoC4/cyfitter_cfg.c **** 	CY_SET_REG32((void *)(CYREG_GPIO_PRT4_PC2), 0x00000064u);
 315              		.loc 1 432 0
 316 00be 2422     		movs	r2, #36
 431:Generated_Source\PSoC4/cyfitter_cfg.c **** 	CY_SET_REG32((void *)(CYREG_GPIO_PRT4_PC), 0x00000024u);
 317              		.loc 1 431 0
 318 00c0 3E4B     		ldr	r3, .L15+64
 319 00c2 1D60     		str	r5, [r3]
 432:Generated_Source\PSoC4/cyfitter_cfg.c **** 	CY_SET_REG32((void *)(CYREG_GPIO_PRT4_PC2), 0x00000064u);
 320              		.loc 1 432 0
 321 00c4 3E4B     		ldr	r3, .L15+68
 322 00c6 1A60     		str	r2, [r3]
 433:Generated_Source\PSoC4/cyfitter_cfg.c **** 
 323              		.loc 1 433 0
 324 00c8 3E4B     		ldr	r3, .L15+72
 325 00ca 9219     		adds	r2, r2, r6
 326 00cc 1A60     		str	r2, [r3]
 436:Generated_Source\PSoC4/cyfitter_cfg.c **** 
 327              		.loc 1 436 0
 328 00ce 3E4B     		ldr	r3, .L15+76
 329 00d0 603A     		subs	r2, r2, #96
 330 00d2 1A60     		str	r2, [r3]
 439:Generated_Source\PSoC4/cyfitter_cfg.c **** 	CY_SET_REG32((void *)(CYREG_GPIO_PRT7_PC), 0x00000031u);
 331              		.loc 1 439 0
 332 00d4 0223     		movs	r3, #2
 333 00d6 3D4A     		ldr	r2, .L15+80
 334 00d8 1360     		str	r3, [r2]
 440:Generated_Source\PSoC4/cyfitter_cfg.c **** 	CY_SET_REG32((void *)(CYREG_GPIO_PRT7_PC2), 0x00000002u);
 335              		.loc 1 440 0
 336 00da 3D4A     		ldr	r2, .L15+84
 337 00dc 1160     		str	r1, [r2]
 441:Generated_Source\PSoC4/cyfitter_cfg.c **** 
 338              		.loc 1 441 0
 339 00de 3D4A     		ldr	r2, .L15+88
 340 00e0 1360     		str	r3, [r2]
 341              	.LBB40:
 342              	.LBB33:
 215:Generated_Source\PSoC4/cyfitter_cfg.c **** 	/* Setup and trim IMO based on desired frequency. */
 343              		.loc 1 215 0
 344 00e2 1033     		adds	r3, r3, #16
 345 00e4 2360     		str	r3, [r4]
 217:Generated_Source\PSoC4/cyfitter_cfg.c **** 	/* CYDEV_CLK_ILO_CONFIG Starting address: CYDEV_CLK_ILO_CONFIG */
 346              		.loc 1 217 0
 347 00e6 FFF7FEFF 		bl	CySysClkWriteImoFreq
 348              	.LVL19:
 219:Generated_Source\PSoC4/cyfitter_cfg.c **** 
 349              		.loc 1 219 0
 350 00ea 3B4A     		ldr	r2, .L15+92
 351 00ec 3B4B     		ldr	r3, .L15+96
 225:Generated_Source\PSoC4/cyfitter_cfg.c **** 	CY_SET_REG32((void *)CYREG_PERI_DIV_CMD, 0x8000FF40u);
 352              		.loc 1 225 0
 353 00ee 3C49     		ldr	r1, .L15+100
 219:Generated_Source\PSoC4/cyfitter_cfg.c **** 
 354              		.loc 1 219 0
 355 00f0 1A60     		str	r2, [r3]
ARM GAS  C:\Users\zack.li\AppData\Local\Temp\ccqQ36cF.s 			page 16


 223:Generated_Source\PSoC4/cyfitter_cfg.c **** 	CY_SET_REG32((void *)CYREG_PERI_DIV_CMD, 0x8000FF44u);
 356              		.loc 1 223 0
 357 00f2 3C4A     		ldr	r2, .L15+104
 358 00f4 3C4B     		ldr	r3, .L15+108
 255:Generated_Source\PSoC4/cyfitter_cfg.c **** 	CyIntEnable(7u);
 359              		.loc 1 255 0
 360 00f6 0720     		movs	r0, #7
 223:Generated_Source\PSoC4/cyfitter_cfg.c **** 	CY_SET_REG32((void *)CYREG_PERI_DIV_CMD, 0x8000FF44u);
 361              		.loc 1 223 0
 362 00f8 1A60     		str	r2, [r3]
 224:Generated_Source\PSoC4/cyfitter_cfg.c **** 	CY_SET_REG32((void *)CYREG_PERI_DIV_16_CTL0, 0x0000FE00u);
 363              		.loc 1 224 0
 364 00fa 3C4B     		ldr	r3, .L15+112
 365 00fc 3C4A     		ldr	r2, .L15+116
 366 00fe 1A60     		str	r2, [r3]
 225:Generated_Source\PSoC4/cyfitter_cfg.c **** 	CY_SET_REG32((void *)CYREG_PERI_DIV_CMD, 0x8000FF40u);
 367              		.loc 1 225 0
 368 0100 FE22     		movs	r2, #254
 369 0102 1202     		lsls	r2, r2, #8
 370 0104 0A60     		str	r2, [r1]
 226:Generated_Source\PSoC4/cyfitter_cfg.c **** 	CY_SET_REG32((void *)CYREG_PERI_DIV_16_CTL1, 0x0000FE00u);
 371              		.loc 1 226 0
 372 0106 3B49     		ldr	r1, .L15+120
 373 0108 1960     		str	r1, [r3]
 227:Generated_Source\PSoC4/cyfitter_cfg.c **** 	CY_SET_REG32((void *)CYREG_PERI_DIV_CMD, 0x8000FF41u);
 374              		.loc 1 227 0
 375 010a 3B49     		ldr	r1, .L15+124
 376 010c 0A60     		str	r2, [r1]
 229:Generated_Source\PSoC4/cyfitter_cfg.c **** 	CY_SET_REG32((void *)CYREG_PERI_DIV_CMD, 0x8000FF43u);
 377              		.loc 1 229 0
 378 010e 8021     		movs	r1, #128
 228:Generated_Source\PSoC4/cyfitter_cfg.c **** 	CY_SET_REG32((void *)CYREG_PERI_DIV_16_CTL3, 0x00001000u);
 379              		.loc 1 228 0
 380 0110 3A4A     		ldr	r2, .L15+128
 229:Generated_Source\PSoC4/cyfitter_cfg.c **** 	CY_SET_REG32((void *)CYREG_PERI_DIV_CMD, 0x8000FF43u);
 381              		.loc 1 229 0
 382 0112 4901     		lsls	r1, r1, #5
 228:Generated_Source\PSoC4/cyfitter_cfg.c **** 	CY_SET_REG32((void *)CYREG_PERI_DIV_16_CTL3, 0x00001000u);
 383              		.loc 1 228 0
 384 0114 1A60     		str	r2, [r3]
 229:Generated_Source\PSoC4/cyfitter_cfg.c **** 	CY_SET_REG32((void *)CYREG_PERI_DIV_CMD, 0x8000FF43u);
 385              		.loc 1 229 0
 386 0116 3A4A     		ldr	r2, .L15+132
 387 0118 1160     		str	r1, [r2]
 231:Generated_Source\PSoC4/cyfitter_cfg.c **** 	CY_SET_REG32((void *)CYREG_PERI_DIV_CMD, 0x8000FF42u);
 388              		.loc 1 231 0
 389 011a E021     		movs	r1, #224
 230:Generated_Source\PSoC4/cyfitter_cfg.c **** 	CY_SET_REG32((void *)CYREG_PERI_DIV_16_CTL2, 0x00000E00u);
 390              		.loc 1 230 0
 391 011c 394A     		ldr	r2, .L15+136
 231:Generated_Source\PSoC4/cyfitter_cfg.c **** 	CY_SET_REG32((void *)CYREG_PERI_DIV_CMD, 0x8000FF42u);
 392              		.loc 1 231 0
 393 011e 0901     		lsls	r1, r1, #4
 230:Generated_Source\PSoC4/cyfitter_cfg.c **** 	CY_SET_REG32((void *)CYREG_PERI_DIV_16_CTL2, 0x00000E00u);
 394              		.loc 1 230 0
 395 0120 1A60     		str	r2, [r3]
 231:Generated_Source\PSoC4/cyfitter_cfg.c **** 	CY_SET_REG32((void *)CYREG_PERI_DIV_CMD, 0x8000FF42u);
ARM GAS  C:\Users\zack.li\AppData\Local\Temp\ccqQ36cF.s 			page 17


 396              		.loc 1 231 0
 397 0122 394A     		ldr	r2, .L15+140
 398 0124 1160     		str	r1, [r2]
 232:Generated_Source\PSoC4/cyfitter_cfg.c **** 
 399              		.loc 1 232 0
 400 0126 394A     		ldr	r2, .L15+144
 255:Generated_Source\PSoC4/cyfitter_cfg.c **** 	CyIntEnable(7u);
 401              		.loc 1 255 0
 402 0128 3949     		ldr	r1, .L15+148
 232:Generated_Source\PSoC4/cyfitter_cfg.c **** 
 403              		.loc 1 232 0
 404 012a 1A60     		str	r2, [r3]
 235:Generated_Source\PSoC4/cyfitter_cfg.c **** 
 405              		.loc 1 235 0
 406 012c 8022     		movs	r2, #128
 407 012e 394B     		ldr	r3, .L15+152
 408 0130 1206     		lsls	r2, r2, #24
 409 0132 1A60     		str	r2, [r3]
 241:Generated_Source\PSoC4/cyfitter_cfg.c **** 
 410              		.loc 1 241 0
 411 0134 4422     		movs	r2, #68
 238:Generated_Source\PSoC4/cyfitter_cfg.c **** 
 412              		.loc 1 238 0
 413 0136 384B     		ldr	r3, .L15+156
 414 0138 1F60     		str	r7, [r3]
 241:Generated_Source\PSoC4/cyfitter_cfg.c **** 
 415              		.loc 1 241 0
 416 013a 384B     		ldr	r3, .L15+160
 417 013c 1A60     		str	r2, [r3]
 244:Generated_Source\PSoC4/cyfitter_cfg.c **** 
 418              		.loc 1 244 0
 419 013e 384B     		ldr	r3, .L15+164
 247:Generated_Source\PSoC4/cyfitter_cfg.c **** 
 420              		.loc 1 247 0
 421 0140 033A     		subs	r2, r2, #3
 244:Generated_Source\PSoC4/cyfitter_cfg.c **** 
 422              		.loc 1 244 0
 423 0142 1E60     		str	r6, [r3]
 247:Generated_Source\PSoC4/cyfitter_cfg.c **** 
 424              		.loc 1 247 0
 425 0144 374B     		ldr	r3, .L15+168
 426 0146 1A60     		str	r2, [r3]
 250:Generated_Source\PSoC4/cyfitter_cfg.c **** 
 427              		.loc 1 250 0
 428 0148 374B     		ldr	r3, .L15+172
 253:Generated_Source\PSoC4/cyfitter_cfg.c **** 
 429              		.loc 1 253 0
 430 014a 0132     		adds	r2, r2, #1
 250:Generated_Source\PSoC4/cyfitter_cfg.c **** 
 431              		.loc 1 250 0
 432 014c 1D60     		str	r5, [r3]
 253:Generated_Source\PSoC4/cyfitter_cfg.c **** 
 433              		.loc 1 253 0
 434 014e 374B     		ldr	r3, .L15+176
 435 0150 1A60     		str	r2, [r3]
 255:Generated_Source\PSoC4/cyfitter_cfg.c **** 	CyIntEnable(7u);
 436              		.loc 1 255 0
ARM GAS  C:\Users\zack.li\AppData\Local\Temp\ccqQ36cF.s 			page 18


 437 0152 FFF7FEFF 		bl	CyIntSetVector
 438              	.LVL20:
 256:Generated_Source\PSoC4/cyfitter_cfg.c **** 	CY_SET_REG32((void *)(CYREG_WDT_CONFIG), 0x00000000u);
 439              		.loc 1 256 0
 440 0156 0720     		movs	r0, #7
 441 0158 FFF7FEFF 		bl	CyIntEnable
 442              	.LVL21:
 257:Generated_Source\PSoC4/cyfitter_cfg.c **** 	/* Set Flash Cycles based on newly configured 24.00MHz HFCLK. */
 443              		.loc 1 257 0
 444 015c 344B     		ldr	r3, .L15+180
 445              	.LBE33:
 446              	.LBE40:
 447              	.LBB41:
 448              	.LBB42:
 284:Generated_Source\PSoC4/cyfitter_cfg.c **** 	CY_SET_XTND_REG32((void CYFAR *)CYREG_CTBM1_DFT_CTRL, 0x00000003u);
 449              		.loc 1 284 0
 450 015e 354A     		ldr	r2, .L15+184
 451              	.LBE42:
 452              	.LBE41:
 453              	.LBB44:
 454              	.LBB34:
 257:Generated_Source\PSoC4/cyfitter_cfg.c **** 	/* Set Flash Cycles based on newly configured 24.00MHz HFCLK. */
 455              		.loc 1 257 0
 456 0160 1F60     		str	r7, [r3]
 259:Generated_Source\PSoC4/cyfitter_cfg.c **** }
 457              		.loc 1 259 0
 458 0162 1123     		movs	r3, #17
 459 0164 2360     		str	r3, [r4]
 460              	.LBE34:
 461              	.LBE44:
 462              	.LBB45:
 463              	.LBB43:
 284:Generated_Source\PSoC4/cyfitter_cfg.c **** 	CY_SET_XTND_REG32((void CYFAR *)CYREG_CTBM1_DFT_CTRL, 0x00000003u);
 464              		.loc 1 284 0
 465 0166 0E3B     		subs	r3, r3, #14
 466 0168 1360     		str	r3, [r2]
 285:Generated_Source\PSoC4/cyfitter_cfg.c **** 	CY_SET_XTND_REG32((void CYFAR *)CYREG_PASS_DSAB_DSAB_CTRL, 0x00000000u);
 467              		.loc 1 285 0
 468 016a 334A     		ldr	r2, .L15+188
 287:Generated_Source\PSoC4/cyfitter_cfg.c **** }
 469              		.loc 1 287 0
 470 016c 0120     		movs	r0, #1
 285:Generated_Source\PSoC4/cyfitter_cfg.c **** 	CY_SET_XTND_REG32((void CYFAR *)CYREG_PASS_DSAB_DSAB_CTRL, 0x00000000u);
 471              		.loc 1 285 0
 472 016e 1360     		str	r3, [r2]
 286:Generated_Source\PSoC4/cyfitter_cfg.c **** 	SetAnalogRoutingPumps(1);
 473              		.loc 1 286 0
 474 0170 324B     		ldr	r3, .L15+192
 475 0172 1F60     		str	r7, [r3]
 287:Generated_Source\PSoC4/cyfitter_cfg.c **** }
 476              		.loc 1 287 0
 477 0174 FFF7FEFF 		bl	SetAnalogRoutingPumps
 478              	.LVL22:
 479              	.LBE43:
 480              	.LBE45:
 481              		.loc 1 450 0
 482 0178 F7BD     		pop	{r0, r1, r2, r4, r5, r6, r7, pc}
ARM GAS  C:\Users\zack.li\AppData\Local\Temp\ccqQ36cF.s 			page 19


 483              	.L16:
 484 017a C046     		.align	2
 485              	.L15:
 486 017c 00300F40 		.word	1074737152
 487 0180 00400F40 		.word	1074741248
 488 0184 00000000 		.word	.LANCHOR0
 489 0188 00030240 		.word	1073873664
 490 018c 00040240 		.word	1073873920
 491 0190 00070240 		.word	1073874688
 492 0194 00500F40 		.word	1074745344
 493 0198 30500F40 		.word	1074745392
 494 019c 01700F40 		.word	1074753537
 495 01a0 30001040 		.word	1074790448
 496 01a4 00700F40 		.word	1074753536
 497 01a8 00000440 		.word	1074003968
 498 01ac 08000440 		.word	1074003976
 499 01b0 00030440 		.word	1074004736
 500 01b4 08030440 		.word	1074004744
 501 01b8 18030440 		.word	1074004760
 502 01bc 00040440 		.word	1074004992
 503 01c0 08040440 		.word	1074005000
 504 01c4 18040440 		.word	1074005016
 505 01c8 18060440 		.word	1074005528
 506 01cc 00070440 		.word	1074005760
 507 01d0 08070440 		.word	1074005768
 508 01d4 18070440 		.word	1074005784
 509 01d8 06000080 		.word	-2147483642
 510 01dc 04010B40 		.word	1074462980
 511 01e0 00030140 		.word	1073808128
 512 01e4 00BF5D00 		.word	6143744
 513 01e8 10030140 		.word	1073808144
 514 01ec 00000140 		.word	1073807360
 515 01f0 44FF0080 		.word	-2147418300
 516 01f4 40FF0080 		.word	-2147418304
 517 01f8 04030140 		.word	1073808132
 518 01fc 41FF0080 		.word	-2147418303
 519 0200 0C030140 		.word	1073808140
 520 0204 43FF0080 		.word	-2147418301
 521 0208 08030140 		.word	1073808136
 522 020c 42FF0080 		.word	-2147418302
 523 0210 00000000 		.word	CySysWdtIsr
 524 0214 08010B40 		.word	1074462984
 525 0218 00010B40 		.word	1074462976
 526 021c 2C010140 		.word	1073807660
 527 0220 1C010140 		.word	1073807644
 528 0224 18010140 		.word	1073807640
 529 0228 14010140 		.word	1073807636
 530 022c 08010140 		.word	1073807624
 531 0230 0C020B40 		.word	1074463244
 532 0234 30003040 		.word	1076887600
 533 0238 30003140 		.word	1076953136
 534 023c 000E3F40 		.word	1077874176
 535              		.cfi_endproc
 536              	.LFE8:
 537              		.size	cyfitter_cfg, .-cyfitter_cfg
 538              		.section	.rodata
 539              		.align	2
ARM GAS  C:\Users\zack.li\AppData\Local\Temp\ccqQ36cF.s 			page 20


 540              		.set	.LANCHOR0,. + 0
 541              		.type	cy_cfg_addr_table.4911, %object
 542              		.size	cy_cfg_addr_table.4911, 20
 543              	cy_cfg_addr_table.4911:
 544 0000 04300F40 		.word	1074737156
 545 0004 01310F40 		.word	1074737409
 546 0008 01330F40 		.word	1074737921
 547 000c 03420F40 		.word	1074741763
 548 0010 02430F40 		.word	1074742018
 549              		.type	cy_cfg_data_table.4912, %object
 550              		.size	cy_cfg_data_table.4912, 22
 551              	cy_cfg_data_table.4912:
 552 0014 38       		.byte	56
 553 0015 80       		.byte	-128
 554 0016 3E       		.byte	62
 555 0017 40       		.byte	64
 556 0018 58       		.byte	88
 557 0019 04       		.byte	4
 558 001a 5F       		.byte	95
 559 001b 01       		.byte	1
 560 001c 18       		.byte	24
 561 001d 01       		.byte	1
 562 001e B4       		.byte	-76
 563 001f 01       		.byte	1
 564 0020 6C       		.byte	108
 565 0021 40       		.byte	64
 566 0022 70       		.byte	112
 567 0023 08       		.byte	8
 568 0024 DC       		.byte	-36
 569 0025 03       		.byte	3
 570 0026 B4       		.byte	-76
 571 0027 48       		.byte	72
 572 0028 EC       		.byte	-20
 573 0029 08       		.byte	8
 574              		.text
 575              	.Letext0:
 576              		.file 2 "c:\\program files (x86)\\cypress\\psoc creator\\4.2\\psoc creator\\import\\gnu\\arm\\5.4.
 577              		.file 3 "Generated_Source\\PSoC4\\cytypes.h"
 578              		.file 4 "Generated_Source\\PSoC4\\CyLib.h"