ARM GAS  C:\Users\zack.li\AppData\Local\Temp\cciU6y62.s 			page 1


   1              		.syntax unified
   2              		.cpu cortex-m0
   3              		.fpu softvfp
   4              		.eabi_attribute 20, 1
   5              		.eabi_attribute 21, 1
   6              		.eabi_attribute 23, 3
   7              		.eabi_attribute 24, 1
   8              		.eabi_attribute 25, 1
   9              		.eabi_attribute 26, 1
  10              		.eabi_attribute 30, 4
  11              		.eabi_attribute 34, 0
  12              		.eabi_attribute 18, 4
  13              		.thumb
  14              		.syntax unified
  15              		.file	"main.c"
  16              		.text
  17              	.Ltext0:
  18              		.cfi_sections	.debug_frame
  19              		.section	.text.TC_InterruptHandler,"ax",%progbits
  20              		.align	1
  21              		.global	TC_InterruptHandler
  22              		.code	16
  23              		.thumb_func
  24              		.type	TC_InterruptHandler, %function
  25              	TC_InterruptHandler:
  26              	.LFB38:
  27              		.file 1 "main.c"
   1:main.c        **** /* ========================================
   2:main.c        ****  *
   3:main.c        ****  * Copyright YOUR COMPANY, THE YEAR
   4:main.c        ****  * All Rights Reserved
   5:main.c        ****  * UNPUBLISHED, LICENSED SOFTWARE.
   6:main.c        ****  *
   7:main.c        ****  * CONFIDENTIAL AND PROPRIETARY INFORMATION
   8:main.c        ****  * WHICH IS THE PROPERTY OF your company.
   9:main.c        ****  *
  10:main.c        ****  * ========================================
  11:main.c        **** */
  12:main.c        **** #include "project.h"
  13:main.c        **** #include "string.h"
  14:main.c        **** #include "stdio.h"
  15:main.c        **** 
  16:main.c        **** 
  17:main.c        **** 
  18:main.c        **** /* button event */
  19:main.c        **** #define NOT_TOUCH		 0
  20:main.c        **** #define VOL_UP        	 1
  21:main.c        **** #define VOL_DOWN         2
  22:main.c        **** #define FORMATION     	 4
  23:main.c        **** #define PLAY_PAUSE    	 8
  24:main.c        **** 
  25:main.c        **** 
  26:main.c        **** #define SW_FRONT_PROXIMITY		 0x0b
  27:main.c        **** #define KEY_VOLUMEUP      	   	 115
  28:main.c        **** #define KEY_VOLUMEDOWN        	 114
  29:main.c        **** #define KEY_PLAYPAUSE            164
  30:main.c        **** #define KEY_HOME     	         102
ARM GAS  C:\Users\zack.li\AppData\Local\Temp\cciU6y62.s 			page 2


  31:main.c        **** 
  32:main.c        **** 
  33:main.c        **** /* rel */
  34:main.c        **** /*
  35:main.c        **** #define SW_FRONT_PROXIMITY		 0x0b
  36:main.c        **** #define KEY_VOLUMEUP      	   	 1
  37:main.c        **** #define KEY_VOLUMEDOWN        	 2
  38:main.c        **** #define KEY_PLAYPAUSE            3
  39:main.c        **** #define KEY_HOME     	         4
  40:main.c        **** */
  41:main.c        **** 
  42:main.c        **** 
  43:main.c        **** #define SCAN_TIME_MS  10
  44:main.c        **** 
  45:main.c        **** #define RUN_UART_TUNER  1
  46:main.c        **** 
  47:main.c        **** #if RUN_UART_TUNER
  48:main.c        ****     /* Packet header and tail information */
  49:main.c        ****     static const uint8 header[]  = {0x0Du, 0x0Au};
  50:main.c        ****     static const uint8 tail[]    = {0x00u, 0xFFu, 0xFFu};
  51:main.c        **** #endif
  52:main.c        **** 
  53:main.c        **** // I2C COMMAND
  54:main.c        **** #define REG15_UPDATE_MCU_CMD  0x36
  55:main.c        **** 
  56:main.c        **** typedef union
  57:main.c        **** {
  58:main.c        ****     struct{
  59:main.c        ****         uint8_t reserve_reg[15]; // 0~14
  60:main.c        ****         uint8_t updat_posc;      // register 15
  61:main.c        ****     }reg;
  62:main.c        ****     uint8_t reg_array[16];
  63:main.c        **** } RW_I2C_REG;
  64:main.c        **** 
  65:main.c        **** // I2C registers
  66:main.c        **** // R : Read only, R/W : Read and Write
  67:main.c        **** typedef struct 
  68:main.c        **** {                               
  69:main.c        ****                              // reg number    | access right |      comment
  70:main.c        ****     RW_I2C_REG  rw;          //    0 ~ 15     |    R/W       |   reserved R/W
  71:main.c        ****     uint8  button_stat;      //    16         |    R         |   status of button 0 ~ 7 
  72:main.c        ****     uint8  button_value;
  73:main.c        ****   
  74:main.c        **** }__attribute__ ((packed)) I2C_REG;
  75:main.c        **** 
  76:main.c        **** /* EZI2C buffer */
  77:main.c        **** I2C_REG i2c;
  78:main.c        **** #define EZI2C_RW_SIZE     (sizeof(i2c.rw))
  79:main.c        **** #define EZI2C_SIZE        (sizeof(i2c))
  80:main.c        **** 
  81:main.c        **** uint8 capsense_status = 0;
  82:main.c        **** uint8 send_status = 0;
  83:main.c        **** uint8 time_counts = 0;
  84:main.c        **** uint8 last_capsense = 0;
  85:main.c        **** uint temp = 0;
  86:main.c        **** 
  87:main.c        **** uint8 key_buf[CapSense_TOTAL_WIDGETS] = {KEY_VOLUMEUP, KEY_VOLUMEDOWN, KEY_PLAYPAUSE, KEY_HOME};
ARM GAS  C:\Users\zack.li\AppData\Local\Temp\cciU6y62.s 			page 3


  88:main.c        **** 
  89:main.c        **** 
  90:main.c        **** #define UART_DEBUG 0
  91:main.c        **** 
  92:main.c        **** #if UART_DEBUG
  93:main.c        **** char uartString[1024u] = {' '};
  94:main.c        **** #endif
  95:main.c        **** 
  96:main.c        **** static void Init_I2C_Communication()
  97:main.c        **** {
  98:main.c        ****     // Zero ezi2cBuffer buffer
  99:main.c        ****     memset((void*)&i2c,0x00,EZI2C_SIZE);
 100:main.c        ****     EZI2C_Start(); // Start I2C (Address : 0x08 , Data Rate : 100k ) 
 101:main.c        ****     /* EZI2C buffer parameters: 
 102:main.c        ****     *  EZI2C_SIZE - is thesize of the memory exposed to the I2C interface.
 103:main.c        ****     *  EZI2C_RW_SIZE - sets the boundary between the read/write and read only areas.
 104:main.c        ****     *                  The read/write area is first, followed by the read only area.
 105:main.c        ****     *  (void *)ezi2cBuffer - is the pointer to the memory exposed to the I2C interface. */
 106:main.c        ****     EZI2C_EzI2CSetBuffer1(EZI2C_SIZE, EZI2C_RW_SIZE , (void *)&i2c);
 107:main.c        **** }
 108:main.c        **** 
 109:main.c        **** void key_event(void){
 110:main.c        ****     
 111:main.c        ****     capsense_status = (uint8_t)  CapSense_IsAnyWidgetActive();
 112:main.c        ****     if(last_capsense != capsense_status){    
 113:main.c        ****         switch(capsense_status ^ last_capsense){
 114:main.c        ****             case VOL_UP:
 115:main.c        ****                 i2c.button_stat = KEY_VOLUMEUP;
 116:main.c        ****                 i2c.button_value = CapSense_dsRam.snsStatus[0];         
 117:main.c        ****                 time_counts = 0;
 118:main.c        ****                 CAP_INT_Write(!CAP_INT_Read());
 119:main.c        ****                 break;
 120:main.c        ****             case VOL_DOWN:
 121:main.c        ****                 i2c.button_stat = KEY_VOLUMEDOWN;
 122:main.c        ****                 i2c.button_value = CapSense_dsRam.snsStatus[1];
 123:main.c        ****                 time_counts = 0; 
 124:main.c        ****                 CAP_INT_Write(!CAP_INT_Read());
 125:main.c        ****                 break;
 126:main.c        ****             case FORMATION:
 127:main.c        ****                 i2c.button_stat = KEY_HOME;
 128:main.c        ****                 time_counts = 0;
 129:main.c        ****                 i2c.button_value = CapSense_dsRam.snsStatus[2];
 130:main.c        ****                 CAP_INT_Write(!CAP_INT_Read());
 131:main.c        ****                 break;
 132:main.c        ****             case PLAY_PAUSE:
 133:main.c        ****                 i2c.button_stat = KEY_PLAYPAUSE;
 134:main.c        ****                 i2c.button_value = CapSense_dsRam.snsStatus[3];
 135:main.c        ****                 time_counts = 0;
 136:main.c        ****                 CAP_INT_Write(!CAP_INT_Read());
 137:main.c        ****                 break;
 138:main.c        ****             default:
 139:main.c        ****                 temp = capsense_status;
 140:main.c        ****                 for(int i = 0; i < 4; i++){
 141:main.c        ****                     if(temp & 0x01){
 142:main.c        ****                         i2c.button_stat = key_buf[i];
 143:main.c        ****                         i2c.button_value = 0;
 144:main.c        ****                         CAP_INT_Write(!CAP_INT_Read());
ARM GAS  C:\Users\zack.li\AppData\Local\Temp\cciU6y62.s 			page 4


 145:main.c        **** #if UART_DEBUG                          
 146:main.c        ****                         sprintf(uartString,".---- %d %d \r\n\n",
 147:main.c        ****                         i2c.button_stat, i2c.button_value);
 148:main.c        ****                         UART_UartPutString(uartString);
 149:main.c        **** #endif                         
 150:main.c        ****                     }
 151:main.c        ****                     temp = temp >> 1;
 152:main.c        ****                 }
 153:main.c        ****                 break;
 154:main.c        ****         }
 155:main.c        **** #if UART_DEBUG           
 156:main.c        ****             sprintf(uartString,".%d %d %d\r\n\n",
 157:main.c        ****                         capsense_status ^ last_capsense, i2c.button_stat, i2c.button_value);
 158:main.c        ****             UART_UartPutString(uartString);
 159:main.c        **** #endif     
 160:main.c        ****     }
 161:main.c        ****     last_capsense = capsense_status;
 162:main.c        **** }
 163:main.c        **** 
 164:main.c        **** 
 165:main.c        **** void ProcessI2CCommand()
 166:main.c        **** {
 167:main.c        ****     if (REG15_UPDATE_MCU_CMD == i2c.rw.reg.updat_posc)
 168:main.c        ****     {
 169:main.c        ****         /*
 170:main.c        ****         Schedules the Bootloader/Launcher to be launched and then performs a software reset to 
 171:main.c        ****         launch it.
 172:main.c        ****         Returns:
 173:main.c        ****         This method will never return. It will load a new application and reset the device.
 174:main.c        ****         */
 175:main.c        ****         // Bootloadable_Load();
 176:main.c        ****     }
 177:main.c        **** }
 178:main.c        **** 
 179:main.c        **** /***************************************************************************//**
 180:main.c        **** * Function Name: ISR_Timer
 181:main.c        **** ********************************************************************************
 182:main.c        **** *
 183:main.c        **** * Summary:
 184:main.c        **** * This function handles the Interrupt Service Routine for TCPWM Timer.
 185:main.c        **** * This ISR
 186:main.c        **** *   1. Clears the terminal count interrupt on Timer.
 187:main.c        **** *   2. Changes the LED state. Toggling ON and OFF.
 188:main.c        **** *
 189:main.c        **** * Parameters:
 190:main.c        **** *  None
 191:main.c        **** *
 192:main.c        **** * Return:
 193:main.c        **** *  None
 194:main.c        **** *
 195:main.c        **** *******************************************************************************/
 196:main.c        **** CY_ISR(TC_InterruptHandler)
 197:main.c        **** {
  28              		.loc 1 197 0
  29              		.cfi_startproc
  30              		@ args = 0, pretend = 0, frame = 0
  31              		@ frame_needed = 0, uses_anonymous_args = 0
ARM GAS  C:\Users\zack.li\AppData\Local\Temp\cciU6y62.s 			page 5


  32 0000 10B5     		push	{r4, lr}
  33              		.cfi_def_cfa_offset 8
  34              		.cfi_offset 4, -8
  35              		.cfi_offset 14, -4
 198:main.c        ****     /* Clears the Timer terminal count interrupt */
 199:main.c        ****     Timer_ClearInterrupt(Timer_INTR_MASK_TC);
  36              		.loc 1 199 0
  37 0002 0120     		movs	r0, #1
  38 0004 FFF7FEFF 		bl	Timer_ClearInterrupt
  39              	.LVL0:
 200:main.c        ****     
 201:main.c        ****     /* Toggles the LED state */
 202:main.c        ****     time_counts ++;
  40              		.loc 1 202 0
  41 0008 024A     		ldr	r2, .L2
 203:main.c        **** }
  42              		.loc 1 203 0
  43              		@ sp needed
 202:main.c        **** }
  44              		.loc 1 202 0
  45 000a 1378     		ldrb	r3, [r2]
  46 000c 0133     		adds	r3, r3, #1
  47 000e 1370     		strb	r3, [r2]
  48              		.loc 1 203 0
  49 0010 10BD     		pop	{r4, pc}
  50              	.L3:
  51 0012 C046     		.align	2
  52              	.L2:
  53 0014 00000000 		.word	.LANCHOR0
  54              		.cfi_endproc
  55              	.LFE38:
  56              		.size	TC_InterruptHandler, .-TC_InterruptHandler
  57              		.section	.text.key_event,"ax",%progbits
  58              		.align	1
  59              		.global	key_event
  60              		.code	16
  61              		.thumb_func
  62              		.type	key_event, %function
  63              	key_event:
  64              	.LFB36:
 109:main.c        ****     
  65              		.loc 1 109 0
  66              		.cfi_startproc
  67              		@ args = 0, pretend = 0, frame = 0
  68              		@ frame_needed = 0, uses_anonymous_args = 0
  69 0000 70B5     		push	{r4, r5, r6, lr}
  70              		.cfi_def_cfa_offset 16
  71              		.cfi_offset 4, -16
  72              		.cfi_offset 5, -12
  73              		.cfi_offset 6, -8
  74              		.cfi_offset 14, -4
 111:main.c        ****     if(last_capsense != capsense_status){    
  75              		.loc 1 111 0
  76 0002 FFF7FEFF 		bl	CapSense_IsAnyWidgetActive
  77              	.LVL1:
  78 0006 2A4C     		ldr	r4, .L23
  79 0008 0200     		movs	r2, r0
ARM GAS  C:\Users\zack.li\AppData\Local\Temp\cciU6y62.s 			page 6


 112:main.c        ****         switch(capsense_status ^ last_capsense){
  80              		.loc 1 112 0
  81 000a A378     		ldrb	r3, [r4, #2]
 111:main.c        ****     if(last_capsense != capsense_status){    
  82              		.loc 1 111 0
  83 000c C0B2     		uxtb	r0, r0
  84 000e 6070     		strb	r0, [r4, #1]
 112:main.c        ****         switch(capsense_status ^ last_capsense){
  85              		.loc 1 112 0
  86 0010 9842     		cmp	r0, r3
  87 0012 4AD0     		beq	.L6
 113:main.c        ****             case VOL_UP:
  88              		.loc 1 113 0
  89 0014 5840     		eors	r0, r3
  90 0016 0138     		subs	r0, r0, #1
  91 0018 0728     		cmp	r0, #7
  92 001a 2BD8     		bhi	.L7
  93 001c FFF7FEFF 		bl	__gnu_thumb1_case_uqi
  94              	.L9:
  95 0020 04       		.byte	(.L8-.L9)/2
  96 0021 0A       		.byte	(.L10-.L9)/2
  97 0022 2A       		.byte	(.L7-.L9)/2
  98 0023 1B       		.byte	(.L11-.L9)/2
  99 0024 2A       		.byte	(.L7-.L9)/2
 100 0025 2A       		.byte	(.L7-.L9)/2
 101 0026 2A       		.byte	(.L7-.L9)/2
 102 0027 24       		.byte	(.L12-.L9)/2
 103              		.p2align 1
 104              	.L8:
 115:main.c        ****                 i2c.button_value = CapSense_dsRam.snsStatus[0];         
 105              		.loc 1 115 0
 106 0028 7322     		movs	r2, #115
 107 002a 224B     		ldr	r3, .L23+4
 108 002c 1A74     		strb	r2, [r3, #16]
 116:main.c        ****                 time_counts = 0;
 109              		.loc 1 116 0
 110 002e 224A     		ldr	r2, .L23+8
 111 0030 127E     		ldrb	r2, [r2, #24]
 112 0032 04E0     		b	.L20
 113              	.L10:
 121:main.c        ****                 i2c.button_value = CapSense_dsRam.snsStatus[1];
 114              		.loc 1 121 0
 115 0034 7222     		movs	r2, #114
 116 0036 1F4B     		ldr	r3, .L23+4
 117 0038 1A74     		strb	r2, [r3, #16]
 122:main.c        ****                 time_counts = 0; 
 118              		.loc 1 122 0
 119 003a 1F4A     		ldr	r2, .L23+8
 120 003c 527E     		ldrb	r2, [r2, #25]
 121              	.L20:
 122 003e 5A74     		strb	r2, [r3, #17]
 123:main.c        ****                 CAP_INT_Write(!CAP_INT_Read());
 123              		.loc 1 123 0
 124 0040 0023     		movs	r3, #0
 125 0042 2370     		strb	r3, [r4]
 126              	.L21:
 124:main.c        ****                 break;
ARM GAS  C:\Users\zack.li\AppData\Local\Temp\cciU6y62.s 			page 7


 127              		.loc 1 124 0
 128 0044 FFF7FEFF 		bl	CAP_INT_Read
 129              	.LVL2:
 130 0048 0300     		movs	r3, r0
 131 004a 5842     		rsbs	r0, r3, #0
 132 004c 5841     		adcs	r0, r0, r3
 133 004e C0B2     		uxtb	r0, r0
 134 0050 FFF7FEFF 		bl	CAP_INT_Write
 135              	.LVL3:
 125:main.c        ****             case FORMATION:
 136              		.loc 1 125 0
 137 0054 29E0     		b	.L6
 138              	.L11:
 127:main.c        ****                 time_counts = 0;
 139              		.loc 1 127 0
 140 0056 6622     		movs	r2, #102
 141 0058 164B     		ldr	r3, .L23+4
 142 005a 1A74     		strb	r2, [r3, #16]
 128:main.c        ****                 i2c.button_value = CapSense_dsRam.snsStatus[2];
 143              		.loc 1 128 0
 144 005c 0022     		movs	r2, #0
 145 005e 2270     		strb	r2, [r4]
 129:main.c        ****                 CAP_INT_Write(!CAP_INT_Read());
 146              		.loc 1 129 0
 147 0060 154A     		ldr	r2, .L23+8
 148 0062 927E     		ldrb	r2, [r2, #26]
 149 0064 5A74     		strb	r2, [r3, #17]
 150 0066 EDE7     		b	.L21
 151              	.L12:
 133:main.c        ****                 i2c.button_value = CapSense_dsRam.snsStatus[3];
 152              		.loc 1 133 0
 153 0068 A422     		movs	r2, #164
 154 006a 124B     		ldr	r3, .L23+4
 155 006c 1A74     		strb	r2, [r3, #16]
 134:main.c        ****                 time_counts = 0;
 156              		.loc 1 134 0
 157 006e 124A     		ldr	r2, .L23+8
 158 0070 D27E     		ldrb	r2, [r2, #27]
 159 0072 E4E7     		b	.L20
 160              	.L7:
 161              	.LBB4:
 140:main.c        ****                     if(temp & 0x01){
 162              		.loc 1 140 0
 163 0074 0025     		movs	r5, #0
 141:main.c        ****                         i2c.button_stat = key_buf[i];
 164              		.loc 1 141 0
 165 0076 0126     		movs	r6, #1
 166              	.LBE4:
 139:main.c        ****                 for(int i = 0; i < 4; i++){
 167              		.loc 1 139 0
 168 0078 D2B2     		uxtb	r2, r2
 169 007a 6260     		str	r2, [r4, #4]
 170              	.LVL4:
 171              	.L14:
 172              	.LBB5:
 141:main.c        ****                         i2c.button_stat = key_buf[i];
 173              		.loc 1 141 0
ARM GAS  C:\Users\zack.li\AppData\Local\Temp\cciU6y62.s 			page 8


 174 007c 6368     		ldr	r3, [r4, #4]
 175 007e 3342     		tst	r3, r6
 176 0080 0DD0     		beq	.L13
 142:main.c        ****                         i2c.button_value = 0;
 177              		.loc 1 142 0
 178 0082 0E4A     		ldr	r2, .L23+12
 179 0084 0B4B     		ldr	r3, .L23+4
 180 0086 AA5C     		ldrb	r2, [r5, r2]
 181 0088 1A74     		strb	r2, [r3, #16]
 143:main.c        ****                         CAP_INT_Write(!CAP_INT_Read());
 182              		.loc 1 143 0
 183 008a 0022     		movs	r2, #0
 184 008c 5A74     		strb	r2, [r3, #17]
 144:main.c        **** #if UART_DEBUG                          
 185              		.loc 1 144 0
 186 008e FFF7FEFF 		bl	CAP_INT_Read
 187              	.LVL5:
 188 0092 0300     		movs	r3, r0
 189 0094 5842     		rsbs	r0, r3, #0
 190 0096 5841     		adcs	r0, r0, r3
 191 0098 C0B2     		uxtb	r0, r0
 192 009a FFF7FEFF 		bl	CAP_INT_Write
 193              	.LVL6:
 194              	.L13:
 151:main.c        ****                 }
 195              		.loc 1 151 0 discriminator 2
 196 009e 6368     		ldr	r3, [r4, #4]
 140:main.c        ****                     if(temp & 0x01){
 197              		.loc 1 140 0 discriminator 2
 198 00a0 0135     		adds	r5, r5, #1
 199              	.LVL7:
 151:main.c        ****                 }
 200              		.loc 1 151 0 discriminator 2
 201 00a2 5B08     		lsrs	r3, r3, #1
 202 00a4 6360     		str	r3, [r4, #4]
 140:main.c        ****                     if(temp & 0x01){
 203              		.loc 1 140 0 discriminator 2
 204 00a6 042D     		cmp	r5, #4
 205 00a8 E8D1     		bne	.L14
 206              	.LVL8:
 207              	.L6:
 208              	.LBE5:
 161:main.c        **** }
 209              		.loc 1 161 0
 210 00aa 6378     		ldrb	r3, [r4, #1]
 162:main.c        **** 
 211              		.loc 1 162 0
 212              		@ sp needed
 161:main.c        **** }
 213              		.loc 1 161 0
 214 00ac A370     		strb	r3, [r4, #2]
 162:main.c        **** 
 215              		.loc 1 162 0
 216 00ae 70BD     		pop	{r4, r5, r6, pc}
 217              	.L24:
 218              		.align	2
 219              	.L23:
ARM GAS  C:\Users\zack.li\AppData\Local\Temp\cciU6y62.s 			page 9


 220 00b0 00000000 		.word	.LANCHOR0
 221 00b4 00000000 		.word	i2c
 222 00b8 00000000 		.word	CapSense_dsRam
 223 00bc 00000000 		.word	.LANCHOR1
 224              		.cfi_endproc
 225              	.LFE36:
 226              		.size	key_event, .-key_event
 227              		.section	.text.ProcessI2CCommand,"ax",%progbits
 228              		.align	1
 229              		.global	ProcessI2CCommand
 230              		.code	16
 231              		.thumb_func
 232              		.type	ProcessI2CCommand, %function
 233              	ProcessI2CCommand:
 234              	.LFB37:
 166:main.c        ****     if (REG15_UPDATE_MCU_CMD == i2c.rw.reg.updat_posc)
 235              		.loc 1 166 0
 236              		.cfi_startproc
 237              		@ args = 0, pretend = 0, frame = 0
 238              		@ frame_needed = 0, uses_anonymous_args = 0
 239              		@ link register save eliminated.
 177:main.c        **** 
 240              		.loc 1 177 0
 241              		@ sp needed
 242 0000 7047     		bx	lr
 243              		.cfi_endproc
 244              	.LFE37:
 245              		.size	ProcessI2CCommand, .-ProcessI2CCommand
 246              		.section	.text.startup.main,"ax",%progbits
 247              		.align	1
 248              		.global	main
 249              		.code	16
 250              		.thumb_func
 251              		.type	main, %function
 252              	main:
 253              	.LFB39:
 204:main.c        **** 
 205:main.c        **** 
 206:main.c        **** int main(void)
 207:main.c        **** {
 254              		.loc 1 207 0
 255              		.cfi_startproc
 256              		@ Volatile: function does not return.
 257              		@ args = 0, pretend = 0, frame = 0
 258              		@ frame_needed = 0, uses_anonymous_args = 0
 259 0000 10B5     		push	{r4, lr}
 260              		.cfi_def_cfa_offset 8
 261              		.cfi_offset 4, -8
 262              		.cfi_offset 14, -4
 208:main.c        ****     CyGlobalIntEnable; /* Enable global interrupts. */
 263              		.loc 1 208 0
 264              		.syntax divided
 265              	@ 208 "main.c" 1
 266 0002 62B6     		CPSIE   i
 267              	@ 0 "" 2
 209:main.c        ****     
 210:main.c        ****     /* Starts the timer */
ARM GAS  C:\Users\zack.li\AppData\Local\Temp\cciU6y62.s 			page 10


 211:main.c        ****     Timer_Start();
 268              		.loc 1 211 0
 269              		.thumb
 270              		.syntax unified
 271 0004 FFF7FEFF 		bl	Timer_Start
 272              	.LVL9:
 212:main.c        ****     
 213:main.c        ****     UART_Start();
 273              		.loc 1 213 0
 274 0008 FFF7FEFF 		bl	UART_Start
 275              	.LVL10:
 276              	.LBB8:
 277              	.LBB9:
  99:main.c        ****     EZI2C_Start(); // Start I2C (Address : 0x08 , Data Rate : 100k ) 
 278              		.loc 1 99 0
 279 000c 1A4C     		ldr	r4, .L29
 280 000e 1222     		movs	r2, #18
 281 0010 0021     		movs	r1, #0
 282 0012 2000     		movs	r0, r4
 283 0014 FFF7FEFF 		bl	memset
 284              	.LVL11:
 100:main.c        ****     /* EZI2C buffer parameters: 
 285              		.loc 1 100 0
 286 0018 FFF7FEFF 		bl	EZI2C_Start
 287              	.LVL12:
 106:main.c        **** }
 288              		.loc 1 106 0
 289 001c 2200     		movs	r2, r4
 290 001e 1021     		movs	r1, #16
 291 0020 1220     		movs	r0, #18
 292 0022 FFF7FEFF 		bl	EZI2C_EzI2CSetBuffer1
 293              	.LVL13:
 294              	.LBE9:
 295              	.LBE8:
 214:main.c        ****     Init_I2C_Communication();
 215:main.c        ****     
 216:main.c        ****     /* Start CapSense Component */
 217:main.c        ****     CapSense_Start();
 296              		.loc 1 217 0
 297 0026 FFF7FEFF 		bl	CapSense_Start
 298              	.LVL14:
 218:main.c        **** #if RUN_UART_TUNER    
 219:main.c        ****     CapSense_TuInitialize();
 299              		.loc 1 219 0
 300 002a FFF7FEFF 		bl	CapSense_TuInitialize
 301              	.LVL15:
 220:main.c        **** #endif    
 221:main.c        **** 
 222:main.c        ****     CapSense_InitializeAllBaselines();
 302              		.loc 1 222 0
 303 002e FFF7FEFF 		bl	CapSense_InitializeAllBaselines
 304              	.LVL16:
 223:main.c        ****     /* Start initial scan */
 224:main.c        ****     CapSense_ScanAllWidgets();
 305              		.loc 1 224 0
 306 0032 FFF7FEFF 		bl	CapSense_ScanAllWidgets
 307              	.LVL17:
ARM GAS  C:\Users\zack.li\AppData\Local\Temp\cciU6y62.s 			page 11


 225:main.c        ****     
 226:main.c        ****     /* Enable interrupt component and set up handler */
 227:main.c        ****     TC_Interrupt_StartEx(TC_InterruptHandler);
 308              		.loc 1 227 0
 309 0036 1148     		ldr	r0, .L29+4
 310 0038 FFF7FEFF 		bl	TC_Interrupt_StartEx
 311              	.LVL18:
 312              	.L28:
 228:main.c        ****     
 229:main.c        ****     for(;;)
 230:main.c        ****     {
 231:main.c        **** 
 232:main.c        ****         /* Do this only when a scan is done */
 233:main.c        ****         if(CapSense_NOT_BUSY == CapSense_IsBusy())
 313              		.loc 1 233 0
 314 003c FFF7FEFF 		bl	CapSense_IsBusy
 315              	.LVL19:
 316 0040 0028     		cmp	r0, #0
 317 0042 14D1     		bne	.L27
 234:main.c        ****         {
 235:main.c        ****             /* Process all widgets */
 236:main.c        ****             CapSense_ProcessAllWidgets();
 318              		.loc 1 236 0
 319 0044 FFF7FEFF 		bl	CapSense_ProcessAllWidgets
 320              	.LVL20:
 237:main.c        ****             
 238:main.c        **** #if  RUN_UART_TUNER           
 239:main.c        ****             /* To sync with Tuner application */
 240:main.c        ****             CapSense_RunTuner();
 321              		.loc 1 240 0
 322 0048 FFF7FEFF 		bl	CapSense_RunTuner
 323              	.LVL21:
 241:main.c        ****             
 242:main.c        ****              /* Send packet header */
 243:main.c        ****             UART_SpiUartPutArray((uint8 *)(&header), sizeof(header));
 324              		.loc 1 243 0
 325 004c 0C4C     		ldr	r4, .L29+8
 326 004e 0221     		movs	r1, #2
 327 0050 2000     		movs	r0, r4
 328 0052 FFF7FEFF 		bl	UART_SpiUartPutArray
 329              	.LVL22:
 244:main.c        ****             /* Send packet with CapSense data */
 245:main.c        ****             UART_SpiUartPutArray((uint8 *)(&CapSense_dsRam), sizeof(CapSense_dsRam));
 330              		.loc 1 245 0
 331 0056 9021     		movs	r1, #144
 332 0058 0A48     		ldr	r0, .L29+12
 333 005a FFF7FEFF 		bl	UART_SpiUartPutArray
 334              	.LVL23:
 246:main.c        ****             /* Send packet tail */
 247:main.c        ****             UART_SpiUartPutArray((uint8 *)(&tail), sizeof(tail));
 335              		.loc 1 247 0
 336 005e A01C     		adds	r0, r4, #2
 337 0060 0321     		movs	r1, #3
 338 0062 FFF7FEFF 		bl	UART_SpiUartPutArray
 339              	.LVL24:
 248:main.c        **** #endif            
 249:main.c        ****             /* process capsnese event and host interrupt */
ARM GAS  C:\Users\zack.li\AppData\Local\Temp\cciU6y62.s 			page 12


 250:main.c        ****             //ProcessCapsenseEvent();
 251:main.c        ****             
 252:main.c        ****             //ProcessCapsenseEvent_1_1();            
 253:main.c        ****             
 254:main.c        ****             key_event();
 340              		.loc 1 254 0
 341 0066 FFF7FEFF 		bl	key_event
 342              	.LVL25:
 255:main.c        ****             
 256:main.c        ****             /* Start next scan */
 257:main.c        ****             CapSense_ScanAllWidgets();
 343              		.loc 1 257 0
 344 006a FFF7FEFF 		bl	CapSense_ScanAllWidgets
 345              	.LVL26:
 346              	.L27:
 258:main.c        ****         }
 259:main.c        ****         ProcessI2CCommand();
 260:main.c        ****         
 261:main.c        ****         CyDelay(SCAN_TIME_MS);
 347              		.loc 1 261 0
 348 006e 0A20     		movs	r0, #10
 349 0070 FFF7FEFF 		bl	CyDelay
 350              	.LVL27:
 262:main.c        ****     }
 351              		.loc 1 262 0
 352 0074 E2E7     		b	.L28
 353              	.L30:
 354 0076 C046     		.align	2
 355              	.L29:
 356 0078 00000000 		.word	i2c
 357 007c 00000000 		.word	TC_InterruptHandler
 358 0080 00000000 		.word	.LANCHOR2
 359 0084 00000000 		.word	CapSense_dsRam
 360              		.cfi_endproc
 361              	.LFE39:
 362              		.size	main, .-main
 363              		.global	key_buf
 364              		.global	temp
 365              		.global	last_capsense
 366              		.global	time_counts
 367              		.global	send_status
 368              		.global	capsense_status
 369              		.comm	i2c,18,1
 370              		.section	.rodata
 371              		.set	.LANCHOR2,. + 0
 372              		.type	header, %object
 373              		.size	header, 2
 374              	header:
 375 0000 0D       		.byte	13
 376 0001 0A       		.byte	10
 377              		.type	tail, %object
 378              		.size	tail, 3
 379              	tail:
 380 0002 00       		.byte	0
 381 0003 FF       		.byte	-1
 382 0004 FF       		.byte	-1
 383              		.data
ARM GAS  C:\Users\zack.li\AppData\Local\Temp\cciU6y62.s 			page 13


 384              		.set	.LANCHOR1,. + 0
 385              		.type	key_buf, %object
 386              		.size	key_buf, 4
 387              	key_buf:
 388 0000 73       		.byte	115
 389 0001 72       		.byte	114
 390 0002 A4       		.byte	-92
 391 0003 66       		.byte	102
 392              		.bss
 393              		.align	2
 394              		.set	.LANCHOR0,. + 0
 395              		.type	time_counts, %object
 396              		.size	time_counts, 1
 397              	time_counts:
 398 0000 00       		.space	1
 399              		.type	capsense_status, %object
 400              		.size	capsense_status, 1
 401              	capsense_status:
 402 0001 00       		.space	1
 403              		.type	last_capsense, %object
 404              		.size	last_capsense, 1
 405              	last_capsense:
 406 0002 00       		.space	1
 407 0003 00       		.space	1
 408              		.type	temp, %object
 409              		.size	temp, 4
 410              	temp:
 411 0004 00000000 		.space	4
 412              		.type	send_status, %object
 413              		.size	send_status, 1
 414              	send_status:
 415 0008 00       		.space	1
 416              		.text
 417              	.Letext0:
 418              		.file 2 "c:\\program files (x86)\\cypress\\psoc creator\\4.2\\psoc creator\\import\\gnu\\arm\\5.4.
 419              		.file 3 "c:\\program files (x86)\\cypress\\psoc creator\\4.2\\psoc creator\\import\\gnu\\arm\\5.4.
 420              		.file 4 "Generated_Source\\PSoC4/cytypes.h"
 421              		.file 5 "Generated_Source\\PSoC4/CapSense_Configuration.h"
 422              		.file 6 "Generated_Source\\PSoC4/CapSense_Structure.h"
 423              		.file 7 "c:\\program files (x86)\\cypress\\psoc creator\\4.2\\psoc creator\\import\\gnu\\arm\\5.4.
 424              		.file 8 "Generated_Source\\PSoC4/Timer.h"
 425              		.file 9 "Generated_Source\\PSoC4/CAP_INT.h"
 426              		.file 10 "Generated_Source\\PSoC4/EZI2C.h"
 427              		.file 11 "Generated_Source\\PSoC4/EZI2C_EZI2C.h"
 428              		.file 12 "Generated_Source\\PSoC4/UART.h"
 429              		.file 13 "Generated_Source\\PSoC4/CapSense_Control.h"
 430              		.file 14 "Generated_Source\\PSoC4/CapSense_Tuner.h"
 431              		.file 15 "Generated_Source\\PSoC4/CapSense_Filter.h"
 432              		.file 16 "Generated_Source\\PSoC4/CapSense_Sensing.h"
 433              		.file 17 "Generated_Source\\PSoC4/TC_Interrupt.h"
 434              		.file 18 "Generated_Source\\PSoC4/UART_SPI_UART.h"
 435              		.file 19 "Generated_Source\\PSoC4/CyLib.h"